; ModuleID = '/home/brennan/Documents/pynq-copter/pynqcopter/ip/atoi/atoi/atoi/.autopilot/db/a.o.3.bc'
target datalayout = "e-p:64:64:64-i1:8:8-i8:8:8-i16:16:16-i32:32:32-i64:64:64-f32:32:32-f64:64:64-v64:64:64-v128:128:128-a0:0:64-s0:64:64-f80:128:128-n8:16:32:64-S128"
target triple = "x86_64-unknown-linux-gnu"

@llvm_global_ctors_1 = appending global [0 x void ()*] zeroinitializer ; [#uses=0 type=[0 x void ()*]*]
@llvm_global_ctors_0 = appending global [0 x i32] zeroinitializer ; [#uses=0 type=[0 x i32]*]
@atoi_str = internal unnamed_addr constant [5 x i8] c"atoi\00" ; [#uses=1 type=[5 x i8]*]
@RAM_1P_str = internal unnamed_addr constant [7 x i8] c"RAM_1P\00" ; [#uses=1 type=[7 x i8]*]
@p_str3 = internal unnamed_addr constant [1 x i8] zeroinitializer ; [#uses=7 type=[1 x i8]*]
@p_str2 = private unnamed_addr constant [8 x i8] c"ap_none\00", align 1 ; [#uses=1 type=[8 x i8]*]
@p_str1 = private unnamed_addr constant [1 x i8] zeroinitializer, align 1 ; [#uses=18 type=[1 x i8]*]
@p_str = private unnamed_addr constant [10 x i8] c"s_axilite\00", align 1 ; [#uses=2 type=[10 x i8]*]

; [#uses=3]
declare void @llvm.dbg.value(metadata, i64, metadata) nounwind readnone

; [#uses=0]
define void @atoi([6 x i1]* %in, i6* %out_V) {
  call void (...)* @_ssdm_op_SpecBitsMap([6 x i1]* %in), !map !29
  call void (...)* @_ssdm_op_SpecBitsMap(i6* %out_V), !map !35
  call void (...)* @_ssdm_op_SpecTopModule([5 x i8]* @atoi_str) nounwind
  call void @llvm.dbg.value(metadata !{[6 x i1]* %in}, i64 0, metadata !39), !dbg !414 ; [debug line = 42:16] [debug variable = in]
  call void @llvm.dbg.value(metadata !{i6* %out_V}, i64 0, metadata !415), !dbg !424 ; [debug line = 42:36] [debug variable = out.V]
  %empty = call i32 (...)* @_ssdm_op_SpecMemCore([6 x i1]* %in, [1 x i8]* @p_str3, [7 x i8]* @RAM_1P_str, [1 x i8]* @p_str3, i32 -1, [1 x i8]* @p_str3, [1 x i8]* @p_str3, [1 x i8]* @p_str3, [1 x i8]* @p_str3, [1 x i8]* @p_str3) ; [#uses=0 type=i32]
  call void (...)* @_ssdm_op_SpecInterface([6 x i1]* %in, [10 x i8]* @p_str, i32 0, i32 0, [1 x i8]* @p_str1, i32 0, i32 0, [1 x i8]* @p_str1, [1 x i8]* @p_str1, [1 x i8]* @p_str1, i32 0, i32 0, i32 0, i32 0, [1 x i8]* @p_str1, [1 x i8]* @p_str1) nounwind
  call void (...)* @_ssdm_op_SpecInterface(i6* %out_V, [8 x i8]* @p_str2, i32 0, i32 0, [1 x i8]* @p_str1, i32 0, i32 0, [1 x i8]* @p_str1, [1 x i8]* @p_str1, [1 x i8]* @p_str1, i32 0, i32 0, i32 0, i32 0, [1 x i8]* @p_str1, [1 x i8]* @p_str1) nounwind, !dbg !425 ; [debug line = 44:1]
  call void (...)* @_ssdm_op_SpecInterface(i32 0, [10 x i8]* @p_str, i32 0, i32 0, [1 x i8]* @p_str1, i32 0, i32 0, [1 x i8]* @p_str1, [1 x i8]* @p_str1, [1 x i8]* @p_str1, i32 0, i32 0, i32 0, i32 0, [1 x i8]* @p_str1, [1 x i8]* @p_str1) nounwind, !dbg !427 ; [debug line = 45:1]
  call void @llvm.dbg.value(metadata !{i6* %out_V}, i64 0, metadata !428), !dbg !433 ; [debug line = 280:50@50:2] [debug variable = ssdm_int<6 + 1024 * 0, false>.V]
  %in_addr = getelementptr [6 x i1]* %in, i64 0, i64 5, !dbg !434 ; [#uses=1 type=i1*] [debug line = 50:2]
  %in_load = load i1* %in_addr, align 1, !dbg !434 ; [#uses=1 type=i1] [debug line = 50:2]
  %val_assign_5 = call i6 @_ssdm_op_BitConcatenate.i6.i1.i5(i1 %in_load, i5 0), !dbg !437 ; [#uses=1 type=i6] [debug line = 253:60@253:75@50:2]
  call void @_ssdm_op_Write.ap_none.i6P(i6* %out_V, i6 %val_assign_5), !dbg !442 ; [debug line = 281:5@50:2]
  ret void, !dbg !444                             ; [debug line = 52:1]
}

; [#uses=1]
define weak void @_ssdm_op_Write.ap_none.i6P(i6*, i6) {
entry:
  store i6 %1, i6* %0
  ret void
}

; [#uses=1]
define weak void @_ssdm_op_SpecTopModule(...) {
entry:
  ret void
}

; [#uses=1]
define weak i32 @_ssdm_op_SpecMemCore(...) {
entry:
  ret i32 0
}

; [#uses=3]
define weak void @_ssdm_op_SpecInterface(...) nounwind {
entry:
  ret void
}

; [#uses=2]
define weak void @_ssdm_op_SpecBitsMap(...) {
entry:
  ret void
}

; [#uses=1]
define weak i6 @_ssdm_op_BitConcatenate.i6.i1.i5(i1, i5) nounwind readnone {
entry:
  %empty = zext i1 %0 to i6                       ; [#uses=1 type=i6]
  %empty_2 = zext i5 %1 to i6                     ; [#uses=1 type=i6]
  %empty_3 = shl i6 %empty, 5                     ; [#uses=1 type=i6]
  %empty_4 = or i6 %empty_3, %empty_2             ; [#uses=1 type=i6]
  ret i6 %empty_4
}

!opencl.kernels = !{!0, !7, !7, !13, !13, !19, !13}
!hls.encrypted.func = !{}
!llvm.map.gv = !{!22}

!0 = metadata !{null, metadata !1, metadata !2, metadata !3, metadata !4, metadata !5, metadata !6}
!1 = metadata !{metadata !"kernel_arg_addr_space", i32 1, i32 0}
!2 = metadata !{metadata !"kernel_arg_access_qual", metadata !"none", metadata !"none"}
!3 = metadata !{metadata !"kernel_arg_type", metadata !"_Bool*", metadata !"ap_uint<6> &"}
!4 = metadata !{metadata !"kernel_arg_type_qual", metadata !"", metadata !""}
!5 = metadata !{metadata !"kernel_arg_name", metadata !"in", metadata !"out"}
!6 = metadata !{metadata !"reqd_work_group_size", i32 1, i32 1, i32 1}
!7 = metadata !{null, metadata !8, metadata !9, metadata !10, metadata !11, metadata !12, metadata !6}
!8 = metadata !{metadata !"kernel_arg_addr_space", i32 0}
!9 = metadata !{metadata !"kernel_arg_access_qual", metadata !"none"}
!10 = metadata !{metadata !"kernel_arg_type", metadata !"int"}
!11 = metadata !{metadata !"kernel_arg_type_qual", metadata !""}
!12 = metadata !{metadata !"kernel_arg_name", metadata !"val"}
!13 = metadata !{null, metadata !14, metadata !15, metadata !16, metadata !17, metadata !18, metadata !6}
!14 = metadata !{metadata !"kernel_arg_addr_space"}
!15 = metadata !{metadata !"kernel_arg_access_qual"}
!16 = metadata !{metadata !"kernel_arg_type"}
!17 = metadata !{metadata !"kernel_arg_type_qual"}
!18 = metadata !{metadata !"kernel_arg_name"}
!19 = metadata !{null, metadata !8, metadata !9, metadata !20, metadata !11, metadata !21, metadata !6}
!20 = metadata !{metadata !"kernel_arg_type", metadata !"const ap_uint<6> &"}
!21 = metadata !{metadata !"kernel_arg_name", metadata !"op2"}
!22 = metadata !{metadata !23, [0 x i32]* @llvm_global_ctors_0}
!23 = metadata !{metadata !24}
!24 = metadata !{i32 0, i32 31, metadata !25}
!25 = metadata !{metadata !26}
!26 = metadata !{metadata !"llvm.global_ctors.0", metadata !27, metadata !"", i32 0, i32 31}
!27 = metadata !{metadata !28}
!28 = metadata !{i32 0, i32 0, i32 1}
!29 = metadata !{metadata !30}
!30 = metadata !{i32 0, i32 0, metadata !31}
!31 = metadata !{metadata !32}
!32 = metadata !{metadata !"in", metadata !33, metadata !"bool", i32 0, i32 0}
!33 = metadata !{metadata !34}
!34 = metadata !{i32 0, i32 5, i32 1}
!35 = metadata !{metadata !36}
!36 = metadata !{i32 0, i32 5, metadata !37}
!37 = metadata !{metadata !38}
!38 = metadata !{metadata !"out.V", metadata !27, metadata !"uint6", i32 0, i32 5}
!39 = metadata !{i32 786689, metadata !40, metadata !"in", null, i32 42, metadata !411, i32 0, i32 0} ; [ DW_TAG_arg_variable ]
!40 = metadata !{i32 786478, i32 0, metadata !41, metadata !"atoi", metadata !"atoi", metadata !"_Z4atoiPbR7ap_uintILi6EE", metadata !41, i32 42, metadata !42, i1 false, i1 true, i32 0, i32 0, null, i32 256, i1 false, null, null, null, metadata !64, i32 42} ; [ DW_TAG_subprogram ]
!41 = metadata !{i32 786473, metadata !"atoi.cpp", metadata !"/home/brennan/Documents/pynq-copter/pynqcopter/ip/atoi", null} ; [ DW_TAG_file_type ]
!42 = metadata !{i32 786453, i32 0, metadata !"", i32 0, i32 0, i64 0, i64 0, i64 0, i32 0, null, metadata !43, i32 0, i32 0} ; [ DW_TAG_subroutine_type ]
!43 = metadata !{null, metadata !44, metadata !46}
!44 = metadata !{i32 786447, null, metadata !"", null, i32 0, i64 64, i64 64, i64 0, i32 0, metadata !45} ; [ DW_TAG_pointer_type ]
!45 = metadata !{i32 786468, null, metadata !"bool", null, i32 0, i64 8, i64 8, i64 0, i32 0, i32 2} ; [ DW_TAG_base_type ]
!46 = metadata !{i32 786448, null, null, null, i32 0, i64 0, i64 0, i64 0, i32 0, metadata !47} ; [ DW_TAG_reference_type ]
!47 = metadata !{i32 786434, null, metadata !"ap_uint<6>", metadata !48, i32 183, i64 8, i64 8, i32 0, i32 0, null, metadata !49, i32 0, null, metadata !410} ; [ DW_TAG_class_type ]
!48 = metadata !{i32 786473, metadata !"/home/brennan/Vivado/Vivado/2017.4/common/technology/autopilot/ap_int.h", metadata !"/home/brennan/Documents/pynq-copter/pynqcopter/ip/atoi", null} ; [ DW_TAG_file_type ]
!49 = metadata !{metadata !50, metadata !339, metadata !343, metadata !346, metadata !349, metadata !352, metadata !355, metadata !358, metadata !361, metadata !364, metadata !367, metadata !370, metadata !373, metadata !376, metadata !379, metadata !382, metadata !385, metadata !388, metadata !391, metadata !398, metadata !403, metadata !406, metadata !409}
!50 = metadata !{i32 786460, metadata !47, null, metadata !48, i32 0, i64 0, i64 0, i64 0, i32 0, metadata !51} ; [ DW_TAG_inheritance ]
!51 = metadata !{i32 786434, null, metadata !"ap_int_base<6, false, true>", metadata !52, i32 1453, i64 8, i64 8, i32 0, i32 0, null, metadata !53, i32 0, null, metadata !336} ; [ DW_TAG_class_type ]
!52 = metadata !{i32 786473, metadata !"/home/brennan/Vivado/Vivado/2017.4/common/technology/autopilot/ap_int_syn.h", metadata !"/home/brennan/Documents/pynq-copter/pynqcopter/ip/atoi", null} ; [ DW_TAG_file_type ]
!53 = metadata !{metadata !54, metadata !70, metadata !74, metadata !82, metadata !88, metadata !91, metadata !95, metadata !99, metadata !103, metadata !107, metadata !110, metadata !114, metadata !118, metadata !122, metadata !127, metadata !132, metadata !137, metadata !141, metadata !145, metadata !151, metadata !154, metadata !158, metadata !161, metadata !164, metadata !165, metadata !169, metadata !172, metadata !175, metadata !178, metadata !181, metadata !184, metadata !187, metadata !190, metadata !193, metadata !196, metadata !199, metadata !202, metadata !212, metadata !215, metadata !218, metadata !221, metadata !224, metadata !227, metadata !230, metadata !233, metadata !236, metadata !239, metadata !242, metadata !245, metadata !248, metadata !249, metadata !253, metadata !256, metadata !257, metadata !258, metadata !259, metadata !260, metadata !261, metadata !264, metadata !265, metadata !268, metadata !269, metadata !270, metadata !271, metadata !272, metadata !273, metadata !276, metadata !277, metadata !278, metadata !281, metadata !282, metadata !285, metadata !286, metadata !290, metadata !294, metadata !295, metadata !298, metadata !299, metadata !303, metadata !304, metadata !305, metadata !306, metadata !309, metadata !310, metadata !311, metadata !312, metadata !313, metadata !314, metadata !315, metadata !316, metadata !317, metadata !318, metadata !319, metadata !320, metadata !330, metadata !333}
!54 = metadata !{i32 786460, metadata !51, null, metadata !52, i32 0, i64 0, i64 0, i64 0, i32 0, metadata !55} ; [ DW_TAG_inheritance ]
!55 = metadata !{i32 786434, null, metadata !"ssdm_int<6 + 1024 * 0, false>", metadata !56, i32 8, i64 8, i64 8, i32 0, i32 0, null, metadata !57, i32 0, null, metadata !66} ; [ DW_TAG_class_type ]
!56 = metadata !{i32 786473, metadata !"/home/brennan/Vivado/Vivado/2017.4/common/technology/autopilot/etc/autopilot_dt.def", metadata !"/home/brennan/Documents/pynq-copter/pynqcopter/ip/atoi", null} ; [ DW_TAG_file_type ]
!57 = metadata !{metadata !58, metadata !60}
!58 = metadata !{i32 786445, metadata !55, metadata !"V", metadata !56, i32 8, i64 6, i64 8, i64 0, i32 0, metadata !59} ; [ DW_TAG_member ]
!59 = metadata !{i32 786468, null, metadata !"uint6", null, i32 0, i64 6, i64 8, i64 0, i32 0, i32 7} ; [ DW_TAG_base_type ]
!60 = metadata !{i32 786478, i32 0, metadata !55, metadata !"ssdm_int", metadata !"ssdm_int", metadata !"", metadata !56, i32 8, metadata !61, i1 false, i1 false, i32 0, i32 0, null, i32 256, i1 false, null, null, i32 0, metadata !64, i32 8} ; [ DW_TAG_subprogram ]
!61 = metadata !{i32 786453, i32 0, metadata !"", i32 0, i32 0, i64 0, i64 0, i64 0, i32 0, null, metadata !62, i32 0, i32 0} ; [ DW_TAG_subroutine_type ]
!62 = metadata !{null, metadata !63}
!63 = metadata !{i32 786447, i32 0, metadata !"", i32 0, i32 0, i64 64, i64 64, i64 0, i32 64, metadata !55} ; [ DW_TAG_pointer_type ]
!64 = metadata !{metadata !65}
!65 = metadata !{i32 786468}                      ; [ DW_TAG_base_type ]
!66 = metadata !{metadata !67, metadata !69}
!67 = metadata !{i32 786480, null, metadata !"_AP_N", metadata !68, i64 6, null, i32 0, i32 0} ; [ DW_TAG_template_value_parameter ]
!68 = metadata !{i32 786468, null, metadata !"int", null, i32 0, i64 32, i64 32, i64 0, i32 0, i32 5} ; [ DW_TAG_base_type ]
!69 = metadata !{i32 786480, null, metadata !"_AP_S", metadata !45, i64 0, null, i32 0, i32 0} ; [ DW_TAG_template_value_parameter ]
!70 = metadata !{i32 786478, i32 0, metadata !51, metadata !"ap_int_base", metadata !"ap_int_base", metadata !"", metadata !52, i32 1494, metadata !71, i1 false, i1 false, i32 0, i32 0, null, i32 256, i1 false, null, null, i32 0, metadata !64, i32 1494} ; [ DW_TAG_subprogram ]
!71 = metadata !{i32 786453, i32 0, metadata !"", i32 0, i32 0, i64 0, i64 0, i64 0, i32 0, null, metadata !72, i32 0, i32 0} ; [ DW_TAG_subroutine_type ]
!72 = metadata !{null, metadata !73}
!73 = metadata !{i32 786447, i32 0, metadata !"", i32 0, i32 0, i64 64, i64 64, i64 0, i32 64, metadata !51} ; [ DW_TAG_pointer_type ]
!74 = metadata !{i32 786478, i32 0, metadata !51, metadata !"ap_int_base<6, false>", metadata !"ap_int_base<6, false>", metadata !"", metadata !52, i32 1506, metadata !75, i1 false, i1 false, i32 0, i32 0, null, i32 256, i1 false, null, metadata !79, i32 0, metadata !64, i32 1506} ; [ DW_TAG_subprogram ]
!75 = metadata !{i32 786453, i32 0, metadata !"", i32 0, i32 0, i64 0, i64 0, i64 0, i32 0, null, metadata !76, i32 0, i32 0} ; [ DW_TAG_subroutine_type ]
!76 = metadata !{null, metadata !73, metadata !77}
!77 = metadata !{i32 786448, null, null, null, i32 0, i64 0, i64 0, i64 0, i32 0, metadata !78} ; [ DW_TAG_reference_type ]
!78 = metadata !{i32 786470, null, metadata !"", null, i32 0, i64 0, i64 0, i64 0, i32 0, metadata !51} ; [ DW_TAG_const_type ]
!79 = metadata !{metadata !80, metadata !81}
!80 = metadata !{i32 786480, null, metadata !"_AP_W2", metadata !68, i64 6, null, i32 0, i32 0} ; [ DW_TAG_template_value_parameter ]
!81 = metadata !{i32 786480, null, metadata !"_AP_S2", metadata !45, i64 0, null, i32 0, i32 0} ; [ DW_TAG_template_value_parameter ]
!82 = metadata !{i32 786478, i32 0, metadata !51, metadata !"ap_int_base<6, false>", metadata !"ap_int_base<6, false>", metadata !"", metadata !52, i32 1509, metadata !83, i1 false, i1 false, i32 0, i32 0, null, i32 256, i1 false, null, metadata !79, i32 0, metadata !64, i32 1509} ; [ DW_TAG_subprogram ]
!83 = metadata !{i32 786453, i32 0, metadata !"", i32 0, i32 0, i64 0, i64 0, i64 0, i32 0, null, metadata !84, i32 0, i32 0} ; [ DW_TAG_subroutine_type ]
!84 = metadata !{null, metadata !73, metadata !85}
!85 = metadata !{i32 786448, null, null, null, i32 0, i64 0, i64 0, i64 0, i32 0, metadata !86} ; [ DW_TAG_reference_type ]
!86 = metadata !{i32 786470, null, metadata !"", null, i32 0, i64 0, i64 0, i64 0, i32 0, metadata !87} ; [ DW_TAG_const_type ]
!87 = metadata !{i32 786485, null, metadata !"", null, i32 0, i64 0, i64 0, i64 0, i32 0, metadata !51} ; [ DW_TAG_volatile_type ]
!88 = metadata !{i32 786478, i32 0, metadata !51, metadata !"ap_int_base", metadata !"ap_int_base", metadata !"", metadata !52, i32 1516, metadata !89, i1 false, i1 false, i32 0, i32 0, null, i32 384, i1 false, null, null, i32 0, metadata !64, i32 1516} ; [ DW_TAG_subprogram ]
!89 = metadata !{i32 786453, i32 0, metadata !"", i32 0, i32 0, i64 0, i64 0, i64 0, i32 0, null, metadata !90, i32 0, i32 0} ; [ DW_TAG_subroutine_type ]
!90 = metadata !{null, metadata !73, metadata !45}
!91 = metadata !{i32 786478, i32 0, metadata !51, metadata !"ap_int_base", metadata !"ap_int_base", metadata !"", metadata !52, i32 1517, metadata !92, i1 false, i1 false, i32 0, i32 0, null, i32 384, i1 false, null, null, i32 0, metadata !64, i32 1517} ; [ DW_TAG_subprogram ]
!92 = metadata !{i32 786453, i32 0, metadata !"", i32 0, i32 0, i64 0, i64 0, i64 0, i32 0, null, metadata !93, i32 0, i32 0} ; [ DW_TAG_subroutine_type ]
!93 = metadata !{null, metadata !73, metadata !94}
!94 = metadata !{i32 786468, null, metadata !"signed char", null, i32 0, i64 8, i64 8, i64 0, i32 0, i32 6} ; [ DW_TAG_base_type ]
!95 = metadata !{i32 786478, i32 0, metadata !51, metadata !"ap_int_base", metadata !"ap_int_base", metadata !"", metadata !52, i32 1518, metadata !96, i1 false, i1 false, i32 0, i32 0, null, i32 384, i1 false, null, null, i32 0, metadata !64, i32 1518} ; [ DW_TAG_subprogram ]
!96 = metadata !{i32 786453, i32 0, metadata !"", i32 0, i32 0, i64 0, i64 0, i64 0, i32 0, null, metadata !97, i32 0, i32 0} ; [ DW_TAG_subroutine_type ]
!97 = metadata !{null, metadata !73, metadata !98}
!98 = metadata !{i32 786468, null, metadata !"unsigned char", null, i32 0, i64 8, i64 8, i64 0, i32 0, i32 8} ; [ DW_TAG_base_type ]
!99 = metadata !{i32 786478, i32 0, metadata !51, metadata !"ap_int_base", metadata !"ap_int_base", metadata !"", metadata !52, i32 1519, metadata !100, i1 false, i1 false, i32 0, i32 0, null, i32 384, i1 false, null, null, i32 0, metadata !64, i32 1519} ; [ DW_TAG_subprogram ]
!100 = metadata !{i32 786453, i32 0, metadata !"", i32 0, i32 0, i64 0, i64 0, i64 0, i32 0, null, metadata !101, i32 0, i32 0} ; [ DW_TAG_subroutine_type ]
!101 = metadata !{null, metadata !73, metadata !102}
!102 = metadata !{i32 786468, null, metadata !"short", null, i32 0, i64 16, i64 16, i64 0, i32 0, i32 5} ; [ DW_TAG_base_type ]
!103 = metadata !{i32 786478, i32 0, metadata !51, metadata !"ap_int_base", metadata !"ap_int_base", metadata !"", metadata !52, i32 1520, metadata !104, i1 false, i1 false, i32 0, i32 0, null, i32 384, i1 false, null, null, i32 0, metadata !64, i32 1520} ; [ DW_TAG_subprogram ]
!104 = metadata !{i32 786453, i32 0, metadata !"", i32 0, i32 0, i64 0, i64 0, i64 0, i32 0, null, metadata !105, i32 0, i32 0} ; [ DW_TAG_subroutine_type ]
!105 = metadata !{null, metadata !73, metadata !106}
!106 = metadata !{i32 786468, null, metadata !"unsigned short", null, i32 0, i64 16, i64 16, i64 0, i32 0, i32 7} ; [ DW_TAG_base_type ]
!107 = metadata !{i32 786478, i32 0, metadata !51, metadata !"ap_int_base", metadata !"ap_int_base", metadata !"", metadata !52, i32 1521, metadata !108, i1 false, i1 false, i32 0, i32 0, null, i32 384, i1 false, null, null, i32 0, metadata !64, i32 1521} ; [ DW_TAG_subprogram ]
!108 = metadata !{i32 786453, i32 0, metadata !"", i32 0, i32 0, i64 0, i64 0, i64 0, i32 0, null, metadata !109, i32 0, i32 0} ; [ DW_TAG_subroutine_type ]
!109 = metadata !{null, metadata !73, metadata !68}
!110 = metadata !{i32 786478, i32 0, metadata !51, metadata !"ap_int_base", metadata !"ap_int_base", metadata !"", metadata !52, i32 1522, metadata !111, i1 false, i1 false, i32 0, i32 0, null, i32 384, i1 false, null, null, i32 0, metadata !64, i32 1522} ; [ DW_TAG_subprogram ]
!111 = metadata !{i32 786453, i32 0, metadata !"", i32 0, i32 0, i64 0, i64 0, i64 0, i32 0, null, metadata !112, i32 0, i32 0} ; [ DW_TAG_subroutine_type ]
!112 = metadata !{null, metadata !73, metadata !113}
!113 = metadata !{i32 786468, null, metadata !"unsigned int", null, i32 0, i64 32, i64 32, i64 0, i32 0, i32 7} ; [ DW_TAG_base_type ]
!114 = metadata !{i32 786478, i32 0, metadata !51, metadata !"ap_int_base", metadata !"ap_int_base", metadata !"", metadata !52, i32 1523, metadata !115, i1 false, i1 false, i32 0, i32 0, null, i32 384, i1 false, null, null, i32 0, metadata !64, i32 1523} ; [ DW_TAG_subprogram ]
!115 = metadata !{i32 786453, i32 0, metadata !"", i32 0, i32 0, i64 0, i64 0, i64 0, i32 0, null, metadata !116, i32 0, i32 0} ; [ DW_TAG_subroutine_type ]
!116 = metadata !{null, metadata !73, metadata !117}
!117 = metadata !{i32 786468, null, metadata !"long int", null, i32 0, i64 64, i64 64, i64 0, i32 0, i32 5} ; [ DW_TAG_base_type ]
!118 = metadata !{i32 786478, i32 0, metadata !51, metadata !"ap_int_base", metadata !"ap_int_base", metadata !"", metadata !52, i32 1524, metadata !119, i1 false, i1 false, i32 0, i32 0, null, i32 384, i1 false, null, null, i32 0, metadata !64, i32 1524} ; [ DW_TAG_subprogram ]
!119 = metadata !{i32 786453, i32 0, metadata !"", i32 0, i32 0, i64 0, i64 0, i64 0, i32 0, null, metadata !120, i32 0, i32 0} ; [ DW_TAG_subroutine_type ]
!120 = metadata !{null, metadata !73, metadata !121}
!121 = metadata !{i32 786468, null, metadata !"long unsigned int", null, i32 0, i64 64, i64 64, i64 0, i32 0, i32 7} ; [ DW_TAG_base_type ]
!122 = metadata !{i32 786478, i32 0, metadata !51, metadata !"ap_int_base", metadata !"ap_int_base", metadata !"", metadata !52, i32 1525, metadata !123, i1 false, i1 false, i32 0, i32 0, null, i32 384, i1 false, null, null, i32 0, metadata !64, i32 1525} ; [ DW_TAG_subprogram ]
!123 = metadata !{i32 786453, i32 0, metadata !"", i32 0, i32 0, i64 0, i64 0, i64 0, i32 0, null, metadata !124, i32 0, i32 0} ; [ DW_TAG_subroutine_type ]
!124 = metadata !{null, metadata !73, metadata !125}
!125 = metadata !{i32 786454, null, metadata !"ap_slong", metadata !52, i32 112, i64 0, i64 0, i64 0, i32 0, metadata !126} ; [ DW_TAG_typedef ]
!126 = metadata !{i32 786468, null, metadata !"long long int", null, i32 0, i64 64, i64 64, i64 0, i32 0, i32 5} ; [ DW_TAG_base_type ]
!127 = metadata !{i32 786478, i32 0, metadata !51, metadata !"ap_int_base", metadata !"ap_int_base", metadata !"", metadata !52, i32 1526, metadata !128, i1 false, i1 false, i32 0, i32 0, null, i32 384, i1 false, null, null, i32 0, metadata !64, i32 1526} ; [ DW_TAG_subprogram ]
!128 = metadata !{i32 786453, i32 0, metadata !"", i32 0, i32 0, i64 0, i64 0, i64 0, i32 0, null, metadata !129, i32 0, i32 0} ; [ DW_TAG_subroutine_type ]
!129 = metadata !{null, metadata !73, metadata !130}
!130 = metadata !{i32 786454, null, metadata !"ap_ulong", metadata !52, i32 111, i64 0, i64 0, i64 0, i32 0, metadata !131} ; [ DW_TAG_typedef ]
!131 = metadata !{i32 786468, null, metadata !"long long unsigned int", null, i32 0, i64 64, i64 64, i64 0, i32 0, i32 7} ; [ DW_TAG_base_type ]
!132 = metadata !{i32 786478, i32 0, metadata !51, metadata !"ap_int_base", metadata !"ap_int_base", metadata !"", metadata !52, i32 1527, metadata !133, i1 false, i1 false, i32 0, i32 0, null, i32 384, i1 false, null, null, i32 0, metadata !64, i32 1527} ; [ DW_TAG_subprogram ]
!133 = metadata !{i32 786453, i32 0, metadata !"", i32 0, i32 0, i64 0, i64 0, i64 0, i32 0, null, metadata !134, i32 0, i32 0} ; [ DW_TAG_subroutine_type ]
!134 = metadata !{null, metadata !73, metadata !135}
!135 = metadata !{i32 786454, null, metadata !"half", metadata !52, i32 54, i64 0, i64 0, i64 0, i32 0, metadata !136} ; [ DW_TAG_typedef ]
!136 = metadata !{i32 786468, null, metadata !"half", null, i32 0, i64 16, i64 16, i64 0, i32 0, i32 4} ; [ DW_TAG_base_type ]
!137 = metadata !{i32 786478, i32 0, metadata !51, metadata !"ap_int_base", metadata !"ap_int_base", metadata !"", metadata !52, i32 1528, metadata !138, i1 false, i1 false, i32 0, i32 0, null, i32 384, i1 false, null, null, i32 0, metadata !64, i32 1528} ; [ DW_TAG_subprogram ]
!138 = metadata !{i32 786453, i32 0, metadata !"", i32 0, i32 0, i64 0, i64 0, i64 0, i32 0, null, metadata !139, i32 0, i32 0} ; [ DW_TAG_subroutine_type ]
!139 = metadata !{null, metadata !73, metadata !140}
!140 = metadata !{i32 786468, null, metadata !"float", null, i32 0, i64 32, i64 32, i64 0, i32 0, i32 4} ; [ DW_TAG_base_type ]
!141 = metadata !{i32 786478, i32 0, metadata !51, metadata !"ap_int_base", metadata !"ap_int_base", metadata !"", metadata !52, i32 1529, metadata !142, i1 false, i1 false, i32 0, i32 0, null, i32 384, i1 false, null, null, i32 0, metadata !64, i32 1529} ; [ DW_TAG_subprogram ]
!142 = metadata !{i32 786453, i32 0, metadata !"", i32 0, i32 0, i64 0, i64 0, i64 0, i32 0, null, metadata !143, i32 0, i32 0} ; [ DW_TAG_subroutine_type ]
!143 = metadata !{null, metadata !73, metadata !144}
!144 = metadata !{i32 786468, null, metadata !"double", null, i32 0, i64 64, i64 64, i64 0, i32 0, i32 4} ; [ DW_TAG_base_type ]
!145 = metadata !{i32 786478, i32 0, metadata !51, metadata !"ap_int_base", metadata !"ap_int_base", metadata !"", metadata !52, i32 1556, metadata !146, i1 false, i1 false, i32 0, i32 0, null, i32 256, i1 false, null, null, i32 0, metadata !64, i32 1556} ; [ DW_TAG_subprogram ]
!146 = metadata !{i32 786453, i32 0, metadata !"", i32 0, i32 0, i64 0, i64 0, i64 0, i32 0, null, metadata !147, i32 0, i32 0} ; [ DW_TAG_subroutine_type ]
!147 = metadata !{null, metadata !73, metadata !148}
!148 = metadata !{i32 786447, null, metadata !"", null, i32 0, i64 64, i64 64, i64 0, i32 0, metadata !149} ; [ DW_TAG_pointer_type ]
!149 = metadata !{i32 786470, null, metadata !"", null, i32 0, i64 0, i64 0, i64 0, i32 0, metadata !150} ; [ DW_TAG_const_type ]
!150 = metadata !{i32 786468, null, metadata !"char", null, i32 0, i64 8, i64 8, i64 0, i32 0, i32 6} ; [ DW_TAG_base_type ]
!151 = metadata !{i32 786478, i32 0, metadata !51, metadata !"ap_int_base", metadata !"ap_int_base", metadata !"", metadata !52, i32 1563, metadata !152, i1 false, i1 false, i32 0, i32 0, null, i32 256, i1 false, null, null, i32 0, metadata !64, i32 1563} ; [ DW_TAG_subprogram ]
!152 = metadata !{i32 786453, i32 0, metadata !"", i32 0, i32 0, i64 0, i64 0, i64 0, i32 0, null, metadata !153, i32 0, i32 0} ; [ DW_TAG_subroutine_type ]
!153 = metadata !{null, metadata !73, metadata !148, metadata !94}
!154 = metadata !{i32 786478, i32 0, metadata !51, metadata !"read", metadata !"read", metadata !"_ZNV11ap_int_baseILi6ELb0ELb1EE4readEv", metadata !52, i32 1584, metadata !155, i1 false, i1 false, i32 0, i32 0, null, i32 256, i1 false, null, null, i32 0, metadata !64, i32 1584} ; [ DW_TAG_subprogram ]
!155 = metadata !{i32 786453, i32 0, metadata !"", i32 0, i32 0, i64 0, i64 0, i64 0, i32 0, null, metadata !156, i32 0, i32 0} ; [ DW_TAG_subroutine_type ]
!156 = metadata !{metadata !51, metadata !157}
!157 = metadata !{i32 786447, i32 0, metadata !"", i32 0, i32 0, i64 64, i64 64, i64 0, i32 64, metadata !87} ; [ DW_TAG_pointer_type ]
!158 = metadata !{i32 786478, i32 0, metadata !51, metadata !"write", metadata !"write", metadata !"_ZNV11ap_int_baseILi6ELb0ELb1EE5writeERKS0_", metadata !52, i32 1590, metadata !159, i1 false, i1 false, i32 0, i32 0, null, i32 256, i1 false, null, null, i32 0, metadata !64, i32 1590} ; [ DW_TAG_subprogram ]
!159 = metadata !{i32 786453, i32 0, metadata !"", i32 0, i32 0, i64 0, i64 0, i64 0, i32 0, null, metadata !160, i32 0, i32 0} ; [ DW_TAG_subroutine_type ]
!160 = metadata !{null, metadata !157, metadata !77}
!161 = metadata !{i32 786478, i32 0, metadata !51, metadata !"operator=", metadata !"operator=", metadata !"_ZNV11ap_int_baseILi6ELb0ELb1EEaSERVKS0_", metadata !52, i32 1602, metadata !162, i1 false, i1 false, i32 0, i32 0, null, i32 256, i1 false, null, null, i32 0, metadata !64, i32 1602} ; [ DW_TAG_subprogram ]
!162 = metadata !{i32 786453, i32 0, metadata !"", i32 0, i32 0, i64 0, i64 0, i64 0, i32 0, null, metadata !163, i32 0, i32 0} ; [ DW_TAG_subroutine_type ]
!163 = metadata !{null, metadata !157, metadata !85}
!164 = metadata !{i32 786478, i32 0, metadata !51, metadata !"operator=", metadata !"operator=", metadata !"_ZNV11ap_int_baseILi6ELb0ELb1EEaSERKS0_", metadata !52, i32 1611, metadata !159, i1 false, i1 false, i32 0, i32 0, null, i32 256, i1 false, null, null, i32 0, metadata !64, i32 1611} ; [ DW_TAG_subprogram ]
!165 = metadata !{i32 786478, i32 0, metadata !51, metadata !"operator=", metadata !"operator=", metadata !"_ZN11ap_int_baseILi6ELb0ELb1EEaSERVKS0_", metadata !52, i32 1634, metadata !166, i1 false, i1 false, i32 0, i32 0, null, i32 256, i1 false, null, null, i32 0, metadata !64, i32 1634} ; [ DW_TAG_subprogram ]
!166 = metadata !{i32 786453, i32 0, metadata !"", i32 0, i32 0, i64 0, i64 0, i64 0, i32 0, null, metadata !167, i32 0, i32 0} ; [ DW_TAG_subroutine_type ]
!167 = metadata !{metadata !168, metadata !73, metadata !85}
!168 = metadata !{i32 786448, null, null, null, i32 0, i64 0, i64 0, i64 0, i32 0, metadata !51} ; [ DW_TAG_reference_type ]
!169 = metadata !{i32 786478, i32 0, metadata !51, metadata !"operator=", metadata !"operator=", metadata !"_ZN11ap_int_baseILi6ELb0ELb1EEaSERKS0_", metadata !52, i32 1639, metadata !170, i1 false, i1 false, i32 0, i32 0, null, i32 256, i1 false, null, null, i32 0, metadata !64, i32 1639} ; [ DW_TAG_subprogram ]
!170 = metadata !{i32 786453, i32 0, metadata !"", i32 0, i32 0, i64 0, i64 0, i64 0, i32 0, null, metadata !171, i32 0, i32 0} ; [ DW_TAG_subroutine_type ]
!171 = metadata !{metadata !168, metadata !73, metadata !77}
!172 = metadata !{i32 786478, i32 0, metadata !51, metadata !"operator=", metadata !"operator=", metadata !"_ZN11ap_int_baseILi6ELb0ELb1EEaSEPKc", metadata !52, i32 1643, metadata !173, i1 false, i1 false, i32 0, i32 0, null, i32 256, i1 false, null, null, i32 0, metadata !64, i32 1643} ; [ DW_TAG_subprogram ]
!173 = metadata !{i32 786453, i32 0, metadata !"", i32 0, i32 0, i64 0, i64 0, i64 0, i32 0, null, metadata !174, i32 0, i32 0} ; [ DW_TAG_subroutine_type ]
!174 = metadata !{metadata !168, metadata !73, metadata !148}
!175 = metadata !{i32 786478, i32 0, metadata !51, metadata !"set", metadata !"set", metadata !"_ZN11ap_int_baseILi6ELb0ELb1EE3setEPKca", metadata !52, i32 1651, metadata !176, i1 false, i1 false, i32 0, i32 0, null, i32 256, i1 false, null, null, i32 0, metadata !64, i32 1651} ; [ DW_TAG_subprogram ]
!176 = metadata !{i32 786453, i32 0, metadata !"", i32 0, i32 0, i64 0, i64 0, i64 0, i32 0, null, metadata !177, i32 0, i32 0} ; [ DW_TAG_subroutine_type ]
!177 = metadata !{metadata !168, metadata !73, metadata !148, metadata !94}
!178 = metadata !{i32 786478, i32 0, metadata !51, metadata !"operator=", metadata !"operator=", metadata !"_ZN11ap_int_baseILi6ELb0ELb1EEaSEa", metadata !52, i32 1665, metadata !179, i1 false, i1 false, i32 0, i32 0, null, i32 256, i1 false, null, null, i32 0, metadata !64, i32 1665} ; [ DW_TAG_subprogram ]
!179 = metadata !{i32 786453, i32 0, metadata !"", i32 0, i32 0, i64 0, i64 0, i64 0, i32 0, null, metadata !180, i32 0, i32 0} ; [ DW_TAG_subroutine_type ]
!180 = metadata !{metadata !168, metadata !73, metadata !94}
!181 = metadata !{i32 786478, i32 0, metadata !51, metadata !"operator=", metadata !"operator=", metadata !"_ZN11ap_int_baseILi6ELb0ELb1EEaSEh", metadata !52, i32 1666, metadata !182, i1 false, i1 false, i32 0, i32 0, null, i32 256, i1 false, null, null, i32 0, metadata !64, i32 1666} ; [ DW_TAG_subprogram ]
!182 = metadata !{i32 786453, i32 0, metadata !"", i32 0, i32 0, i64 0, i64 0, i64 0, i32 0, null, metadata !183, i32 0, i32 0} ; [ DW_TAG_subroutine_type ]
!183 = metadata !{metadata !168, metadata !73, metadata !98}
!184 = metadata !{i32 786478, i32 0, metadata !51, metadata !"operator=", metadata !"operator=", metadata !"_ZN11ap_int_baseILi6ELb0ELb1EEaSEs", metadata !52, i32 1667, metadata !185, i1 false, i1 false, i32 0, i32 0, null, i32 256, i1 false, null, null, i32 0, metadata !64, i32 1667} ; [ DW_TAG_subprogram ]
!185 = metadata !{i32 786453, i32 0, metadata !"", i32 0, i32 0, i64 0, i64 0, i64 0, i32 0, null, metadata !186, i32 0, i32 0} ; [ DW_TAG_subroutine_type ]
!186 = metadata !{metadata !168, metadata !73, metadata !102}
!187 = metadata !{i32 786478, i32 0, metadata !51, metadata !"operator=", metadata !"operator=", metadata !"_ZN11ap_int_baseILi6ELb0ELb1EEaSEt", metadata !52, i32 1668, metadata !188, i1 false, i1 false, i32 0, i32 0, null, i32 256, i1 false, null, null, i32 0, metadata !64, i32 1668} ; [ DW_TAG_subprogram ]
!188 = metadata !{i32 786453, i32 0, metadata !"", i32 0, i32 0, i64 0, i64 0, i64 0, i32 0, null, metadata !189, i32 0, i32 0} ; [ DW_TAG_subroutine_type ]
!189 = metadata !{metadata !168, metadata !73, metadata !106}
!190 = metadata !{i32 786478, i32 0, metadata !51, metadata !"operator=", metadata !"operator=", metadata !"_ZN11ap_int_baseILi6ELb0ELb1EEaSEi", metadata !52, i32 1669, metadata !191, i1 false, i1 false, i32 0, i32 0, null, i32 256, i1 false, null, null, i32 0, metadata !64, i32 1669} ; [ DW_TAG_subprogram ]
!191 = metadata !{i32 786453, i32 0, metadata !"", i32 0, i32 0, i64 0, i64 0, i64 0, i32 0, null, metadata !192, i32 0, i32 0} ; [ DW_TAG_subroutine_type ]
!192 = metadata !{metadata !168, metadata !73, metadata !68}
!193 = metadata !{i32 786478, i32 0, metadata !51, metadata !"operator=", metadata !"operator=", metadata !"_ZN11ap_int_baseILi6ELb0ELb1EEaSEj", metadata !52, i32 1670, metadata !194, i1 false, i1 false, i32 0, i32 0, null, i32 256, i1 false, null, null, i32 0, metadata !64, i32 1670} ; [ DW_TAG_subprogram ]
!194 = metadata !{i32 786453, i32 0, metadata !"", i32 0, i32 0, i64 0, i64 0, i64 0, i32 0, null, metadata !195, i32 0, i32 0} ; [ DW_TAG_subroutine_type ]
!195 = metadata !{metadata !168, metadata !73, metadata !113}
!196 = metadata !{i32 786478, i32 0, metadata !51, metadata !"operator=", metadata !"operator=", metadata !"_ZN11ap_int_baseILi6ELb0ELb1EEaSEx", metadata !52, i32 1671, metadata !197, i1 false, i1 false, i32 0, i32 0, null, i32 256, i1 false, null, null, i32 0, metadata !64, i32 1671} ; [ DW_TAG_subprogram ]
!197 = metadata !{i32 786453, i32 0, metadata !"", i32 0, i32 0, i64 0, i64 0, i64 0, i32 0, null, metadata !198, i32 0, i32 0} ; [ DW_TAG_subroutine_type ]
!198 = metadata !{metadata !168, metadata !73, metadata !125}
!199 = metadata !{i32 786478, i32 0, metadata !51, metadata !"operator=", metadata !"operator=", metadata !"_ZN11ap_int_baseILi6ELb0ELb1EEaSEy", metadata !52, i32 1672, metadata !200, i1 false, i1 false, i32 0, i32 0, null, i32 256, i1 false, null, null, i32 0, metadata !64, i32 1672} ; [ DW_TAG_subprogram ]
!200 = metadata !{i32 786453, i32 0, metadata !"", i32 0, i32 0, i64 0, i64 0, i64 0, i32 0, null, metadata !201, i32 0, i32 0} ; [ DW_TAG_subroutine_type ]
!201 = metadata !{metadata !168, metadata !73, metadata !130}
!202 = metadata !{i32 786478, i32 0, metadata !51, metadata !"operator unsigned char", metadata !"operator unsigned char", metadata !"_ZNK11ap_int_baseILi6ELb0ELb1EEcvhEv", metadata !52, i32 1710, metadata !203, i1 false, i1 false, i32 0, i32 0, null, i32 256, i1 false, null, null, i32 0, metadata !64, i32 1710} ; [ DW_TAG_subprogram ]
!203 = metadata !{i32 786453, i32 0, metadata !"", i32 0, i32 0, i64 0, i64 0, i64 0, i32 0, null, metadata !204, i32 0, i32 0} ; [ DW_TAG_subroutine_type ]
!204 = metadata !{metadata !205, metadata !211}
!205 = metadata !{i32 786454, metadata !51, metadata !"RetType", metadata !52, i32 1458, i64 0, i64 0, i64 0, i32 0, metadata !206} ; [ DW_TAG_typedef ]
!206 = metadata !{i32 786454, metadata !207, metadata !"Type", metadata !52, i32 1426, i64 0, i64 0, i64 0, i32 0, metadata !98} ; [ DW_TAG_typedef ]
!207 = metadata !{i32 786434, null, metadata !"retval<1, false>", metadata !52, i32 1425, i64 8, i64 8, i32 0, i32 0, null, metadata !208, i32 0, null, metadata !209} ; [ DW_TAG_class_type ]
!208 = metadata !{i32 0}
!209 = metadata !{metadata !210, metadata !69}
!210 = metadata !{i32 786480, null, metadata !"_AP_N", metadata !68, i64 1, null, i32 0, i32 0} ; [ DW_TAG_template_value_parameter ]
!211 = metadata !{i32 786447, i32 0, metadata !"", i32 0, i32 0, i64 64, i64 64, i64 0, i32 64, metadata !78} ; [ DW_TAG_pointer_type ]
!212 = metadata !{i32 786478, i32 0, metadata !51, metadata !"to_bool", metadata !"to_bool", metadata !"_ZNK11ap_int_baseILi6ELb0ELb1EE7to_boolEv", metadata !52, i32 1716, metadata !213, i1 false, i1 false, i32 0, i32 0, null, i32 256, i1 false, null, null, i32 0, metadata !64, i32 1716} ; [ DW_TAG_subprogram ]
!213 = metadata !{i32 786453, i32 0, metadata !"", i32 0, i32 0, i64 0, i64 0, i64 0, i32 0, null, metadata !214, i32 0, i32 0} ; [ DW_TAG_subroutine_type ]
!214 = metadata !{metadata !45, metadata !211}
!215 = metadata !{i32 786478, i32 0, metadata !51, metadata !"to_uchar", metadata !"to_uchar", metadata !"_ZNK11ap_int_baseILi6ELb0ELb1EE8to_ucharEv", metadata !52, i32 1717, metadata !216, i1 false, i1 false, i32 0, i32 0, null, i32 256, i1 false, null, null, i32 0, metadata !64, i32 1717} ; [ DW_TAG_subprogram ]
!216 = metadata !{i32 786453, i32 0, metadata !"", i32 0, i32 0, i64 0, i64 0, i64 0, i32 0, null, metadata !217, i32 0, i32 0} ; [ DW_TAG_subroutine_type ]
!217 = metadata !{metadata !98, metadata !211}
!218 = metadata !{i32 786478, i32 0, metadata !51, metadata !"to_char", metadata !"to_char", metadata !"_ZNK11ap_int_baseILi6ELb0ELb1EE7to_charEv", metadata !52, i32 1718, metadata !219, i1 false, i1 false, i32 0, i32 0, null, i32 256, i1 false, null, null, i32 0, metadata !64, i32 1718} ; [ DW_TAG_subprogram ]
!219 = metadata !{i32 786453, i32 0, metadata !"", i32 0, i32 0, i64 0, i64 0, i64 0, i32 0, null, metadata !220, i32 0, i32 0} ; [ DW_TAG_subroutine_type ]
!220 = metadata !{metadata !94, metadata !211}
!221 = metadata !{i32 786478, i32 0, metadata !51, metadata !"to_ushort", metadata !"to_ushort", metadata !"_ZNK11ap_int_baseILi6ELb0ELb1EE9to_ushortEv", metadata !52, i32 1719, metadata !222, i1 false, i1 false, i32 0, i32 0, null, i32 256, i1 false, null, null, i32 0, metadata !64, i32 1719} ; [ DW_TAG_subprogram ]
!222 = metadata !{i32 786453, i32 0, metadata !"", i32 0, i32 0, i64 0, i64 0, i64 0, i32 0, null, metadata !223, i32 0, i32 0} ; [ DW_TAG_subroutine_type ]
!223 = metadata !{metadata !106, metadata !211}
!224 = metadata !{i32 786478, i32 0, metadata !51, metadata !"to_short", metadata !"to_short", metadata !"_ZNK11ap_int_baseILi6ELb0ELb1EE8to_shortEv", metadata !52, i32 1720, metadata !225, i1 false, i1 false, i32 0, i32 0, null, i32 256, i1 false, null, null, i32 0, metadata !64, i32 1720} ; [ DW_TAG_subprogram ]
!225 = metadata !{i32 786453, i32 0, metadata !"", i32 0, i32 0, i64 0, i64 0, i64 0, i32 0, null, metadata !226, i32 0, i32 0} ; [ DW_TAG_subroutine_type ]
!226 = metadata !{metadata !102, metadata !211}
!227 = metadata !{i32 786478, i32 0, metadata !51, metadata !"to_int", metadata !"to_int", metadata !"_ZNK11ap_int_baseILi6ELb0ELb1EE6to_intEv", metadata !52, i32 1721, metadata !228, i1 false, i1 false, i32 0, i32 0, null, i32 256, i1 false, null, null, i32 0, metadata !64, i32 1721} ; [ DW_TAG_subprogram ]
!228 = metadata !{i32 786453, i32 0, metadata !"", i32 0, i32 0, i64 0, i64 0, i64 0, i32 0, null, metadata !229, i32 0, i32 0} ; [ DW_TAG_subroutine_type ]
!229 = metadata !{metadata !68, metadata !211}
!230 = metadata !{i32 786478, i32 0, metadata !51, metadata !"to_uint", metadata !"to_uint", metadata !"_ZNK11ap_int_baseILi6ELb0ELb1EE7to_uintEv", metadata !52, i32 1722, metadata !231, i1 false, i1 false, i32 0, i32 0, null, i32 256, i1 false, null, null, i32 0, metadata !64, i32 1722} ; [ DW_TAG_subprogram ]
!231 = metadata !{i32 786453, i32 0, metadata !"", i32 0, i32 0, i64 0, i64 0, i64 0, i32 0, null, metadata !232, i32 0, i32 0} ; [ DW_TAG_subroutine_type ]
!232 = metadata !{metadata !113, metadata !211}
!233 = metadata !{i32 786478, i32 0, metadata !51, metadata !"to_long", metadata !"to_long", metadata !"_ZNK11ap_int_baseILi6ELb0ELb1EE7to_longEv", metadata !52, i32 1723, metadata !234, i1 false, i1 false, i32 0, i32 0, null, i32 256, i1 false, null, null, i32 0, metadata !64, i32 1723} ; [ DW_TAG_subprogram ]
!234 = metadata !{i32 786453, i32 0, metadata !"", i32 0, i32 0, i64 0, i64 0, i64 0, i32 0, null, metadata !235, i32 0, i32 0} ; [ DW_TAG_subroutine_type ]
!235 = metadata !{metadata !117, metadata !211}
!236 = metadata !{i32 786478, i32 0, metadata !51, metadata !"to_ulong", metadata !"to_ulong", metadata !"_ZNK11ap_int_baseILi6ELb0ELb1EE8to_ulongEv", metadata !52, i32 1724, metadata !237, i1 false, i1 false, i32 0, i32 0, null, i32 256, i1 false, null, null, i32 0, metadata !64, i32 1724} ; [ DW_TAG_subprogram ]
!237 = metadata !{i32 786453, i32 0, metadata !"", i32 0, i32 0, i64 0, i64 0, i64 0, i32 0, null, metadata !238, i32 0, i32 0} ; [ DW_TAG_subroutine_type ]
!238 = metadata !{metadata !121, metadata !211}
!239 = metadata !{i32 786478, i32 0, metadata !51, metadata !"to_int64", metadata !"to_int64", metadata !"_ZNK11ap_int_baseILi6ELb0ELb1EE8to_int64Ev", metadata !52, i32 1725, metadata !240, i1 false, i1 false, i32 0, i32 0, null, i32 256, i1 false, null, null, i32 0, metadata !64, i32 1725} ; [ DW_TAG_subprogram ]
!240 = metadata !{i32 786453, i32 0, metadata !"", i32 0, i32 0, i64 0, i64 0, i64 0, i32 0, null, metadata !241, i32 0, i32 0} ; [ DW_TAG_subroutine_type ]
!241 = metadata !{metadata !125, metadata !211}
!242 = metadata !{i32 786478, i32 0, metadata !51, metadata !"to_uint64", metadata !"to_uint64", metadata !"_ZNK11ap_int_baseILi6ELb0ELb1EE9to_uint64Ev", metadata !52, i32 1726, metadata !243, i1 false, i1 false, i32 0, i32 0, null, i32 256, i1 false, null, null, i32 0, metadata !64, i32 1726} ; [ DW_TAG_subprogram ]
!243 = metadata !{i32 786453, i32 0, metadata !"", i32 0, i32 0, i64 0, i64 0, i64 0, i32 0, null, metadata !244, i32 0, i32 0} ; [ DW_TAG_subroutine_type ]
!244 = metadata !{metadata !130, metadata !211}
!245 = metadata !{i32 786478, i32 0, metadata !51, metadata !"to_double", metadata !"to_double", metadata !"_ZNK11ap_int_baseILi6ELb0ELb1EE9to_doubleEv", metadata !52, i32 1727, metadata !246, i1 false, i1 false, i32 0, i32 0, null, i32 256, i1 false, null, null, i32 0, metadata !64, i32 1727} ; [ DW_TAG_subprogram ]
!246 = metadata !{i32 786453, i32 0, metadata !"", i32 0, i32 0, i64 0, i64 0, i64 0, i32 0, null, metadata !247, i32 0, i32 0} ; [ DW_TAG_subroutine_type ]
!247 = metadata !{metadata !144, metadata !211}
!248 = metadata !{i32 786478, i32 0, metadata !51, metadata !"length", metadata !"length", metadata !"_ZNK11ap_int_baseILi6ELb0ELb1EE6lengthEv", metadata !52, i32 1741, metadata !228, i1 false, i1 false, i32 0, i32 0, null, i32 256, i1 false, null, null, i32 0, metadata !64, i32 1741} ; [ DW_TAG_subprogram ]
!249 = metadata !{i32 786478, i32 0, metadata !51, metadata !"length", metadata !"length", metadata !"_ZNVK11ap_int_baseILi6ELb0ELb1EE6lengthEv", metadata !52, i32 1742, metadata !250, i1 false, i1 false, i32 0, i32 0, null, i32 256, i1 false, null, null, i32 0, metadata !64, i32 1742} ; [ DW_TAG_subprogram ]
!250 = metadata !{i32 786453, i32 0, metadata !"", i32 0, i32 0, i64 0, i64 0, i64 0, i32 0, null, metadata !251, i32 0, i32 0} ; [ DW_TAG_subroutine_type ]
!251 = metadata !{metadata !68, metadata !252}
!252 = metadata !{i32 786447, i32 0, metadata !"", i32 0, i32 0, i64 64, i64 64, i64 0, i32 64, metadata !86} ; [ DW_TAG_pointer_type ]
!253 = metadata !{i32 786478, i32 0, metadata !51, metadata !"reverse", metadata !"reverse", metadata !"_ZN11ap_int_baseILi6ELb0ELb1EE7reverseEv", metadata !52, i32 1747, metadata !254, i1 false, i1 false, i32 0, i32 0, null, i32 256, i1 false, null, null, i32 0, metadata !64, i32 1747} ; [ DW_TAG_subprogram ]
!254 = metadata !{i32 786453, i32 0, metadata !"", i32 0, i32 0, i64 0, i64 0, i64 0, i32 0, null, metadata !255, i32 0, i32 0} ; [ DW_TAG_subroutine_type ]
!255 = metadata !{metadata !168, metadata !73}
!256 = metadata !{i32 786478, i32 0, metadata !51, metadata !"iszero", metadata !"iszero", metadata !"_ZNK11ap_int_baseILi6ELb0ELb1EE6iszeroEv", metadata !52, i32 1753, metadata !213, i1 false, i1 false, i32 0, i32 0, null, i32 256, i1 false, null, null, i32 0, metadata !64, i32 1753} ; [ DW_TAG_subprogram ]
!257 = metadata !{i32 786478, i32 0, metadata !51, metadata !"is_zero", metadata !"is_zero", metadata !"_ZNK11ap_int_baseILi6ELb0ELb1EE7is_zeroEv", metadata !52, i32 1758, metadata !213, i1 false, i1 false, i32 0, i32 0, null, i32 256, i1 false, null, null, i32 0, metadata !64, i32 1758} ; [ DW_TAG_subprogram ]
!258 = metadata !{i32 786478, i32 0, metadata !51, metadata !"sign", metadata !"sign", metadata !"_ZNK11ap_int_baseILi6ELb0ELb1EE4signEv", metadata !52, i32 1763, metadata !213, i1 false, i1 false, i32 0, i32 0, null, i32 256, i1 false, null, null, i32 0, metadata !64, i32 1763} ; [ DW_TAG_subprogram ]
!259 = metadata !{i32 786478, i32 0, metadata !51, metadata !"clear", metadata !"clear", metadata !"_ZN11ap_int_baseILi6ELb0ELb1EE5clearEi", metadata !52, i32 1771, metadata !108, i1 false, i1 false, i32 0, i32 0, null, i32 256, i1 false, null, null, i32 0, metadata !64, i32 1771} ; [ DW_TAG_subprogram ]
!260 = metadata !{i32 786478, i32 0, metadata !51, metadata !"invert", metadata !"invert", metadata !"_ZN11ap_int_baseILi6ELb0ELb1EE6invertEi", metadata !52, i32 1777, metadata !108, i1 false, i1 false, i32 0, i32 0, null, i32 256, i1 false, null, null, i32 0, metadata !64, i32 1777} ; [ DW_TAG_subprogram ]
!261 = metadata !{i32 786478, i32 0, metadata !51, metadata !"test", metadata !"test", metadata !"_ZNK11ap_int_baseILi6ELb0ELb1EE4testEi", metadata !52, i32 1785, metadata !262, i1 false, i1 false, i32 0, i32 0, null, i32 256, i1 false, null, null, i32 0, metadata !64, i32 1785} ; [ DW_TAG_subprogram ]
!262 = metadata !{i32 786453, i32 0, metadata !"", i32 0, i32 0, i64 0, i64 0, i64 0, i32 0, null, metadata !263, i32 0, i32 0} ; [ DW_TAG_subroutine_type ]
!263 = metadata !{metadata !45, metadata !211, metadata !68}
!264 = metadata !{i32 786478, i32 0, metadata !51, metadata !"set", metadata !"set", metadata !"_ZN11ap_int_baseILi6ELb0ELb1EE3setEi", metadata !52, i32 1791, metadata !108, i1 false, i1 false, i32 0, i32 0, null, i32 256, i1 false, null, null, i32 0, metadata !64, i32 1791} ; [ DW_TAG_subprogram ]
!265 = metadata !{i32 786478, i32 0, metadata !51, metadata !"set", metadata !"set", metadata !"_ZN11ap_int_baseILi6ELb0ELb1EE3setEib", metadata !52, i32 1797, metadata !266, i1 false, i1 false, i32 0, i32 0, null, i32 256, i1 false, null, null, i32 0, metadata !64, i32 1797} ; [ DW_TAG_subprogram ]
!266 = metadata !{i32 786453, i32 0, metadata !"", i32 0, i32 0, i64 0, i64 0, i64 0, i32 0, null, metadata !267, i32 0, i32 0} ; [ DW_TAG_subroutine_type ]
!267 = metadata !{null, metadata !73, metadata !68, metadata !45}
!268 = metadata !{i32 786478, i32 0, metadata !51, metadata !"lrotate", metadata !"lrotate", metadata !"_ZN11ap_int_baseILi6ELb0ELb1EE7lrotateEi", metadata !52, i32 1804, metadata !108, i1 false, i1 false, i32 0, i32 0, null, i32 256, i1 false, null, null, i32 0, metadata !64, i32 1804} ; [ DW_TAG_subprogram ]
!269 = metadata !{i32 786478, i32 0, metadata !51, metadata !"rrotate", metadata !"rrotate", metadata !"_ZN11ap_int_baseILi6ELb0ELb1EE7rrotateEi", metadata !52, i32 1813, metadata !108, i1 false, i1 false, i32 0, i32 0, null, i32 256, i1 false, null, null, i32 0, metadata !64, i32 1813} ; [ DW_TAG_subprogram ]
!270 = metadata !{i32 786478, i32 0, metadata !51, metadata !"set_bit", metadata !"set_bit", metadata !"_ZN11ap_int_baseILi6ELb0ELb1EE7set_bitEib", metadata !52, i32 1821, metadata !266, i1 false, i1 false, i32 0, i32 0, null, i32 256, i1 false, null, null, i32 0, metadata !64, i32 1821} ; [ DW_TAG_subprogram ]
!271 = metadata !{i32 786478, i32 0, metadata !51, metadata !"get_bit", metadata !"get_bit", metadata !"_ZNK11ap_int_baseILi6ELb0ELb1EE7get_bitEi", metadata !52, i32 1826, metadata !262, i1 false, i1 false, i32 0, i32 0, null, i32 256, i1 false, null, null, i32 0, metadata !64, i32 1826} ; [ DW_TAG_subprogram ]
!272 = metadata !{i32 786478, i32 0, metadata !51, metadata !"b_not", metadata !"b_not", metadata !"_ZN11ap_int_baseILi6ELb0ELb1EE5b_notEv", metadata !52, i32 1831, metadata !71, i1 false, i1 false, i32 0, i32 0, null, i32 256, i1 false, null, null, i32 0, metadata !64, i32 1831} ; [ DW_TAG_subprogram ]
!273 = metadata !{i32 786478, i32 0, metadata !51, metadata !"countLeadingZeros", metadata !"countLeadingZeros", metadata !"_ZN11ap_int_baseILi6ELb0ELb1EE17countLeadingZerosEv", metadata !52, i32 1838, metadata !274, i1 false, i1 false, i32 0, i32 0, null, i32 256, i1 false, null, null, i32 0, metadata !64, i32 1838} ; [ DW_TAG_subprogram ]
!274 = metadata !{i32 786453, i32 0, metadata !"", i32 0, i32 0, i64 0, i64 0, i64 0, i32 0, null, metadata !275, i32 0, i32 0} ; [ DW_TAG_subroutine_type ]
!275 = metadata !{metadata !68, metadata !73}
!276 = metadata !{i32 786478, i32 0, metadata !51, metadata !"operator++", metadata !"operator++", metadata !"_ZN11ap_int_baseILi6ELb0ELb1EEppEv", metadata !52, i32 1895, metadata !254, i1 false, i1 false, i32 0, i32 0, null, i32 256, i1 false, null, null, i32 0, metadata !64, i32 1895} ; [ DW_TAG_subprogram ]
!277 = metadata !{i32 786478, i32 0, metadata !51, metadata !"operator--", metadata !"operator--", metadata !"_ZN11ap_int_baseILi6ELb0ELb1EEmmEv", metadata !52, i32 1899, metadata !254, i1 false, i1 false, i32 0, i32 0, null, i32 256, i1 false, null, null, i32 0, metadata !64, i32 1899} ; [ DW_TAG_subprogram ]
!278 = metadata !{i32 786478, i32 0, metadata !51, metadata !"operator++", metadata !"operator++", metadata !"_ZN11ap_int_baseILi6ELb0ELb1EEppEi", metadata !52, i32 1907, metadata !279, i1 false, i1 false, i32 0, i32 0, null, i32 256, i1 false, null, null, i32 0, metadata !64, i32 1907} ; [ DW_TAG_subprogram ]
!279 = metadata !{i32 786453, i32 0, metadata !"", i32 0, i32 0, i64 0, i64 0, i64 0, i32 0, null, metadata !280, i32 0, i32 0} ; [ DW_TAG_subroutine_type ]
!280 = metadata !{metadata !78, metadata !73, metadata !68}
!281 = metadata !{i32 786478, i32 0, metadata !51, metadata !"operator--", metadata !"operator--", metadata !"_ZN11ap_int_baseILi6ELb0ELb1EEmmEi", metadata !52, i32 1912, metadata !279, i1 false, i1 false, i32 0, i32 0, null, i32 256, i1 false, null, null, i32 0, metadata !64, i32 1912} ; [ DW_TAG_subprogram ]
!282 = metadata !{i32 786478, i32 0, metadata !51, metadata !"operator+", metadata !"operator+", metadata !"_ZNK11ap_int_baseILi6ELb0ELb1EEpsEv", metadata !52, i32 1921, metadata !283, i1 false, i1 false, i32 0, i32 0, null, i32 256, i1 false, null, null, i32 0, metadata !64, i32 1921} ; [ DW_TAG_subprogram ]
!283 = metadata !{i32 786453, i32 0, metadata !"", i32 0, i32 0, i64 0, i64 0, i64 0, i32 0, null, metadata !284, i32 0, i32 0} ; [ DW_TAG_subroutine_type ]
!284 = metadata !{metadata !51, metadata !211}
!285 = metadata !{i32 786478, i32 0, metadata !51, metadata !"operator!", metadata !"operator!", metadata !"_ZNK11ap_int_baseILi6ELb0ELb1EEntEv", metadata !52, i32 1927, metadata !213, i1 false, i1 false, i32 0, i32 0, null, i32 256, i1 false, null, null, i32 0, metadata !64, i32 1927} ; [ DW_TAG_subprogram ]
!286 = metadata !{i32 786478, i32 0, metadata !51, metadata !"operator-", metadata !"operator-", metadata !"_ZNK11ap_int_baseILi6ELb0ELb1EEngEv", metadata !52, i32 1932, metadata !287, i1 false, i1 false, i32 0, i32 0, null, i32 256, i1 false, null, null, i32 0, metadata !64, i32 1932} ; [ DW_TAG_subprogram ]
!287 = metadata !{i32 786453, i32 0, metadata !"", i32 0, i32 0, i64 0, i64 0, i64 0, i32 0, null, metadata !288, i32 0, i32 0} ; [ DW_TAG_subroutine_type ]
!288 = metadata !{metadata !289, metadata !211}
!289 = metadata !{i32 786434, null, metadata !"ap_int_base<7, true, true>", metadata !52, i32 651, i32 0, i32 0, i32 0, i32 4, null, null, i32 0} ; [ DW_TAG_class_type ]
!290 = metadata !{i32 786478, i32 0, metadata !51, metadata !"range", metadata !"range", metadata !"_ZN11ap_int_baseILi6ELb0ELb1EE5rangeEii", metadata !52, i32 2062, metadata !291, i1 false, i1 false, i32 0, i32 0, null, i32 256, i1 false, null, null, i32 0, metadata !64, i32 2062} ; [ DW_TAG_subprogram ]
!291 = metadata !{i32 786453, i32 0, metadata !"", i32 0, i32 0, i64 0, i64 0, i64 0, i32 0, null, metadata !292, i32 0, i32 0} ; [ DW_TAG_subroutine_type ]
!292 = metadata !{metadata !293, metadata !73, metadata !68, metadata !68}
!293 = metadata !{i32 786434, null, metadata !"ap_range_ref<6, false>", metadata !52, i32 925, i32 0, i32 0, i32 0, i32 4, null, null, i32 0} ; [ DW_TAG_class_type ]
!294 = metadata !{i32 786478, i32 0, metadata !51, metadata !"operator()", metadata !"operator()", metadata !"_ZN11ap_int_baseILi6ELb0ELb1EEclEii", metadata !52, i32 2068, metadata !291, i1 false, i1 false, i32 0, i32 0, null, i32 256, i1 false, null, null, i32 0, metadata !64, i32 2068} ; [ DW_TAG_subprogram ]
!295 = metadata !{i32 786478, i32 0, metadata !51, metadata !"range", metadata !"range", metadata !"_ZNK11ap_int_baseILi6ELb0ELb1EE5rangeEii", metadata !52, i32 2074, metadata !296, i1 false, i1 false, i32 0, i32 0, null, i32 256, i1 false, null, null, i32 0, metadata !64, i32 2074} ; [ DW_TAG_subprogram ]
!296 = metadata !{i32 786453, i32 0, metadata !"", i32 0, i32 0, i64 0, i64 0, i64 0, i32 0, null, metadata !297, i32 0, i32 0} ; [ DW_TAG_subroutine_type ]
!297 = metadata !{metadata !293, metadata !211, metadata !68, metadata !68}
!298 = metadata !{i32 786478, i32 0, metadata !51, metadata !"operator()", metadata !"operator()", metadata !"_ZNK11ap_int_baseILi6ELb0ELb1EEclEii", metadata !52, i32 2080, metadata !296, i1 false, i1 false, i32 0, i32 0, null, i32 256, i1 false, null, null, i32 0, metadata !64, i32 2080} ; [ DW_TAG_subprogram ]
!299 = metadata !{i32 786478, i32 0, metadata !51, metadata !"operator[]", metadata !"operator[]", metadata !"_ZN11ap_int_baseILi6ELb0ELb1EEixEi", metadata !52, i32 2099, metadata !300, i1 false, i1 false, i32 0, i32 0, null, i32 256, i1 false, null, null, i32 0, metadata !64, i32 2099} ; [ DW_TAG_subprogram ]
!300 = metadata !{i32 786453, i32 0, metadata !"", i32 0, i32 0, i64 0, i64 0, i64 0, i32 0, null, metadata !301, i32 0, i32 0} ; [ DW_TAG_subroutine_type ]
!301 = metadata !{metadata !302, metadata !73, metadata !68}
!302 = metadata !{i32 786434, null, metadata !"ap_bit_ref<6, false>", metadata !52, i32 1249, i32 0, i32 0, i32 0, i32 4, null, null, i32 0} ; [ DW_TAG_class_type ]
!303 = metadata !{i32 786478, i32 0, metadata !51, metadata !"operator[]", metadata !"operator[]", metadata !"_ZNK11ap_int_baseILi6ELb0ELb1EEixEi", metadata !52, i32 2113, metadata !262, i1 false, i1 false, i32 0, i32 0, null, i32 256, i1 false, null, null, i32 0, metadata !64, i32 2113} ; [ DW_TAG_subprogram ]
!304 = metadata !{i32 786478, i32 0, metadata !51, metadata !"bit", metadata !"bit", metadata !"_ZN11ap_int_baseILi6ELb0ELb1EE3bitEi", metadata !52, i32 2127, metadata !300, i1 false, i1 false, i32 0, i32 0, null, i32 256, i1 false, null, null, i32 0, metadata !64, i32 2127} ; [ DW_TAG_subprogram ]
!305 = metadata !{i32 786478, i32 0, metadata !51, metadata !"bit", metadata !"bit", metadata !"_ZNK11ap_int_baseILi6ELb0ELb1EE3bitEi", metadata !52, i32 2141, metadata !262, i1 false, i1 false, i32 0, i32 0, null, i32 256, i1 false, null, null, i32 0, metadata !64, i32 2141} ; [ DW_TAG_subprogram ]
!306 = metadata !{i32 786478, i32 0, metadata !51, metadata !"and_reduce", metadata !"and_reduce", metadata !"_ZN11ap_int_baseILi6ELb0ELb1EE10and_reduceEv", metadata !52, i32 2321, metadata !307, i1 false, i1 false, i32 0, i32 0, null, i32 256, i1 false, null, null, i32 0, metadata !64, i32 2321} ; [ DW_TAG_subprogram ]
!307 = metadata !{i32 786453, i32 0, metadata !"", i32 0, i32 0, i64 0, i64 0, i64 0, i32 0, null, metadata !308, i32 0, i32 0} ; [ DW_TAG_subroutine_type ]
!308 = metadata !{metadata !45, metadata !73}
!309 = metadata !{i32 786478, i32 0, metadata !51, metadata !"nand_reduce", metadata !"nand_reduce", metadata !"_ZN11ap_int_baseILi6ELb0ELb1EE11nand_reduceEv", metadata !52, i32 2324, metadata !307, i1 false, i1 false, i32 0, i32 0, null, i32 256, i1 false, null, null, i32 0, metadata !64, i32 2324} ; [ DW_TAG_subprogram ]
!310 = metadata !{i32 786478, i32 0, metadata !51, metadata !"or_reduce", metadata !"or_reduce", metadata !"_ZN11ap_int_baseILi6ELb0ELb1EE9or_reduceEv", metadata !52, i32 2327, metadata !307, i1 false, i1 false, i32 0, i32 0, null, i32 256, i1 false, null, null, i32 0, metadata !64, i32 2327} ; [ DW_TAG_subprogram ]
!311 = metadata !{i32 786478, i32 0, metadata !51, metadata !"nor_reduce", metadata !"nor_reduce", metadata !"_ZN11ap_int_baseILi6ELb0ELb1EE10nor_reduceEv", metadata !52, i32 2330, metadata !307, i1 false, i1 false, i32 0, i32 0, null, i32 256, i1 false, null, null, i32 0, metadata !64, i32 2330} ; [ DW_TAG_subprogram ]
!312 = metadata !{i32 786478, i32 0, metadata !51, metadata !"xor_reduce", metadata !"xor_reduce", metadata !"_ZN11ap_int_baseILi6ELb0ELb1EE10xor_reduceEv", metadata !52, i32 2333, metadata !307, i1 false, i1 false, i32 0, i32 0, null, i32 256, i1 false, null, null, i32 0, metadata !64, i32 2333} ; [ DW_TAG_subprogram ]
!313 = metadata !{i32 786478, i32 0, metadata !51, metadata !"xnor_reduce", metadata !"xnor_reduce", metadata !"_ZN11ap_int_baseILi6ELb0ELb1EE11xnor_reduceEv", metadata !52, i32 2336, metadata !307, i1 false, i1 false, i32 0, i32 0, null, i32 256, i1 false, null, null, i32 0, metadata !64, i32 2336} ; [ DW_TAG_subprogram ]
!314 = metadata !{i32 786478, i32 0, metadata !51, metadata !"and_reduce", metadata !"and_reduce", metadata !"_ZNK11ap_int_baseILi6ELb0ELb1EE10and_reduceEv", metadata !52, i32 2340, metadata !213, i1 false, i1 false, i32 0, i32 0, null, i32 256, i1 false, null, null, i32 0, metadata !64, i32 2340} ; [ DW_TAG_subprogram ]
!315 = metadata !{i32 786478, i32 0, metadata !51, metadata !"nand_reduce", metadata !"nand_reduce", metadata !"_ZNK11ap_int_baseILi6ELb0ELb1EE11nand_reduceEv", metadata !52, i32 2343, metadata !213, i1 false, i1 false, i32 0, i32 0, null, i32 256, i1 false, null, null, i32 0, metadata !64, i32 2343} ; [ DW_TAG_subprogram ]
!316 = metadata !{i32 786478, i32 0, metadata !51, metadata !"or_reduce", metadata !"or_reduce", metadata !"_ZNK11ap_int_baseILi6ELb0ELb1EE9or_reduceEv", metadata !52, i32 2346, metadata !213, i1 false, i1 false, i32 0, i32 0, null, i32 256, i1 false, null, null, i32 0, metadata !64, i32 2346} ; [ DW_TAG_subprogram ]
!317 = metadata !{i32 786478, i32 0, metadata !51, metadata !"nor_reduce", metadata !"nor_reduce", metadata !"_ZNK11ap_int_baseILi6ELb0ELb1EE10nor_reduceEv", metadata !52, i32 2349, metadata !213, i1 false, i1 false, i32 0, i32 0, null, i32 256, i1 false, null, null, i32 0, metadata !64, i32 2349} ; [ DW_TAG_subprogram ]
!318 = metadata !{i32 786478, i32 0, metadata !51, metadata !"xor_reduce", metadata !"xor_reduce", metadata !"_ZNK11ap_int_baseILi6ELb0ELb1EE10xor_reduceEv", metadata !52, i32 2352, metadata !213, i1 false, i1 false, i32 0, i32 0, null, i32 256, i1 false, null, null, i32 0, metadata !64, i32 2352} ; [ DW_TAG_subprogram ]
!319 = metadata !{i32 786478, i32 0, metadata !51, metadata !"xnor_reduce", metadata !"xnor_reduce", metadata !"_ZNK11ap_int_baseILi6ELb0ELb1EE11xnor_reduceEv", metadata !52, i32 2355, metadata !213, i1 false, i1 false, i32 0, i32 0, null, i32 256, i1 false, null, null, i32 0, metadata !64, i32 2355} ; [ DW_TAG_subprogram ]
!320 = metadata !{i32 786478, i32 0, metadata !51, metadata !"to_string", metadata !"to_string", metadata !"_ZNK11ap_int_baseILi6ELb0ELb1EE9to_stringEPci8BaseModeb", metadata !52, i32 2362, metadata !321, i1 false, i1 false, i32 0, i32 0, null, i32 256, i1 false, null, null, i32 0, metadata !64, i32 2362} ; [ DW_TAG_subprogram ]
!321 = metadata !{i32 786453, i32 0, metadata !"", i32 0, i32 0, i64 0, i64 0, i64 0, i32 0, null, metadata !322, i32 0, i32 0} ; [ DW_TAG_subroutine_type ]
!322 = metadata !{null, metadata !211, metadata !323, metadata !68, metadata !324, metadata !45}
!323 = metadata !{i32 786447, null, metadata !"", null, i32 0, i64 64, i64 64, i64 0, i32 0, metadata !150} ; [ DW_TAG_pointer_type ]
!324 = metadata !{i32 786436, null, metadata !"BaseMode", metadata !52, i32 603, i64 5, i64 8, i32 0, i32 0, null, metadata !325, i32 0, i32 0} ; [ DW_TAG_enumeration_type ]
!325 = metadata !{metadata !326, metadata !327, metadata !328, metadata !329}
!326 = metadata !{i32 786472, metadata !"SC_BIN", i64 2} ; [ DW_TAG_enumerator ]
!327 = metadata !{i32 786472, metadata !"SC_OCT", i64 8} ; [ DW_TAG_enumerator ]
!328 = metadata !{i32 786472, metadata !"SC_DEC", i64 10} ; [ DW_TAG_enumerator ]
!329 = metadata !{i32 786472, metadata !"SC_HEX", i64 16} ; [ DW_TAG_enumerator ]
!330 = metadata !{i32 786478, i32 0, metadata !51, metadata !"to_string", metadata !"to_string", metadata !"_ZNK11ap_int_baseILi6ELb0ELb1EE9to_stringE8BaseModeb", metadata !52, i32 2389, metadata !331, i1 false, i1 false, i32 0, i32 0, null, i32 256, i1 false, null, null, i32 0, metadata !64, i32 2389} ; [ DW_TAG_subprogram ]
!331 = metadata !{i32 786453, i32 0, metadata !"", i32 0, i32 0, i64 0, i64 0, i64 0, i32 0, null, metadata !332, i32 0, i32 0} ; [ DW_TAG_subroutine_type ]
!332 = metadata !{metadata !323, metadata !211, metadata !324, metadata !45}
!333 = metadata !{i32 786478, i32 0, metadata !51, metadata !"to_string", metadata !"to_string", metadata !"_ZNK11ap_int_baseILi6ELb0ELb1EE9to_stringEab", metadata !52, i32 2393, metadata !334, i1 false, i1 false, i32 0, i32 0, null, i32 256, i1 false, null, null, i32 0, metadata !64, i32 2393} ; [ DW_TAG_subprogram ]
!334 = metadata !{i32 786453, i32 0, metadata !"", i32 0, i32 0, i64 0, i64 0, i64 0, i32 0, null, metadata !335, i32 0, i32 0} ; [ DW_TAG_subroutine_type ]
!335 = metadata !{metadata !323, metadata !211, metadata !94, metadata !45}
!336 = metadata !{metadata !337, metadata !69, metadata !338}
!337 = metadata !{i32 786480, null, metadata !"_AP_W", metadata !68, i64 6, null, i32 0, i32 0} ; [ DW_TAG_template_value_parameter ]
!338 = metadata !{i32 786480, null, metadata !"_AP_C", metadata !45, i64 1, null, i32 0, i32 0} ; [ DW_TAG_template_value_parameter ]
!339 = metadata !{i32 786478, i32 0, metadata !47, metadata !"ap_uint", metadata !"ap_uint", metadata !"", metadata !48, i32 186, metadata !340, i1 false, i1 false, i32 0, i32 0, null, i32 256, i1 false, null, null, i32 0, metadata !64, i32 186} ; [ DW_TAG_subprogram ]
!340 = metadata !{i32 786453, i32 0, metadata !"", i32 0, i32 0, i64 0, i64 0, i64 0, i32 0, null, metadata !341, i32 0, i32 0} ; [ DW_TAG_subroutine_type ]
!341 = metadata !{null, metadata !342}
!342 = metadata !{i32 786447, i32 0, metadata !"", i32 0, i32 0, i64 64, i64 64, i64 0, i32 64, metadata !47} ; [ DW_TAG_pointer_type ]
!343 = metadata !{i32 786478, i32 0, metadata !47, metadata !"ap_uint", metadata !"ap_uint", metadata !"", metadata !48, i32 248, metadata !344, i1 false, i1 false, i32 0, i32 0, null, i32 256, i1 false, null, null, i32 0, metadata !64, i32 248} ; [ DW_TAG_subprogram ]
!344 = metadata !{i32 786453, i32 0, metadata !"", i32 0, i32 0, i64 0, i64 0, i64 0, i32 0, null, metadata !345, i32 0, i32 0} ; [ DW_TAG_subroutine_type ]
!345 = metadata !{null, metadata !342, metadata !45}
!346 = metadata !{i32 786478, i32 0, metadata !47, metadata !"ap_uint", metadata !"ap_uint", metadata !"", metadata !48, i32 249, metadata !347, i1 false, i1 false, i32 0, i32 0, null, i32 256, i1 false, null, null, i32 0, metadata !64, i32 249} ; [ DW_TAG_subprogram ]
!347 = metadata !{i32 786453, i32 0, metadata !"", i32 0, i32 0, i64 0, i64 0, i64 0, i32 0, null, metadata !348, i32 0, i32 0} ; [ DW_TAG_subroutine_type ]
!348 = metadata !{null, metadata !342, metadata !94}
!349 = metadata !{i32 786478, i32 0, metadata !47, metadata !"ap_uint", metadata !"ap_uint", metadata !"", metadata !48, i32 250, metadata !350, i1 false, i1 false, i32 0, i32 0, null, i32 256, i1 false, null, null, i32 0, metadata !64, i32 250} ; [ DW_TAG_subprogram ]
!350 = metadata !{i32 786453, i32 0, metadata !"", i32 0, i32 0, i64 0, i64 0, i64 0, i32 0, null, metadata !351, i32 0, i32 0} ; [ DW_TAG_subroutine_type ]
!351 = metadata !{null, metadata !342, metadata !98}
!352 = metadata !{i32 786478, i32 0, metadata !47, metadata !"ap_uint", metadata !"ap_uint", metadata !"", metadata !48, i32 251, metadata !353, i1 false, i1 false, i32 0, i32 0, null, i32 256, i1 false, null, null, i32 0, metadata !64, i32 251} ; [ DW_TAG_subprogram ]
!353 = metadata !{i32 786453, i32 0, metadata !"", i32 0, i32 0, i64 0, i64 0, i64 0, i32 0, null, metadata !354, i32 0, i32 0} ; [ DW_TAG_subroutine_type ]
!354 = metadata !{null, metadata !342, metadata !102}
!355 = metadata !{i32 786478, i32 0, metadata !47, metadata !"ap_uint", metadata !"ap_uint", metadata !"", metadata !48, i32 252, metadata !356, i1 false, i1 false, i32 0, i32 0, null, i32 256, i1 false, null, null, i32 0, metadata !64, i32 252} ; [ DW_TAG_subprogram ]
!356 = metadata !{i32 786453, i32 0, metadata !"", i32 0, i32 0, i64 0, i64 0, i64 0, i32 0, null, metadata !357, i32 0, i32 0} ; [ DW_TAG_subroutine_type ]
!357 = metadata !{null, metadata !342, metadata !106}
!358 = metadata !{i32 786478, i32 0, metadata !47, metadata !"ap_uint", metadata !"ap_uint", metadata !"", metadata !48, i32 253, metadata !359, i1 false, i1 false, i32 0, i32 0, null, i32 256, i1 false, null, null, i32 0, metadata !64, i32 253} ; [ DW_TAG_subprogram ]
!359 = metadata !{i32 786453, i32 0, metadata !"", i32 0, i32 0, i64 0, i64 0, i64 0, i32 0, null, metadata !360, i32 0, i32 0} ; [ DW_TAG_subroutine_type ]
!360 = metadata !{null, metadata !342, metadata !68}
!361 = metadata !{i32 786478, i32 0, metadata !47, metadata !"ap_uint", metadata !"ap_uint", metadata !"", metadata !48, i32 254, metadata !362, i1 false, i1 false, i32 0, i32 0, null, i32 256, i1 false, null, null, i32 0, metadata !64, i32 254} ; [ DW_TAG_subprogram ]
!362 = metadata !{i32 786453, i32 0, metadata !"", i32 0, i32 0, i64 0, i64 0, i64 0, i32 0, null, metadata !363, i32 0, i32 0} ; [ DW_TAG_subroutine_type ]
!363 = metadata !{null, metadata !342, metadata !113}
!364 = metadata !{i32 786478, i32 0, metadata !47, metadata !"ap_uint", metadata !"ap_uint", metadata !"", metadata !48, i32 255, metadata !365, i1 false, i1 false, i32 0, i32 0, null, i32 256, i1 false, null, null, i32 0, metadata !64, i32 255} ; [ DW_TAG_subprogram ]
!365 = metadata !{i32 786453, i32 0, metadata !"", i32 0, i32 0, i64 0, i64 0, i64 0, i32 0, null, metadata !366, i32 0, i32 0} ; [ DW_TAG_subroutine_type ]
!366 = metadata !{null, metadata !342, metadata !117}
!367 = metadata !{i32 786478, i32 0, metadata !47, metadata !"ap_uint", metadata !"ap_uint", metadata !"", metadata !48, i32 256, metadata !368, i1 false, i1 false, i32 0, i32 0, null, i32 256, i1 false, null, null, i32 0, metadata !64, i32 256} ; [ DW_TAG_subprogram ]
!368 = metadata !{i32 786453, i32 0, metadata !"", i32 0, i32 0, i64 0, i64 0, i64 0, i32 0, null, metadata !369, i32 0, i32 0} ; [ DW_TAG_subroutine_type ]
!369 = metadata !{null, metadata !342, metadata !121}
!370 = metadata !{i32 786478, i32 0, metadata !47, metadata !"ap_uint", metadata !"ap_uint", metadata !"", metadata !48, i32 257, metadata !371, i1 false, i1 false, i32 0, i32 0, null, i32 256, i1 false, null, null, i32 0, metadata !64, i32 257} ; [ DW_TAG_subprogram ]
!371 = metadata !{i32 786453, i32 0, metadata !"", i32 0, i32 0, i64 0, i64 0, i64 0, i32 0, null, metadata !372, i32 0, i32 0} ; [ DW_TAG_subroutine_type ]
!372 = metadata !{null, metadata !342, metadata !131}
!373 = metadata !{i32 786478, i32 0, metadata !47, metadata !"ap_uint", metadata !"ap_uint", metadata !"", metadata !48, i32 258, metadata !374, i1 false, i1 false, i32 0, i32 0, null, i32 256, i1 false, null, null, i32 0, metadata !64, i32 258} ; [ DW_TAG_subprogram ]
!374 = metadata !{i32 786453, i32 0, metadata !"", i32 0, i32 0, i64 0, i64 0, i64 0, i32 0, null, metadata !375, i32 0, i32 0} ; [ DW_TAG_subroutine_type ]
!375 = metadata !{null, metadata !342, metadata !126}
!376 = metadata !{i32 786478, i32 0, metadata !47, metadata !"ap_uint", metadata !"ap_uint", metadata !"", metadata !48, i32 259, metadata !377, i1 false, i1 false, i32 0, i32 0, null, i32 256, i1 false, null, null, i32 0, metadata !64, i32 259} ; [ DW_TAG_subprogram ]
!377 = metadata !{i32 786453, i32 0, metadata !"", i32 0, i32 0, i64 0, i64 0, i64 0, i32 0, null, metadata !378, i32 0, i32 0} ; [ DW_TAG_subroutine_type ]
!378 = metadata !{null, metadata !342, metadata !135}
!379 = metadata !{i32 786478, i32 0, metadata !47, metadata !"ap_uint", metadata !"ap_uint", metadata !"", metadata !48, i32 260, metadata !380, i1 false, i1 false, i32 0, i32 0, null, i32 256, i1 false, null, null, i32 0, metadata !64, i32 260} ; [ DW_TAG_subprogram ]
!380 = metadata !{i32 786453, i32 0, metadata !"", i32 0, i32 0, i64 0, i64 0, i64 0, i32 0, null, metadata !381, i32 0, i32 0} ; [ DW_TAG_subroutine_type ]
!381 = metadata !{null, metadata !342, metadata !140}
!382 = metadata !{i32 786478, i32 0, metadata !47, metadata !"ap_uint", metadata !"ap_uint", metadata !"", metadata !48, i32 261, metadata !383, i1 false, i1 false, i32 0, i32 0, null, i32 256, i1 false, null, null, i32 0, metadata !64, i32 261} ; [ DW_TAG_subprogram ]
!383 = metadata !{i32 786453, i32 0, metadata !"", i32 0, i32 0, i64 0, i64 0, i64 0, i32 0, null, metadata !384, i32 0, i32 0} ; [ DW_TAG_subroutine_type ]
!384 = metadata !{null, metadata !342, metadata !144}
!385 = metadata !{i32 786478, i32 0, metadata !47, metadata !"ap_uint", metadata !"ap_uint", metadata !"", metadata !48, i32 263, metadata !386, i1 false, i1 false, i32 0, i32 0, null, i32 256, i1 false, null, null, i32 0, metadata !64, i32 263} ; [ DW_TAG_subprogram ]
!386 = metadata !{i32 786453, i32 0, metadata !"", i32 0, i32 0, i64 0, i64 0, i64 0, i32 0, null, metadata !387, i32 0, i32 0} ; [ DW_TAG_subroutine_type ]
!387 = metadata !{null, metadata !342, metadata !148}
!388 = metadata !{i32 786478, i32 0, metadata !47, metadata !"ap_uint", metadata !"ap_uint", metadata !"", metadata !48, i32 264, metadata !389, i1 false, i1 false, i32 0, i32 0, null, i32 256, i1 false, null, null, i32 0, metadata !64, i32 264} ; [ DW_TAG_subprogram ]
!389 = metadata !{i32 786453, i32 0, metadata !"", i32 0, i32 0, i64 0, i64 0, i64 0, i32 0, null, metadata !390, i32 0, i32 0} ; [ DW_TAG_subroutine_type ]
!390 = metadata !{null, metadata !342, metadata !148, metadata !94}
!391 = metadata !{i32 786478, i32 0, metadata !47, metadata !"operator=", metadata !"operator=", metadata !"_ZNV7ap_uintILi6EEaSERKS0_", metadata !48, i32 267, metadata !392, i1 false, i1 false, i32 0, i32 0, null, i32 256, i1 false, null, null, i32 0, metadata !64, i32 267} ; [ DW_TAG_subprogram ]
!392 = metadata !{i32 786453, i32 0, metadata !"", i32 0, i32 0, i64 0, i64 0, i64 0, i32 0, null, metadata !393, i32 0, i32 0} ; [ DW_TAG_subroutine_type ]
!393 = metadata !{null, metadata !394, metadata !396}
!394 = metadata !{i32 786447, i32 0, metadata !"", i32 0, i32 0, i64 64, i64 64, i64 0, i32 64, metadata !395} ; [ DW_TAG_pointer_type ]
!395 = metadata !{i32 786485, null, metadata !"", null, i32 0, i64 0, i64 0, i64 0, i32 0, metadata !47} ; [ DW_TAG_volatile_type ]
!396 = metadata !{i32 786448, null, null, null, i32 0, i64 0, i64 0, i64 0, i32 0, metadata !397} ; [ DW_TAG_reference_type ]
!397 = metadata !{i32 786470, null, metadata !"", null, i32 0, i64 0, i64 0, i64 0, i32 0, metadata !47} ; [ DW_TAG_const_type ]
!398 = metadata !{i32 786478, i32 0, metadata !47, metadata !"operator=", metadata !"operator=", metadata !"_ZNV7ap_uintILi6EEaSERVKS0_", metadata !48, i32 271, metadata !399, i1 false, i1 false, i32 0, i32 0, null, i32 256, i1 false, null, null, i32 0, metadata !64, i32 271} ; [ DW_TAG_subprogram ]
!399 = metadata !{i32 786453, i32 0, metadata !"", i32 0, i32 0, i64 0, i64 0, i64 0, i32 0, null, metadata !400, i32 0, i32 0} ; [ DW_TAG_subroutine_type ]
!400 = metadata !{null, metadata !394, metadata !401}
!401 = metadata !{i32 786448, null, null, null, i32 0, i64 0, i64 0, i64 0, i32 0, metadata !402} ; [ DW_TAG_reference_type ]
!402 = metadata !{i32 786470, null, metadata !"", null, i32 0, i64 0, i64 0, i64 0, i32 0, metadata !395} ; [ DW_TAG_const_type ]
!403 = metadata !{i32 786478, i32 0, metadata !47, metadata !"operator=", metadata !"operator=", metadata !"_ZN7ap_uintILi6EEaSERVKS0_", metadata !48, i32 275, metadata !404, i1 false, i1 false, i32 0, i32 0, null, i32 256, i1 false, null, null, i32 0, metadata !64, i32 275} ; [ DW_TAG_subprogram ]
!404 = metadata !{i32 786453, i32 0, metadata !"", i32 0, i32 0, i64 0, i64 0, i64 0, i32 0, null, metadata !405, i32 0, i32 0} ; [ DW_TAG_subroutine_type ]
!405 = metadata !{metadata !46, metadata !342, metadata !401}
!406 = metadata !{i32 786478, i32 0, metadata !47, metadata !"operator=", metadata !"operator=", metadata !"_ZN7ap_uintILi6EEaSERKS0_", metadata !48, i32 280, metadata !407, i1 false, i1 false, i32 0, i32 0, null, i32 256, i1 false, null, null, i32 0, metadata !64, i32 280} ; [ DW_TAG_subprogram ]
!407 = metadata !{i32 786453, i32 0, metadata !"", i32 0, i32 0, i64 0, i64 0, i64 0, i32 0, null, metadata !408, i32 0, i32 0} ; [ DW_TAG_subroutine_type ]
!408 = metadata !{metadata !46, metadata !342, metadata !396}
!409 = metadata !{i32 786478, i32 0, metadata !47, metadata !"~ap_uint", metadata !"~ap_uint", metadata !"", metadata !48, i32 183, metadata !340, i1 false, i1 false, i32 0, i32 0, null, i32 320, i1 false, null, null, i32 0, metadata !64, i32 183} ; [ DW_TAG_subprogram ]
!410 = metadata !{metadata !337}
!411 = metadata !{i32 786433, null, metadata !"", null, i32 0, i64 48, i64 8, i32 0, i32 0, metadata !45, metadata !412, i32 0, i32 0} ; [ DW_TAG_array_type ]
!412 = metadata !{metadata !413}
!413 = metadata !{i32 786465, i64 0, i64 5}       ; [ DW_TAG_subrange_type ]
!414 = metadata !{i32 42, i32 16, metadata !40, null}
!415 = metadata !{i32 790531, metadata !416, metadata !"out.V", null, i32 42, metadata !417, i32 0, i32 0} ; [ DW_TAG_arg_variable_field ]
!416 = metadata !{i32 786689, metadata !40, metadata !"out", metadata !41, i32 33554474, metadata !46, i32 0, i32 0} ; [ DW_TAG_arg_variable ]
!417 = metadata !{i32 786447, null, metadata !"", null, i32 0, i64 0, i64 0, i64 0, i32 0, metadata !418} ; [ DW_TAG_pointer_type ]
!418 = metadata !{i32 786438, null, metadata !"ap_uint<6>", metadata !48, i32 183, i64 6, i64 8, i32 0, i32 0, null, metadata !419, i32 0, null, metadata !410} ; [ DW_TAG_class_field_type ]
!419 = metadata !{metadata !420}
!420 = metadata !{i32 786438, null, metadata !"ap_int_base<6, false, true>", metadata !52, i32 1453, i64 6, i64 8, i32 0, i32 0, null, metadata !421, i32 0, null, metadata !336} ; [ DW_TAG_class_field_type ]
!421 = metadata !{metadata !422}
!422 = metadata !{i32 786438, null, metadata !"ssdm_int<6 + 1024 * 0, false>", metadata !56, i32 8, i64 6, i64 8, i32 0, i32 0, null, metadata !423, i32 0, null, metadata !66} ; [ DW_TAG_class_field_type ]
!423 = metadata !{metadata !58}
!424 = metadata !{i32 42, i32 36, metadata !40, null}
!425 = metadata !{i32 44, i32 1, metadata !426, null}
!426 = metadata !{i32 786443, metadata !40, i32 42, i32 41, metadata !41, i32 0} ; [ DW_TAG_lexical_block ]
!427 = metadata !{i32 45, i32 1, metadata !426, null}
!428 = metadata !{i32 790531, metadata !429, metadata !"ssdm_int<6 + 1024 * 0, false>.V", null, i32 280, metadata !432, i32 0, i32 0} ; [ DW_TAG_arg_variable_field ]
!429 = metadata !{i32 786689, metadata !430, metadata !"this", metadata !48, i32 16777496, metadata !431, i32 64, i32 0} ; [ DW_TAG_arg_variable ]
!430 = metadata !{i32 786478, i32 0, null, metadata !"operator=", metadata !"operator=", metadata !"_ZN7ap_uintILi6EEaSERKS0_", metadata !48, i32 280, metadata !407, i1 false, i1 true, i32 0, i32 0, null, i32 256, i1 false, null, null, metadata !406, metadata !64, i32 280} ; [ DW_TAG_subprogram ]
!431 = metadata !{i32 786447, null, metadata !"", null, i32 0, i64 64, i64 64, i64 0, i32 0, metadata !47} ; [ DW_TAG_pointer_type ]
!432 = metadata !{i32 786447, null, metadata !"", null, i32 0, i64 64, i64 64, i64 0, i32 0, metadata !418} ; [ DW_TAG_pointer_type ]
!433 = metadata !{i32 280, i32 50, metadata !430, metadata !434}
!434 = metadata !{i32 50, i32 2, metadata !435, null}
!435 = metadata !{i32 786443, metadata !436, i32 48, i32 2, metadata !41, i32 2} ; [ DW_TAG_lexical_block ]
!436 = metadata !{i32 786443, metadata !426, i32 47, i32 2, metadata !41, i32 1} ; [ DW_TAG_lexical_block ]
!437 = metadata !{i32 253, i32 60, metadata !438, metadata !440}
!438 = metadata !{i32 786443, metadata !439, i32 253, i32 58, metadata !48, i32 3} ; [ DW_TAG_lexical_block ]
!439 = metadata !{i32 786478, i32 0, null, metadata !"ap_uint", metadata !"ap_uint", metadata !"_ZN7ap_uintILi6EEC2Ei", metadata !48, i32 253, metadata !359, i1 false, i1 true, i32 0, i32 0, null, i32 256, i1 false, null, null, metadata !358, metadata !64, i32 253} ; [ DW_TAG_subprogram ]
!440 = metadata !{i32 253, i32 75, metadata !441, metadata !434}
!441 = metadata !{i32 786478, i32 0, null, metadata !"ap_uint", metadata !"ap_uint", metadata !"_ZN7ap_uintILi6EEC1Ei", metadata !48, i32 253, metadata !359, i1 false, i1 true, i32 0, i32 0, null, i32 256, i1 false, null, null, metadata !358, metadata !64, i32 253} ; [ DW_TAG_subprogram ]
!442 = metadata !{i32 281, i32 5, metadata !443, metadata !434}
!443 = metadata !{i32 786443, metadata !430, i32 280, i32 89, metadata !48, i32 6} ; [ DW_TAG_lexical_block ]
!444 = metadata !{i32 52, i32 1, metadata !426, null}
