; ModuleID = '/home/iavendano/pynq-copter/pynqcopter/ip/pidfixed/pidfixed/pidfixed/.autopilot/db/a.g.1.bc'
target datalayout = "e-p:64:64:64-i1:8:8-i8:8:8-i16:16:16-i32:32:32-i64:64:64-f32:32:32-f64:64:64-v64:64:64-v128:128:128-a0:0:64-s0:64:64-f80:128:128-n8:16:32:64-S128"
target triple = "x86_64-unknown-linux-gnu"

%struct.ap_fixed.4 = type { %struct.ap_fixed_base.3 }
%struct.ap_fixed_base.3 = type { %struct.ssdm_int.2 }
%struct.ssdm_int.2 = type { i16 }

@yaw_output = global %struct.ap_fixed.4 zeroinitializer, align 2 ; [#uses=0 type=%struct.ap_fixed.4*]
@roll_output = global %struct.ap_fixed.4 zeroinitializer, align 2 ; [#uses=0 type=%struct.ap_fixed.4*]
@proportional_yaw = global %struct.ap_fixed.4 zeroinitializer, align 2 ; [#uses=1 type=%struct.ap_fixed.4*]
@proportional_roll = global %struct.ap_fixed.4 zeroinitializer, align 2 ; [#uses=1 type=%struct.ap_fixed.4*]
@proportional_pitch = global %struct.ap_fixed.4 zeroinitializer, align 2 ; [#uses=1 type=%struct.ap_fixed.4*]
@previous_error_yaw = internal unnamed_addr global %struct.ap_fixed.4 zeroinitializer, align 2 ; [#uses=1 type=%struct.ap_fixed.4*]
@previous_error_roll = internal unnamed_addr global %struct.ap_fixed.4 zeroinitializer, align 2 ; [#uses=1 type=%struct.ap_fixed.4*]
@previous_error_pitch = internal unnamed_addr global %struct.ap_fixed.4 zeroinitializer, align 2 ; [#uses=1 type=%struct.ap_fixed.4*]
@pitch_output = global %struct.ap_fixed.4 zeroinitializer, align 2 ; [#uses=0 type=%struct.ap_fixed.4*]
@pidfixed.str = internal unnamed_addr constant [9 x i8] c"pidfixed\00" ; [#uses=1 type=[9 x i8]*]
@llvm.global_ctors = appending global [1 x { i32, void ()* }] [{ i32, void ()* } { i32 65535, void ()* @_GLOBAL__I_a }] ; [#uses=0 type=[1 x { i32, void ()* }]*]
@integral_yaw = internal unnamed_addr global %struct.ap_fixed.4 zeroinitializer, align 2 ; [#uses=1 type=%struct.ap_fixed.4*]
@integral_roll = internal unnamed_addr global %struct.ap_fixed.4 zeroinitializer, align 2 ; [#uses=1 type=%struct.ap_fixed.4*]
@integral_pitch = internal unnamed_addr global %struct.ap_fixed.4 zeroinitializer, align 2 ; [#uses=1 type=%struct.ap_fixed.4*]
@error_yaw = global %struct.ap_fixed.4 zeroinitializer, align 2 ; [#uses=1 type=%struct.ap_fixed.4*]
@error_roll = global %struct.ap_fixed.4 zeroinitializer, align 2 ; [#uses=1 type=%struct.ap_fixed.4*]
@error_pitch = global %struct.ap_fixed.4 zeroinitializer, align 2 ; [#uses=1 type=%struct.ap_fixed.4*]
@dt = global %struct.ap_fixed.4 zeroinitializer, align 2 ; [#uses=0 type=%struct.ap_fixed.4*]
@derivative_yaw = global %struct.ap_fixed.4 zeroinitializer, align 2 ; [#uses=1 type=%struct.ap_fixed.4*]
@derivative_roll = global %struct.ap_fixed.4 zeroinitializer, align 2 ; [#uses=1 type=%struct.ap_fixed.4*]
@derivative_pitch = global %struct.ap_fixed.4 zeroinitializer, align 2 ; [#uses=1 type=%struct.ap_fixed.4*]
@.str12 = private unnamed_addr constant [5 x i8] c"CTRL\00", align 1 ; [#uses=1 type=[5 x i8]*]
@.str11 = private unnamed_addr constant [1 x i8] zeroinitializer, align 1 ; [#uses=1 type=[1 x i8]*]
@.str = private unnamed_addr constant [10 x i8] c"s_axilite\00", align 1 ; [#uses=1 type=[10 x i8]*]

; [#uses=0]
define void @pidfixed(%struct.ap_fixed.4* byval align 8 %target_roll, %struct.ap_fixed.4* byval align 8 %current_roll, %struct.ap_fixed.4* byval align 8 %Kp_roll, %struct.ap_fixed.4* byval align 8 %Ki_roll, %struct.ap_fixed.4* byval align 8 %Kd_roll, %struct.ap_fixed.4* byval align 8 %target_pitch, %struct.ap_fixed.4* byval align 8 %current_pitch, %struct.ap_fixed.4* byval align 8 %Kp_pitch, %struct.ap_fixed.4* byval align 8 %Ki_pitch, %struct.ap_fixed.4* byval align 8 %Kd_pitch, %struct.ap_fixed.4* byval align 8 %target_yaw, %struct.ap_fixed.4* byval align 8 %current_yaw, %struct.ap_fixed.4* byval align 8 %Kp_yaw, %struct.ap_fixed.4* byval align 8 %Ki_yaw, %struct.ap_fixed.4* byval align 8 %Kd_yaw, %struct.ap_fixed.4* byval align 8 %dt, %struct.ap_fixed.4* %rollX, %struct.ap_fixed.4* %pitchY, %struct.ap_fixed.4* %yawZ) nounwind uwtable {
codeRepl:
  call void (...)* @_ssdm_op_SpecTopModule([9 x i8]* @pidfixed.str) nounwind
  call void @llvm.dbg.declare(metadata !{%struct.ap_fixed.4* %target_roll}, metadata !13531), !dbg !13532 ; [debug line = 50:21] [debug variable = target_roll]
  call void @llvm.dbg.declare(metadata !{%struct.ap_fixed.4* %current_roll}, metadata !13533), !dbg !13534 ; [debug line = 50:40] [debug variable = current_roll]
  call void @llvm.dbg.declare(metadata !{%struct.ap_fixed.4* %Kp_roll}, metadata !13535), !dbg !13536 ; [debug line = 50:60] [debug variable = Kp_roll]
  call void @llvm.dbg.declare(metadata !{%struct.ap_fixed.4* %Ki_roll}, metadata !13537), !dbg !13538 ; [debug line = 50:75] [debug variable = Ki_roll]
  call void @llvm.dbg.declare(metadata !{%struct.ap_fixed.4* %Kd_roll}, metadata !13539), !dbg !13540 ; [debug line = 50:90] [debug variable = Kd_roll]
  call void @llvm.dbg.declare(metadata !{%struct.ap_fixed.4* %target_pitch}, metadata !13541), !dbg !13542 ; [debug line = 51:10] [debug variable = target_pitch]
  call void @llvm.dbg.declare(metadata !{%struct.ap_fixed.4* %current_pitch}, metadata !13543), !dbg !13544 ; [debug line = 51:30] [debug variable = current_pitch]
  call void @llvm.dbg.declare(metadata !{%struct.ap_fixed.4* %Kp_pitch}, metadata !13545), !dbg !13546 ; [debug line = 51:51] [debug variable = Kp_pitch]
  call void @llvm.dbg.declare(metadata !{%struct.ap_fixed.4* %Ki_pitch}, metadata !13547), !dbg !13548 ; [debug line = 51:67] [debug variable = Ki_pitch]
  call void @llvm.dbg.declare(metadata !{%struct.ap_fixed.4* %Kd_pitch}, metadata !13549), !dbg !13550 ; [debug line = 51:83] [debug variable = Kd_pitch]
  call void @llvm.dbg.declare(metadata !{%struct.ap_fixed.4* %target_yaw}, metadata !13551), !dbg !13552 ; [debug line = 52:10] [debug variable = target_yaw]
  call void @llvm.dbg.declare(metadata !{%struct.ap_fixed.4* %current_yaw}, metadata !13553), !dbg !13554 ; [debug line = 52:28] [debug variable = current_yaw]
  call void @llvm.dbg.declare(metadata !{%struct.ap_fixed.4* %Kp_yaw}, metadata !13555), !dbg !13556 ; [debug line = 52:47] [debug variable = Kp_yaw]
  call void @llvm.dbg.declare(metadata !{%struct.ap_fixed.4* %Ki_yaw}, metadata !13557), !dbg !13558 ; [debug line = 52:61] [debug variable = Ki_yaw]
  call void @llvm.dbg.declare(metadata !{%struct.ap_fixed.4* %Kd_yaw}, metadata !13559), !dbg !13560 ; [debug line = 52:75] [debug variable = Kd_yaw]
  call void @llvm.dbg.declare(metadata !{%struct.ap_fixed.4* %dt}, metadata !13561), !dbg !13562 ; [debug line = 52:89] [debug variable = dt]
  call void @llvm.dbg.value(metadata !{%struct.ap_fixed.4* %rollX}, i64 0, metadata !13563), !dbg !13564 ; [debug line = 52:100] [debug variable = rollX]
  call void @llvm.dbg.value(metadata !{%struct.ap_fixed.4* %pitchY}, i64 0, metadata !13565), !dbg !13566 ; [debug line = 52:114] [debug variable = pitchY]
  call void @llvm.dbg.value(metadata !{%struct.ap_fixed.4* %yawZ}, i64 0, metadata !13567), !dbg !13568 ; [debug line = 52:129] [debug variable = yawZ]
  call void (...)* @_ssdm_op_SpecInterface(i32 0, i8* getelementptr inbounds ([10 x i8]* @.str, i64 0, i64 0), i32 0, i32 0, i8* getelementptr inbounds ([1 x i8]* @.str11, i64 0, i64 0), i32 0, i32 0, i8* getelementptr inbounds ([5 x i8]* @.str12, i64 0, i64 0), i8* getelementptr inbounds ([1 x i8]* @.str11, i64 0, i64 0), i8* getelementptr inbounds ([1 x i8]* @.str11, i64 0, i64 0), i32 0, i32 0, i32 0, i32 0, i8* getelementptr inbounds ([1 x i8]* @.str11, i64 0, i64 0), i8* getelementptr inbounds ([1 x i8]* @.str11, i64 0, i64 0)) nounwind, !dbg !13569 ; [debug line = 55:1]
  call void (...)* @_ssdm_op_SpecInterface(%struct.ap_fixed.4* %target_roll, i8* getelementptr inbounds ([10 x i8]* @.str, i64 0, i64 0), i32 0, i32 0, i8* getelementptr inbounds ([1 x i8]* @.str11, i64 0, i64 0), i32 0, i32 0, i8* getelementptr inbounds ([1 x i8]* @.str11, i64 0, i64 0), i8* getelementptr inbounds ([1 x i8]* @.str11, i64 0, i64 0), i8* getelementptr inbounds ([1 x i8]* @.str11, i64 0, i64 0), i32 0, i32 0, i32 0, i32 0, i8* getelementptr inbounds ([1 x i8]* @.str11, i64 0, i64 0), i8* getelementptr inbounds ([1 x i8]* @.str11, i64 0, i64 0)) nounwind, !dbg !13571 ; [debug line = 56:1]
  call void (...)* @_ssdm_op_SpecInterface(%struct.ap_fixed.4* %current_roll, i8* getelementptr inbounds ([10 x i8]* @.str, i64 0, i64 0), i32 0, i32 0, i8* getelementptr inbounds ([1 x i8]* @.str11, i64 0, i64 0), i32 0, i32 0, i8* getelementptr inbounds ([1 x i8]* @.str11, i64 0, i64 0), i8* getelementptr inbounds ([1 x i8]* @.str11, i64 0, i64 0), i8* getelementptr inbounds ([1 x i8]* @.str11, i64 0, i64 0), i32 0, i32 0, i32 0, i32 0, i8* getelementptr inbounds ([1 x i8]* @.str11, i64 0, i64 0), i8* getelementptr inbounds ([1 x i8]* @.str11, i64 0, i64 0)) nounwind, !dbg !13572 ; [debug line = 57:1]
  call void (...)* @_ssdm_op_SpecInterface(%struct.ap_fixed.4* %Kp_roll, i8* getelementptr inbounds ([10 x i8]* @.str, i64 0, i64 0), i32 0, i32 0, i8* getelementptr inbounds ([1 x i8]* @.str11, i64 0, i64 0), i32 0, i32 0, i8* getelementptr inbounds ([1 x i8]* @.str11, i64 0, i64 0), i8* getelementptr inbounds ([1 x i8]* @.str11, i64 0, i64 0), i8* getelementptr inbounds ([1 x i8]* @.str11, i64 0, i64 0), i32 0, i32 0, i32 0, i32 0, i8* getelementptr inbounds ([1 x i8]* @.str11, i64 0, i64 0), i8* getelementptr inbounds ([1 x i8]* @.str11, i64 0, i64 0)) nounwind, !dbg !13573 ; [debug line = 58:1]
  call void (...)* @_ssdm_op_SpecInterface(%struct.ap_fixed.4* %Ki_roll, i8* getelementptr inbounds ([10 x i8]* @.str, i64 0, i64 0), i32 0, i32 0, i8* getelementptr inbounds ([1 x i8]* @.str11, i64 0, i64 0), i32 0, i32 0, i8* getelementptr inbounds ([1 x i8]* @.str11, i64 0, i64 0), i8* getelementptr inbounds ([1 x i8]* @.str11, i64 0, i64 0), i8* getelementptr inbounds ([1 x i8]* @.str11, i64 0, i64 0), i32 0, i32 0, i32 0, i32 0, i8* getelementptr inbounds ([1 x i8]* @.str11, i64 0, i64 0), i8* getelementptr inbounds ([1 x i8]* @.str11, i64 0, i64 0)) nounwind, !dbg !13574 ; [debug line = 59:1]
  call void (...)* @_ssdm_op_SpecInterface(%struct.ap_fixed.4* %Kd_roll, i8* getelementptr inbounds ([10 x i8]* @.str, i64 0, i64 0), i32 0, i32 0, i8* getelementptr inbounds ([1 x i8]* @.str11, i64 0, i64 0), i32 0, i32 0, i8* getelementptr inbounds ([1 x i8]* @.str11, i64 0, i64 0), i8* getelementptr inbounds ([1 x i8]* @.str11, i64 0, i64 0), i8* getelementptr inbounds ([1 x i8]* @.str11, i64 0, i64 0), i32 0, i32 0, i32 0, i32 0, i8* getelementptr inbounds ([1 x i8]* @.str11, i64 0, i64 0), i8* getelementptr inbounds ([1 x i8]* @.str11, i64 0, i64 0)) nounwind, !dbg !13575 ; [debug line = 60:1]
  call void (...)* @_ssdm_op_SpecInterface(%struct.ap_fixed.4* %target_pitch, i8* getelementptr inbounds ([10 x i8]* @.str, i64 0, i64 0), i32 0, i32 0, i8* getelementptr inbounds ([1 x i8]* @.str11, i64 0, i64 0), i32 0, i32 0, i8* getelementptr inbounds ([1 x i8]* @.str11, i64 0, i64 0), i8* getelementptr inbounds ([1 x i8]* @.str11, i64 0, i64 0), i8* getelementptr inbounds ([1 x i8]* @.str11, i64 0, i64 0), i32 0, i32 0, i32 0, i32 0, i8* getelementptr inbounds ([1 x i8]* @.str11, i64 0, i64 0), i8* getelementptr inbounds ([1 x i8]* @.str11, i64 0, i64 0)) nounwind, !dbg !13576 ; [debug line = 63:1]
  call void (...)* @_ssdm_op_SpecInterface(%struct.ap_fixed.4* %current_pitch, i8* getelementptr inbounds ([10 x i8]* @.str, i64 0, i64 0), i32 0, i32 0, i8* getelementptr inbounds ([1 x i8]* @.str11, i64 0, i64 0), i32 0, i32 0, i8* getelementptr inbounds ([1 x i8]* @.str11, i64 0, i64 0), i8* getelementptr inbounds ([1 x i8]* @.str11, i64 0, i64 0), i8* getelementptr inbounds ([1 x i8]* @.str11, i64 0, i64 0), i32 0, i32 0, i32 0, i32 0, i8* getelementptr inbounds ([1 x i8]* @.str11, i64 0, i64 0), i8* getelementptr inbounds ([1 x i8]* @.str11, i64 0, i64 0)) nounwind, !dbg !13577 ; [debug line = 64:1]
  call void (...)* @_ssdm_op_SpecInterface(%struct.ap_fixed.4* %Kp_pitch, i8* getelementptr inbounds ([10 x i8]* @.str, i64 0, i64 0), i32 0, i32 0, i8* getelementptr inbounds ([1 x i8]* @.str11, i64 0, i64 0), i32 0, i32 0, i8* getelementptr inbounds ([1 x i8]* @.str11, i64 0, i64 0), i8* getelementptr inbounds ([1 x i8]* @.str11, i64 0, i64 0), i8* getelementptr inbounds ([1 x i8]* @.str11, i64 0, i64 0), i32 0, i32 0, i32 0, i32 0, i8* getelementptr inbounds ([1 x i8]* @.str11, i64 0, i64 0), i8* getelementptr inbounds ([1 x i8]* @.str11, i64 0, i64 0)) nounwind, !dbg !13578 ; [debug line = 65:1]
  call void (...)* @_ssdm_op_SpecInterface(%struct.ap_fixed.4* %Ki_pitch, i8* getelementptr inbounds ([10 x i8]* @.str, i64 0, i64 0), i32 0, i32 0, i8* getelementptr inbounds ([1 x i8]* @.str11, i64 0, i64 0), i32 0, i32 0, i8* getelementptr inbounds ([1 x i8]* @.str11, i64 0, i64 0), i8* getelementptr inbounds ([1 x i8]* @.str11, i64 0, i64 0), i8* getelementptr inbounds ([1 x i8]* @.str11, i64 0, i64 0), i32 0, i32 0, i32 0, i32 0, i8* getelementptr inbounds ([1 x i8]* @.str11, i64 0, i64 0), i8* getelementptr inbounds ([1 x i8]* @.str11, i64 0, i64 0)) nounwind, !dbg !13579 ; [debug line = 66:1]
  call void (...)* @_ssdm_op_SpecInterface(%struct.ap_fixed.4* %Kd_pitch, i8* getelementptr inbounds ([10 x i8]* @.str, i64 0, i64 0), i32 0, i32 0, i8* getelementptr inbounds ([1 x i8]* @.str11, i64 0, i64 0), i32 0, i32 0, i8* getelementptr inbounds ([1 x i8]* @.str11, i64 0, i64 0), i8* getelementptr inbounds ([1 x i8]* @.str11, i64 0, i64 0), i8* getelementptr inbounds ([1 x i8]* @.str11, i64 0, i64 0), i32 0, i32 0, i32 0, i32 0, i8* getelementptr inbounds ([1 x i8]* @.str11, i64 0, i64 0), i8* getelementptr inbounds ([1 x i8]* @.str11, i64 0, i64 0)) nounwind, !dbg !13580 ; [debug line = 67:1]
  call void (...)* @_ssdm_op_SpecInterface(%struct.ap_fixed.4* %target_yaw, i8* getelementptr inbounds ([10 x i8]* @.str, i64 0, i64 0), i32 0, i32 0, i8* getelementptr inbounds ([1 x i8]* @.str11, i64 0, i64 0), i32 0, i32 0, i8* getelementptr inbounds ([1 x i8]* @.str11, i64 0, i64 0), i8* getelementptr inbounds ([1 x i8]* @.str11, i64 0, i64 0), i8* getelementptr inbounds ([1 x i8]* @.str11, i64 0, i64 0), i32 0, i32 0, i32 0, i32 0, i8* getelementptr inbounds ([1 x i8]* @.str11, i64 0, i64 0), i8* getelementptr inbounds ([1 x i8]* @.str11, i64 0, i64 0)) nounwind, !dbg !13581 ; [debug line = 70:1]
  call void (...)* @_ssdm_op_SpecInterface(%struct.ap_fixed.4* %current_yaw, i8* getelementptr inbounds ([10 x i8]* @.str, i64 0, i64 0), i32 0, i32 0, i8* getelementptr inbounds ([1 x i8]* @.str11, i64 0, i64 0), i32 0, i32 0, i8* getelementptr inbounds ([1 x i8]* @.str11, i64 0, i64 0), i8* getelementptr inbounds ([1 x i8]* @.str11, i64 0, i64 0), i8* getelementptr inbounds ([1 x i8]* @.str11, i64 0, i64 0), i32 0, i32 0, i32 0, i32 0, i8* getelementptr inbounds ([1 x i8]* @.str11, i64 0, i64 0), i8* getelementptr inbounds ([1 x i8]* @.str11, i64 0, i64 0)) nounwind, !dbg !13582 ; [debug line = 71:1]
  call void (...)* @_ssdm_op_SpecInterface(%struct.ap_fixed.4* %Kp_yaw, i8* getelementptr inbounds ([10 x i8]* @.str, i64 0, i64 0), i32 0, i32 0, i8* getelementptr inbounds ([1 x i8]* @.str11, i64 0, i64 0), i32 0, i32 0, i8* getelementptr inbounds ([1 x i8]* @.str11, i64 0, i64 0), i8* getelementptr inbounds ([1 x i8]* @.str11, i64 0, i64 0), i8* getelementptr inbounds ([1 x i8]* @.str11, i64 0, i64 0), i32 0, i32 0, i32 0, i32 0, i8* getelementptr inbounds ([1 x i8]* @.str11, i64 0, i64 0), i8* getelementptr inbounds ([1 x i8]* @.str11, i64 0, i64 0)) nounwind, !dbg !13583 ; [debug line = 72:1]
  call void (...)* @_ssdm_op_SpecInterface(%struct.ap_fixed.4* %Ki_yaw, i8* getelementptr inbounds ([10 x i8]* @.str, i64 0, i64 0), i32 0, i32 0, i8* getelementptr inbounds ([1 x i8]* @.str11, i64 0, i64 0), i32 0, i32 0, i8* getelementptr inbounds ([1 x i8]* @.str11, i64 0, i64 0), i8* getelementptr inbounds ([1 x i8]* @.str11, i64 0, i64 0), i8* getelementptr inbounds ([1 x i8]* @.str11, i64 0, i64 0), i32 0, i32 0, i32 0, i32 0, i8* getelementptr inbounds ([1 x i8]* @.str11, i64 0, i64 0), i8* getelementptr inbounds ([1 x i8]* @.str11, i64 0, i64 0)) nounwind, !dbg !13584 ; [debug line = 73:1]
  call void (...)* @_ssdm_op_SpecInterface(%struct.ap_fixed.4* %Kd_yaw, i8* getelementptr inbounds ([10 x i8]* @.str, i64 0, i64 0), i32 0, i32 0, i8* getelementptr inbounds ([1 x i8]* @.str11, i64 0, i64 0), i32 0, i32 0, i8* getelementptr inbounds ([1 x i8]* @.str11, i64 0, i64 0), i8* getelementptr inbounds ([1 x i8]* @.str11, i64 0, i64 0), i8* getelementptr inbounds ([1 x i8]* @.str11, i64 0, i64 0), i32 0, i32 0, i32 0, i32 0, i8* getelementptr inbounds ([1 x i8]* @.str11, i64 0, i64 0), i8* getelementptr inbounds ([1 x i8]* @.str11, i64 0, i64 0)) nounwind, !dbg !13585 ; [debug line = 74:1]
  call void (...)* @_ssdm_op_SpecInterface(%struct.ap_fixed.4* %dt, i8* getelementptr inbounds ([10 x i8]* @.str, i64 0, i64 0), i32 0, i32 0, i8* getelementptr inbounds ([1 x i8]* @.str11, i64 0, i64 0), i32 0, i32 0, i8* getelementptr inbounds ([1 x i8]* @.str11, i64 0, i64 0), i8* getelementptr inbounds ([1 x i8]* @.str11, i64 0, i64 0), i8* getelementptr inbounds ([1 x i8]* @.str11, i64 0, i64 0), i32 0, i32 0, i32 0, i32 0, i8* getelementptr inbounds ([1 x i8]* @.str11, i64 0, i64 0), i8* getelementptr inbounds ([1 x i8]* @.str11, i64 0, i64 0)) nounwind, !dbg !13586 ; [debug line = 75:1]
  call void (...)* @_ssdm_op_SpecInterface(%struct.ap_fixed.4* %rollX, i8* getelementptr inbounds ([10 x i8]* @.str, i64 0, i64 0), i32 0, i32 0, i8* getelementptr inbounds ([1 x i8]* @.str11, i64 0, i64 0), i32 0, i32 0, i8* getelementptr inbounds ([1 x i8]* @.str11, i64 0, i64 0), i8* getelementptr inbounds ([1 x i8]* @.str11, i64 0, i64 0), i8* getelementptr inbounds ([1 x i8]* @.str11, i64 0, i64 0), i32 0, i32 0, i32 0, i32 0, i8* getelementptr inbounds ([1 x i8]* @.str11, i64 0, i64 0), i8* getelementptr inbounds ([1 x i8]* @.str11, i64 0, i64 0)) nounwind, !dbg !13587 ; [debug line = 78:1]
  call void (...)* @_ssdm_op_SpecInterface(%struct.ap_fixed.4* %pitchY, i8* getelementptr inbounds ([10 x i8]* @.str, i64 0, i64 0), i32 0, i32 0, i8* getelementptr inbounds ([1 x i8]* @.str11, i64 0, i64 0), i32 0, i32 0, i8* getelementptr inbounds ([1 x i8]* @.str11, i64 0, i64 0), i8* getelementptr inbounds ([1 x i8]* @.str11, i64 0, i64 0), i8* getelementptr inbounds ([1 x i8]* @.str11, i64 0, i64 0), i32 0, i32 0, i32 0, i32 0, i8* getelementptr inbounds ([1 x i8]* @.str11, i64 0, i64 0), i8* getelementptr inbounds ([1 x i8]* @.str11, i64 0, i64 0)) nounwind, !dbg !13588 ; [debug line = 79:1]
  call void (...)* @_ssdm_op_SpecInterface(%struct.ap_fixed.4* %yawZ, i8* getelementptr inbounds ([10 x i8]* @.str, i64 0, i64 0), i32 0, i32 0, i8* getelementptr inbounds ([1 x i8]* @.str11, i64 0, i64 0), i32 0, i32 0, i8* getelementptr inbounds ([1 x i8]* @.str11, i64 0, i64 0), i8* getelementptr inbounds ([1 x i8]* @.str11, i64 0, i64 0), i8* getelementptr inbounds ([1 x i8]* @.str11, i64 0, i64 0), i32 0, i32 0, i32 0, i32 0, i8* getelementptr inbounds ([1 x i8]* @.str11, i64 0, i64 0), i8* getelementptr inbounds ([1 x i8]* @.str11, i64 0, i64 0)) nounwind, !dbg !13589 ; [debug line = 80:1]
  %target_roll.addr = getelementptr inbounds %struct.ap_fixed.4* %target_roll, i64 0, i32 0, i32 0, i32 0, !dbg !13590 ; [#uses=1 type=i16*] [debug line = 675:0@773:5@1401:0@86:16]
  %__Val2__ = load i16* %target_roll.addr, align 8, !dbg !13590 ; [#uses=3 type=i16] [debug line = 675:0@773:5@1401:0@86:16]
  call void (...)* @_ssdm_SpecKeepArrayLoad(i16 %__Val2__) nounwind
  call void @llvm.dbg.value(metadata !{i16 %__Val2__}, i64 0, metadata !13597) nounwind, !dbg !13590 ; [debug line = 675:0@773:5@1401:0@86:16] [debug variable = __Val2__]
  call void (...)* @_ssdm_SpecKeepArrayLoad(i16 %__Val2__) nounwind
  %tmp = sext i16 %__Val2__ to i17, !dbg !13598   ; [#uses=2 type=i17] [debug line = 679:13@773:5@1401:0@86:16]
  %current_roll.addr = getelementptr inbounds %struct.ap_fixed.4* %current_roll, i64 0, i32 0, i32 0, i32 0, !dbg !13590 ; [#uses=1 type=i16*] [debug line = 675:0@773:5@1401:0@86:16]
  %__Val2__.1 = load i16* %current_roll.addr, align 8, !dbg !13590 ; [#uses=3 type=i16] [debug line = 675:0@773:5@1401:0@86:16]
  call void (...)* @_ssdm_SpecKeepArrayLoad(i16 %__Val2__.1) nounwind
  call void @llvm.dbg.value(metadata !{i16 %__Val2__.1}, i64 0, metadata !13597) nounwind, !dbg !13590 ; [debug line = 675:0@773:5@1401:0@86:16] [debug variable = __Val2__]
  call void (...)* @_ssdm_SpecKeepArrayLoad(i16 %__Val2__.1) nounwind
  %tmp.1 = sext i16 %__Val2__.1 to i17, !dbg !13598 ; [#uses=2 type=i17] [debug line = 679:13@773:5@1401:0@86:16]
  call void (...)* @_ssdm_SpecKeepArrayLoad(i17 %tmp) nounwind
  call void (...)* @_ssdm_SpecKeepArrayLoad(i17 %tmp.1) nounwind
  %__Val2__.2 = sub i17 %tmp, %tmp.1, !dbg !13594 ; [#uses=3 type=i17] [debug line = 1401:0@86:16]
  call void (...)* @_ssdm_SpecKeepArrayLoad(i17 %__Val2__.2) nounwind
  call void @llvm.dbg.value(metadata !{i17 %__Val2__.2}, i64 0, metadata !13599) nounwind, !dbg !13604 ; [debug line = 675:0@338:43@338:44@86:16] [debug variable = __Val2__]
  call void (...)* @_ssdm_SpecKeepArrayLoad(i17 %__Val2__.2) nounwind
  %__Val2__.7 = trunc i17 %__Val2__.2 to i16, !dbg !13605 ; [#uses=10 type=i16] [debug line = 679:13@338:43@338:44@86:16]
  call void (...)* @_ssdm_SpecKeepArrayLoad(i16 %__Val2__.7) nounwind
  store i16 %__Val2__.7, i16* getelementptr inbounds (%struct.ap_fixed.4* @error_roll, i64 0, i32 0, i32 0, i32 0), align 2, !dbg !13606 ; [debug line = 388:5@86:16]
  %Kp_roll.addr = getelementptr inbounds %struct.ap_fixed.4* %Kp_roll, i64 0, i32 0, i32 0, i32 0, !dbg !13608 ; [#uses=1 type=i16*] [debug line = 1364:9@88:23]
  %Kp_roll.load = load i16* %Kp_roll.addr, align 8, !dbg !13608 ; [#uses=2 type=i16] [debug line = 1364:9@88:23]
  call void (...)* @_ssdm_SpecKeepArrayLoad(i16 %Kp_roll.load) nounwind
  %OP1.V = sext i16 %Kp_roll.load to i32, !dbg !13608 ; [#uses=1 type=i32] [debug line = 1364:9@88:23]
  call void @llvm.dbg.value(metadata !{i32 %OP1.V}, i64 0, metadata !13611), !dbg !13608 ; [debug line = 1364:9@88:23] [debug variable = OP1.V]
  call void (...)* @_ssdm_SpecKeepArrayLoad(i16 %__Val2__.7) nounwind
  %OP2.V = sext i16 %__Val2__.7 to i32, !dbg !13617 ; [#uses=2 type=i32] [debug line = 1366:9@88:23]
  call void @llvm.dbg.value(metadata !{i32 %OP2.V}, i64 0, metadata !13618), !dbg !13617 ; [debug line = 1366:9@88:23] [debug variable = OP2.V]
  %__Val2__.3 = mul nsw i32 %OP1.V, %OP2.V, !dbg !13620 ; [#uses=3 type=i32] [debug line = 1367:9@88:23]
  call void (...)* @_ssdm_SpecKeepArrayLoad(i32 %__Val2__.3) nounwind
  call void @llvm.dbg.value(metadata !{i32 %__Val2__.3}, i64 0, metadata !13621) nounwind, !dbg !13626 ; [debug line = 675:0@338:43@338:44@88:23] [debug variable = __Val2__]
  call void (...)* @_ssdm_SpecKeepArrayLoad(i32 %__Val2__.3) nounwind
  %tmp.5 = lshr i32 %__Val2__.3, 7, !dbg !13627   ; [#uses=1 type=i32] [debug line = 682:17@338:43@338:44@88:23]
  %__Val2__.33 = trunc i32 %tmp.5 to i16, !dbg !13627 ; [#uses=5 type=i16] [debug line = 682:17@338:43@338:44@88:23]
  call void (...)* @_ssdm_SpecKeepArrayLoad(i16 %__Val2__.33) nounwind
  store i16 %__Val2__.33, i16* getelementptr inbounds (%struct.ap_fixed.4* @proportional_roll, i64 0, i32 0, i32 0, i32 0), align 2, !dbg !13629 ; [debug line = 388:5@88:23]
  %Ki_roll.addr = getelementptr inbounds %struct.ap_fixed.4* %Ki_roll, i64 0, i32 0, i32 0, i32 0, !dbg !13630 ; [#uses=1 type=i16*] [debug line = 1364:9@90:36]
  %Ki_roll.load = load i16* %Ki_roll.addr, align 8, !dbg !13630 ; [#uses=2 type=i16] [debug line = 1364:9@90:36]
  call void (...)* @_ssdm_SpecKeepArrayLoad(i16 %Ki_roll.load) nounwind
  %OP1.V.1 = sext i16 %Ki_roll.load to i32, !dbg !13630 ; [#uses=1 type=i32] [debug line = 1364:9@90:36]
  call void @llvm.dbg.value(metadata !{i32 %OP1.V.1}, i64 0, metadata !13611), !dbg !13630 ; [debug line = 1364:9@90:36] [debug variable = OP1.V]
  call void (...)* @_ssdm_SpecKeepArrayLoad(i16 %__Val2__.7) nounwind
  call void @llvm.dbg.value(metadata !{i32 %OP2.V}, i64 0, metadata !13618), !dbg !13632 ; [debug line = 1366:9@90:36] [debug variable = OP2.V]
  %r.V = mul nsw i32 %OP1.V.1, %OP2.V, !dbg !13633 ; [#uses=1 type=i32] [debug line = 1367:9@90:36]
  call void @llvm.dbg.value(metadata !{i32 %r.V}, i64 0, metadata !13634), !dbg !13633 ; [debug line = 1367:9@90:36] [debug variable = r.V]
  %OP1.V.2 = sext i32 %r.V to i48, !dbg !13638    ; [#uses=1 type=i48] [debug line = 1364:9@90:36]
  call void @llvm.dbg.value(metadata !{i48 %OP1.V.2}, i64 0, metadata !13640), !dbg !13638 ; [debug line = 1364:9@90:36] [debug variable = OP1.V]
  %dt.addr = getelementptr inbounds %struct.ap_fixed.4* %dt, i64 0, i32 0, i32 0, i32 0, !dbg !13646 ; [#uses=1 type=i16*] [debug line = 1366:9@90:36]
  %dt.load = load i16* %dt.addr, align 8, !dbg !13646 ; [#uses=8 type=i16] [debug line = 1366:9@90:36]
  call void (...)* @_ssdm_SpecKeepArrayLoad(i16 %dt.load) nounwind
  %OP2.V.1 = sext i16 %dt.load to i48, !dbg !13646 ; [#uses=3 type=i48] [debug line = 1366:9@90:36]
  call void @llvm.dbg.value(metadata !{i48 %OP2.V.1}, i64 0, metadata !13647), !dbg !13646 ; [debug line = 1366:9@90:36] [debug variable = OP2.V]
  %__Val2__.5 = mul nsw i48 %OP2.V.1, %OP1.V.2, !dbg !13649 ; [#uses=3 type=i48] [debug line = 1367:9@90:36]
  %__Val2__.4 = load i16* getelementptr inbounds (%struct.ap_fixed.4* @integral_roll, i64 0, i32 0, i32 0, i32 0), align 2, !dbg !13650 ; [#uses=3 type=i16] [debug line = 675:0@773:5@1400:0@90:36]
  call void (...)* @_ssdm_SpecKeepArrayLoad(i16 %__Val2__.4) nounwind
  call void @llvm.dbg.value(metadata !{i16 %__Val2__.4}, i64 0, metadata !13656) nounwind, !dbg !13650 ; [debug line = 675:0@773:5@1400:0@90:36] [debug variable = __Val2__]
  call void (...)* @_ssdm_SpecKeepArrayLoad(i16 %__Val2__.4) nounwind
  %tmp.10 = sext i16 %__Val2__.4 to i49, !dbg !13657 ; [#uses=2 type=i49] [debug line = 701:13@773:5@1400:0@90:36]
  call void (...)* @_ssdm_SpecKeepArrayLoad(i49 %tmp.10) nounwind
  %tmp.11 = shl nsw i49 %tmp.10, 14, !dbg !13659  ; [#uses=2 type=i49] [debug line = 703:17@773:5@1400:0@90:36]
  call void (...)* @_ssdm_SpecKeepArrayLoad(i48 %__Val2__.5) nounwind
  call void @llvm.dbg.value(metadata !{i48 %__Val2__.5}, i64 0, metadata !13660) nounwind, !dbg !13664 ; [debug line = 675:0@773:5@1400:0@90:36] [debug variable = __Val2__]
  call void (...)* @_ssdm_SpecKeepArrayLoad(i48 %__Val2__.5) nounwind
  %tmp.12 = sext i48 %__Val2__.5 to i49, !dbg !13665 ; [#uses=2 type=i49] [debug line = 679:13@773:5@1400:0@90:36]
  call void (...)* @_ssdm_SpecKeepArrayLoad(i49 %tmp.11) nounwind
  call void (...)* @_ssdm_SpecKeepArrayLoad(i49 %tmp.12) nounwind
  %__Val2__.6 = add nsw i49 %tmp.11, %tmp.12, !dbg !13654 ; [#uses=3 type=i49] [debug line = 1400:0@90:36]
  call void (...)* @_ssdm_SpecKeepArrayLoad(i49 %__Val2__.6) nounwind
  call void @llvm.dbg.value(metadata !{i49 %__Val2__.6}, i64 0, metadata !13666) nounwind, !dbg !13671 ; [debug line = 675:0@338:43@338:44@90:36] [debug variable = __Val2__]
  call void (...)* @_ssdm_SpecKeepArrayLoad(i49 %__Val2__.6) nounwind
  %tmp.14 = lshr i49 %__Val2__.6, 14, !dbg !13672 ; [#uses=1 type=i49] [debug line = 682:17@338:43@338:44@90:36]
  %__Val2__.34 = trunc i49 %tmp.14 to i16, !dbg !13672 ; [#uses=5 type=i16] [debug line = 682:17@338:43@338:44@90:36]
  call void (...)* @_ssdm_SpecKeepArrayLoad(i16 %__Val2__.34) nounwind
  store i16 %__Val2__.34, i16* getelementptr inbounds (%struct.ap_fixed.4* @integral_roll, i64 0, i32 0, i32 0, i32 0), align 2, !dbg !13674 ; [debug line = 388:5@90:36]
  call void (...)* @_ssdm_SpecKeepArrayLoad(i16 %__Val2__.7) nounwind
  call void @llvm.dbg.value(metadata !{i16 %__Val2__.7}, i64 0, metadata !13675) nounwind, !dbg !13679 ; [debug line = 675:0@773:5@1401:0@92:31] [debug variable = __Val2__]
  call void (...)* @_ssdm_SpecKeepArrayLoad(i16 %__Val2__.7) nounwind
  %tmp.16 = sext i16 %__Val2__.7 to i17, !dbg !13680 ; [#uses=2 type=i17] [debug line = 679:13@773:5@1401:0@92:31]
  %__Val2__.8 = load i16* getelementptr inbounds (%struct.ap_fixed.4* @previous_error_roll, i64 0, i32 0, i32 0, i32 0), align 2, !dbg !13679 ; [#uses=3 type=i16] [debug line = 675:0@773:5@1401:0@92:31]
  call void (...)* @_ssdm_SpecKeepArrayLoad(i16 %__Val2__.8) nounwind
  call void @llvm.dbg.value(metadata !{i16 %__Val2__.8}, i64 0, metadata !13675) nounwind, !dbg !13679 ; [debug line = 675:0@773:5@1401:0@92:31] [debug variable = __Val2__]
  call void (...)* @_ssdm_SpecKeepArrayLoad(i16 %__Val2__.8) nounwind
  %tmp.17 = sext i16 %__Val2__.8 to i17, !dbg !13680 ; [#uses=2 type=i17] [debug line = 679:13@773:5@1401:0@92:31]
  call void (...)* @_ssdm_SpecKeepArrayLoad(i17 %tmp.16) nounwind
  call void (...)* @_ssdm_SpecKeepArrayLoad(i17 %tmp.17) nounwind
  %__Val2__.9 = sub i17 %tmp.16, %tmp.17, !dbg !13677 ; [#uses=3 type=i17] [debug line = 1401:0@92:31]
  call void (...)* @_ssdm_SpecKeepArrayLoad(i17 %__Val2__.9) nounwind
  call void @llvm.dbg.value(metadata !{i17 %__Val2__.9}, i64 0, metadata !13681) nounwind, !dbg !13687 ; [debug line = 675:0@773:5@1377:45@92:31] [debug variable = __Val2__]
  call void (...)* @_ssdm_SpecKeepArrayLoad(i17 %__Val2__.9) nounwind
  %tmp.19 = sext i17 %__Val2__.9 to i24, !dbg !13688 ; [#uses=2 type=i24] [debug line = 701:13@773:5@1377:45@92:31]
  call void (...)* @_ssdm_SpecKeepArrayLoad(i24 %tmp.19) nounwind
  %tmp.20 = shl nsw i24 %tmp.19, 7, !dbg !13690   ; [#uses=2 type=i24] [debug line = 703:17@773:5@1377:45@92:31]
  call void (...)* @_ssdm_SpecKeepArrayLoad(i24 %tmp.20) nounwind
  %tmp.21 = sext i24 %tmp.20 to i32, !dbg !13691  ; [#uses=1 type=i32] [debug line = 1382:9@92:31]
  call void (...)* @_ssdm_SpecKeepArrayLoad(i16 %dt.load) nounwind
  %tmp.22 = sext i16 %dt.load to i32, !dbg !13691 ; [#uses=3 type=i32] [debug line = 1382:9@92:31]
  %tmp.23 = sdiv i32 %tmp.21, %tmp.22, !dbg !13691 ; [#uses=1 type=i32] [debug line = 1382:9@92:31]
  %r.V.1 = trunc i32 %tmp.23 to i25, !dbg !13691  ; [#uses=1 type=i25] [debug line = 1382:9@92:31]
  call void @llvm.dbg.value(metadata !{i25 %r.V.1}, i64 0, metadata !13692), !dbg !13691 ; [debug line = 1382:9@92:31] [debug variable = r.V]
  %Kd_roll.addr = getelementptr inbounds %struct.ap_fixed.4* %Kd_roll, i64 0, i32 0, i32 0, i32 0, !dbg !13699 ; [#uses=1 type=i16*] [debug line = 1364:9@92:31]
  %Kd_roll.load = load i16* %Kd_roll.addr, align 8, !dbg !13699 ; [#uses=2 type=i16] [debug line = 1364:9@92:31]
  call void (...)* @_ssdm_SpecKeepArrayLoad(i16 %Kd_roll.load) nounwind
  %OP1.V.3 = sext i16 %Kd_roll.load to i41, !dbg !13699 ; [#uses=1 type=i41] [debug line = 1364:9@92:31]
  call void @llvm.dbg.value(metadata !{i41 %OP1.V.3}, i64 0, metadata !13701), !dbg !13699 ; [debug line = 1364:9@92:31] [debug variable = OP1.V]
  %OP2.V.2 = sext i25 %r.V.1 to i41, !dbg !13707  ; [#uses=1 type=i41] [debug line = 1366:9@92:31]
  call void @llvm.dbg.value(metadata !{i41 %OP2.V.2}, i64 0, metadata !13708), !dbg !13707 ; [debug line = 1366:9@92:31] [debug variable = OP2.V]
  %__Val2__.10 = mul nsw i41 %OP1.V.3, %OP2.V.2, !dbg !13710 ; [#uses=3 type=i41] [debug line = 1367:9@92:31]
  call void (...)* @_ssdm_SpecKeepArrayLoad(i41 %__Val2__.10) nounwind
  call void @llvm.dbg.value(metadata !{i41 %__Val2__.10}, i64 0, metadata !13711) nounwind, !dbg !13716 ; [debug line = 675:0@338:43@338:44@92:31] [debug variable = __Val2__]
  call void (...)* @_ssdm_SpecKeepArrayLoad(i41 %__Val2__.10) nounwind
  %tmp.28 = lshr i41 %__Val2__.10, 7, !dbg !13717 ; [#uses=1 type=i41] [debug line = 682:17@338:43@338:44@92:31]
  %__Val2__.36 = trunc i41 %tmp.28 to i16, !dbg !13717 ; [#uses=5 type=i16] [debug line = 682:17@338:43@338:44@92:31]
  call void (...)* @_ssdm_SpecKeepArrayLoad(i16 %__Val2__.36) nounwind
  store i16 %__Val2__.36, i16* getelementptr inbounds (%struct.ap_fixed.4* @derivative_roll, i64 0, i32 0, i32 0, i32 0), align 2, !dbg !13719 ; [debug line = 388:5@92:31]
  call void (...)* @_ssdm_SpecKeepArrayLoad(i16 %__Val2__.7) nounwind
  store i16 %__Val2__.7, i16* getelementptr inbounds (%struct.ap_fixed.4* @previous_error_roll, i64 0, i32 0, i32 0, i32 0), align 2, !dbg !13720 ; [debug line = 388:5@93:3]
  %target_pitch.addr = getelementptr inbounds %struct.ap_fixed.4* %target_pitch, i64 0, i32 0, i32 0, i32 0, !dbg !13722 ; [#uses=1 type=i16*] [debug line = 675:0@773:5@1401:0@96:17]
  %__Val2__.11 = load i16* %target_pitch.addr, align 8, !dbg !13722 ; [#uses=3 type=i16] [debug line = 675:0@773:5@1401:0@96:17]
  call void (...)* @_ssdm_SpecKeepArrayLoad(i16 %__Val2__.11) nounwind
  call void @llvm.dbg.value(metadata !{i16 %__Val2__.11}, i64 0, metadata !13726) nounwind, !dbg !13722 ; [debug line = 675:0@773:5@1401:0@96:17] [debug variable = __Val2__]
  call void (...)* @_ssdm_SpecKeepArrayLoad(i16 %__Val2__.11) nounwind
  %tmp.30 = sext i16 %__Val2__.11 to i17, !dbg !13727 ; [#uses=2 type=i17] [debug line = 679:13@773:5@1401:0@96:17]
  %current_pitch.addr = getelementptr inbounds %struct.ap_fixed.4* %current_pitch, i64 0, i32 0, i32 0, i32 0, !dbg !13722 ; [#uses=1 type=i16*] [debug line = 675:0@773:5@1401:0@96:17]
  %__Val2__.12 = load i16* %current_pitch.addr, align 8, !dbg !13722 ; [#uses=3 type=i16] [debug line = 675:0@773:5@1401:0@96:17]
  call void (...)* @_ssdm_SpecKeepArrayLoad(i16 %__Val2__.12) nounwind
  call void @llvm.dbg.value(metadata !{i16 %__Val2__.12}, i64 0, metadata !13726) nounwind, !dbg !13722 ; [debug line = 675:0@773:5@1401:0@96:17] [debug variable = __Val2__]
  call void (...)* @_ssdm_SpecKeepArrayLoad(i16 %__Val2__.12) nounwind
  %tmp.31 = sext i16 %__Val2__.12 to i17, !dbg !13727 ; [#uses=2 type=i17] [debug line = 679:13@773:5@1401:0@96:17]
  call void (...)* @_ssdm_SpecKeepArrayLoad(i17 %tmp.30) nounwind
  call void (...)* @_ssdm_SpecKeepArrayLoad(i17 %tmp.31) nounwind
  %__Val2__.13 = sub i17 %tmp.30, %tmp.31, !dbg !13724 ; [#uses=3 type=i17] [debug line = 1401:0@96:17]
  call void (...)* @_ssdm_SpecKeepArrayLoad(i17 %__Val2__.13) nounwind
  call void @llvm.dbg.value(metadata !{i17 %__Val2__.13}, i64 0, metadata !13728) nounwind, !dbg !13731 ; [debug line = 675:0@338:43@338:44@96:17] [debug variable = __Val2__]
  call void (...)* @_ssdm_SpecKeepArrayLoad(i17 %__Val2__.13) nounwind
  %__Val2__.18 = trunc i17 %__Val2__.13 to i16, !dbg !13732 ; [#uses=10 type=i16] [debug line = 679:13@338:43@338:44@96:17]
  call void (...)* @_ssdm_SpecKeepArrayLoad(i16 %__Val2__.18) nounwind
  store i16 %__Val2__.18, i16* getelementptr inbounds (%struct.ap_fixed.4* @error_pitch, i64 0, i32 0, i32 0, i32 0), align 2, !dbg !13733 ; [debug line = 388:5@96:17]
  %Kp_pitch.addr = getelementptr inbounds %struct.ap_fixed.4* %Kp_pitch, i64 0, i32 0, i32 0, i32 0, !dbg !13734 ; [#uses=1 type=i16*] [debug line = 1364:9@98:24]
  %Kp_pitch.load = load i16* %Kp_pitch.addr, align 8, !dbg !13734 ; [#uses=2 type=i16] [debug line = 1364:9@98:24]
  call void (...)* @_ssdm_SpecKeepArrayLoad(i16 %Kp_pitch.load) nounwind
  %OP1.V.4 = sext i16 %Kp_pitch.load to i32, !dbg !13734 ; [#uses=1 type=i32] [debug line = 1364:9@98:24]
  call void @llvm.dbg.value(metadata !{i32 %OP1.V.4}, i64 0, metadata !13611), !dbg !13734 ; [debug line = 1364:9@98:24] [debug variable = OP1.V]
  call void (...)* @_ssdm_SpecKeepArrayLoad(i16 %__Val2__.18) nounwind
  %OP2.V.3 = sext i16 %__Val2__.18 to i32, !dbg !13736 ; [#uses=2 type=i32] [debug line = 1366:9@98:24]
  call void @llvm.dbg.value(metadata !{i32 %OP2.V.3}, i64 0, metadata !13618), !dbg !13736 ; [debug line = 1366:9@98:24] [debug variable = OP2.V]
  %__Val2__.14 = mul nsw i32 %OP1.V.4, %OP2.V.3, !dbg !13737 ; [#uses=3 type=i32] [debug line = 1367:9@98:24]
  call void (...)* @_ssdm_SpecKeepArrayLoad(i32 %__Val2__.14) nounwind
  call void @llvm.dbg.value(metadata !{i32 %__Val2__.14}, i64 0, metadata !13738) nounwind, !dbg !13741 ; [debug line = 675:0@338:43@338:44@98:24] [debug variable = __Val2__]
  call void (...)* @_ssdm_SpecKeepArrayLoad(i32 %__Val2__.14) nounwind
  %tmp.35 = lshr i32 %__Val2__.14, 7, !dbg !13742 ; [#uses=1 type=i32] [debug line = 682:17@338:43@338:44@98:24]
  %tmp.36 = trunc i32 %tmp.35 to i16, !dbg !13742 ; [#uses=2 type=i16] [debug line = 682:17@338:43@338:44@98:24]
  call void (...)* @_ssdm_SpecKeepArrayLoad(i16 %tmp.36) nounwind
  store i16 %tmp.36, i16* getelementptr inbounds (%struct.ap_fixed.4* @proportional_pitch, i64 0, i32 0, i32 0, i32 0), align 2, !dbg !13743 ; [debug line = 388:5@98:24]
  %Ki_pitch.addr = getelementptr inbounds %struct.ap_fixed.4* %Ki_pitch, i64 0, i32 0, i32 0, i32 0, !dbg !13744 ; [#uses=1 type=i16*] [debug line = 1364:9@100:38]
  %Ki_pitch.load = load i16* %Ki_pitch.addr, align 8, !dbg !13744 ; [#uses=2 type=i16] [debug line = 1364:9@100:38]
  call void (...)* @_ssdm_SpecKeepArrayLoad(i16 %Ki_pitch.load) nounwind
  %OP1.V.5 = sext i16 %Ki_pitch.load to i32, !dbg !13744 ; [#uses=1 type=i32] [debug line = 1364:9@100:38]
  call void @llvm.dbg.value(metadata !{i32 %OP1.V.5}, i64 0, metadata !13611), !dbg !13744 ; [debug line = 1364:9@100:38] [debug variable = OP1.V]
  call void (...)* @_ssdm_SpecKeepArrayLoad(i16 %__Val2__.18) nounwind
  call void @llvm.dbg.value(metadata !{i32 %OP2.V.3}, i64 0, metadata !13618), !dbg !13746 ; [debug line = 1366:9@100:38] [debug variable = OP2.V]
  %r.V.2 = mul nsw i32 %OP1.V.5, %OP2.V.3, !dbg !13747 ; [#uses=1 type=i32] [debug line = 1367:9@100:38]
  call void @llvm.dbg.value(metadata !{i32 %r.V.2}, i64 0, metadata !13634), !dbg !13747 ; [debug line = 1367:9@100:38] [debug variable = r.V]
  %OP1.V.6 = sext i32 %r.V.2 to i48, !dbg !13748  ; [#uses=1 type=i48] [debug line = 1364:9@100:38]
  call void @llvm.dbg.value(metadata !{i48 %OP1.V.6}, i64 0, metadata !13640), !dbg !13748 ; [debug line = 1364:9@100:38] [debug variable = OP1.V]
  call void (...)* @_ssdm_SpecKeepArrayLoad(i16 %dt.load) nounwind
  call void @llvm.dbg.value(metadata !{i48 %OP2.V.1}, i64 0, metadata !13647), !dbg !13749 ; [debug line = 1366:9@100:38] [debug variable = OP2.V]
  %__Val2__.16 = mul nsw i48 %OP1.V.6, %OP2.V.1, !dbg !13750 ; [#uses=3 type=i48] [debug line = 1367:9@100:38]
  %__Val2__.15 = load i16* getelementptr inbounds (%struct.ap_fixed.4* @integral_pitch, i64 0, i32 0, i32 0, i32 0), align 2, !dbg !13751 ; [#uses=3 type=i16] [debug line = 675:0@773:5@1400:0@100:38]
  call void (...)* @_ssdm_SpecKeepArrayLoad(i16 %__Val2__.15) nounwind
  call void @llvm.dbg.value(metadata !{i16 %__Val2__.15}, i64 0, metadata !13754) nounwind, !dbg !13751 ; [debug line = 675:0@773:5@1400:0@100:38] [debug variable = __Val2__]
  call void (...)* @_ssdm_SpecKeepArrayLoad(i16 %__Val2__.15) nounwind
  %tmp.39 = sext i16 %__Val2__.15 to i49, !dbg !13755 ; [#uses=2 type=i49] [debug line = 701:13@773:5@1400:0@100:38]
  call void (...)* @_ssdm_SpecKeepArrayLoad(i49 %tmp.39) nounwind
  %tmp.40 = shl nsw i49 %tmp.39, 14, !dbg !13756  ; [#uses=2 type=i49] [debug line = 703:17@773:5@1400:0@100:38]
  call void (...)* @_ssdm_SpecKeepArrayLoad(i48 %__Val2__.16) nounwind
  call void @llvm.dbg.value(metadata !{i48 %__Val2__.16}, i64 0, metadata !13757) nounwind, !dbg !13759 ; [debug line = 675:0@773:5@1400:0@100:38] [debug variable = __Val2__]
  call void (...)* @_ssdm_SpecKeepArrayLoad(i48 %__Val2__.16) nounwind
  %tmp.41 = sext i48 %__Val2__.16 to i49, !dbg !13760 ; [#uses=2 type=i49] [debug line = 679:13@773:5@1400:0@100:38]
  call void (...)* @_ssdm_SpecKeepArrayLoad(i49 %tmp.40) nounwind
  call void (...)* @_ssdm_SpecKeepArrayLoad(i49 %tmp.41) nounwind
  %__Val2__.17 = add nsw i49 %tmp.40, %tmp.41, !dbg !13753 ; [#uses=3 type=i49] [debug line = 1400:0@100:38]
  call void (...)* @_ssdm_SpecKeepArrayLoad(i49 %__Val2__.17) nounwind
  call void @llvm.dbg.value(metadata !{i49 %__Val2__.17}, i64 0, metadata !13761) nounwind, !dbg !13764 ; [debug line = 675:0@338:43@338:44@100:38] [debug variable = __Val2__]
  call void (...)* @_ssdm_SpecKeepArrayLoad(i49 %__Val2__.17) nounwind
  %tmp.43 = lshr i49 %__Val2__.17, 14, !dbg !13765 ; [#uses=1 type=i49] [debug line = 682:17@338:43@338:44@100:38]
  %tmp.44 = trunc i49 %tmp.43 to i16, !dbg !13765 ; [#uses=2 type=i16] [debug line = 682:17@338:43@338:44@100:38]
  call void (...)* @_ssdm_SpecKeepArrayLoad(i16 %tmp.44) nounwind
  store i16 %tmp.44, i16* getelementptr inbounds (%struct.ap_fixed.4* @integral_pitch, i64 0, i32 0, i32 0, i32 0), align 2, !dbg !13766 ; [debug line = 388:5@100:38]
  call void (...)* @_ssdm_SpecKeepArrayLoad(i16 %__Val2__.18) nounwind
  call void @llvm.dbg.value(metadata !{i16 %__Val2__.18}, i64 0, metadata !13767) nounwind, !dbg !13771 ; [debug line = 675:0@773:5@1401:0@102:33] [debug variable = __Val2__]
  call void (...)* @_ssdm_SpecKeepArrayLoad(i16 %__Val2__.18) nounwind
  %tmp.45 = sext i16 %__Val2__.18 to i17, !dbg !13772 ; [#uses=2 type=i17] [debug line = 679:13@773:5@1401:0@102:33]
  %__Val2__.19 = load i16* getelementptr inbounds (%struct.ap_fixed.4* @previous_error_pitch, i64 0, i32 0, i32 0, i32 0), align 2, !dbg !13771 ; [#uses=3 type=i16] [debug line = 675:0@773:5@1401:0@102:33]
  call void (...)* @_ssdm_SpecKeepArrayLoad(i16 %__Val2__.19) nounwind
  call void @llvm.dbg.value(metadata !{i16 %__Val2__.19}, i64 0, metadata !13767) nounwind, !dbg !13771 ; [debug line = 675:0@773:5@1401:0@102:33] [debug variable = __Val2__]
  call void (...)* @_ssdm_SpecKeepArrayLoad(i16 %__Val2__.19) nounwind
  %tmp.46 = sext i16 %__Val2__.19 to i17, !dbg !13772 ; [#uses=2 type=i17] [debug line = 679:13@773:5@1401:0@102:33]
  call void (...)* @_ssdm_SpecKeepArrayLoad(i17 %tmp.45) nounwind
  call void (...)* @_ssdm_SpecKeepArrayLoad(i17 %tmp.46) nounwind
  %__Val2__.20 = sub i17 %tmp.45, %tmp.46, !dbg !13769 ; [#uses=3 type=i17] [debug line = 1401:0@102:33]
  call void (...)* @_ssdm_SpecKeepArrayLoad(i17 %__Val2__.20) nounwind
  call void @llvm.dbg.value(metadata !{i17 %__Val2__.20}, i64 0, metadata !13773) nounwind, !dbg !13776 ; [debug line = 675:0@773:5@1377:45@102:33] [debug variable = __Val2__]
  call void (...)* @_ssdm_SpecKeepArrayLoad(i17 %__Val2__.20) nounwind
  %tmp.48 = sext i17 %__Val2__.20 to i24, !dbg !13777 ; [#uses=2 type=i24] [debug line = 701:13@773:5@1377:45@102:33]
  call void (...)* @_ssdm_SpecKeepArrayLoad(i24 %tmp.48) nounwind
  %tmp.49 = shl nsw i24 %tmp.48, 7, !dbg !13778   ; [#uses=2 type=i24] [debug line = 703:17@773:5@1377:45@102:33]
  call void (...)* @_ssdm_SpecKeepArrayLoad(i24 %tmp.49) nounwind
  %tmp.50 = sext i24 %tmp.49 to i32, !dbg !13779  ; [#uses=1 type=i32] [debug line = 1382:9@102:33]
  call void (...)* @_ssdm_SpecKeepArrayLoad(i16 %dt.load) nounwind
  %tmp.51 = sdiv i32 %tmp.50, %tmp.22, !dbg !13779 ; [#uses=1 type=i32] [debug line = 1382:9@102:33]
  %r.V.3 = trunc i32 %tmp.51 to i25, !dbg !13779  ; [#uses=1 type=i25] [debug line = 1382:9@102:33]
  call void @llvm.dbg.value(metadata !{i25 %r.V.3}, i64 0, metadata !13692), !dbg !13779 ; [debug line = 1382:9@102:33] [debug variable = r.V]
  %Kd_pitch.addr = getelementptr inbounds %struct.ap_fixed.4* %Kd_pitch, i64 0, i32 0, i32 0, i32 0, !dbg !13780 ; [#uses=1 type=i16*] [debug line = 1364:9@102:33]
  %Kd_pitch.load = load i16* %Kd_pitch.addr, align 8, !dbg !13780 ; [#uses=2 type=i16] [debug line = 1364:9@102:33]
  call void (...)* @_ssdm_SpecKeepArrayLoad(i16 %Kd_pitch.load) nounwind
  %OP1.V.7 = sext i16 %Kd_pitch.load to i41, !dbg !13780 ; [#uses=1 type=i41] [debug line = 1364:9@102:33]
  call void @llvm.dbg.value(metadata !{i41 %OP1.V.7}, i64 0, metadata !13701), !dbg !13780 ; [debug line = 1364:9@102:33] [debug variable = OP1.V]
  %OP2.V.4 = sext i25 %r.V.3 to i41, !dbg !13781  ; [#uses=1 type=i41] [debug line = 1366:9@102:33]
  call void @llvm.dbg.value(metadata !{i41 %OP2.V.4}, i64 0, metadata !13708), !dbg !13781 ; [debug line = 1366:9@102:33] [debug variable = OP2.V]
  %__Val2__.21 = mul nsw i41 %OP1.V.7, %OP2.V.4, !dbg !13782 ; [#uses=3 type=i41] [debug line = 1367:9@102:33]
  call void (...)* @_ssdm_SpecKeepArrayLoad(i41 %__Val2__.21) nounwind
  call void @llvm.dbg.value(metadata !{i41 %__Val2__.21}, i64 0, metadata !13783) nounwind, !dbg !13786 ; [debug line = 675:0@338:43@338:44@102:33] [debug variable = __Val2__]
  call void (...)* @_ssdm_SpecKeepArrayLoad(i41 %__Val2__.21) nounwind
  %tmp.56 = lshr i41 %__Val2__.21, 7, !dbg !13787 ; [#uses=1 type=i41] [debug line = 682:17@338:43@338:44@102:33]
  %tmp.57 = trunc i41 %tmp.56 to i16, !dbg !13787 ; [#uses=2 type=i16] [debug line = 682:17@338:43@338:44@102:33]
  call void (...)* @_ssdm_SpecKeepArrayLoad(i16 %tmp.57) nounwind
  store i16 %tmp.57, i16* getelementptr inbounds (%struct.ap_fixed.4* @derivative_pitch, i64 0, i32 0, i32 0, i32 0), align 2, !dbg !13788 ; [debug line = 388:5@102:33]
  call void (...)* @_ssdm_SpecKeepArrayLoad(i16 %__Val2__.18) nounwind
  store i16 %__Val2__.18, i16* getelementptr inbounds (%struct.ap_fixed.4* @previous_error_pitch, i64 0, i32 0, i32 0, i32 0), align 2, !dbg !13789 ; [debug line = 388:5@103:3]
  %target_yaw.addr = getelementptr inbounds %struct.ap_fixed.4* %target_yaw, i64 0, i32 0, i32 0, i32 0, !dbg !13791 ; [#uses=1 type=i16*] [debug line = 675:0@773:5@1401:0@106:15]
  %__Val2__.22 = load i16* %target_yaw.addr, align 8, !dbg !13791 ; [#uses=3 type=i16] [debug line = 675:0@773:5@1401:0@106:15]
  call void (...)* @_ssdm_SpecKeepArrayLoad(i16 %__Val2__.22) nounwind
  call void @llvm.dbg.value(metadata !{i16 %__Val2__.22}, i64 0, metadata !13795) nounwind, !dbg !13791 ; [debug line = 675:0@773:5@1401:0@106:15] [debug variable = __Val2__]
  call void (...)* @_ssdm_SpecKeepArrayLoad(i16 %__Val2__.22) nounwind
  %tmp.58 = sext i16 %__Val2__.22 to i17, !dbg !13796 ; [#uses=2 type=i17] [debug line = 679:13@773:5@1401:0@106:15]
  %current_yaw.addr = getelementptr inbounds %struct.ap_fixed.4* %current_yaw, i64 0, i32 0, i32 0, i32 0, !dbg !13791 ; [#uses=1 type=i16*] [debug line = 675:0@773:5@1401:0@106:15]
  %__Val2__.23 = load i16* %current_yaw.addr, align 8, !dbg !13791 ; [#uses=3 type=i16] [debug line = 675:0@773:5@1401:0@106:15]
  call void (...)* @_ssdm_SpecKeepArrayLoad(i16 %__Val2__.23) nounwind
  call void @llvm.dbg.value(metadata !{i16 %__Val2__.23}, i64 0, metadata !13795) nounwind, !dbg !13791 ; [debug line = 675:0@773:5@1401:0@106:15] [debug variable = __Val2__]
  call void (...)* @_ssdm_SpecKeepArrayLoad(i16 %__Val2__.23) nounwind
  %tmp.59 = sext i16 %__Val2__.23 to i17, !dbg !13796 ; [#uses=2 type=i17] [debug line = 679:13@773:5@1401:0@106:15]
  call void (...)* @_ssdm_SpecKeepArrayLoad(i17 %tmp.58) nounwind
  call void (...)* @_ssdm_SpecKeepArrayLoad(i17 %tmp.59) nounwind
  %__Val2__.24 = sub i17 %tmp.58, %tmp.59, !dbg !13793 ; [#uses=3 type=i17] [debug line = 1401:0@106:15]
  call void (...)* @_ssdm_SpecKeepArrayLoad(i17 %__Val2__.24) nounwind
  call void @llvm.dbg.value(metadata !{i17 %__Val2__.24}, i64 0, metadata !13797) nounwind, !dbg !13800 ; [debug line = 675:0@338:43@338:44@106:15] [debug variable = __Val2__]
  call void (...)* @_ssdm_SpecKeepArrayLoad(i17 %__Val2__.24) nounwind
  %__Val2__.29 = trunc i17 %__Val2__.24 to i16, !dbg !13801 ; [#uses=10 type=i16] [debug line = 679:13@338:43@338:44@106:15]
  call void (...)* @_ssdm_SpecKeepArrayLoad(i16 %__Val2__.29) nounwind
  store i16 %__Val2__.29, i16* getelementptr inbounds (%struct.ap_fixed.4* @error_yaw, i64 0, i32 0, i32 0, i32 0), align 2, !dbg !13802 ; [debug line = 388:5@106:15]
  %Kp_yaw.addr = getelementptr inbounds %struct.ap_fixed.4* %Kp_yaw, i64 0, i32 0, i32 0, i32 0, !dbg !13803 ; [#uses=1 type=i16*] [debug line = 1364:9@108:22]
  %Kp_yaw.load = load i16* %Kp_yaw.addr, align 8, !dbg !13803 ; [#uses=2 type=i16] [debug line = 1364:9@108:22]
  call void (...)* @_ssdm_SpecKeepArrayLoad(i16 %Kp_yaw.load) nounwind
  %OP1.V.8 = sext i16 %Kp_yaw.load to i32, !dbg !13803 ; [#uses=1 type=i32] [debug line = 1364:9@108:22]
  call void @llvm.dbg.value(metadata !{i32 %OP1.V.8}, i64 0, metadata !13611), !dbg !13803 ; [debug line = 1364:9@108:22] [debug variable = OP1.V]
  call void (...)* @_ssdm_SpecKeepArrayLoad(i16 %__Val2__.29) nounwind
  %OP2.V.5 = sext i16 %__Val2__.29 to i32, !dbg !13805 ; [#uses=2 type=i32] [debug line = 1366:9@108:22]
  call void @llvm.dbg.value(metadata !{i32 %OP2.V.5}, i64 0, metadata !13618), !dbg !13805 ; [debug line = 1366:9@108:22] [debug variable = OP2.V]
  %__Val2__.25 = mul nsw i32 %OP1.V.8, %OP2.V.5, !dbg !13806 ; [#uses=3 type=i32] [debug line = 1367:9@108:22]
  call void (...)* @_ssdm_SpecKeepArrayLoad(i32 %__Val2__.25) nounwind
  call void @llvm.dbg.value(metadata !{i32 %__Val2__.25}, i64 0, metadata !13807) nounwind, !dbg !13810 ; [debug line = 675:0@338:43@338:44@108:22] [debug variable = __Val2__]
  call void (...)* @_ssdm_SpecKeepArrayLoad(i32 %__Val2__.25) nounwind
  %tmp.63 = lshr i32 %__Val2__.25, 7, !dbg !13811 ; [#uses=1 type=i32] [debug line = 682:17@338:43@338:44@108:22]
  %tmp.64 = trunc i32 %tmp.63 to i16, !dbg !13811 ; [#uses=2 type=i16] [debug line = 682:17@338:43@338:44@108:22]
  call void (...)* @_ssdm_SpecKeepArrayLoad(i16 %tmp.64) nounwind
  store i16 %tmp.64, i16* getelementptr inbounds (%struct.ap_fixed.4* @proportional_yaw, i64 0, i32 0, i32 0, i32 0), align 2, !dbg !13812 ; [debug line = 388:5@108:22]
  %Ki_yaw.addr = getelementptr inbounds %struct.ap_fixed.4* %Ki_yaw, i64 0, i32 0, i32 0, i32 0, !dbg !13813 ; [#uses=1 type=i16*] [debug line = 1364:9@110:34]
  %Ki_yaw.load = load i16* %Ki_yaw.addr, align 8, !dbg !13813 ; [#uses=2 type=i16] [debug line = 1364:9@110:34]
  call void (...)* @_ssdm_SpecKeepArrayLoad(i16 %Ki_yaw.load) nounwind
  %OP1.V.9 = sext i16 %Ki_yaw.load to i32, !dbg !13813 ; [#uses=1 type=i32] [debug line = 1364:9@110:34]
  call void @llvm.dbg.value(metadata !{i32 %OP1.V.9}, i64 0, metadata !13611), !dbg !13813 ; [debug line = 1364:9@110:34] [debug variable = OP1.V]
  call void (...)* @_ssdm_SpecKeepArrayLoad(i16 %__Val2__.29) nounwind
  call void @llvm.dbg.value(metadata !{i32 %OP2.V.5}, i64 0, metadata !13618), !dbg !13815 ; [debug line = 1366:9@110:34] [debug variable = OP2.V]
  %r.V.4 = mul nsw i32 %OP1.V.9, %OP2.V.5, !dbg !13816 ; [#uses=1 type=i32] [debug line = 1367:9@110:34]
  call void @llvm.dbg.value(metadata !{i32 %r.V.4}, i64 0, metadata !13634), !dbg !13816 ; [debug line = 1367:9@110:34] [debug variable = r.V]
  %OP1.V.10 = sext i32 %r.V.4 to i48, !dbg !13817 ; [#uses=1 type=i48] [debug line = 1364:9@110:34]
  call void @llvm.dbg.value(metadata !{i48 %OP1.V.10}, i64 0, metadata !13640), !dbg !13817 ; [debug line = 1364:9@110:34] [debug variable = OP1.V]
  call void (...)* @_ssdm_SpecKeepArrayLoad(i16 %dt.load) nounwind
  call void @llvm.dbg.value(metadata !{i48 %OP2.V.1}, i64 0, metadata !13647), !dbg !13818 ; [debug line = 1366:9@110:34] [debug variable = OP2.V]
  %__Val2__.27 = mul nsw i48 %OP1.V.10, %OP2.V.1, !dbg !13819 ; [#uses=3 type=i48] [debug line = 1367:9@110:34]
  %__Val2__.26 = load i16* getelementptr inbounds (%struct.ap_fixed.4* @integral_yaw, i64 0, i32 0, i32 0, i32 0), align 2, !dbg !13820 ; [#uses=3 type=i16] [debug line = 675:0@773:5@1400:0@110:34]
  call void (...)* @_ssdm_SpecKeepArrayLoad(i16 %__Val2__.26) nounwind
  call void @llvm.dbg.value(metadata !{i16 %__Val2__.26}, i64 0, metadata !13823) nounwind, !dbg !13820 ; [debug line = 675:0@773:5@1400:0@110:34] [debug variable = __Val2__]
  call void (...)* @_ssdm_SpecKeepArrayLoad(i16 %__Val2__.26) nounwind
  %tmp.67 = sext i16 %__Val2__.26 to i49, !dbg !13824 ; [#uses=2 type=i49] [debug line = 701:13@773:5@1400:0@110:34]
  call void (...)* @_ssdm_SpecKeepArrayLoad(i49 %tmp.67) nounwind
  %tmp.68 = shl nsw i49 %tmp.67, 14, !dbg !13825  ; [#uses=2 type=i49] [debug line = 703:17@773:5@1400:0@110:34]
  call void (...)* @_ssdm_SpecKeepArrayLoad(i48 %__Val2__.27) nounwind
  call void @llvm.dbg.value(metadata !{i48 %__Val2__.27}, i64 0, metadata !13826) nounwind, !dbg !13828 ; [debug line = 675:0@773:5@1400:0@110:34] [debug variable = __Val2__]
  call void (...)* @_ssdm_SpecKeepArrayLoad(i48 %__Val2__.27) nounwind
  %tmp.69 = sext i48 %__Val2__.27 to i49, !dbg !13829 ; [#uses=2 type=i49] [debug line = 679:13@773:5@1400:0@110:34]
  call void (...)* @_ssdm_SpecKeepArrayLoad(i49 %tmp.68) nounwind
  call void (...)* @_ssdm_SpecKeepArrayLoad(i49 %tmp.69) nounwind
  %__Val2__.28 = add nsw i49 %tmp.68, %tmp.69, !dbg !13822 ; [#uses=3 type=i49] [debug line = 1400:0@110:34]
  call void (...)* @_ssdm_SpecKeepArrayLoad(i49 %__Val2__.28) nounwind
  call void @llvm.dbg.value(metadata !{i49 %__Val2__.28}, i64 0, metadata !13830) nounwind, !dbg !13833 ; [debug line = 675:0@338:43@338:44@110:34] [debug variable = __Val2__]
  call void (...)* @_ssdm_SpecKeepArrayLoad(i49 %__Val2__.28) nounwind
  %tmp.71 = lshr i49 %__Val2__.28, 14, !dbg !13834 ; [#uses=1 type=i49] [debug line = 682:17@338:43@338:44@110:34]
  %tmp.72 = trunc i49 %tmp.71 to i16, !dbg !13834 ; [#uses=2 type=i16] [debug line = 682:17@338:43@338:44@110:34]
  call void (...)* @_ssdm_SpecKeepArrayLoad(i16 %tmp.72) nounwind
  store i16 %tmp.72, i16* getelementptr inbounds (%struct.ap_fixed.4* @integral_yaw, i64 0, i32 0, i32 0, i32 0), align 2, !dbg !13835 ; [debug line = 388:5@110:34]
  call void (...)* @_ssdm_SpecKeepArrayLoad(i16 %__Val2__.29) nounwind
  call void @llvm.dbg.value(metadata !{i16 %__Val2__.29}, i64 0, metadata !13836) nounwind, !dbg !13840 ; [debug line = 675:0@773:5@1401:0@112:29] [debug variable = __Val2__]
  call void (...)* @_ssdm_SpecKeepArrayLoad(i16 %__Val2__.29) nounwind
  %tmp.73 = sext i16 %__Val2__.29 to i17, !dbg !13841 ; [#uses=2 type=i17] [debug line = 679:13@773:5@1401:0@112:29]
  %__Val2__.30 = load i16* getelementptr inbounds (%struct.ap_fixed.4* @previous_error_yaw, i64 0, i32 0, i32 0, i32 0), align 2, !dbg !13840 ; [#uses=3 type=i16] [debug line = 675:0@773:5@1401:0@112:29]
  call void (...)* @_ssdm_SpecKeepArrayLoad(i16 %__Val2__.30) nounwind
  call void @llvm.dbg.value(metadata !{i16 %__Val2__.30}, i64 0, metadata !13836) nounwind, !dbg !13840 ; [debug line = 675:0@773:5@1401:0@112:29] [debug variable = __Val2__]
  call void (...)* @_ssdm_SpecKeepArrayLoad(i16 %__Val2__.30) nounwind
  %tmp.74 = sext i16 %__Val2__.30 to i17, !dbg !13841 ; [#uses=2 type=i17] [debug line = 679:13@773:5@1401:0@112:29]
  call void (...)* @_ssdm_SpecKeepArrayLoad(i17 %tmp.73) nounwind
  call void (...)* @_ssdm_SpecKeepArrayLoad(i17 %tmp.74) nounwind
  %__Val2__.31 = sub i17 %tmp.73, %tmp.74, !dbg !13838 ; [#uses=3 type=i17] [debug line = 1401:0@112:29]
  call void (...)* @_ssdm_SpecKeepArrayLoad(i17 %__Val2__.31) nounwind
  call void @llvm.dbg.value(metadata !{i17 %__Val2__.31}, i64 0, metadata !13842) nounwind, !dbg !13845 ; [debug line = 675:0@773:5@1377:45@112:29] [debug variable = __Val2__]
  call void (...)* @_ssdm_SpecKeepArrayLoad(i17 %__Val2__.31) nounwind
  %tmp.76 = sext i17 %__Val2__.31 to i24, !dbg !13846 ; [#uses=2 type=i24] [debug line = 701:13@773:5@1377:45@112:29]
  call void (...)* @_ssdm_SpecKeepArrayLoad(i24 %tmp.76) nounwind
  %tmp.77 = shl nsw i24 %tmp.76, 7, !dbg !13847   ; [#uses=2 type=i24] [debug line = 703:17@773:5@1377:45@112:29]
  call void (...)* @_ssdm_SpecKeepArrayLoad(i24 %tmp.77) nounwind
  %tmp.78 = sext i24 %tmp.77 to i32, !dbg !13848  ; [#uses=1 type=i32] [debug line = 1382:9@112:29]
  call void (...)* @_ssdm_SpecKeepArrayLoad(i16 %dt.load) nounwind
  %tmp.79 = sdiv i32 %tmp.78, %tmp.22, !dbg !13848 ; [#uses=1 type=i32] [debug line = 1382:9@112:29]
  %r.V.5 = trunc i32 %tmp.79 to i25, !dbg !13848  ; [#uses=1 type=i25] [debug line = 1382:9@112:29]
  call void @llvm.dbg.value(metadata !{i25 %r.V.5}, i64 0, metadata !13692), !dbg !13848 ; [debug line = 1382:9@112:29] [debug variable = r.V]
  %Kd_yaw.addr = getelementptr inbounds %struct.ap_fixed.4* %Kd_yaw, i64 0, i32 0, i32 0, i32 0, !dbg !13849 ; [#uses=1 type=i16*] [debug line = 1364:9@112:29]
  %Kd_yaw.load = load i16* %Kd_yaw.addr, align 8, !dbg !13849 ; [#uses=2 type=i16] [debug line = 1364:9@112:29]
  call void (...)* @_ssdm_SpecKeepArrayLoad(i16 %Kd_yaw.load) nounwind
  %OP1.V.11 = sext i16 %Kd_yaw.load to i41, !dbg !13849 ; [#uses=1 type=i41] [debug line = 1364:9@112:29]
  call void @llvm.dbg.value(metadata !{i41 %OP1.V.11}, i64 0, metadata !13701), !dbg !13849 ; [debug line = 1364:9@112:29] [debug variable = OP1.V]
  %OP2.V.6 = sext i25 %r.V.5 to i41, !dbg !13850  ; [#uses=1 type=i41] [debug line = 1366:9@112:29]
  call void @llvm.dbg.value(metadata !{i41 %OP2.V.6}, i64 0, metadata !13708), !dbg !13850 ; [debug line = 1366:9@112:29] [debug variable = OP2.V]
  %__Val2__.32 = mul nsw i41 %OP1.V.11, %OP2.V.6, !dbg !13851 ; [#uses=3 type=i41] [debug line = 1367:9@112:29]
  call void (...)* @_ssdm_SpecKeepArrayLoad(i41 %__Val2__.32) nounwind
  call void @llvm.dbg.value(metadata !{i41 %__Val2__.32}, i64 0, metadata !13852) nounwind, !dbg !13855 ; [debug line = 675:0@338:43@338:44@112:29] [debug variable = __Val2__]
  call void (...)* @_ssdm_SpecKeepArrayLoad(i41 %__Val2__.32) nounwind
  %tmp.84 = lshr i41 %__Val2__.32, 7, !dbg !13856 ; [#uses=1 type=i41] [debug line = 682:17@338:43@338:44@112:29]
  %tmp.85 = trunc i41 %tmp.84 to i16, !dbg !13856 ; [#uses=2 type=i16] [debug line = 682:17@338:43@338:44@112:29]
  call void (...)* @_ssdm_SpecKeepArrayLoad(i16 %tmp.85) nounwind
  store i16 %tmp.85, i16* getelementptr inbounds (%struct.ap_fixed.4* @derivative_yaw, i64 0, i32 0, i32 0, i32 0), align 2, !dbg !13857 ; [debug line = 388:5@112:29]
  call void (...)* @_ssdm_SpecKeepArrayLoad(i16 %__Val2__.29) nounwind
  store i16 %__Val2__.29, i16* getelementptr inbounds (%struct.ap_fixed.4* @previous_error_yaw, i64 0, i32 0, i32 0, i32 0), align 2, !dbg !13858 ; [debug line = 388:5@113:3]
  call void (...)* @_ssdm_SpecKeepArrayLoad(i16 %__Val2__.33) nounwind
  call void @llvm.dbg.value(metadata !{i16 %__Val2__.33}, i64 0, metadata !13860) nounwind, !dbg !13865 ; [debug line = 675:0@773:5@1400:0@117:11] [debug variable = __Val2__]
  call void (...)* @_ssdm_SpecKeepArrayLoad(i16 %__Val2__.33) nounwind
  %tmp.86 = sext i16 %__Val2__.33 to i17, !dbg !13866 ; [#uses=2 type=i17] [debug line = 679:13@773:5@1400:0@117:11]
  call void (...)* @_ssdm_SpecKeepArrayLoad(i16 %__Val2__.34) nounwind
  call void @llvm.dbg.value(metadata !{i16 %__Val2__.34}, i64 0, metadata !13860) nounwind, !dbg !13865 ; [debug line = 675:0@773:5@1400:0@117:11] [debug variable = __Val2__]
  call void (...)* @_ssdm_SpecKeepArrayLoad(i16 %__Val2__.34) nounwind
  %tmp.87 = sext i16 %__Val2__.34 to i17, !dbg !13866 ; [#uses=2 type=i17] [debug line = 679:13@773:5@1400:0@117:11]
  call void (...)* @_ssdm_SpecKeepArrayLoad(i17 %tmp.86) nounwind
  call void (...)* @_ssdm_SpecKeepArrayLoad(i17 %tmp.87) nounwind
  %__Val2__.35 = add i17 %tmp.87, %tmp.86, !dbg !13862 ; [#uses=3 type=i17] [debug line = 1400:0@117:11]
  call void (...)* @_ssdm_SpecKeepArrayLoad(i17 %__Val2__.35) nounwind
  call void @llvm.dbg.value(metadata !{i17 %__Val2__.35}, i64 0, metadata !13867) nounwind, !dbg !13873 ; [debug line = 675:0@773:5@1400:0@117:11] [debug variable = __Val2__]
  call void (...)* @_ssdm_SpecKeepArrayLoad(i17 %__Val2__.35) nounwind
  %tmp.89 = sext i17 %__Val2__.35 to i18, !dbg !13874 ; [#uses=2 type=i18] [debug line = 679:13@773:5@1400:0@117:11]
  call void (...)* @_ssdm_SpecKeepArrayLoad(i16 %__Val2__.36) nounwind
  call void @llvm.dbg.value(metadata !{i16 %__Val2__.36}, i64 0, metadata !13875) nounwind, !dbg !13879 ; [debug line = 675:0@773:5@1400:0@117:11] [debug variable = __Val2__]
  call void (...)* @_ssdm_SpecKeepArrayLoad(i16 %__Val2__.36) nounwind
  %tmp.90 = sext i16 %__Val2__.36 to i18, !dbg !13880 ; [#uses=2 type=i18] [debug line = 679:13@773:5@1400:0@117:11]
  call void (...)* @_ssdm_SpecKeepArrayLoad(i18 %tmp.89) nounwind
  call void (...)* @_ssdm_SpecKeepArrayLoad(i18 %tmp.90) nounwind
  %__Val2__.37 = add i18 %tmp.90, %tmp.89, !dbg !13871 ; [#uses=3 type=i18] [debug line = 1400:0@117:11]
  call void (...)* @_ssdm_SpecKeepArrayLoad(i18 %__Val2__.37) nounwind
  call void @llvm.dbg.value(metadata !{i18 %__Val2__.37}, i64 0, metadata !13881) nounwind, !dbg !13886 ; [debug line = 675:0@338:43@338:44@117:11] [debug variable = __Val2__]
  call void (...)* @_ssdm_SpecKeepArrayLoad(i18 %__Val2__.37) nounwind
  %tmp.92 = trunc i18 %__Val2__.37 to i16, !dbg !13887 ; [#uses=2 type=i16] [debug line = 679:13@338:43@338:44@117:11]
  call void @llvm.dbg.value(metadata !{%struct.ap_fixed.4* %rollX}, i64 0, metadata !13888), !dbg !13890 ; [debug line = 386:51@117:11] [debug variable = this]
  call void (...)* @_ssdm_SpecKeepArrayLoad(i16 %tmp.92) nounwind
  %rollX.addr = getelementptr inbounds %struct.ap_fixed.4* %rollX, i64 0, i32 0, i32 0, i32 0, !dbg !13891 ; [#uses=1 type=i16*] [debug line = 388:5@117:11]
  store i16 %tmp.92, i16* %rollX.addr, align 2, !dbg !13891 ; [debug line = 388:5@117:11]
  %__Val2__.38 = load i16* getelementptr inbounds (%struct.ap_fixed.4* @proportional_pitch, i64 0, i32 0, i32 0, i32 0), align 2, !dbg !13892 ; [#uses=3 type=i16] [debug line = 675:0@773:5@1400:0@118:12]
  call void (...)* @_ssdm_SpecKeepArrayLoad(i16 %__Val2__.38) nounwind
  call void @llvm.dbg.value(metadata !{i16 %__Val2__.38}, i64 0, metadata !13896) nounwind, !dbg !13892 ; [debug line = 675:0@773:5@1400:0@118:12] [debug variable = __Val2__]
  call void (...)* @_ssdm_SpecKeepArrayLoad(i16 %__Val2__.38) nounwind
  %tmp.93 = sext i16 %__Val2__.38 to i17, !dbg !13897 ; [#uses=2 type=i17] [debug line = 679:13@773:5@1400:0@118:12]
  %__Val2__.39 = load i16* getelementptr inbounds (%struct.ap_fixed.4* @integral_pitch, i64 0, i32 0, i32 0, i32 0), align 2, !dbg !13892 ; [#uses=3 type=i16] [debug line = 675:0@773:5@1400:0@118:12]
  call void (...)* @_ssdm_SpecKeepArrayLoad(i16 %__Val2__.39) nounwind
  call void @llvm.dbg.value(metadata !{i16 %__Val2__.39}, i64 0, metadata !13896) nounwind, !dbg !13892 ; [debug line = 675:0@773:5@1400:0@118:12] [debug variable = __Val2__]
  call void (...)* @_ssdm_SpecKeepArrayLoad(i16 %__Val2__.39) nounwind
  %tmp.94 = sext i16 %__Val2__.39 to i17, !dbg !13897 ; [#uses=2 type=i17] [debug line = 679:13@773:5@1400:0@118:12]
  call void (...)* @_ssdm_SpecKeepArrayLoad(i17 %tmp.93) nounwind
  call void (...)* @_ssdm_SpecKeepArrayLoad(i17 %tmp.94) nounwind
  %__Val2__.40 = add i17 %tmp.94, %tmp.93, !dbg !13894 ; [#uses=3 type=i17] [debug line = 1400:0@118:12]
  call void (...)* @_ssdm_SpecKeepArrayLoad(i17 %__Val2__.40) nounwind
  call void @llvm.dbg.value(metadata !{i17 %__Val2__.40}, i64 0, metadata !13898) nounwind, !dbg !13901 ; [debug line = 675:0@773:5@1400:0@118:12] [debug variable = __Val2__]
  call void (...)* @_ssdm_SpecKeepArrayLoad(i17 %__Val2__.40) nounwind
  %tmp.96 = sext i17 %__Val2__.40 to i18, !dbg !13902 ; [#uses=2 type=i18] [debug line = 679:13@773:5@1400:0@118:12]
  %__Val2__.41 = load i16* getelementptr inbounds (%struct.ap_fixed.4* @derivative_pitch, i64 0, i32 0, i32 0, i32 0), align 2, !dbg !13903 ; [#uses=3 type=i16] [debug line = 675:0@773:5@1400:0@118:12]
  call void (...)* @_ssdm_SpecKeepArrayLoad(i16 %__Val2__.41) nounwind
  call void @llvm.dbg.value(metadata !{i16 %__Val2__.41}, i64 0, metadata !13905) nounwind, !dbg !13903 ; [debug line = 675:0@773:5@1400:0@118:12] [debug variable = __Val2__]
  call void (...)* @_ssdm_SpecKeepArrayLoad(i16 %__Val2__.41) nounwind
  %tmp.97 = sext i16 %__Val2__.41 to i18, !dbg !13906 ; [#uses=2 type=i18] [debug line = 679:13@773:5@1400:0@118:12]
  call void (...)* @_ssdm_SpecKeepArrayLoad(i18 %tmp.96) nounwind
  call void (...)* @_ssdm_SpecKeepArrayLoad(i18 %tmp.97) nounwind
  %__Val2__.42 = add i18 %tmp.97, %tmp.96, !dbg !13900 ; [#uses=3 type=i18] [debug line = 1400:0@118:12]
  call void (...)* @_ssdm_SpecKeepArrayLoad(i18 %__Val2__.42) nounwind
  call void @llvm.dbg.value(metadata !{i18 %__Val2__.42}, i64 0, metadata !13907) nounwind, !dbg !13910 ; [debug line = 675:0@338:43@338:44@118:12] [debug variable = __Val2__]
  call void (...)* @_ssdm_SpecKeepArrayLoad(i18 %__Val2__.42) nounwind
  %tmp.99 = trunc i18 %__Val2__.42 to i16, !dbg !13911 ; [#uses=2 type=i16] [debug line = 679:13@338:43@338:44@118:12]
  call void @llvm.dbg.value(metadata !{%struct.ap_fixed.4* %pitchY}, i64 0, metadata !13888), !dbg !13912 ; [debug line = 386:51@118:12] [debug variable = this]
  call void (...)* @_ssdm_SpecKeepArrayLoad(i16 %tmp.99) nounwind
  %pitchY.addr = getelementptr inbounds %struct.ap_fixed.4* %pitchY, i64 0, i32 0, i32 0, i32 0, !dbg !13913 ; [#uses=1 type=i16*] [debug line = 388:5@118:12]
  store i16 %tmp.99, i16* %pitchY.addr, align 2, !dbg !13913 ; [debug line = 388:5@118:12]
  %__Val2__.43 = load i16* getelementptr inbounds (%struct.ap_fixed.4* @proportional_yaw, i64 0, i32 0, i32 0, i32 0), align 2, !dbg !13914 ; [#uses=3 type=i16] [debug line = 675:0@773:5@1400:0@119:10]
  call void (...)* @_ssdm_SpecKeepArrayLoad(i16 %__Val2__.43) nounwind
  call void @llvm.dbg.value(metadata !{i16 %__Val2__.43}, i64 0, metadata !13918) nounwind, !dbg !13914 ; [debug line = 675:0@773:5@1400:0@119:10] [debug variable = __Val2__]
  call void (...)* @_ssdm_SpecKeepArrayLoad(i16 %__Val2__.43) nounwind
  %tmp.100 = sext i16 %__Val2__.43 to i17, !dbg !13919 ; [#uses=2 type=i17] [debug line = 679:13@773:5@1400:0@119:10]
  %__Val2__.44 = load i16* getelementptr inbounds (%struct.ap_fixed.4* @integral_yaw, i64 0, i32 0, i32 0, i32 0), align 2, !dbg !13914 ; [#uses=3 type=i16] [debug line = 675:0@773:5@1400:0@119:10]
  call void (...)* @_ssdm_SpecKeepArrayLoad(i16 %__Val2__.44) nounwind
  call void @llvm.dbg.value(metadata !{i16 %__Val2__.44}, i64 0, metadata !13918) nounwind, !dbg !13914 ; [debug line = 675:0@773:5@1400:0@119:10] [debug variable = __Val2__]
  call void (...)* @_ssdm_SpecKeepArrayLoad(i16 %__Val2__.44) nounwind
  %tmp.101 = sext i16 %__Val2__.44 to i17, !dbg !13919 ; [#uses=2 type=i17] [debug line = 679:13@773:5@1400:0@119:10]
  call void (...)* @_ssdm_SpecKeepArrayLoad(i17 %tmp.100) nounwind
  call void (...)* @_ssdm_SpecKeepArrayLoad(i17 %tmp.101) nounwind
  %__Val2__.45 = add i17 %tmp.101, %tmp.100, !dbg !13916 ; [#uses=3 type=i17] [debug line = 1400:0@119:10]
  call void (...)* @_ssdm_SpecKeepArrayLoad(i17 %__Val2__.45) nounwind
  call void @llvm.dbg.value(metadata !{i17 %__Val2__.45}, i64 0, metadata !13920) nounwind, !dbg !13923 ; [debug line = 675:0@773:5@1400:0@119:10] [debug variable = __Val2__]
  call void (...)* @_ssdm_SpecKeepArrayLoad(i17 %__Val2__.45) nounwind
  %tmp.103 = sext i17 %__Val2__.45 to i18, !dbg !13924 ; [#uses=2 type=i18] [debug line = 679:13@773:5@1400:0@119:10]
  %__Val2__.46 = load i16* getelementptr inbounds (%struct.ap_fixed.4* @derivative_yaw, i64 0, i32 0, i32 0, i32 0), align 2, !dbg !13925 ; [#uses=3 type=i16] [debug line = 675:0@773:5@1400:0@119:10]
  call void (...)* @_ssdm_SpecKeepArrayLoad(i16 %__Val2__.46) nounwind
  call void @llvm.dbg.value(metadata !{i16 %__Val2__.46}, i64 0, metadata !13927) nounwind, !dbg !13925 ; [debug line = 675:0@773:5@1400:0@119:10] [debug variable = __Val2__]
  call void (...)* @_ssdm_SpecKeepArrayLoad(i16 %__Val2__.46) nounwind
  %tmp.104 = sext i16 %__Val2__.46 to i18, !dbg !13928 ; [#uses=2 type=i18] [debug line = 679:13@773:5@1400:0@119:10]
  call void (...)* @_ssdm_SpecKeepArrayLoad(i18 %tmp.103) nounwind
  call void (...)* @_ssdm_SpecKeepArrayLoad(i18 %tmp.104) nounwind
  %__Val2__.47 = add i18 %tmp.104, %tmp.103, !dbg !13922 ; [#uses=3 type=i18] [debug line = 1400:0@119:10]
  call void (...)* @_ssdm_SpecKeepArrayLoad(i18 %__Val2__.47) nounwind
  call void @llvm.dbg.value(metadata !{i18 %__Val2__.47}, i64 0, metadata !13929) nounwind, !dbg !13932 ; [debug line = 675:0@338:43@338:44@119:10] [debug variable = __Val2__]
  call void (...)* @_ssdm_SpecKeepArrayLoad(i18 %__Val2__.47) nounwind
  %tmp.106 = trunc i18 %__Val2__.47 to i16, !dbg !13933 ; [#uses=2 type=i16] [debug line = 679:13@338:43@338:44@119:10]
  call void @llvm.dbg.value(metadata !{%struct.ap_fixed.4* %yawZ}, i64 0, metadata !13888), !dbg !13934 ; [debug line = 386:51@119:10] [debug variable = this]
  call void (...)* @_ssdm_SpecKeepArrayLoad(i16 %tmp.106) nounwind
  %yawZ.addr = getelementptr inbounds %struct.ap_fixed.4* %yawZ, i64 0, i32 0, i32 0, i32 0, !dbg !13935 ; [#uses=1 type=i16*] [debug line = 388:5@119:10]
  store i16 %tmp.106, i16* %yawZ.addr, align 2, !dbg !13935 ; [debug line = 388:5@119:10]
  ret void, !dbg !13936                           ; [debug line = 122:1]
}

; [#uses=84]
declare void @llvm.dbg.value(metadata, i64, metadata) nounwind readnone

; [#uses=16]
declare void @llvm.dbg.declare(metadata, metadata) nounwind readnone

; [#uses=1]
declare void @_ssdm_op_SpecTopModule(...)

; [#uses=20]
declare void @_ssdm_op_SpecInterface(...) nounwind

; [#uses=174]
declare void @_ssdm_SpecKeepArrayLoad(...)

; [#uses=1]
declare void @_GLOBAL__I_a() nounwind section ".text.startup"

!llvm.dbg.cu = !{!0, !7714}
!opencl.kernels = !{!13454, !13461, !13461, !13461, !13467, !13473, !13476, !13476, !13467, !13477, !13477, !13467, !13467, !13473, !13476, !13476, !13467, !13467, !13467, !13479, !13479, !13479, !13481, !13467, !13467, !13467, !13467, !13467, !13473, !13477, !13477, !13467, !13467, !13467, !13467, !13483, !13483, !13483, !13485, !13487, !13487, !13467, !13476, !13476, !13467, !13467, !13473, !13467, !13467, !13467, !13467, !13467, !13488, !13488, !13488, !13473, !13467, !13467, !13467, !13467, !13467, !13477, !13477, !13477, !13490, !13473, !13492, !13492, !13495, !13497, !13497, !13499, !13499, !13476, !13467, !13467, !13467, !13467, !13492, !13492, !13495, !13497, !13497, !13467, !13499, !13499, !13476, !13467, !13501, !13501, !13503, !13467, !13505, !13505, !13467, !13506, !13467, !13467, !13467, !13512, !13512, !13514, !13514, !13516, !13467, !13467, !13467, !13518, !13505, !13505, !13521, !13467, !13467, !13467, !13523, !13523, !13525, !13525, !13527, !13467, !13467, !13467, !13467, !13467, !13467, !13529, !13467, !13467, !13467, !13467, !13467, !13467}
!hls.encrypted.func = !{}

!0 = metadata !{i32 786449, i32 0, i32 4, metadata !"/home/iavendano/pynq-copter/pynqcopter/ip/pidfixed/pidfixed/pidfixed/.autopilot/db/pidfixed.pragma.2.cpp", metadata !"/home/iavendano/pynq-copter/pynqcopter/ip/pidfixed", metadata !"clang version 3.1 ", i1 true, i1 false, metadata !"", i32 0, metadata !1, metadata !5267, metadata !5268, metadata !5912} ; [ DW_TAG_compile_unit ]
!1 = metadata !{metadata !2}
!2 = metadata !{metadata !3, metadata !26, metadata !33, metadata !42, metadata !48, metadata !953, metadata !963, metadata !970, metadata !976, metadata !976, metadata !976, metadata !3256, metadata !3256, metadata !3256, metadata !3260, metadata !3260, metadata !3260, metadata !3264, metadata !3264, metadata !3264, metadata !3266, metadata !3266, metadata !3266, metadata !3565, metadata !3565, metadata !3565, metadata !3849, metadata !3849, metadata !3849, metadata !4448, metadata !4448, metadata !4448, metadata !4453, metadata !4453, metadata !4453, metadata !4456, metadata !4456, metadata !4456, metadata !4756, metadata !4756, metadata !4756, metadata !4760, metadata !4760, metadata !4760}
!3 = metadata !{i32 786436, metadata !4, metadata !"_Ios_Fmtflags", metadata !5, i32 52, i64 17, i64 32, i32 0, i32 0, null, metadata !6, i32 0, i32 0} ; [ DW_TAG_enumeration_type ]
!4 = metadata !{i32 786489, null, metadata !"std", metadata !5, i32 44} ; [ DW_TAG_namespace ]
!5 = metadata !{i32 786473, metadata !"/data/opt/Xilinx/Vivado/2017.4/lnx64/tools/gcc/lib/gcc/x86_64-unknown-linux-gnu/4.6.3/../../../../include/c++/4.6.3/bits/ios_base.h", metadata !"/home/iavendano/pynq-copter/pynqcopter/ip/pidfixed", null} ; [ DW_TAG_file_type ]
!6 = metadata !{metadata !7, metadata !8, metadata !9, metadata !10, metadata !11, metadata !12, metadata !13, metadata !14, metadata !15, metadata !16, metadata !17, metadata !18, metadata !19, metadata !20, metadata !21, metadata !22, metadata !23, metadata !24, metadata !25}
!7 = metadata !{i32 786472, metadata !"_S_boolalpha", i64 1} ; [ DW_TAG_enumerator ]
!8 = metadata !{i32 786472, metadata !"_S_dec", i64 2} ; [ DW_TAG_enumerator ]
!9 = metadata !{i32 786472, metadata !"_S_fixed", i64 4} ; [ DW_TAG_enumerator ]
!10 = metadata !{i32 786472, metadata !"_S_hex", i64 8} ; [ DW_TAG_enumerator ]
!11 = metadata !{i32 786472, metadata !"_S_internal", i64 16} ; [ DW_TAG_enumerator ]
!12 = metadata !{i32 786472, metadata !"_S_left", i64 32} ; [ DW_TAG_enumerator ]
!13 = metadata !{i32 786472, metadata !"_S_oct", i64 64} ; [ DW_TAG_enumerator ]
!14 = metadata !{i32 786472, metadata !"_S_right", i64 128} ; [ DW_TAG_enumerator ]
!15 = metadata !{i32 786472, metadata !"_S_scientific", i64 256} ; [ DW_TAG_enumerator ]
!16 = metadata !{i32 786472, metadata !"_S_showbase", i64 512} ; [ DW_TAG_enumerator ]
!17 = metadata !{i32 786472, metadata !"_S_showpoint", i64 1024} ; [ DW_TAG_enumerator ]
!18 = metadata !{i32 786472, metadata !"_S_showpos", i64 2048} ; [ DW_TAG_enumerator ]
!19 = metadata !{i32 786472, metadata !"_S_skipws", i64 4096} ; [ DW_TAG_enumerator ]
!20 = metadata !{i32 786472, metadata !"_S_unitbuf", i64 8192} ; [ DW_TAG_enumerator ]
!21 = metadata !{i32 786472, metadata !"_S_uppercase", i64 16384} ; [ DW_TAG_enumerator ]
!22 = metadata !{i32 786472, metadata !"_S_adjustfield", i64 176} ; [ DW_TAG_enumerator ]
!23 = metadata !{i32 786472, metadata !"_S_basefield", i64 74} ; [ DW_TAG_enumerator ]
!24 = metadata !{i32 786472, metadata !"_S_floatfield", i64 260} ; [ DW_TAG_enumerator ]
!25 = metadata !{i32 786472, metadata !"_S_ios_fmtflags_end", i64 65536} ; [ DW_TAG_enumerator ]
!26 = metadata !{i32 786436, metadata !4, metadata !"_Ios_Iostate", metadata !5, i32 144, i64 17, i64 32, i32 0, i32 0, null, metadata !27, i32 0, i32 0} ; [ DW_TAG_enumeration_type ]
!27 = metadata !{metadata !28, metadata !29, metadata !30, metadata !31, metadata !32}
!28 = metadata !{i32 786472, metadata !"_S_goodbit", i64 0} ; [ DW_TAG_enumerator ]
!29 = metadata !{i32 786472, metadata !"_S_badbit", i64 1} ; [ DW_TAG_enumerator ]
!30 = metadata !{i32 786472, metadata !"_S_eofbit", i64 2} ; [ DW_TAG_enumerator ]
!31 = metadata !{i32 786472, metadata !"_S_failbit", i64 4} ; [ DW_TAG_enumerator ]
!32 = metadata !{i32 786472, metadata !"_S_ios_iostate_end", i64 65536} ; [ DW_TAG_enumerator ]
!33 = metadata !{i32 786436, metadata !4, metadata !"_Ios_Openmode", metadata !5, i32 104, i64 17, i64 32, i32 0, i32 0, null, metadata !34, i32 0, i32 0} ; [ DW_TAG_enumeration_type ]
!34 = metadata !{metadata !35, metadata !36, metadata !37, metadata !38, metadata !39, metadata !40, metadata !41}
!35 = metadata !{i32 786472, metadata !"_S_app", i64 1} ; [ DW_TAG_enumerator ]
!36 = metadata !{i32 786472, metadata !"_S_ate", i64 2} ; [ DW_TAG_enumerator ]
!37 = metadata !{i32 786472, metadata !"_S_bin", i64 4} ; [ DW_TAG_enumerator ]
!38 = metadata !{i32 786472, metadata !"_S_in", i64 8} ; [ DW_TAG_enumerator ]
!39 = metadata !{i32 786472, metadata !"_S_out", i64 16} ; [ DW_TAG_enumerator ]
!40 = metadata !{i32 786472, metadata !"_S_trunc", i64 32} ; [ DW_TAG_enumerator ]
!41 = metadata !{i32 786472, metadata !"_S_ios_openmode_end", i64 65536} ; [ DW_TAG_enumerator ]
!42 = metadata !{i32 786436, metadata !4, metadata !"_Ios_Seekdir", metadata !5, i32 182, i64 17, i64 32, i32 0, i32 0, null, metadata !43, i32 0, i32 0} ; [ DW_TAG_enumeration_type ]
!43 = metadata !{metadata !44, metadata !45, metadata !46, metadata !47}
!44 = metadata !{i32 786472, metadata !"_S_beg", i64 0} ; [ DW_TAG_enumerator ]
!45 = metadata !{i32 786472, metadata !"_S_cur", i64 1} ; [ DW_TAG_enumerator ]
!46 = metadata !{i32 786472, metadata !"_S_end", i64 2} ; [ DW_TAG_enumerator ]
!47 = metadata !{i32 786472, metadata !"_S_ios_seekdir_end", i64 65536} ; [ DW_TAG_enumerator ]
!48 = metadata !{i32 786436, metadata !49, metadata !"event", metadata !5, i32 420, i64 2, i64 2, i32 0, i32 0, null, metadata !949, i32 0, i32 0} ; [ DW_TAG_enumeration_type ]
!49 = metadata !{i32 786434, metadata !4, metadata !"ios_base", metadata !5, i32 200, i64 1728, i64 64, i32 0, i32 0, null, metadata !50, i32 0, metadata !49, null} ; [ DW_TAG_class_type ]
!50 = metadata !{metadata !51, metadata !57, metadata !65, metadata !66, metadata !68, metadata !70, metadata !71, metadata !97, metadata !107, metadata !111, metadata !112, metadata !114, metadata !881, metadata !885, metadata !888, metadata !891, metadata !895, metadata !896, metadata !901, metadata !904, metadata !905, metadata !908, metadata !911, metadata !914, metadata !917, metadata !918, metadata !919, metadata !922, metadata !925, metadata !928, metadata !931, metadata !932, metadata !936, metadata !940, metadata !941, metadata !942, metadata !946}
!51 = metadata !{i32 786445, metadata !5, metadata !"_vptr$ios_base", metadata !5, i32 0, i64 64, i64 0, i64 0, i32 0, metadata !52} ; [ DW_TAG_member ]
!52 = metadata !{i32 786447, null, metadata !"", null, i32 0, i64 64, i64 0, i64 0, i32 0, metadata !53} ; [ DW_TAG_pointer_type ]
!53 = metadata !{i32 786447, null, metadata !"__vtbl_ptr_type", null, i32 0, i64 64, i64 0, i64 0, i32 0, metadata !54} ; [ DW_TAG_pointer_type ]
!54 = metadata !{i32 786453, i32 0, metadata !"", i32 0, i32 0, i64 0, i64 0, i64 0, i32 0, null, metadata !55, i32 0, i32 0} ; [ DW_TAG_subroutine_type ]
!55 = metadata !{metadata !56}
!56 = metadata !{i32 786468, null, metadata !"int", null, i32 0, i64 32, i64 32, i64 0, i32 0, i32 5} ; [ DW_TAG_base_type ]
!57 = metadata !{i32 786445, metadata !49, metadata !"_M_precision", metadata !5, i32 453, i64 64, i64 64, i64 64, i32 2, metadata !58} ; [ DW_TAG_member ]
!58 = metadata !{i32 786454, metadata !59, metadata !"streamsize", metadata !5, i32 99, i64 0, i64 0, i64 0, i32 0, metadata !61} ; [ DW_TAG_typedef ]
!59 = metadata !{i32 786489, null, metadata !"std", metadata !60, i32 69} ; [ DW_TAG_namespace ]
!60 = metadata !{i32 786473, metadata !"/data/opt/Xilinx/Vivado/2017.4/lnx64/tools/gcc/lib/gcc/x86_64-unknown-linux-gnu/4.6.3/../../../../include/c++/4.6.3/bits/postypes.h", metadata !"/home/iavendano/pynq-copter/pynqcopter/ip/pidfixed", null} ; [ DW_TAG_file_type ]
!61 = metadata !{i32 786454, metadata !62, metadata !"ptrdiff_t", metadata !5, i32 156, i64 0, i64 0, i64 0, i32 0, metadata !64} ; [ DW_TAG_typedef ]
!62 = metadata !{i32 786489, null, metadata !"std", metadata !63, i32 153} ; [ DW_TAG_namespace ]
!63 = metadata !{i32 786473, metadata !"/data/opt/Xilinx/Vivado/2017.4/lnx64/tools/gcc/lib/gcc/x86_64-unknown-linux-gnu/4.6.3/../../../../include/c++/4.6.3/x86_64-unknown-linux-gnu/bits/c++config.h", metadata !"/home/iavendano/pynq-copter/pynqcopter/ip/pidfixed", null} ; [ DW_TAG_file_type ]
!64 = metadata !{i32 786468, null, metadata !"long int", null, i32 0, i64 64, i64 64, i64 0, i32 0, i32 5} ; [ DW_TAG_base_type ]
!65 = metadata !{i32 786445, metadata !49, metadata !"_M_width", metadata !5, i32 454, i64 64, i64 64, i64 128, i32 2, metadata !58} ; [ DW_TAG_member ]
!66 = metadata !{i32 786445, metadata !49, metadata !"_M_flags", metadata !5, i32 455, i64 17, i64 32, i64 192, i32 2, metadata !67} ; [ DW_TAG_member ]
!67 = metadata !{i32 786454, metadata !49, metadata !"fmtflags", metadata !5, i32 256, i64 0, i64 0, i64 0, i32 0, metadata !3} ; [ DW_TAG_typedef ]
!68 = metadata !{i32 786445, metadata !49, metadata !"_M_exception", metadata !5, i32 456, i64 17, i64 32, i64 224, i32 2, metadata !69} ; [ DW_TAG_member ]
!69 = metadata !{i32 786454, metadata !49, metadata !"iostate", metadata !5, i32 331, i64 0, i64 0, i64 0, i32 0, metadata !26} ; [ DW_TAG_typedef ]
!70 = metadata !{i32 786445, metadata !49, metadata !"_M_streambuf_state", metadata !5, i32 457, i64 17, i64 32, i64 256, i32 2, metadata !69} ; [ DW_TAG_member ]
!71 = metadata !{i32 786445, metadata !49, metadata !"_M_callbacks", metadata !5, i32 491, i64 64, i64 64, i64 320, i32 2, metadata !72} ; [ DW_TAG_member ]
!72 = metadata !{i32 786447, null, metadata !"", null, i32 0, i64 64, i64 64, i64 0, i32 0, metadata !73} ; [ DW_TAG_pointer_type ]
!73 = metadata !{i32 786434, metadata !49, metadata !"_Callback_list", metadata !5, i32 461, i64 192, i64 64, i32 0, i32 0, null, metadata !74, i32 0, null, null} ; [ DW_TAG_class_type ]
!74 = metadata !{metadata !75, metadata !76, metadata !82, metadata !83, metadata !85, metadata !91, metadata !94}
!75 = metadata !{i32 786445, metadata !73, metadata !"_M_next", metadata !5, i32 464, i64 64, i64 64, i64 0, i32 0, metadata !72} ; [ DW_TAG_member ]
!76 = metadata !{i32 786445, metadata !73, metadata !"_M_fn", metadata !5, i32 465, i64 64, i64 64, i64 64, i32 0, metadata !77} ; [ DW_TAG_member ]
!77 = metadata !{i32 786454, metadata !49, metadata !"event_callback", metadata !5, i32 437, i64 0, i64 0, i64 0, i32 0, metadata !78} ; [ DW_TAG_typedef ]
!78 = metadata !{i32 786447, null, metadata !"", null, i32 0, i64 64, i64 64, i64 0, i32 0, metadata !79} ; [ DW_TAG_pointer_type ]
!79 = metadata !{i32 786453, i32 0, metadata !"", i32 0, i32 0, i64 0, i64 0, i64 0, i32 0, null, metadata !80, i32 0, i32 0} ; [ DW_TAG_subroutine_type ]
!80 = metadata !{null, metadata !48, metadata !81, metadata !56}
!81 = metadata !{i32 786448, null, null, null, i32 0, i64 0, i64 0, i64 0, i32 0, metadata !49} ; [ DW_TAG_reference_type ]
!82 = metadata !{i32 786445, metadata !73, metadata !"_M_index", metadata !5, i32 466, i64 32, i64 32, i64 128, i32 0, metadata !56} ; [ DW_TAG_member ]
!83 = metadata !{i32 786445, metadata !73, metadata !"_M_refcount", metadata !5, i32 467, i64 32, i64 32, i64 160, i32 0, metadata !84} ; [ DW_TAG_member ]
!84 = metadata !{i32 786454, null, metadata !"_Atomic_word", metadata !5, i32 32, i64 0, i64 0, i64 0, i32 0, metadata !56} ; [ DW_TAG_typedef ]
!85 = metadata !{i32 786478, i32 0, metadata !73, metadata !"_Callback_list", metadata !"_Callback_list", metadata !"", metadata !5, i32 469, metadata !86, i1 false, i1 false, i32 0, i32 0, null, i32 256, i1 false, null, null, i32 0, metadata !89, i32 469} ; [ DW_TAG_subprogram ]
!86 = metadata !{i32 786453, i32 0, metadata !"", i32 0, i32 0, i64 0, i64 0, i64 0, i32 0, null, metadata !87, i32 0, i32 0} ; [ DW_TAG_subroutine_type ]
!87 = metadata !{null, metadata !88, metadata !77, metadata !56, metadata !72}
!88 = metadata !{i32 786447, i32 0, metadata !"", i32 0, i32 0, i64 64, i64 64, i64 0, i32 64, metadata !73} ; [ DW_TAG_pointer_type ]
!89 = metadata !{metadata !90}
!90 = metadata !{i32 786468}                      ; [ DW_TAG_base_type ]
!91 = metadata !{i32 786478, i32 0, metadata !73, metadata !"_M_add_reference", metadata !"_M_add_reference", metadata !"_ZNSt8ios_base14_Callback_list16_M_add_referenceEv", metadata !5, i32 474, metadata !92, i1 false, i1 false, i32 0, i32 0, null, i32 256, i1 false, null, null, i32 0, metadata !89, i32 474} ; [ DW_TAG_subprogram ]
!92 = metadata !{i32 786453, i32 0, metadata !"", i32 0, i32 0, i64 0, i64 0, i64 0, i32 0, null, metadata !93, i32 0, i32 0} ; [ DW_TAG_subroutine_type ]
!93 = metadata !{null, metadata !88}
!94 = metadata !{i32 786478, i32 0, metadata !73, metadata !"_M_remove_reference", metadata !"_M_remove_reference", metadata !"_ZNSt8ios_base14_Callback_list19_M_remove_referenceEv", metadata !5, i32 478, metadata !95, i1 false, i1 false, i32 0, i32 0, null, i32 256, i1 false, null, null, i32 0, metadata !89, i32 478} ; [ DW_TAG_subprogram ]
!95 = metadata !{i32 786453, i32 0, metadata !"", i32 0, i32 0, i64 0, i64 0, i64 0, i32 0, null, metadata !96, i32 0, i32 0} ; [ DW_TAG_subroutine_type ]
!96 = metadata !{metadata !56, metadata !88}
!97 = metadata !{i32 786445, metadata !49, metadata !"_M_word_zero", metadata !5, i32 508, i64 128, i64 64, i64 384, i32 2, metadata !98} ; [ DW_TAG_member ]
!98 = metadata !{i32 786434, metadata !49, metadata !"_Words", metadata !5, i32 500, i64 128, i64 64, i32 0, i32 0, null, metadata !99, i32 0, null, null} ; [ DW_TAG_class_type ]
!99 = metadata !{metadata !100, metadata !102, metadata !103}
!100 = metadata !{i32 786445, metadata !98, metadata !"_M_pword", metadata !5, i32 502, i64 64, i64 64, i64 0, i32 0, metadata !101} ; [ DW_TAG_member ]
!101 = metadata !{i32 786447, null, metadata !"", null, i32 0, i64 64, i64 64, i64 0, i32 0, null} ; [ DW_TAG_pointer_type ]
!102 = metadata !{i32 786445, metadata !98, metadata !"_M_iword", metadata !5, i32 503, i64 64, i64 64, i64 64, i32 0, metadata !64} ; [ DW_TAG_member ]
!103 = metadata !{i32 786478, i32 0, metadata !98, metadata !"_Words", metadata !"_Words", metadata !"", metadata !5, i32 504, metadata !104, i1 false, i1 false, i32 0, i32 0, null, i32 256, i1 false, null, null, i32 0, metadata !89, i32 504} ; [ DW_TAG_subprogram ]
!104 = metadata !{i32 786453, i32 0, metadata !"", i32 0, i32 0, i64 0, i64 0, i64 0, i32 0, null, metadata !105, i32 0, i32 0} ; [ DW_TAG_subroutine_type ]
!105 = metadata !{null, metadata !106}
!106 = metadata !{i32 786447, i32 0, metadata !"", i32 0, i32 0, i64 64, i64 64, i64 0, i32 64, metadata !98} ; [ DW_TAG_pointer_type ]
!107 = metadata !{i32 786445, metadata !49, metadata !"_M_local_word", metadata !5, i32 513, i64 1024, i64 64, i64 512, i32 2, metadata !108} ; [ DW_TAG_member ]
!108 = metadata !{i32 786433, null, metadata !"", null, i32 0, i64 1024, i64 64, i32 0, i32 0, metadata !98, metadata !109, i32 0, i32 0} ; [ DW_TAG_array_type ]
!109 = metadata !{metadata !110}
!110 = metadata !{i32 786465, i64 0, i64 7}       ; [ DW_TAG_subrange_type ]
!111 = metadata !{i32 786445, metadata !49, metadata !"_M_word_size", metadata !5, i32 516, i64 32, i64 32, i64 1536, i32 2, metadata !56} ; [ DW_TAG_member ]
!112 = metadata !{i32 786445, metadata !49, metadata !"_M_word", metadata !5, i32 517, i64 64, i64 64, i64 1600, i32 2, metadata !113} ; [ DW_TAG_member ]
!113 = metadata !{i32 786447, null, metadata !"", null, i32 0, i64 64, i64 64, i64 0, i32 0, metadata !98} ; [ DW_TAG_pointer_type ]
!114 = metadata !{i32 786445, metadata !49, metadata !"_M_ios_locale", metadata !5, i32 523, i64 64, i64 64, i64 1664, i32 2, metadata !115} ; [ DW_TAG_member ]
!115 = metadata !{i32 786434, metadata !116, metadata !"locale", metadata !117, i32 63, i64 64, i64 64, i32 0, i32 0, null, metadata !118, i32 0, null, null} ; [ DW_TAG_class_type ]
!116 = metadata !{i32 786489, null, metadata !"std", metadata !117, i32 44} ; [ DW_TAG_namespace ]
!117 = metadata !{i32 786473, metadata !"/data/opt/Xilinx/Vivado/2017.4/lnx64/tools/gcc/lib/gcc/x86_64-unknown-linux-gnu/4.6.3/../../../../include/c++/4.6.3/bits/locale_classes.h", metadata !"/home/iavendano/pynq-copter/pynqcopter/ip/pidfixed", null} ; [ DW_TAG_file_type ]
!118 = metadata !{metadata !119, metadata !280, metadata !284, metadata !289, metadata !292, metadata !295, metadata !298, metadata !299, metadata !302, metadata !860, metadata !863, metadata !864, metadata !867, metadata !870, metadata !873, metadata !874, metadata !875, metadata !878, metadata !879, metadata !880}
!119 = metadata !{i32 786445, metadata !115, metadata !"_M_impl", metadata !117, i32 280, i64 64, i64 64, i64 0, i32 1, metadata !120} ; [ DW_TAG_member ]
!120 = metadata !{i32 786447, null, metadata !"", null, i32 0, i64 64, i64 64, i64 0, i32 0, metadata !121} ; [ DW_TAG_pointer_type ]
!121 = metadata !{i32 786434, metadata !115, metadata !"_Impl", metadata !117, i32 475, i64 320, i64 64, i32 0, i32 0, null, metadata !122, i32 0, null, null} ; [ DW_TAG_class_type ]
!122 = metadata !{metadata !123, metadata !124, metadata !209, metadata !210, metadata !211, metadata !214, metadata !218, metadata !219, metadata !224, metadata !227, metadata !230, metadata !231, metadata !234, metadata !235, metadata !239, metadata !244, metadata !269, metadata !272, metadata !275, metadata !278, metadata !279}
!123 = metadata !{i32 786445, metadata !121, metadata !"_M_refcount", metadata !117, i32 495, i64 32, i64 32, i64 0, i32 1, metadata !84} ; [ DW_TAG_member ]
!124 = metadata !{i32 786445, metadata !121, metadata !"_M_facets", metadata !117, i32 496, i64 64, i64 64, i64 64, i32 1, metadata !125} ; [ DW_TAG_member ]
!125 = metadata !{i32 786447, null, metadata !"", null, i32 0, i64 64, i64 64, i64 0, i32 0, metadata !126} ; [ DW_TAG_pointer_type ]
!126 = metadata !{i32 786447, null, metadata !"", null, i32 0, i64 64, i64 64, i64 0, i32 0, metadata !127} ; [ DW_TAG_pointer_type ]
!127 = metadata !{i32 786470, null, metadata !"", null, i32 0, i64 0, i64 0, i64 0, i32 0, metadata !128} ; [ DW_TAG_const_type ]
!128 = metadata !{i32 786434, metadata !115, metadata !"facet", metadata !117, i32 338, i64 128, i64 64, i32 0, i32 0, null, metadata !129, i32 0, metadata !128, null} ; [ DW_TAG_class_type ]
!129 = metadata !{metadata !130, metadata !131, metadata !132, metadata !135, metadata !141, metadata !144, metadata !179, metadata !182, metadata !185, metadata !188, metadata !191, metadata !194, metadata !198, metadata !199, metadata !203, metadata !207, metadata !208}
!130 = metadata !{i32 786445, metadata !117, metadata !"_vptr$facet", metadata !117, i32 0, i64 64, i64 0, i64 0, i32 0, metadata !52} ; [ DW_TAG_member ]
!131 = metadata !{i32 786445, metadata !128, metadata !"_M_refcount", metadata !117, i32 344, i64 32, i64 32, i64 64, i32 1, metadata !84} ; [ DW_TAG_member ]
!132 = metadata !{i32 786478, i32 0, metadata !128, metadata !"_S_initialize_once", metadata !"_S_initialize_once", metadata !"_ZNSt6locale5facet18_S_initialize_onceEv", metadata !117, i32 357, metadata !133, i1 false, i1 false, i32 0, i32 0, null, i32 257, i1 false, null, null, i32 0, metadata !89, i32 357} ; [ DW_TAG_subprogram ]
!133 = metadata !{i32 786453, i32 0, metadata !"", i32 0, i32 0, i64 0, i64 0, i64 0, i32 0, null, metadata !134, i32 0, i32 0} ; [ DW_TAG_subroutine_type ]
!134 = metadata !{null}
!135 = metadata !{i32 786478, i32 0, metadata !128, metadata !"facet", metadata !"facet", metadata !"", metadata !117, i32 370, metadata !136, i1 false, i1 false, i32 0, i32 0, null, i32 386, i1 false, null, null, i32 0, metadata !89, i32 370} ; [ DW_TAG_subprogram ]
!136 = metadata !{i32 786453, i32 0, metadata !"", i32 0, i32 0, i64 0, i64 0, i64 0, i32 0, null, metadata !137, i32 0, i32 0} ; [ DW_TAG_subroutine_type ]
!137 = metadata !{null, metadata !138, metadata !139}
!138 = metadata !{i32 786447, i32 0, metadata !"", i32 0, i32 0, i64 64, i64 64, i64 0, i32 64, metadata !128} ; [ DW_TAG_pointer_type ]
!139 = metadata !{i32 786454, metadata !62, metadata !"size_t", metadata !117, i32 155, i64 0, i64 0, i64 0, i32 0, metadata !140} ; [ DW_TAG_typedef ]
!140 = metadata !{i32 786468, null, metadata !"long unsigned int", null, i32 0, i64 64, i64 64, i64 0, i32 0, i32 7} ; [ DW_TAG_base_type ]
!141 = metadata !{i32 786478, i32 0, metadata !128, metadata !"~facet", metadata !"~facet", metadata !"", metadata !117, i32 375, metadata !142, i1 false, i1 false, i32 1, i32 0, metadata !128, i32 258, i1 false, null, null, i32 0, metadata !89, i32 375} ; [ DW_TAG_subprogram ]
!142 = metadata !{i32 786453, i32 0, metadata !"", i32 0, i32 0, i64 0, i64 0, i64 0, i32 0, null, metadata !143, i32 0, i32 0} ; [ DW_TAG_subroutine_type ]
!143 = metadata !{null, metadata !138}
!144 = metadata !{i32 786478, i32 0, metadata !128, metadata !"_S_create_c_locale", metadata !"_S_create_c_locale", metadata !"_ZNSt6locale5facet18_S_create_c_localeERP15__locale_structPKcS2_", metadata !117, i32 378, metadata !145, i1 false, i1 false, i32 0, i32 0, null, i32 258, i1 false, null, null, i32 0, metadata !89, i32 378} ; [ DW_TAG_subprogram ]
!145 = metadata !{i32 786453, i32 0, metadata !"", i32 0, i32 0, i64 0, i64 0, i64 0, i32 0, null, metadata !146, i32 0, i32 0} ; [ DW_TAG_subroutine_type ]
!146 = metadata !{null, metadata !147, metadata !172, metadata !148}
!147 = metadata !{i32 786448, null, null, null, i32 0, i64 0, i64 0, i64 0, i32 0, metadata !148} ; [ DW_TAG_reference_type ]
!148 = metadata !{i32 786454, metadata !149, metadata !"__c_locale", metadata !117, i32 62, i64 0, i64 0, i64 0, i32 0, metadata !151} ; [ DW_TAG_typedef ]
!149 = metadata !{i32 786489, null, metadata !"std", metadata !150, i32 58} ; [ DW_TAG_namespace ]
!150 = metadata !{i32 786473, metadata !"/data/opt/Xilinx/Vivado/2017.4/lnx64/tools/gcc/lib/gcc/x86_64-unknown-linux-gnu/4.6.3/../../../../include/c++/4.6.3/x86_64-unknown-linux-gnu/bits/c++locale.h", metadata !"/home/iavendano/pynq-copter/pynqcopter/ip/pidfixed", null} ; [ DW_TAG_file_type ]
!151 = metadata !{i32 786454, null, metadata !"__locale_t", metadata !117, i32 39, i64 0, i64 0, i64 0, i32 0, metadata !152} ; [ DW_TAG_typedef ]
!152 = metadata !{i32 786447, null, metadata !"", null, i32 0, i64 64, i64 64, i64 0, i32 0, metadata !153} ; [ DW_TAG_pointer_type ]
!153 = metadata !{i32 786434, null, metadata !"__locale_struct", metadata !154, i32 27, i64 1856, i64 64, i32 0, i32 0, null, metadata !155, i32 0, null, null} ; [ DW_TAG_class_type ]
!154 = metadata !{i32 786473, metadata !"/usr/include/xlocale.h", metadata !"/home/iavendano/pynq-copter/pynqcopter/ip/pidfixed", null} ; [ DW_TAG_file_type ]
!155 = metadata !{metadata !156, metadata !162, metadata !166, metadata !169, metadata !170, metadata !175}
!156 = metadata !{i32 786445, metadata !153, metadata !"__locales", metadata !154, i32 30, i64 832, i64 64, i64 0, i32 0, metadata !157} ; [ DW_TAG_member ]
!157 = metadata !{i32 786433, null, metadata !"", null, i32 0, i64 832, i64 64, i32 0, i32 0, metadata !158, metadata !160, i32 0, i32 0} ; [ DW_TAG_array_type ]
!158 = metadata !{i32 786447, null, metadata !"", null, i32 0, i64 64, i64 64, i64 0, i32 0, metadata !159} ; [ DW_TAG_pointer_type ]
!159 = metadata !{i32 786434, null, metadata !"__locale_data", metadata !154, i32 30, i32 0, i32 0, i32 0, i32 4, null, null, i32 0} ; [ DW_TAG_class_type ]
!160 = metadata !{metadata !161}
!161 = metadata !{i32 786465, i64 0, i64 12}      ; [ DW_TAG_subrange_type ]
!162 = metadata !{i32 786445, metadata !153, metadata !"__ctype_b", metadata !154, i32 33, i64 64, i64 64, i64 832, i32 0, metadata !163} ; [ DW_TAG_member ]
!163 = metadata !{i32 786447, null, metadata !"", null, i32 0, i64 64, i64 64, i64 0, i32 0, metadata !164} ; [ DW_TAG_pointer_type ]
!164 = metadata !{i32 786470, null, metadata !"", null, i32 0, i64 0, i64 0, i64 0, i32 0, metadata !165} ; [ DW_TAG_const_type ]
!165 = metadata !{i32 786468, null, metadata !"unsigned short", null, i32 0, i64 16, i64 16, i64 0, i32 0, i32 7} ; [ DW_TAG_base_type ]
!166 = metadata !{i32 786445, metadata !153, metadata !"__ctype_tolower", metadata !154, i32 34, i64 64, i64 64, i64 896, i32 0, metadata !167} ; [ DW_TAG_member ]
!167 = metadata !{i32 786447, null, metadata !"", null, i32 0, i64 64, i64 64, i64 0, i32 0, metadata !168} ; [ DW_TAG_pointer_type ]
!168 = metadata !{i32 786470, null, metadata !"", null, i32 0, i64 0, i64 0, i64 0, i32 0, metadata !56} ; [ DW_TAG_const_type ]
!169 = metadata !{i32 786445, metadata !153, metadata !"__ctype_toupper", metadata !154, i32 35, i64 64, i64 64, i64 960, i32 0, metadata !167} ; [ DW_TAG_member ]
!170 = metadata !{i32 786445, metadata !153, metadata !"__names", metadata !154, i32 38, i64 832, i64 64, i64 1024, i32 0, metadata !171} ; [ DW_TAG_member ]
!171 = metadata !{i32 786433, null, metadata !"", null, i32 0, i64 832, i64 64, i32 0, i32 0, metadata !172, metadata !160, i32 0, i32 0} ; [ DW_TAG_array_type ]
!172 = metadata !{i32 786447, null, metadata !"", null, i32 0, i64 64, i64 64, i64 0, i32 0, metadata !173} ; [ DW_TAG_pointer_type ]
!173 = metadata !{i32 786470, null, metadata !"", null, i32 0, i64 0, i64 0, i64 0, i32 0, metadata !174} ; [ DW_TAG_const_type ]
!174 = metadata !{i32 786468, null, metadata !"char", null, i32 0, i64 8, i64 8, i64 0, i32 0, i32 6} ; [ DW_TAG_base_type ]
!175 = metadata !{i32 786478, i32 0, metadata !153, metadata !"__locale_struct", metadata !"__locale_struct", metadata !"", metadata !154, i32 41, metadata !176, i1 false, i1 false, i32 0, i32 0, null, i32 256, i1 false, null, null, i32 0, metadata !89, i32 41} ; [ DW_TAG_subprogram ]
!176 = metadata !{i32 786453, i32 0, metadata !"", i32 0, i32 0, i64 0, i64 0, i64 0, i32 0, null, metadata !177, i32 0, i32 0} ; [ DW_TAG_subroutine_type ]
!177 = metadata !{null, metadata !178}
!178 = metadata !{i32 786447, i32 0, metadata !"", i32 0, i32 0, i64 64, i64 64, i64 0, i32 64, metadata !153} ; [ DW_TAG_pointer_type ]
!179 = metadata !{i32 786478, i32 0, metadata !128, metadata !"_S_clone_c_locale", metadata !"_S_clone_c_locale", metadata !"_ZNSt6locale5facet17_S_clone_c_localeERP15__locale_struct", metadata !117, i32 382, metadata !180, i1 false, i1 false, i32 0, i32 0, null, i32 258, i1 false, null, null, i32 0, metadata !89, i32 382} ; [ DW_TAG_subprogram ]
!180 = metadata !{i32 786453, i32 0, metadata !"", i32 0, i32 0, i64 0, i64 0, i64 0, i32 0, null, metadata !181, i32 0, i32 0} ; [ DW_TAG_subroutine_type ]
!181 = metadata !{metadata !148, metadata !147}
!182 = metadata !{i32 786478, i32 0, metadata !128, metadata !"_S_destroy_c_locale", metadata !"_S_destroy_c_locale", metadata !"_ZNSt6locale5facet19_S_destroy_c_localeERP15__locale_struct", metadata !117, i32 385, metadata !183, i1 false, i1 false, i32 0, i32 0, null, i32 258, i1 false, null, null, i32 0, metadata !89, i32 385} ; [ DW_TAG_subprogram ]
!183 = metadata !{i32 786453, i32 0, metadata !"", i32 0, i32 0, i64 0, i64 0, i64 0, i32 0, null, metadata !184, i32 0, i32 0} ; [ DW_TAG_subroutine_type ]
!184 = metadata !{null, metadata !147}
!185 = metadata !{i32 786478, i32 0, metadata !128, metadata !"_S_lc_ctype_c_locale", metadata !"_S_lc_ctype_c_locale", metadata !"_ZNSt6locale5facet20_S_lc_ctype_c_localeEP15__locale_structPKc", metadata !117, i32 388, metadata !186, i1 false, i1 false, i32 0, i32 0, null, i32 258, i1 false, null, null, i32 0, metadata !89, i32 388} ; [ DW_TAG_subprogram ]
!186 = metadata !{i32 786453, i32 0, metadata !"", i32 0, i32 0, i64 0, i64 0, i64 0, i32 0, null, metadata !187, i32 0, i32 0} ; [ DW_TAG_subroutine_type ]
!187 = metadata !{metadata !148, metadata !148, metadata !172}
!188 = metadata !{i32 786478, i32 0, metadata !128, metadata !"_S_get_c_locale", metadata !"_S_get_c_locale", metadata !"_ZNSt6locale5facet15_S_get_c_localeEv", metadata !117, i32 393, metadata !189, i1 false, i1 false, i32 0, i32 0, null, i32 258, i1 false, null, null, i32 0, metadata !89, i32 393} ; [ DW_TAG_subprogram ]
!189 = metadata !{i32 786453, i32 0, metadata !"", i32 0, i32 0, i64 0, i64 0, i64 0, i32 0, null, metadata !190, i32 0, i32 0} ; [ DW_TAG_subroutine_type ]
!190 = metadata !{metadata !148}
!191 = metadata !{i32 786478, i32 0, metadata !128, metadata !"_S_get_c_name", metadata !"_S_get_c_name", metadata !"_ZNSt6locale5facet13_S_get_c_nameEv", metadata !117, i32 396, metadata !192, i1 false, i1 false, i32 0, i32 0, null, i32 258, i1 false, null, null, i32 0, metadata !89, i32 396} ; [ DW_TAG_subprogram ]
!192 = metadata !{i32 786453, i32 0, metadata !"", i32 0, i32 0, i64 0, i64 0, i64 0, i32 0, null, metadata !193, i32 0, i32 0} ; [ DW_TAG_subroutine_type ]
!193 = metadata !{metadata !172}
!194 = metadata !{i32 786478, i32 0, metadata !128, metadata !"_M_add_reference", metadata !"_M_add_reference", metadata !"_ZNKSt6locale5facet16_M_add_referenceEv", metadata !117, i32 400, metadata !195, i1 false, i1 false, i32 0, i32 0, null, i32 257, i1 false, null, null, i32 0, metadata !89, i32 400} ; [ DW_TAG_subprogram ]
!195 = metadata !{i32 786453, i32 0, metadata !"", i32 0, i32 0, i64 0, i64 0, i64 0, i32 0, null, metadata !196, i32 0, i32 0} ; [ DW_TAG_subroutine_type ]
!196 = metadata !{null, metadata !197}
!197 = metadata !{i32 786447, i32 0, metadata !"", i32 0, i32 0, i64 64, i64 64, i64 0, i32 64, metadata !127} ; [ DW_TAG_pointer_type ]
!198 = metadata !{i32 786478, i32 0, metadata !128, metadata !"_M_remove_reference", metadata !"_M_remove_reference", metadata !"_ZNKSt6locale5facet19_M_remove_referenceEv", metadata !117, i32 404, metadata !195, i1 false, i1 false, i32 0, i32 0, null, i32 257, i1 false, null, null, i32 0, metadata !89, i32 404} ; [ DW_TAG_subprogram ]
!199 = metadata !{i32 786478, i32 0, metadata !128, metadata !"facet", metadata !"facet", metadata !"", metadata !117, i32 418, metadata !200, i1 false, i1 false, i32 0, i32 0, null, i32 257, i1 false, null, null, i32 0, metadata !89, i32 418} ; [ DW_TAG_subprogram ]
!200 = metadata !{i32 786453, i32 0, metadata !"", i32 0, i32 0, i64 0, i64 0, i64 0, i32 0, null, metadata !201, i32 0, i32 0} ; [ DW_TAG_subroutine_type ]
!201 = metadata !{null, metadata !138, metadata !202}
!202 = metadata !{i32 786448, null, null, null, i32 0, i64 0, i64 0, i64 0, i32 0, metadata !127} ; [ DW_TAG_reference_type ]
!203 = metadata !{i32 786478, i32 0, metadata !128, metadata !"operator=", metadata !"operator=", metadata !"_ZNSt6locale5facetaSERKS0_", metadata !117, i32 421, metadata !204, i1 false, i1 false, i32 0, i32 0, null, i32 257, i1 false, null, null, i32 0, metadata !89, i32 421} ; [ DW_TAG_subprogram ]
!204 = metadata !{i32 786453, i32 0, metadata !"", i32 0, i32 0, i64 0, i64 0, i64 0, i32 0, null, metadata !205, i32 0, i32 0} ; [ DW_TAG_subroutine_type ]
!205 = metadata !{metadata !206, metadata !138, metadata !202}
!206 = metadata !{i32 786448, null, null, null, i32 0, i64 0, i64 0, i64 0, i32 0, metadata !128} ; [ DW_TAG_reference_type ]
!207 = metadata !{i32 786474, metadata !128, null, metadata !117, i32 0, i64 0, i64 0, i64 0, i32 0, metadata !121} ; [ DW_TAG_friend ]
!208 = metadata !{i32 786474, metadata !128, null, metadata !117, i32 0, i64 0, i64 0, i64 0, i32 0, metadata !115} ; [ DW_TAG_friend ]
!209 = metadata !{i32 786445, metadata !121, metadata !"_M_facets_size", metadata !117, i32 497, i64 64, i64 64, i64 128, i32 1, metadata !139} ; [ DW_TAG_member ]
!210 = metadata !{i32 786445, metadata !121, metadata !"_M_caches", metadata !117, i32 498, i64 64, i64 64, i64 192, i32 1, metadata !125} ; [ DW_TAG_member ]
!211 = metadata !{i32 786445, metadata !121, metadata !"_M_names", metadata !117, i32 499, i64 64, i64 64, i64 256, i32 1, metadata !212} ; [ DW_TAG_member ]
!212 = metadata !{i32 786447, null, metadata !"", null, i32 0, i64 64, i64 64, i64 0, i32 0, metadata !213} ; [ DW_TAG_pointer_type ]
!213 = metadata !{i32 786447, null, metadata !"", null, i32 0, i64 64, i64 64, i64 0, i32 0, metadata !174} ; [ DW_TAG_pointer_type ]
!214 = metadata !{i32 786478, i32 0, metadata !121, metadata !"_M_add_reference", metadata !"_M_add_reference", metadata !"_ZNSt6locale5_Impl16_M_add_referenceEv", metadata !117, i32 509, metadata !215, i1 false, i1 false, i32 0, i32 0, null, i32 257, i1 false, null, null, i32 0, metadata !89, i32 509} ; [ DW_TAG_subprogram ]
!215 = metadata !{i32 786453, i32 0, metadata !"", i32 0, i32 0, i64 0, i64 0, i64 0, i32 0, null, metadata !216, i32 0, i32 0} ; [ DW_TAG_subroutine_type ]
!216 = metadata !{null, metadata !217}
!217 = metadata !{i32 786447, i32 0, metadata !"", i32 0, i32 0, i64 64, i64 64, i64 0, i32 64, metadata !121} ; [ DW_TAG_pointer_type ]
!218 = metadata !{i32 786478, i32 0, metadata !121, metadata !"_M_remove_reference", metadata !"_M_remove_reference", metadata !"_ZNSt6locale5_Impl19_M_remove_referenceEv", metadata !117, i32 513, metadata !215, i1 false, i1 false, i32 0, i32 0, null, i32 257, i1 false, null, null, i32 0, metadata !89, i32 513} ; [ DW_TAG_subprogram ]
!219 = metadata !{i32 786478, i32 0, metadata !121, metadata !"_Impl", metadata !"_Impl", metadata !"", metadata !117, i32 527, metadata !220, i1 false, i1 false, i32 0, i32 0, null, i32 257, i1 false, null, null, i32 0, metadata !89, i32 527} ; [ DW_TAG_subprogram ]
!220 = metadata !{i32 786453, i32 0, metadata !"", i32 0, i32 0, i64 0, i64 0, i64 0, i32 0, null, metadata !221, i32 0, i32 0} ; [ DW_TAG_subroutine_type ]
!221 = metadata !{null, metadata !217, metadata !222, metadata !139}
!222 = metadata !{i32 786448, null, null, null, i32 0, i64 0, i64 0, i64 0, i32 0, metadata !223} ; [ DW_TAG_reference_type ]
!223 = metadata !{i32 786470, null, metadata !"", null, i32 0, i64 0, i64 0, i64 0, i32 0, metadata !121} ; [ DW_TAG_const_type ]
!224 = metadata !{i32 786478, i32 0, metadata !121, metadata !"_Impl", metadata !"_Impl", metadata !"", metadata !117, i32 528, metadata !225, i1 false, i1 false, i32 0, i32 0, null, i32 257, i1 false, null, null, i32 0, metadata !89, i32 528} ; [ DW_TAG_subprogram ]
!225 = metadata !{i32 786453, i32 0, metadata !"", i32 0, i32 0, i64 0, i64 0, i64 0, i32 0, null, metadata !226, i32 0, i32 0} ; [ DW_TAG_subroutine_type ]
!226 = metadata !{null, metadata !217, metadata !172, metadata !139}
!227 = metadata !{i32 786478, i32 0, metadata !121, metadata !"_Impl", metadata !"_Impl", metadata !"", metadata !117, i32 529, metadata !228, i1 false, i1 false, i32 0, i32 0, null, i32 257, i1 false, null, null, i32 0, metadata !89, i32 529} ; [ DW_TAG_subprogram ]
!228 = metadata !{i32 786453, i32 0, metadata !"", i32 0, i32 0, i64 0, i64 0, i64 0, i32 0, null, metadata !229, i32 0, i32 0} ; [ DW_TAG_subroutine_type ]
!229 = metadata !{null, metadata !217, metadata !139}
!230 = metadata !{i32 786478, i32 0, metadata !121, metadata !"~_Impl", metadata !"~_Impl", metadata !"", metadata !117, i32 531, metadata !215, i1 false, i1 false, i32 0, i32 0, null, i32 257, i1 false, null, null, i32 0, metadata !89, i32 531} ; [ DW_TAG_subprogram ]
!231 = metadata !{i32 786478, i32 0, metadata !121, metadata !"_Impl", metadata !"_Impl", metadata !"", metadata !117, i32 533, metadata !232, i1 false, i1 false, i32 0, i32 0, null, i32 257, i1 false, null, null, i32 0, metadata !89, i32 533} ; [ DW_TAG_subprogram ]
!232 = metadata !{i32 786453, i32 0, metadata !"", i32 0, i32 0, i64 0, i64 0, i64 0, i32 0, null, metadata !233, i32 0, i32 0} ; [ DW_TAG_subroutine_type ]
!233 = metadata !{null, metadata !217, metadata !222}
!234 = metadata !{i32 786478, i32 0, metadata !121, metadata !"operator=", metadata !"operator=", metadata !"_ZNSt6locale5_ImplaSERKS0_", metadata !117, i32 536, metadata !232, i1 false, i1 false, i32 0, i32 0, null, i32 257, i1 false, null, null, i32 0, metadata !89, i32 536} ; [ DW_TAG_subprogram ]
!235 = metadata !{i32 786478, i32 0, metadata !121, metadata !"_M_check_same_name", metadata !"_M_check_same_name", metadata !"_ZNSt6locale5_Impl18_M_check_same_nameEv", metadata !117, i32 539, metadata !236, i1 false, i1 false, i32 0, i32 0, null, i32 257, i1 false, null, null, i32 0, metadata !89, i32 539} ; [ DW_TAG_subprogram ]
!236 = metadata !{i32 786453, i32 0, metadata !"", i32 0, i32 0, i64 0, i64 0, i64 0, i32 0, null, metadata !237, i32 0, i32 0} ; [ DW_TAG_subroutine_type ]
!237 = metadata !{metadata !238, metadata !217}
!238 = metadata !{i32 786468, null, metadata !"bool", null, i32 0, i64 8, i64 8, i64 0, i32 0, i32 2} ; [ DW_TAG_base_type ]
!239 = metadata !{i32 786478, i32 0, metadata !121, metadata !"_M_replace_categories", metadata !"_M_replace_categories", metadata !"_ZNSt6locale5_Impl21_M_replace_categoriesEPKS0_i", metadata !117, i32 550, metadata !240, i1 false, i1 false, i32 0, i32 0, null, i32 257, i1 false, null, null, i32 0, metadata !89, i32 550} ; [ DW_TAG_subprogram ]
!240 = metadata !{i32 786453, i32 0, metadata !"", i32 0, i32 0, i64 0, i64 0, i64 0, i32 0, null, metadata !241, i32 0, i32 0} ; [ DW_TAG_subroutine_type ]
!241 = metadata !{null, metadata !217, metadata !242, metadata !243}
!242 = metadata !{i32 786447, null, metadata !"", null, i32 0, i64 64, i64 64, i64 0, i32 0, metadata !223} ; [ DW_TAG_pointer_type ]
!243 = metadata !{i32 786454, metadata !115, metadata !"category", metadata !117, i32 68, i64 0, i64 0, i64 0, i32 0, metadata !56} ; [ DW_TAG_typedef ]
!244 = metadata !{i32 786478, i32 0, metadata !121, metadata !"_M_replace_category", metadata !"_M_replace_category", metadata !"_ZNSt6locale5_Impl19_M_replace_categoryEPKS0_PKPKNS_2idE", metadata !117, i32 553, metadata !245, i1 false, i1 false, i32 0, i32 0, null, i32 257, i1 false, null, null, i32 0, metadata !89, i32 553} ; [ DW_TAG_subprogram ]
!245 = metadata !{i32 786453, i32 0, metadata !"", i32 0, i32 0, i64 0, i64 0, i64 0, i32 0, null, metadata !246, i32 0, i32 0} ; [ DW_TAG_subroutine_type ]
!246 = metadata !{null, metadata !217, metadata !242, metadata !247}
!247 = metadata !{i32 786447, null, metadata !"", null, i32 0, i64 64, i64 64, i64 0, i32 0, metadata !248} ; [ DW_TAG_pointer_type ]
!248 = metadata !{i32 786470, null, metadata !"", null, i32 0, i64 0, i64 0, i64 0, i32 0, metadata !249} ; [ DW_TAG_const_type ]
!249 = metadata !{i32 786447, null, metadata !"", null, i32 0, i64 64, i64 64, i64 0, i32 0, metadata !250} ; [ DW_TAG_pointer_type ]
!250 = metadata !{i32 786470, null, metadata !"", null, i32 0, i64 0, i64 0, i64 0, i32 0, metadata !251} ; [ DW_TAG_const_type ]
!251 = metadata !{i32 786434, metadata !115, metadata !"id", metadata !117, i32 436, i64 64, i64 64, i32 0, i32 0, null, metadata !252, i32 0, null, null} ; [ DW_TAG_class_type ]
!252 = metadata !{metadata !253, metadata !254, metadata !259, metadata !260, metadata !263, metadata !267, metadata !268}
!253 = metadata !{i32 786445, metadata !251, metadata !"_M_index", metadata !117, i32 453, i64 64, i64 64, i64 0, i32 1, metadata !139} ; [ DW_TAG_member ]
!254 = metadata !{i32 786478, i32 0, metadata !251, metadata !"operator=", metadata !"operator=", metadata !"_ZNSt6locale2idaSERKS0_", metadata !117, i32 459, metadata !255, i1 false, i1 false, i32 0, i32 0, null, i32 257, i1 false, null, null, i32 0, metadata !89, i32 459} ; [ DW_TAG_subprogram ]
!255 = metadata !{i32 786453, i32 0, metadata !"", i32 0, i32 0, i64 0, i64 0, i64 0, i32 0, null, metadata !256, i32 0, i32 0} ; [ DW_TAG_subroutine_type ]
!256 = metadata !{null, metadata !257, metadata !258}
!257 = metadata !{i32 786447, i32 0, metadata !"", i32 0, i32 0, i64 64, i64 64, i64 0, i32 64, metadata !251} ; [ DW_TAG_pointer_type ]
!258 = metadata !{i32 786448, null, null, null, i32 0, i64 0, i64 0, i64 0, i32 0, metadata !250} ; [ DW_TAG_reference_type ]
!259 = metadata !{i32 786478, i32 0, metadata !251, metadata !"id", metadata !"id", metadata !"", metadata !117, i32 461, metadata !255, i1 false, i1 false, i32 0, i32 0, null, i32 257, i1 false, null, null, i32 0, metadata !89, i32 461} ; [ DW_TAG_subprogram ]
!260 = metadata !{i32 786478, i32 0, metadata !251, metadata !"id", metadata !"id", metadata !"", metadata !117, i32 467, metadata !261, i1 false, i1 false, i32 0, i32 0, null, i32 256, i1 false, null, null, i32 0, metadata !89, i32 467} ; [ DW_TAG_subprogram ]
!261 = metadata !{i32 786453, i32 0, metadata !"", i32 0, i32 0, i64 0, i64 0, i64 0, i32 0, null, metadata !262, i32 0, i32 0} ; [ DW_TAG_subroutine_type ]
!262 = metadata !{null, metadata !257}
!263 = metadata !{i32 786478, i32 0, metadata !251, metadata !"_M_id", metadata !"_M_id", metadata !"_ZNKSt6locale2id5_M_idEv", metadata !117, i32 470, metadata !264, i1 false, i1 false, i32 0, i32 0, null, i32 256, i1 false, null, null, i32 0, metadata !89, i32 470} ; [ DW_TAG_subprogram ]
!264 = metadata !{i32 786453, i32 0, metadata !"", i32 0, i32 0, i64 0, i64 0, i64 0, i32 0, null, metadata !265, i32 0, i32 0} ; [ DW_TAG_subroutine_type ]
!265 = metadata !{metadata !139, metadata !266}
!266 = metadata !{i32 786447, i32 0, metadata !"", i32 0, i32 0, i64 64, i64 64, i64 0, i32 64, metadata !250} ; [ DW_TAG_pointer_type ]
!267 = metadata !{i32 786474, metadata !251, null, metadata !117, i32 0, i64 0, i64 0, i64 0, i32 0, metadata !121} ; [ DW_TAG_friend ]
!268 = metadata !{i32 786474, metadata !251, null, metadata !117, i32 0, i64 0, i64 0, i64 0, i32 0, metadata !115} ; [ DW_TAG_friend ]
!269 = metadata !{i32 786478, i32 0, metadata !121, metadata !"_M_replace_facet", metadata !"_M_replace_facet", metadata !"_ZNSt6locale5_Impl16_M_replace_facetEPKS0_PKNS_2idE", metadata !117, i32 556, metadata !270, i1 false, i1 false, i32 0, i32 0, null, i32 257, i1 false, null, null, i32 0, metadata !89, i32 556} ; [ DW_TAG_subprogram ]
!270 = metadata !{i32 786453, i32 0, metadata !"", i32 0, i32 0, i64 0, i64 0, i64 0, i32 0, null, metadata !271, i32 0, i32 0} ; [ DW_TAG_subroutine_type ]
!271 = metadata !{null, metadata !217, metadata !242, metadata !249}
!272 = metadata !{i32 786478, i32 0, metadata !121, metadata !"_M_install_facet", metadata !"_M_install_facet", metadata !"_ZNSt6locale5_Impl16_M_install_facetEPKNS_2idEPKNS_5facetE", metadata !117, i32 559, metadata !273, i1 false, i1 false, i32 0, i32 0, null, i32 257, i1 false, null, null, i32 0, metadata !89, i32 559} ; [ DW_TAG_subprogram ]
!273 = metadata !{i32 786453, i32 0, metadata !"", i32 0, i32 0, i64 0, i64 0, i64 0, i32 0, null, metadata !274, i32 0, i32 0} ; [ DW_TAG_subroutine_type ]
!274 = metadata !{null, metadata !217, metadata !249, metadata !126}
!275 = metadata !{i32 786478, i32 0, metadata !121, metadata !"_M_install_cache", metadata !"_M_install_cache", metadata !"_ZNSt6locale5_Impl16_M_install_cacheEPKNS_5facetEm", metadata !117, i32 567, metadata !276, i1 false, i1 false, i32 0, i32 0, null, i32 257, i1 false, null, null, i32 0, metadata !89, i32 567} ; [ DW_TAG_subprogram ]
!276 = metadata !{i32 786453, i32 0, metadata !"", i32 0, i32 0, i64 0, i64 0, i64 0, i32 0, null, metadata !277, i32 0, i32 0} ; [ DW_TAG_subroutine_type ]
!277 = metadata !{null, metadata !217, metadata !126, metadata !139}
!278 = metadata !{i32 786474, metadata !121, null, metadata !117, i32 0, i64 0, i64 0, i64 0, i32 0, metadata !128} ; [ DW_TAG_friend ]
!279 = metadata !{i32 786474, metadata !121, null, metadata !117, i32 0, i64 0, i64 0, i64 0, i32 0, metadata !115} ; [ DW_TAG_friend ]
!280 = metadata !{i32 786478, i32 0, metadata !115, metadata !"locale", metadata !"locale", metadata !"", metadata !117, i32 118, metadata !281, i1 false, i1 false, i32 0, i32 0, null, i32 256, i1 false, null, null, i32 0, metadata !89, i32 118} ; [ DW_TAG_subprogram ]
!281 = metadata !{i32 786453, i32 0, metadata !"", i32 0, i32 0, i64 0, i64 0, i64 0, i32 0, null, metadata !282, i32 0, i32 0} ; [ DW_TAG_subroutine_type ]
!282 = metadata !{null, metadata !283}
!283 = metadata !{i32 786447, i32 0, metadata !"", i32 0, i32 0, i64 64, i64 64, i64 0, i32 64, metadata !115} ; [ DW_TAG_pointer_type ]
!284 = metadata !{i32 786478, i32 0, metadata !115, metadata !"locale", metadata !"locale", metadata !"", metadata !117, i32 127, metadata !285, i1 false, i1 false, i32 0, i32 0, null, i32 256, i1 false, null, null, i32 0, metadata !89, i32 127} ; [ DW_TAG_subprogram ]
!285 = metadata !{i32 786453, i32 0, metadata !"", i32 0, i32 0, i64 0, i64 0, i64 0, i32 0, null, metadata !286, i32 0, i32 0} ; [ DW_TAG_subroutine_type ]
!286 = metadata !{null, metadata !283, metadata !287}
!287 = metadata !{i32 786448, null, null, null, i32 0, i64 0, i64 0, i64 0, i32 0, metadata !288} ; [ DW_TAG_reference_type ]
!288 = metadata !{i32 786470, null, metadata !"", null, i32 0, i64 0, i64 0, i64 0, i32 0, metadata !115} ; [ DW_TAG_const_type ]
!289 = metadata !{i32 786478, i32 0, metadata !115, metadata !"locale", metadata !"locale", metadata !"", metadata !117, i32 138, metadata !290, i1 false, i1 false, i32 0, i32 0, null, i32 384, i1 false, null, null, i32 0, metadata !89, i32 138} ; [ DW_TAG_subprogram ]
!290 = metadata !{i32 786453, i32 0, metadata !"", i32 0, i32 0, i64 0, i64 0, i64 0, i32 0, null, metadata !291, i32 0, i32 0} ; [ DW_TAG_subroutine_type ]
!291 = metadata !{null, metadata !283, metadata !172}
!292 = metadata !{i32 786478, i32 0, metadata !115, metadata !"locale", metadata !"locale", metadata !"", metadata !117, i32 152, metadata !293, i1 false, i1 false, i32 0, i32 0, null, i32 256, i1 false, null, null, i32 0, metadata !89, i32 152} ; [ DW_TAG_subprogram ]
!293 = metadata !{i32 786453, i32 0, metadata !"", i32 0, i32 0, i64 0, i64 0, i64 0, i32 0, null, metadata !294, i32 0, i32 0} ; [ DW_TAG_subroutine_type ]
!294 = metadata !{null, metadata !283, metadata !287, metadata !172, metadata !243}
!295 = metadata !{i32 786478, i32 0, metadata !115, metadata !"locale", metadata !"locale", metadata !"", metadata !117, i32 165, metadata !296, i1 false, i1 false, i32 0, i32 0, null, i32 256, i1 false, null, null, i32 0, metadata !89, i32 165} ; [ DW_TAG_subprogram ]
!296 = metadata !{i32 786453, i32 0, metadata !"", i32 0, i32 0, i64 0, i64 0, i64 0, i32 0, null, metadata !297, i32 0, i32 0} ; [ DW_TAG_subroutine_type ]
!297 = metadata !{null, metadata !283, metadata !287, metadata !287, metadata !243}
!298 = metadata !{i32 786478, i32 0, metadata !115, metadata !"~locale", metadata !"~locale", metadata !"", metadata !117, i32 181, metadata !281, i1 false, i1 false, i32 0, i32 0, null, i32 256, i1 false, null, null, i32 0, metadata !89, i32 181} ; [ DW_TAG_subprogram ]
!299 = metadata !{i32 786478, i32 0, metadata !115, metadata !"operator=", metadata !"operator=", metadata !"_ZNSt6localeaSERKS_", metadata !117, i32 192, metadata !300, i1 false, i1 false, i32 0, i32 0, null, i32 256, i1 false, null, null, i32 0, metadata !89, i32 192} ; [ DW_TAG_subprogram ]
!300 = metadata !{i32 786453, i32 0, metadata !"", i32 0, i32 0, i64 0, i64 0, i64 0, i32 0, null, metadata !301, i32 0, i32 0} ; [ DW_TAG_subroutine_type ]
!301 = metadata !{metadata !287, metadata !283, metadata !287}
!302 = metadata !{i32 786478, i32 0, metadata !115, metadata !"name", metadata !"name", metadata !"_ZNKSt6locale4nameEv", metadata !117, i32 216, metadata !303, i1 false, i1 false, i32 0, i32 0, null, i32 256, i1 false, null, null, i32 0, metadata !89, i32 216} ; [ DW_TAG_subprogram ]
!303 = metadata !{i32 786453, i32 0, metadata !"", i32 0, i32 0, i64 0, i64 0, i64 0, i32 0, null, metadata !304, i32 0, i32 0} ; [ DW_TAG_subroutine_type ]
!304 = metadata !{metadata !305, metadata !859}
!305 = metadata !{i32 786454, metadata !306, metadata !"string", metadata !117, i32 64, i64 0, i64 0, i64 0, i32 0, metadata !308} ; [ DW_TAG_typedef ]
!306 = metadata !{i32 786489, null, metadata !"std", metadata !307, i32 42} ; [ DW_TAG_namespace ]
!307 = metadata !{i32 786473, metadata !"/data/opt/Xilinx/Vivado/2017.4/lnx64/tools/gcc/lib/gcc/x86_64-unknown-linux-gnu/4.6.3/../../../../include/c++/4.6.3/bits/stringfwd.h", metadata !"/home/iavendano/pynq-copter/pynqcopter/ip/pidfixed", null} ; [ DW_TAG_file_type ]
!308 = metadata !{i32 786434, metadata !306, metadata !"basic_string<char>", metadata !309, i32 1133, i64 64, i64 64, i32 0, i32 0, null, metadata !310, i32 0, null, metadata !803} ; [ DW_TAG_class_type ]
!309 = metadata !{i32 786473, metadata !"/data/opt/Xilinx/Vivado/2017.4/lnx64/tools/gcc/lib/gcc/x86_64-unknown-linux-gnu/4.6.3/../../../../include/c++/4.6.3/bits/basic_string.tcc", metadata !"/home/iavendano/pynq-copter/pynqcopter/ip/pidfixed", null} ; [ DW_TAG_file_type ]
!310 = metadata !{metadata !311, metadata !384, metadata !389, metadata !393, metadata !442, metadata !448, metadata !449, metadata !452, metadata !455, metadata !458, metadata !461, metadata !464, metadata !467, metadata !468, metadata !471, metadata !474, metadata !479, metadata !482, metadata !485, metadata !488, metadata !491, metadata !492, metadata !493, metadata !494, metadata !497, metadata !501, metadata !504, metadata !507, metadata !510, metadata !513, metadata !516, metadata !520, metadata !550, metadata !551, metadata !555, metadata !558, metadata !561, metadata !564, metadata !567, metadata !570, metadata !573, metadata !574, metadata !575, metadata !580, metadata !585, metadata !586, metadata !587, metadata !588, metadata !589, metadata !590, metadata !591, metadata !594, metadata !595, metadata !596, metadata !599, metadata !602, metadata !603, metadata !604, metadata !605, metadata !606, metadata !609, metadata !614, metadata !619, metadata !620, metadata !623, metadata !626, metadata !627, metadata !628, metadata !629, metadata !630, metadata !631, metadata !632, metadata !633, metadata !634, metadata !637, metadata !640, metadata !641, metadata !644, metadata !645, metadata !648, metadata !649, metadata !650, metadata !651, metadata !652, metadata !653, metadata !654, metadata !655, metadata !658, metadata !661, metadata !664, metadata !667, metadata !670, metadata !673, metadata !676, metadata !679, metadata !682, metadata !685, metadata !688, metadata !691, metadata !694, metadata !697, metadata !700, metadata !703, metadata !706, metadata !709, metadata !712, metadata !715, metadata !718, metadata !721, metadata !724, metadata !727, metadata !730, metadata !731, metadata !732, metadata !735, metadata !736, metadata !739, metadata !742, metadata !745, metadata !746, metadata !750, metadata !753, metadata !756, metadata !759, metadata !762, metadata !763, metadata !764, metadata !765, metadata !766, metadata !767, metadata !768, metadata !769, metadata !770, metadata !771, metadata !772, metadata !773, metadata !774, metadata !775, metadata !776, metadata !777, metadata !778, metadata !779, metadata !780, metadata !781, metadata !782, metadata !785, metadata !788, metadata !791, metadata !794, metadata !797, metadata !800}
!311 = metadata !{i32 786445, metadata !308, metadata !"_M_dataplus", metadata !312, i32 283, i64 64, i64 64, i64 0, i32 1, metadata !313} ; [ DW_TAG_member ]
!312 = metadata !{i32 786473, metadata !"/data/opt/Xilinx/Vivado/2017.4/lnx64/tools/gcc/lib/gcc/x86_64-unknown-linux-gnu/4.6.3/../../../../include/c++/4.6.3/bits/basic_string.h", metadata !"/home/iavendano/pynq-copter/pynqcopter/ip/pidfixed", null} ; [ DW_TAG_file_type ]
!313 = metadata !{i32 786434, metadata !308, metadata !"_Alloc_hider", metadata !312, i32 266, i64 64, i64 64, i32 0, i32 0, null, metadata !314, i32 0, null, null} ; [ DW_TAG_class_type ]
!314 = metadata !{metadata !315, metadata !379, metadata !380}
!315 = metadata !{i32 786460, metadata !313, null, metadata !312, i32 0, i64 0, i64 0, i64 0, i32 0, metadata !316} ; [ DW_TAG_inheritance ]
!316 = metadata !{i32 786434, metadata !306, metadata !"allocator<char>", metadata !317, i32 143, i64 8, i64 8, i32 0, i32 0, null, metadata !318, i32 0, null, metadata !377} ; [ DW_TAG_class_type ]
!317 = metadata !{i32 786473, metadata !"/data/opt/Xilinx/Vivado/2017.4/lnx64/tools/gcc/lib/gcc/x86_64-unknown-linux-gnu/4.6.3/../../../../include/c++/4.6.3/bits/allocator.h", metadata !"/home/iavendano/pynq-copter/pynqcopter/ip/pidfixed", null} ; [ DW_TAG_file_type ]
!318 = metadata !{metadata !319, metadata !367, metadata !371, metadata !376}
!319 = metadata !{i32 786460, metadata !316, null, metadata !317, i32 0, i64 0, i64 0, i64 0, i32 0, metadata !320} ; [ DW_TAG_inheritance ]
!320 = metadata !{i32 786434, metadata !321, metadata !"new_allocator<char>", metadata !322, i32 54, i64 8, i64 8, i32 0, i32 0, null, metadata !323, i32 0, null, metadata !365} ; [ DW_TAG_class_type ]
!321 = metadata !{i32 786489, null, metadata !"__gnu_cxx", metadata !322, i32 38} ; [ DW_TAG_namespace ]
!322 = metadata !{i32 786473, metadata !"/data/opt/Xilinx/Vivado/2017.4/lnx64/tools/gcc/lib/gcc/x86_64-unknown-linux-gnu/4.6.3/../../../../include/c++/4.6.3/ext/new_allocator.h", metadata !"/home/iavendano/pynq-copter/pynqcopter/ip/pidfixed", null} ; [ DW_TAG_file_type ]
!323 = metadata !{metadata !324, metadata !328, metadata !333, metadata !334, metadata !341, metadata !347, metadata !353, metadata !356, metadata !359, metadata !362}
!324 = metadata !{i32 786478, i32 0, metadata !320, metadata !"new_allocator", metadata !"new_allocator", metadata !"", metadata !322, i32 69, metadata !325, i1 false, i1 false, i32 0, i32 0, null, i32 256, i1 false, null, null, i32 0, metadata !89, i32 69} ; [ DW_TAG_subprogram ]
!325 = metadata !{i32 786453, i32 0, metadata !"", i32 0, i32 0, i64 0, i64 0, i64 0, i32 0, null, metadata !326, i32 0, i32 0} ; [ DW_TAG_subroutine_type ]
!326 = metadata !{null, metadata !327}
!327 = metadata !{i32 786447, i32 0, metadata !"", i32 0, i32 0, i64 64, i64 64, i64 0, i32 64, metadata !320} ; [ DW_TAG_pointer_type ]
!328 = metadata !{i32 786478, i32 0, metadata !320, metadata !"new_allocator", metadata !"new_allocator", metadata !"", metadata !322, i32 71, metadata !329, i1 false, i1 false, i32 0, i32 0, null, i32 256, i1 false, null, null, i32 0, metadata !89, i32 71} ; [ DW_TAG_subprogram ]
!329 = metadata !{i32 786453, i32 0, metadata !"", i32 0, i32 0, i64 0, i64 0, i64 0, i32 0, null, metadata !330, i32 0, i32 0} ; [ DW_TAG_subroutine_type ]
!330 = metadata !{null, metadata !327, metadata !331}
!331 = metadata !{i32 786448, null, null, null, i32 0, i64 0, i64 0, i64 0, i32 0, metadata !332} ; [ DW_TAG_reference_type ]
!332 = metadata !{i32 786470, null, metadata !"", null, i32 0, i64 0, i64 0, i64 0, i32 0, metadata !320} ; [ DW_TAG_const_type ]
!333 = metadata !{i32 786478, i32 0, metadata !320, metadata !"~new_allocator", metadata !"~new_allocator", metadata !"", metadata !322, i32 76, metadata !325, i1 false, i1 false, i32 0, i32 0, null, i32 256, i1 false, null, null, i32 0, metadata !89, i32 76} ; [ DW_TAG_subprogram ]
!334 = metadata !{i32 786478, i32 0, metadata !320, metadata !"address", metadata !"address", metadata !"_ZNK9__gnu_cxx13new_allocatorIcE7addressERc", metadata !322, i32 79, metadata !335, i1 false, i1 false, i32 0, i32 0, null, i32 256, i1 false, null, null, i32 0, metadata !89, i32 79} ; [ DW_TAG_subprogram ]
!335 = metadata !{i32 786453, i32 0, metadata !"", i32 0, i32 0, i64 0, i64 0, i64 0, i32 0, null, metadata !336, i32 0, i32 0} ; [ DW_TAG_subroutine_type ]
!336 = metadata !{metadata !337, metadata !338, metadata !339}
!337 = metadata !{i32 786454, metadata !320, metadata !"pointer", metadata !322, i32 59, i64 0, i64 0, i64 0, i32 0, metadata !213} ; [ DW_TAG_typedef ]
!338 = metadata !{i32 786447, i32 0, metadata !"", i32 0, i32 0, i64 64, i64 64, i64 0, i32 64, metadata !332} ; [ DW_TAG_pointer_type ]
!339 = metadata !{i32 786454, metadata !320, metadata !"reference", metadata !322, i32 61, i64 0, i64 0, i64 0, i32 0, metadata !340} ; [ DW_TAG_typedef ]
!340 = metadata !{i32 786448, null, null, null, i32 0, i64 0, i64 0, i64 0, i32 0, metadata !174} ; [ DW_TAG_reference_type ]
!341 = metadata !{i32 786478, i32 0, metadata !320, metadata !"address", metadata !"address", metadata !"_ZNK9__gnu_cxx13new_allocatorIcE7addressERKc", metadata !322, i32 82, metadata !342, i1 false, i1 false, i32 0, i32 0, null, i32 256, i1 false, null, null, i32 0, metadata !89, i32 82} ; [ DW_TAG_subprogram ]
!342 = metadata !{i32 786453, i32 0, metadata !"", i32 0, i32 0, i64 0, i64 0, i64 0, i32 0, null, metadata !343, i32 0, i32 0} ; [ DW_TAG_subroutine_type ]
!343 = metadata !{metadata !344, metadata !338, metadata !345}
!344 = metadata !{i32 786454, metadata !320, metadata !"const_pointer", metadata !322, i32 60, i64 0, i64 0, i64 0, i32 0, metadata !172} ; [ DW_TAG_typedef ]
!345 = metadata !{i32 786454, metadata !320, metadata !"const_reference", metadata !322, i32 62, i64 0, i64 0, i64 0, i32 0, metadata !346} ; [ DW_TAG_typedef ]
!346 = metadata !{i32 786448, null, null, null, i32 0, i64 0, i64 0, i64 0, i32 0, metadata !173} ; [ DW_TAG_reference_type ]
!347 = metadata !{i32 786478, i32 0, metadata !320, metadata !"allocate", metadata !"allocate", metadata !"_ZN9__gnu_cxx13new_allocatorIcE8allocateEmPKv", metadata !322, i32 87, metadata !348, i1 false, i1 false, i32 0, i32 0, null, i32 256, i1 false, null, null, i32 0, metadata !89, i32 87} ; [ DW_TAG_subprogram ]
!348 = metadata !{i32 786453, i32 0, metadata !"", i32 0, i32 0, i64 0, i64 0, i64 0, i32 0, null, metadata !349, i32 0, i32 0} ; [ DW_TAG_subroutine_type ]
!349 = metadata !{metadata !337, metadata !327, metadata !350, metadata !351}
!350 = metadata !{i32 786454, null, metadata !"size_type", metadata !322, i32 57, i64 0, i64 0, i64 0, i32 0, metadata !139} ; [ DW_TAG_typedef ]
!351 = metadata !{i32 786447, null, metadata !"", null, i32 0, i64 64, i64 64, i64 0, i32 0, metadata !352} ; [ DW_TAG_pointer_type ]
!352 = metadata !{i32 786470, null, metadata !"", null, i32 0, i64 0, i64 0, i64 0, i32 0, null} ; [ DW_TAG_const_type ]
!353 = metadata !{i32 786478, i32 0, metadata !320, metadata !"deallocate", metadata !"deallocate", metadata !"_ZN9__gnu_cxx13new_allocatorIcE10deallocateEPcm", metadata !322, i32 97, metadata !354, i1 false, i1 false, i32 0, i32 0, null, i32 256, i1 false, null, null, i32 0, metadata !89, i32 97} ; [ DW_TAG_subprogram ]
!354 = metadata !{i32 786453, i32 0, metadata !"", i32 0, i32 0, i64 0, i64 0, i64 0, i32 0, null, metadata !355, i32 0, i32 0} ; [ DW_TAG_subroutine_type ]
!355 = metadata !{null, metadata !327, metadata !337, metadata !350}
!356 = metadata !{i32 786478, i32 0, metadata !320, metadata !"max_size", metadata !"max_size", metadata !"_ZNK9__gnu_cxx13new_allocatorIcE8max_sizeEv", metadata !322, i32 101, metadata !357, i1 false, i1 false, i32 0, i32 0, null, i32 256, i1 false, null, null, i32 0, metadata !89, i32 101} ; [ DW_TAG_subprogram ]
!357 = metadata !{i32 786453, i32 0, metadata !"", i32 0, i32 0, i64 0, i64 0, i64 0, i32 0, null, metadata !358, i32 0, i32 0} ; [ DW_TAG_subroutine_type ]
!358 = metadata !{metadata !350, metadata !338}
!359 = metadata !{i32 786478, i32 0, metadata !320, metadata !"construct", metadata !"construct", metadata !"_ZN9__gnu_cxx13new_allocatorIcE9constructEPcRKc", metadata !322, i32 107, metadata !360, i1 false, i1 false, i32 0, i32 0, null, i32 256, i1 false, null, null, i32 0, metadata !89, i32 107} ; [ DW_TAG_subprogram ]
!360 = metadata !{i32 786453, i32 0, metadata !"", i32 0, i32 0, i64 0, i64 0, i64 0, i32 0, null, metadata !361, i32 0, i32 0} ; [ DW_TAG_subroutine_type ]
!361 = metadata !{null, metadata !327, metadata !337, metadata !346}
!362 = metadata !{i32 786478, i32 0, metadata !320, metadata !"destroy", metadata !"destroy", metadata !"_ZN9__gnu_cxx13new_allocatorIcE7destroyEPc", metadata !322, i32 118, metadata !363, i1 false, i1 false, i32 0, i32 0, null, i32 256, i1 false, null, null, i32 0, metadata !89, i32 118} ; [ DW_TAG_subprogram ]
!363 = metadata !{i32 786453, i32 0, metadata !"", i32 0, i32 0, i64 0, i64 0, i64 0, i32 0, null, metadata !364, i32 0, i32 0} ; [ DW_TAG_subroutine_type ]
!364 = metadata !{null, metadata !327, metadata !337}
!365 = metadata !{metadata !366}
!366 = metadata !{i32 786479, null, metadata !"_Tp", metadata !174, null, i32 0, i32 0} ; [ DW_TAG_template_type_parameter ]
!367 = metadata !{i32 786478, i32 0, metadata !316, metadata !"allocator", metadata !"allocator", metadata !"", metadata !317, i32 107, metadata !368, i1 false, i1 false, i32 0, i32 0, null, i32 256, i1 false, null, null, i32 0, metadata !89, i32 107} ; [ DW_TAG_subprogram ]
!368 = metadata !{i32 786453, i32 0, metadata !"", i32 0, i32 0, i64 0, i64 0, i64 0, i32 0, null, metadata !369, i32 0, i32 0} ; [ DW_TAG_subroutine_type ]
!369 = metadata !{null, metadata !370}
!370 = metadata !{i32 786447, i32 0, metadata !"", i32 0, i32 0, i64 64, i64 64, i64 0, i32 64, metadata !316} ; [ DW_TAG_pointer_type ]
!371 = metadata !{i32 786478, i32 0, metadata !316, metadata !"allocator", metadata !"allocator", metadata !"", metadata !317, i32 109, metadata !372, i1 false, i1 false, i32 0, i32 0, null, i32 256, i1 false, null, null, i32 0, metadata !89, i32 109} ; [ DW_TAG_subprogram ]
!372 = metadata !{i32 786453, i32 0, metadata !"", i32 0, i32 0, i64 0, i64 0, i64 0, i32 0, null, metadata !373, i32 0, i32 0} ; [ DW_TAG_subroutine_type ]
!373 = metadata !{null, metadata !370, metadata !374}
!374 = metadata !{i32 786448, null, null, null, i32 0, i64 0, i64 0, i64 0, i32 0, metadata !375} ; [ DW_TAG_reference_type ]
!375 = metadata !{i32 786470, null, metadata !"", null, i32 0, i64 0, i64 0, i64 0, i32 0, metadata !316} ; [ DW_TAG_const_type ]
!376 = metadata !{i32 786478, i32 0, metadata !316, metadata !"~allocator", metadata !"~allocator", metadata !"", metadata !317, i32 115, metadata !368, i1 false, i1 false, i32 0, i32 0, null, i32 256, i1 false, null, null, i32 0, metadata !89, i32 115} ; [ DW_TAG_subprogram ]
!377 = metadata !{metadata !378}
!378 = metadata !{i32 786479, null, metadata !"_Alloc", metadata !174, null, i32 0, i32 0} ; [ DW_TAG_template_type_parameter ]
!379 = metadata !{i32 786445, metadata !313, metadata !"_M_p", metadata !312, i32 271, i64 64, i64 64, i64 0, i32 0, metadata !213} ; [ DW_TAG_member ]
!380 = metadata !{i32 786478, i32 0, metadata !313, metadata !"_Alloc_hider", metadata !"_Alloc_hider", metadata !"", metadata !312, i32 268, metadata !381, i1 false, i1 false, i32 0, i32 0, null, i32 256, i1 false, null, null, i32 0, metadata !89, i32 268} ; [ DW_TAG_subprogram ]
!381 = metadata !{i32 786453, i32 0, metadata !"", i32 0, i32 0, i64 0, i64 0, i64 0, i32 0, null, metadata !382, i32 0, i32 0} ; [ DW_TAG_subroutine_type ]
!382 = metadata !{null, metadata !383, metadata !213, metadata !374}
!383 = metadata !{i32 786447, i32 0, metadata !"", i32 0, i32 0, i64 64, i64 64, i64 0, i32 64, metadata !313} ; [ DW_TAG_pointer_type ]
!384 = metadata !{i32 786478, i32 0, metadata !308, metadata !"_M_data", metadata !"_M_data", metadata !"_ZNKSs7_M_dataEv", metadata !312, i32 286, metadata !385, i1 false, i1 false, i32 0, i32 0, null, i32 257, i1 false, null, null, i32 0, metadata !89, i32 286} ; [ DW_TAG_subprogram ]
!385 = metadata !{i32 786453, i32 0, metadata !"", i32 0, i32 0, i64 0, i64 0, i64 0, i32 0, null, metadata !386, i32 0, i32 0} ; [ DW_TAG_subroutine_type ]
!386 = metadata !{metadata !213, metadata !387}
!387 = metadata !{i32 786447, i32 0, metadata !"", i32 0, i32 0, i64 64, i64 64, i64 0, i32 64, metadata !388} ; [ DW_TAG_pointer_type ]
!388 = metadata !{i32 786470, null, metadata !"", null, i32 0, i64 0, i64 0, i64 0, i32 0, metadata !308} ; [ DW_TAG_const_type ]
!389 = metadata !{i32 786478, i32 0, metadata !308, metadata !"_M_data", metadata !"_M_data", metadata !"_ZNSs7_M_dataEPc", metadata !312, i32 290, metadata !390, i1 false, i1 false, i32 0, i32 0, null, i32 257, i1 false, null, null, i32 0, metadata !89, i32 290} ; [ DW_TAG_subprogram ]
!390 = metadata !{i32 786453, i32 0, metadata !"", i32 0, i32 0, i64 0, i64 0, i64 0, i32 0, null, metadata !391, i32 0, i32 0} ; [ DW_TAG_subroutine_type ]
!391 = metadata !{metadata !213, metadata !392, metadata !213}
!392 = metadata !{i32 786447, i32 0, metadata !"", i32 0, i32 0, i64 64, i64 64, i64 0, i32 64, metadata !308} ; [ DW_TAG_pointer_type ]
!393 = metadata !{i32 786478, i32 0, metadata !308, metadata !"_M_rep", metadata !"_M_rep", metadata !"_ZNKSs6_M_repEv", metadata !312, i32 294, metadata !394, i1 false, i1 false, i32 0, i32 0, null, i32 257, i1 false, null, null, i32 0, metadata !89, i32 294} ; [ DW_TAG_subprogram ]
!394 = metadata !{i32 786453, i32 0, metadata !"", i32 0, i32 0, i64 0, i64 0, i64 0, i32 0, null, metadata !395, i32 0, i32 0} ; [ DW_TAG_subroutine_type ]
!395 = metadata !{metadata !396, metadata !387}
!396 = metadata !{i32 786447, null, metadata !"", null, i32 0, i64 64, i64 64, i64 0, i32 0, metadata !397} ; [ DW_TAG_pointer_type ]
!397 = metadata !{i32 786434, metadata !308, metadata !"_Rep", metadata !312, i32 149, i64 192, i64 64, i32 0, i32 0, null, metadata !398, i32 0, null, null} ; [ DW_TAG_class_type ]
!398 = metadata !{metadata !399, metadata !407, metadata !411, metadata !416, metadata !417, metadata !421, metadata !422, metadata !425, metadata !428, metadata !431, metadata !434, metadata !437, metadata !438, metadata !439}
!399 = metadata !{i32 786460, metadata !397, null, metadata !312, i32 0, i64 0, i64 0, i64 0, i32 0, metadata !400} ; [ DW_TAG_inheritance ]
!400 = metadata !{i32 786434, metadata !308, metadata !"_Rep_base", metadata !312, i32 142, i64 192, i64 64, i32 0, i32 0, null, metadata !401, i32 0, null, null} ; [ DW_TAG_class_type ]
!401 = metadata !{metadata !402, metadata !405, metadata !406}
!402 = metadata !{i32 786445, metadata !400, metadata !"_M_length", metadata !312, i32 144, i64 64, i64 64, i64 0, i32 0, metadata !403} ; [ DW_TAG_member ]
!403 = metadata !{i32 786454, metadata !308, metadata !"size_type", metadata !312, i32 115, i64 0, i64 0, i64 0, i32 0, metadata !404} ; [ DW_TAG_typedef ]
!404 = metadata !{i32 786454, metadata !316, metadata !"size_type", metadata !312, i32 95, i64 0, i64 0, i64 0, i32 0, metadata !139} ; [ DW_TAG_typedef ]
!405 = metadata !{i32 786445, metadata !400, metadata !"_M_capacity", metadata !312, i32 145, i64 64, i64 64, i64 64, i32 0, metadata !403} ; [ DW_TAG_member ]
!406 = metadata !{i32 786445, metadata !400, metadata !"_M_refcount", metadata !312, i32 146, i64 32, i64 32, i64 128, i32 0, metadata !84} ; [ DW_TAG_member ]
!407 = metadata !{i32 786478, i32 0, metadata !397, metadata !"_S_empty_rep", metadata !"_S_empty_rep", metadata !"_ZNSs4_Rep12_S_empty_repEv", metadata !312, i32 175, metadata !408, i1 false, i1 false, i32 0, i32 0, null, i32 256, i1 false, null, null, i32 0, metadata !89, i32 175} ; [ DW_TAG_subprogram ]
!408 = metadata !{i32 786453, i32 0, metadata !"", i32 0, i32 0, i64 0, i64 0, i64 0, i32 0, null, metadata !409, i32 0, i32 0} ; [ DW_TAG_subroutine_type ]
!409 = metadata !{metadata !410}
!410 = metadata !{i32 786448, null, null, null, i32 0, i64 0, i64 0, i64 0, i32 0, metadata !397} ; [ DW_TAG_reference_type ]
!411 = metadata !{i32 786478, i32 0, metadata !397, metadata !"_M_is_leaked", metadata !"_M_is_leaked", metadata !"_ZNKSs4_Rep12_M_is_leakedEv", metadata !312, i32 185, metadata !412, i1 false, i1 false, i32 0, i32 0, null, i32 256, i1 false, null, null, i32 0, metadata !89, i32 185} ; [ DW_TAG_subprogram ]
!412 = metadata !{i32 786453, i32 0, metadata !"", i32 0, i32 0, i64 0, i64 0, i64 0, i32 0, null, metadata !413, i32 0, i32 0} ; [ DW_TAG_subroutine_type ]
!413 = metadata !{metadata !238, metadata !414}
!414 = metadata !{i32 786447, i32 0, metadata !"", i32 0, i32 0, i64 64, i64 64, i64 0, i32 64, metadata !415} ; [ DW_TAG_pointer_type ]
!415 = metadata !{i32 786470, null, metadata !"", null, i32 0, i64 0, i64 0, i64 0, i32 0, metadata !397} ; [ DW_TAG_const_type ]
!416 = metadata !{i32 786478, i32 0, metadata !397, metadata !"_M_is_shared", metadata !"_M_is_shared", metadata !"_ZNKSs4_Rep12_M_is_sharedEv", metadata !312, i32 189, metadata !412, i1 false, i1 false, i32 0, i32 0, null, i32 256, i1 false, null, null, i32 0, metadata !89, i32 189} ; [ DW_TAG_subprogram ]
!417 = metadata !{i32 786478, i32 0, metadata !397, metadata !"_M_set_leaked", metadata !"_M_set_leaked", metadata !"_ZNSs4_Rep13_M_set_leakedEv", metadata !312, i32 193, metadata !418, i1 false, i1 false, i32 0, i32 0, null, i32 256, i1 false, null, null, i32 0, metadata !89, i32 193} ; [ DW_TAG_subprogram ]
!418 = metadata !{i32 786453, i32 0, metadata !"", i32 0, i32 0, i64 0, i64 0, i64 0, i32 0, null, metadata !419, i32 0, i32 0} ; [ DW_TAG_subroutine_type ]
!419 = metadata !{null, metadata !420}
!420 = metadata !{i32 786447, i32 0, metadata !"", i32 0, i32 0, i64 64, i64 64, i64 0, i32 64, metadata !397} ; [ DW_TAG_pointer_type ]
!421 = metadata !{i32 786478, i32 0, metadata !397, metadata !"_M_set_sharable", metadata !"_M_set_sharable", metadata !"_ZNSs4_Rep15_M_set_sharableEv", metadata !312, i32 197, metadata !418, i1 false, i1 false, i32 0, i32 0, null, i32 256, i1 false, null, null, i32 0, metadata !89, i32 197} ; [ DW_TAG_subprogram ]
!422 = metadata !{i32 786478, i32 0, metadata !397, metadata !"_M_set_length_and_sharable", metadata !"_M_set_length_and_sharable", metadata !"_ZNSs4_Rep26_M_set_length_and_sharableEm", metadata !312, i32 201, metadata !423, i1 false, i1 false, i32 0, i32 0, null, i32 256, i1 false, null, null, i32 0, metadata !89, i32 201} ; [ DW_TAG_subprogram ]
!423 = metadata !{i32 786453, i32 0, metadata !"", i32 0, i32 0, i64 0, i64 0, i64 0, i32 0, null, metadata !424, i32 0, i32 0} ; [ DW_TAG_subroutine_type ]
!424 = metadata !{null, metadata !420, metadata !403}
!425 = metadata !{i32 786478, i32 0, metadata !397, metadata !"_M_refdata", metadata !"_M_refdata", metadata !"_ZNSs4_Rep10_M_refdataEv", metadata !312, i32 216, metadata !426, i1 false, i1 false, i32 0, i32 0, null, i32 256, i1 false, null, null, i32 0, metadata !89, i32 216} ; [ DW_TAG_subprogram ]
!426 = metadata !{i32 786453, i32 0, metadata !"", i32 0, i32 0, i64 0, i64 0, i64 0, i32 0, null, metadata !427, i32 0, i32 0} ; [ DW_TAG_subroutine_type ]
!427 = metadata !{metadata !213, metadata !420}
!428 = metadata !{i32 786478, i32 0, metadata !397, metadata !"_M_grab", metadata !"_M_grab", metadata !"_ZNSs4_Rep7_M_grabERKSaIcES2_", metadata !312, i32 220, metadata !429, i1 false, i1 false, i32 0, i32 0, null, i32 256, i1 false, null, null, i32 0, metadata !89, i32 220} ; [ DW_TAG_subprogram ]
!429 = metadata !{i32 786453, i32 0, metadata !"", i32 0, i32 0, i64 0, i64 0, i64 0, i32 0, null, metadata !430, i32 0, i32 0} ; [ DW_TAG_subroutine_type ]
!430 = metadata !{metadata !213, metadata !420, metadata !374, metadata !374}
!431 = metadata !{i32 786478, i32 0, metadata !397, metadata !"_S_create", metadata !"_S_create", metadata !"_ZNSs4_Rep9_S_createEmmRKSaIcE", metadata !312, i32 228, metadata !432, i1 false, i1 false, i32 0, i32 0, null, i32 256, i1 false, null, null, i32 0, metadata !89, i32 228} ; [ DW_TAG_subprogram ]
!432 = metadata !{i32 786453, i32 0, metadata !"", i32 0, i32 0, i64 0, i64 0, i64 0, i32 0, null, metadata !433, i32 0, i32 0} ; [ DW_TAG_subroutine_type ]
!433 = metadata !{metadata !396, metadata !403, metadata !403, metadata !374}
!434 = metadata !{i32 786478, i32 0, metadata !397, metadata !"_M_dispose", metadata !"_M_dispose", metadata !"_ZNSs4_Rep10_M_disposeERKSaIcE", metadata !312, i32 231, metadata !435, i1 false, i1 false, i32 0, i32 0, null, i32 256, i1 false, null, null, i32 0, metadata !89, i32 231} ; [ DW_TAG_subprogram ]
!435 = metadata !{i32 786453, i32 0, metadata !"", i32 0, i32 0, i64 0, i64 0, i64 0, i32 0, null, metadata !436, i32 0, i32 0} ; [ DW_TAG_subroutine_type ]
!436 = metadata !{null, metadata !420, metadata !374}
!437 = metadata !{i32 786478, i32 0, metadata !397, metadata !"_M_destroy", metadata !"_M_destroy", metadata !"_ZNSs4_Rep10_M_destroyERKSaIcE", metadata !312, i32 249, metadata !435, i1 false, i1 false, i32 0, i32 0, null, i32 256, i1 false, null, null, i32 0, metadata !89, i32 249} ; [ DW_TAG_subprogram ]
!438 = metadata !{i32 786478, i32 0, metadata !397, metadata !"_M_refcopy", metadata !"_M_refcopy", metadata !"_ZNSs4_Rep10_M_refcopyEv", metadata !312, i32 252, metadata !426, i1 false, i1 false, i32 0, i32 0, null, i32 256, i1 false, null, null, i32 0, metadata !89, i32 252} ; [ DW_TAG_subprogram ]
!439 = metadata !{i32 786478, i32 0, metadata !397, metadata !"_M_clone", metadata !"_M_clone", metadata !"_ZNSs4_Rep8_M_cloneERKSaIcEm", metadata !312, i32 262, metadata !440, i1 false, i1 false, i32 0, i32 0, null, i32 256, i1 false, null, null, i32 0, metadata !89, i32 262} ; [ DW_TAG_subprogram ]
!440 = metadata !{i32 786453, i32 0, metadata !"", i32 0, i32 0, i64 0, i64 0, i64 0, i32 0, null, metadata !441, i32 0, i32 0} ; [ DW_TAG_subroutine_type ]
!441 = metadata !{metadata !213, metadata !420, metadata !374, metadata !403}
!442 = metadata !{i32 786478, i32 0, metadata !308, metadata !"_M_ibegin", metadata !"_M_ibegin", metadata !"_ZNKSs9_M_ibeginEv", metadata !312, i32 300, metadata !443, i1 false, i1 false, i32 0, i32 0, null, i32 257, i1 false, null, null, i32 0, metadata !89, i32 300} ; [ DW_TAG_subprogram ]
!443 = metadata !{i32 786453, i32 0, metadata !"", i32 0, i32 0, i64 0, i64 0, i64 0, i32 0, null, metadata !444, i32 0, i32 0} ; [ DW_TAG_subroutine_type ]
!444 = metadata !{metadata !445, metadata !387}
!445 = metadata !{i32 786454, metadata !308, metadata !"iterator", metadata !309, i32 121, i64 0, i64 0, i64 0, i32 0, metadata !446} ; [ DW_TAG_typedef ]
!446 = metadata !{i32 786434, null, metadata !"__normal_iterator<char *, std::basic_string<char> >", metadata !447, i32 702, i32 0, i32 0, i32 0, i32 4, null, null, i32 0} ; [ DW_TAG_class_type ]
!447 = metadata !{i32 786473, metadata !"/data/opt/Xilinx/Vivado/2017.4/lnx64/tools/gcc/lib/gcc/x86_64-unknown-linux-gnu/4.6.3/../../../../include/c++/4.6.3/bits/stl_iterator.h", metadata !"/home/iavendano/pynq-copter/pynqcopter/ip/pidfixed", null} ; [ DW_TAG_file_type ]
!448 = metadata !{i32 786478, i32 0, metadata !308, metadata !"_M_iend", metadata !"_M_iend", metadata !"_ZNKSs7_M_iendEv", metadata !312, i32 304, metadata !443, i1 false, i1 false, i32 0, i32 0, null, i32 257, i1 false, null, null, i32 0, metadata !89, i32 304} ; [ DW_TAG_subprogram ]
!449 = metadata !{i32 786478, i32 0, metadata !308, metadata !"_M_leak", metadata !"_M_leak", metadata !"_ZNSs7_M_leakEv", metadata !312, i32 308, metadata !450, i1 false, i1 false, i32 0, i32 0, null, i32 257, i1 false, null, null, i32 0, metadata !89, i32 308} ; [ DW_TAG_subprogram ]
!450 = metadata !{i32 786453, i32 0, metadata !"", i32 0, i32 0, i64 0, i64 0, i64 0, i32 0, null, metadata !451, i32 0, i32 0} ; [ DW_TAG_subroutine_type ]
!451 = metadata !{null, metadata !392}
!452 = metadata !{i32 786478, i32 0, metadata !308, metadata !"_M_check", metadata !"_M_check", metadata !"_ZNKSs8_M_checkEmPKc", metadata !312, i32 315, metadata !453, i1 false, i1 false, i32 0, i32 0, null, i32 257, i1 false, null, null, i32 0, metadata !89, i32 315} ; [ DW_TAG_subprogram ]
!453 = metadata !{i32 786453, i32 0, metadata !"", i32 0, i32 0, i64 0, i64 0, i64 0, i32 0, null, metadata !454, i32 0, i32 0} ; [ DW_TAG_subroutine_type ]
!454 = metadata !{metadata !403, metadata !387, metadata !403, metadata !172}
!455 = metadata !{i32 786478, i32 0, metadata !308, metadata !"_M_check_length", metadata !"_M_check_length", metadata !"_ZNKSs15_M_check_lengthEmmPKc", metadata !312, i32 323, metadata !456, i1 false, i1 false, i32 0, i32 0, null, i32 257, i1 false, null, null, i32 0, metadata !89, i32 323} ; [ DW_TAG_subprogram ]
!456 = metadata !{i32 786453, i32 0, metadata !"", i32 0, i32 0, i64 0, i64 0, i64 0, i32 0, null, metadata !457, i32 0, i32 0} ; [ DW_TAG_subroutine_type ]
!457 = metadata !{null, metadata !387, metadata !403, metadata !403, metadata !172}
!458 = metadata !{i32 786478, i32 0, metadata !308, metadata !"_M_limit", metadata !"_M_limit", metadata !"_ZNKSs8_M_limitEmm", metadata !312, i32 331, metadata !459, i1 false, i1 false, i32 0, i32 0, null, i32 257, i1 false, null, null, i32 0, metadata !89, i32 331} ; [ DW_TAG_subprogram ]
!459 = metadata !{i32 786453, i32 0, metadata !"", i32 0, i32 0, i64 0, i64 0, i64 0, i32 0, null, metadata !460, i32 0, i32 0} ; [ DW_TAG_subroutine_type ]
!460 = metadata !{metadata !403, metadata !387, metadata !403, metadata !403}
!461 = metadata !{i32 786478, i32 0, metadata !308, metadata !"_M_disjunct", metadata !"_M_disjunct", metadata !"_ZNKSs11_M_disjunctEPKc", metadata !312, i32 339, metadata !462, i1 false, i1 false, i32 0, i32 0, null, i32 257, i1 false, null, null, i32 0, metadata !89, i32 339} ; [ DW_TAG_subprogram ]
!462 = metadata !{i32 786453, i32 0, metadata !"", i32 0, i32 0, i64 0, i64 0, i64 0, i32 0, null, metadata !463, i32 0, i32 0} ; [ DW_TAG_subroutine_type ]
!463 = metadata !{metadata !238, metadata !387, metadata !172}
!464 = metadata !{i32 786478, i32 0, metadata !308, metadata !"_M_copy", metadata !"_M_copy", metadata !"_ZNSs7_M_copyEPcPKcm", metadata !312, i32 348, metadata !465, i1 false, i1 false, i32 0, i32 0, null, i32 257, i1 false, null, null, i32 0, metadata !89, i32 348} ; [ DW_TAG_subprogram ]
!465 = metadata !{i32 786453, i32 0, metadata !"", i32 0, i32 0, i64 0, i64 0, i64 0, i32 0, null, metadata !466, i32 0, i32 0} ; [ DW_TAG_subroutine_type ]
!466 = metadata !{null, metadata !213, metadata !172, metadata !403}
!467 = metadata !{i32 786478, i32 0, metadata !308, metadata !"_M_move", metadata !"_M_move", metadata !"_ZNSs7_M_moveEPcPKcm", metadata !312, i32 357, metadata !465, i1 false, i1 false, i32 0, i32 0, null, i32 257, i1 false, null, null, i32 0, metadata !89, i32 357} ; [ DW_TAG_subprogram ]
!468 = metadata !{i32 786478, i32 0, metadata !308, metadata !"_M_assign", metadata !"_M_assign", metadata !"_ZNSs9_M_assignEPcmc", metadata !312, i32 366, metadata !469, i1 false, i1 false, i32 0, i32 0, null, i32 257, i1 false, null, null, i32 0, metadata !89, i32 366} ; [ DW_TAG_subprogram ]
!469 = metadata !{i32 786453, i32 0, metadata !"", i32 0, i32 0, i64 0, i64 0, i64 0, i32 0, null, metadata !470, i32 0, i32 0} ; [ DW_TAG_subroutine_type ]
!470 = metadata !{null, metadata !213, metadata !403, metadata !174}
!471 = metadata !{i32 786478, i32 0, metadata !308, metadata !"_S_copy_chars", metadata !"_S_copy_chars", metadata !"_ZNSs13_S_copy_charsEPcN9__gnu_cxx17__normal_iteratorIS_SsEES2_", metadata !312, i32 385, metadata !472, i1 false, i1 false, i32 0, i32 0, null, i32 257, i1 false, null, null, i32 0, metadata !89, i32 385} ; [ DW_TAG_subprogram ]
!472 = metadata !{i32 786453, i32 0, metadata !"", i32 0, i32 0, i64 0, i64 0, i64 0, i32 0, null, metadata !473, i32 0, i32 0} ; [ DW_TAG_subroutine_type ]
!473 = metadata !{null, metadata !213, metadata !445, metadata !445}
!474 = metadata !{i32 786478, i32 0, metadata !308, metadata !"_S_copy_chars", metadata !"_S_copy_chars", metadata !"_ZNSs13_S_copy_charsEPcN9__gnu_cxx17__normal_iteratorIPKcSsEES4_", metadata !312, i32 389, metadata !475, i1 false, i1 false, i32 0, i32 0, null, i32 257, i1 false, null, null, i32 0, metadata !89, i32 389} ; [ DW_TAG_subprogram ]
!475 = metadata !{i32 786453, i32 0, metadata !"", i32 0, i32 0, i64 0, i64 0, i64 0, i32 0, null, metadata !476, i32 0, i32 0} ; [ DW_TAG_subroutine_type ]
!476 = metadata !{null, metadata !213, metadata !477, metadata !477}
!477 = metadata !{i32 786454, metadata !308, metadata !"const_iterator", metadata !309, i32 123, i64 0, i64 0, i64 0, i32 0, metadata !478} ; [ DW_TAG_typedef ]
!478 = metadata !{i32 786434, null, metadata !"__normal_iterator<const char *, std::basic_string<char> >", metadata !447, i32 702, i32 0, i32 0, i32 0, i32 4, null, null, i32 0} ; [ DW_TAG_class_type ]
!479 = metadata !{i32 786478, i32 0, metadata !308, metadata !"_S_copy_chars", metadata !"_S_copy_chars", metadata !"_ZNSs13_S_copy_charsEPcS_S_", metadata !312, i32 393, metadata !480, i1 false, i1 false, i32 0, i32 0, null, i32 257, i1 false, null, null, i32 0, metadata !89, i32 393} ; [ DW_TAG_subprogram ]
!480 = metadata !{i32 786453, i32 0, metadata !"", i32 0, i32 0, i64 0, i64 0, i64 0, i32 0, null, metadata !481, i32 0, i32 0} ; [ DW_TAG_subroutine_type ]
!481 = metadata !{null, metadata !213, metadata !213, metadata !213}
!482 = metadata !{i32 786478, i32 0, metadata !308, metadata !"_S_copy_chars", metadata !"_S_copy_chars", metadata !"_ZNSs13_S_copy_charsEPcPKcS1_", metadata !312, i32 397, metadata !483, i1 false, i1 false, i32 0, i32 0, null, i32 257, i1 false, null, null, i32 0, metadata !89, i32 397} ; [ DW_TAG_subprogram ]
!483 = metadata !{i32 786453, i32 0, metadata !"", i32 0, i32 0, i64 0, i64 0, i64 0, i32 0, null, metadata !484, i32 0, i32 0} ; [ DW_TAG_subroutine_type ]
!484 = metadata !{null, metadata !213, metadata !172, metadata !172}
!485 = metadata !{i32 786478, i32 0, metadata !308, metadata !"_S_compare", metadata !"_S_compare", metadata !"_ZNSs10_S_compareEmm", metadata !312, i32 401, metadata !486, i1 false, i1 false, i32 0, i32 0, null, i32 257, i1 false, null, null, i32 0, metadata !89, i32 401} ; [ DW_TAG_subprogram ]
!486 = metadata !{i32 786453, i32 0, metadata !"", i32 0, i32 0, i64 0, i64 0, i64 0, i32 0, null, metadata !487, i32 0, i32 0} ; [ DW_TAG_subroutine_type ]
!487 = metadata !{metadata !56, metadata !403, metadata !403}
!488 = metadata !{i32 786478, i32 0, metadata !308, metadata !"_M_mutate", metadata !"_M_mutate", metadata !"_ZNSs9_M_mutateEmmm", metadata !312, i32 414, metadata !489, i1 false, i1 false, i32 0, i32 0, null, i32 257, i1 false, null, null, i32 0, metadata !89, i32 414} ; [ DW_TAG_subprogram ]
!489 = metadata !{i32 786453, i32 0, metadata !"", i32 0, i32 0, i64 0, i64 0, i64 0, i32 0, null, metadata !490, i32 0, i32 0} ; [ DW_TAG_subroutine_type ]
!490 = metadata !{null, metadata !392, metadata !403, metadata !403, metadata !403}
!491 = metadata !{i32 786478, i32 0, metadata !308, metadata !"_M_leak_hard", metadata !"_M_leak_hard", metadata !"_ZNSs12_M_leak_hardEv", metadata !312, i32 417, metadata !450, i1 false, i1 false, i32 0, i32 0, null, i32 257, i1 false, null, null, i32 0, metadata !89, i32 417} ; [ DW_TAG_subprogram ]
!492 = metadata !{i32 786478, i32 0, metadata !308, metadata !"_S_empty_rep", metadata !"_S_empty_rep", metadata !"_ZNSs12_S_empty_repEv", metadata !312, i32 420, metadata !408, i1 false, i1 false, i32 0, i32 0, null, i32 257, i1 false, null, null, i32 0, metadata !89, i32 420} ; [ DW_TAG_subprogram ]
!493 = metadata !{i32 786478, i32 0, metadata !308, metadata !"basic_string", metadata !"basic_string", metadata !"", metadata !312, i32 431, metadata !450, i1 false, i1 false, i32 0, i32 0, null, i32 256, i1 false, null, null, i32 0, metadata !89, i32 431} ; [ DW_TAG_subprogram ]
!494 = metadata !{i32 786478, i32 0, metadata !308, metadata !"basic_string", metadata !"basic_string", metadata !"", metadata !312, i32 442, metadata !495, i1 false, i1 false, i32 0, i32 0, null, i32 384, i1 false, null, null, i32 0, metadata !89, i32 442} ; [ DW_TAG_subprogram ]
!495 = metadata !{i32 786453, i32 0, metadata !"", i32 0, i32 0, i64 0, i64 0, i64 0, i32 0, null, metadata !496, i32 0, i32 0} ; [ DW_TAG_subroutine_type ]
!496 = metadata !{null, metadata !392, metadata !374}
!497 = metadata !{i32 786478, i32 0, metadata !308, metadata !"basic_string", metadata !"basic_string", metadata !"", metadata !312, i32 449, metadata !498, i1 false, i1 false, i32 0, i32 0, null, i32 256, i1 false, null, null, i32 0, metadata !89, i32 449} ; [ DW_TAG_subprogram ]
!498 = metadata !{i32 786453, i32 0, metadata !"", i32 0, i32 0, i64 0, i64 0, i64 0, i32 0, null, metadata !499, i32 0, i32 0} ; [ DW_TAG_subroutine_type ]
!499 = metadata !{null, metadata !392, metadata !500}
!500 = metadata !{i32 786448, null, null, null, i32 0, i64 0, i64 0, i64 0, i32 0, metadata !388} ; [ DW_TAG_reference_type ]
!501 = metadata !{i32 786478, i32 0, metadata !308, metadata !"basic_string", metadata !"basic_string", metadata !"", metadata !312, i32 456, metadata !502, i1 false, i1 false, i32 0, i32 0, null, i32 256, i1 false, null, null, i32 0, metadata !89, i32 456} ; [ DW_TAG_subprogram ]
!502 = metadata !{i32 786453, i32 0, metadata !"", i32 0, i32 0, i64 0, i64 0, i64 0, i32 0, null, metadata !503, i32 0, i32 0} ; [ DW_TAG_subroutine_type ]
!503 = metadata !{null, metadata !392, metadata !500, metadata !403, metadata !403}
!504 = metadata !{i32 786478, i32 0, metadata !308, metadata !"basic_string", metadata !"basic_string", metadata !"", metadata !312, i32 465, metadata !505, i1 false, i1 false, i32 0, i32 0, null, i32 256, i1 false, null, null, i32 0, metadata !89, i32 465} ; [ DW_TAG_subprogram ]
!505 = metadata !{i32 786453, i32 0, metadata !"", i32 0, i32 0, i64 0, i64 0, i64 0, i32 0, null, metadata !506, i32 0, i32 0} ; [ DW_TAG_subroutine_type ]
!506 = metadata !{null, metadata !392, metadata !500, metadata !403, metadata !403, metadata !374}
!507 = metadata !{i32 786478, i32 0, metadata !308, metadata !"basic_string", metadata !"basic_string", metadata !"", metadata !312, i32 477, metadata !508, i1 false, i1 false, i32 0, i32 0, null, i32 256, i1 false, null, null, i32 0, metadata !89, i32 477} ; [ DW_TAG_subprogram ]
!508 = metadata !{i32 786453, i32 0, metadata !"", i32 0, i32 0, i64 0, i64 0, i64 0, i32 0, null, metadata !509, i32 0, i32 0} ; [ DW_TAG_subroutine_type ]
!509 = metadata !{null, metadata !392, metadata !172, metadata !403, metadata !374}
!510 = metadata !{i32 786478, i32 0, metadata !308, metadata !"basic_string", metadata !"basic_string", metadata !"", metadata !312, i32 484, metadata !511, i1 false, i1 false, i32 0, i32 0, null, i32 256, i1 false, null, null, i32 0, metadata !89, i32 484} ; [ DW_TAG_subprogram ]
!511 = metadata !{i32 786453, i32 0, metadata !"", i32 0, i32 0, i64 0, i64 0, i64 0, i32 0, null, metadata !512, i32 0, i32 0} ; [ DW_TAG_subroutine_type ]
!512 = metadata !{null, metadata !392, metadata !172, metadata !374}
!513 = metadata !{i32 786478, i32 0, metadata !308, metadata !"basic_string", metadata !"basic_string", metadata !"", metadata !312, i32 491, metadata !514, i1 false, i1 false, i32 0, i32 0, null, i32 256, i1 false, null, null, i32 0, metadata !89, i32 491} ; [ DW_TAG_subprogram ]
!514 = metadata !{i32 786453, i32 0, metadata !"", i32 0, i32 0, i64 0, i64 0, i64 0, i32 0, null, metadata !515, i32 0, i32 0} ; [ DW_TAG_subroutine_type ]
!515 = metadata !{null, metadata !392, metadata !403, metadata !174, metadata !374}
!516 = metadata !{i32 786478, i32 0, metadata !308, metadata !"basic_string", metadata !"basic_string", metadata !"", metadata !312, i32 501, metadata !517, i1 false, i1 false, i32 0, i32 0, null, i32 256, i1 false, null, null, i32 0, metadata !89, i32 501} ; [ DW_TAG_subprogram ]
!517 = metadata !{i32 786453, i32 0, metadata !"", i32 0, i32 0, i64 0, i64 0, i64 0, i32 0, null, metadata !518, i32 0, i32 0} ; [ DW_TAG_subroutine_type ]
!518 = metadata !{null, metadata !392, metadata !519}
!519 = metadata !{i32 786447, null, metadata !"", null, i32 0, i64 64, i64 64, i64 0, i32 0, metadata !308} ; [ DW_TAG_pointer_type ]
!520 = metadata !{i32 786478, i32 0, metadata !308, metadata !"basic_string", metadata !"basic_string", metadata !"", metadata !312, i32 516, metadata !521, i1 false, i1 false, i32 0, i32 0, null, i32 256, i1 false, null, null, i32 0, metadata !89, i32 516} ; [ DW_TAG_subprogram ]
!521 = metadata !{i32 786453, i32 0, metadata !"", i32 0, i32 0, i64 0, i64 0, i64 0, i32 0, null, metadata !522, i32 0, i32 0} ; [ DW_TAG_subroutine_type ]
!522 = metadata !{null, metadata !392, metadata !523, metadata !374}
!523 = metadata !{i32 786434, metadata !524, metadata !"initializer_list<char>", metadata !525, i32 44, i64 128, i64 64, i32 0, i32 0, null, metadata !526, i32 0, null, metadata !548} ; [ DW_TAG_class_type ]
!524 = metadata !{i32 786489, null, metadata !"std", metadata !525, i32 40} ; [ DW_TAG_namespace ]
!525 = metadata !{i32 786473, metadata !"/data/opt/Xilinx/Vivado/2017.4/lnx64/tools/gcc/lib/gcc/x86_64-unknown-linux-gnu/4.6.3/../../../../include/c++/4.6.3/initializer_list", metadata !"/home/iavendano/pynq-copter/pynqcopter/ip/pidfixed", null} ; [ DW_TAG_file_type ]
!526 = metadata !{metadata !527, metadata !529, metadata !531, metadata !536, metadata !539, metadata !544, metadata !547}
!527 = metadata !{i32 786445, metadata !523, metadata !"_M_array", metadata !525, i32 55, i64 64, i64 64, i64 0, i32 1, metadata !528} ; [ DW_TAG_member ]
!528 = metadata !{i32 786454, metadata !523, metadata !"iterator", metadata !525, i32 51, i64 0, i64 0, i64 0, i32 0, metadata !172} ; [ DW_TAG_typedef ]
!529 = metadata !{i32 786445, metadata !523, metadata !"_M_len", metadata !525, i32 56, i64 64, i64 64, i64 64, i32 1, metadata !530} ; [ DW_TAG_member ]
!530 = metadata !{i32 786454, null, metadata !"size_type", metadata !525, i32 50, i64 0, i64 0, i64 0, i32 0, metadata !139} ; [ DW_TAG_typedef ]
!531 = metadata !{i32 786478, i32 0, metadata !523, metadata !"initializer_list", metadata !"initializer_list", metadata !"", metadata !525, i32 59, metadata !532, i1 false, i1 false, i32 0, i32 0, null, i32 257, i1 false, null, null, i32 0, metadata !89, i32 59} ; [ DW_TAG_subprogram ]
!532 = metadata !{i32 786453, i32 0, metadata !"", i32 0, i32 0, i64 0, i64 0, i64 0, i32 0, null, metadata !533, i32 0, i32 0} ; [ DW_TAG_subroutine_type ]
!533 = metadata !{null, metadata !534, metadata !535, metadata !530}
!534 = metadata !{i32 786447, i32 0, metadata !"", i32 0, i32 0, i64 64, i64 64, i64 0, i32 64, metadata !523} ; [ DW_TAG_pointer_type ]
!535 = metadata !{i32 786454, metadata !523, metadata !"const_iterator", metadata !525, i32 52, i64 0, i64 0, i64 0, i32 0, metadata !172} ; [ DW_TAG_typedef ]
!536 = metadata !{i32 786478, i32 0, metadata !523, metadata !"initializer_list", metadata !"initializer_list", metadata !"", metadata !525, i32 63, metadata !537, i1 false, i1 false, i32 0, i32 0, null, i32 256, i1 false, null, null, i32 0, metadata !89, i32 63} ; [ DW_TAG_subprogram ]
!537 = metadata !{i32 786453, i32 0, metadata !"", i32 0, i32 0, i64 0, i64 0, i64 0, i32 0, null, metadata !538, i32 0, i32 0} ; [ DW_TAG_subroutine_type ]
!538 = metadata !{null, metadata !534}
!539 = metadata !{i32 786478, i32 0, metadata !523, metadata !"size", metadata !"size", metadata !"_ZNKSt16initializer_listIcE4sizeEv", metadata !525, i32 67, metadata !540, i1 false, i1 false, i32 0, i32 0, null, i32 256, i1 false, null, null, i32 0, metadata !89, i32 67} ; [ DW_TAG_subprogram ]
!540 = metadata !{i32 786453, i32 0, metadata !"", i32 0, i32 0, i64 0, i64 0, i64 0, i32 0, null, metadata !541, i32 0, i32 0} ; [ DW_TAG_subroutine_type ]
!541 = metadata !{metadata !530, metadata !542}
!542 = metadata !{i32 786447, i32 0, metadata !"", i32 0, i32 0, i64 64, i64 64, i64 0, i32 64, metadata !543} ; [ DW_TAG_pointer_type ]
!543 = metadata !{i32 786470, null, metadata !"", null, i32 0, i64 0, i64 0, i64 0, i32 0, metadata !523} ; [ DW_TAG_const_type ]
!544 = metadata !{i32 786478, i32 0, metadata !523, metadata !"begin", metadata !"begin", metadata !"_ZNKSt16initializer_listIcE5beginEv", metadata !525, i32 71, metadata !545, i1 false, i1 false, i32 0, i32 0, null, i32 256, i1 false, null, null, i32 0, metadata !89, i32 71} ; [ DW_TAG_subprogram ]
!545 = metadata !{i32 786453, i32 0, metadata !"", i32 0, i32 0, i64 0, i64 0, i64 0, i32 0, null, metadata !546, i32 0, i32 0} ; [ DW_TAG_subroutine_type ]
!546 = metadata !{metadata !535, metadata !542}
!547 = metadata !{i32 786478, i32 0, metadata !523, metadata !"end", metadata !"end", metadata !"_ZNKSt16initializer_listIcE3endEv", metadata !525, i32 75, metadata !545, i1 false, i1 false, i32 0, i32 0, null, i32 256, i1 false, null, null, i32 0, metadata !89, i32 75} ; [ DW_TAG_subprogram ]
!548 = metadata !{metadata !549}
!549 = metadata !{i32 786479, null, metadata !"_E", metadata !174, null, i32 0, i32 0} ; [ DW_TAG_template_type_parameter ]
!550 = metadata !{i32 786478, i32 0, metadata !308, metadata !"~basic_string", metadata !"~basic_string", metadata !"", metadata !312, i32 532, metadata !450, i1 false, i1 false, i32 0, i32 0, null, i32 256, i1 false, null, null, i32 0, metadata !89, i32 532} ; [ DW_TAG_subprogram ]
!551 = metadata !{i32 786478, i32 0, metadata !308, metadata !"operator=", metadata !"operator=", metadata !"_ZNSsaSERKSs", metadata !312, i32 540, metadata !552, i1 false, i1 false, i32 0, i32 0, null, i32 256, i1 false, null, null, i32 0, metadata !89, i32 540} ; [ DW_TAG_subprogram ]
!552 = metadata !{i32 786453, i32 0, metadata !"", i32 0, i32 0, i64 0, i64 0, i64 0, i32 0, null, metadata !553, i32 0, i32 0} ; [ DW_TAG_subroutine_type ]
!553 = metadata !{metadata !554, metadata !392, metadata !500}
!554 = metadata !{i32 786448, null, null, null, i32 0, i64 0, i64 0, i64 0, i32 0, metadata !308} ; [ DW_TAG_reference_type ]
!555 = metadata !{i32 786478, i32 0, metadata !308, metadata !"operator=", metadata !"operator=", metadata !"_ZNSsaSEPKc", metadata !312, i32 548, metadata !556, i1 false, i1 false, i32 0, i32 0, null, i32 256, i1 false, null, null, i32 0, metadata !89, i32 548} ; [ DW_TAG_subprogram ]
!556 = metadata !{i32 786453, i32 0, metadata !"", i32 0, i32 0, i64 0, i64 0, i64 0, i32 0, null, metadata !557, i32 0, i32 0} ; [ DW_TAG_subroutine_type ]
!557 = metadata !{metadata !554, metadata !392, metadata !172}
!558 = metadata !{i32 786478, i32 0, metadata !308, metadata !"operator=", metadata !"operator=", metadata !"_ZNSsaSEc", metadata !312, i32 559, metadata !559, i1 false, i1 false, i32 0, i32 0, null, i32 256, i1 false, null, null, i32 0, metadata !89, i32 559} ; [ DW_TAG_subprogram ]
!559 = metadata !{i32 786453, i32 0, metadata !"", i32 0, i32 0, i64 0, i64 0, i64 0, i32 0, null, metadata !560, i32 0, i32 0} ; [ DW_TAG_subroutine_type ]
!560 = metadata !{metadata !554, metadata !392, metadata !174}
!561 = metadata !{i32 786478, i32 0, metadata !308, metadata !"operator=", metadata !"operator=", metadata !"_ZNSsaSEOSs", metadata !312, i32 574, metadata !562, i1 false, i1 false, i32 0, i32 0, null, i32 256, i1 false, null, null, i32 0, metadata !89, i32 574} ; [ DW_TAG_subprogram ]
!562 = metadata !{i32 786453, i32 0, metadata !"", i32 0, i32 0, i64 0, i64 0, i64 0, i32 0, null, metadata !563, i32 0, i32 0} ; [ DW_TAG_subroutine_type ]
!563 = metadata !{metadata !554, metadata !392, metadata !519}
!564 = metadata !{i32 786478, i32 0, metadata !308, metadata !"operator=", metadata !"operator=", metadata !"_ZNSsaSESt16initializer_listIcE", metadata !312, i32 586, metadata !565, i1 false, i1 false, i32 0, i32 0, null, i32 256, i1 false, null, null, i32 0, metadata !89, i32 586} ; [ DW_TAG_subprogram ]
!565 = metadata !{i32 786453, i32 0, metadata !"", i32 0, i32 0, i64 0, i64 0, i64 0, i32 0, null, metadata !566, i32 0, i32 0} ; [ DW_TAG_subroutine_type ]
!566 = metadata !{metadata !554, metadata !392, metadata !523}
!567 = metadata !{i32 786478, i32 0, metadata !308, metadata !"begin", metadata !"begin", metadata !"_ZNSs5beginEv", metadata !312, i32 599, metadata !568, i1 false, i1 false, i32 0, i32 0, null, i32 256, i1 false, null, null, i32 0, metadata !89, i32 599} ; [ DW_TAG_subprogram ]
!568 = metadata !{i32 786453, i32 0, metadata !"", i32 0, i32 0, i64 0, i64 0, i64 0, i32 0, null, metadata !569, i32 0, i32 0} ; [ DW_TAG_subroutine_type ]
!569 = metadata !{metadata !445, metadata !392}
!570 = metadata !{i32 786478, i32 0, metadata !308, metadata !"begin", metadata !"begin", metadata !"_ZNKSs5beginEv", metadata !312, i32 610, metadata !571, i1 false, i1 false, i32 0, i32 0, null, i32 256, i1 false, null, null, i32 0, metadata !89, i32 610} ; [ DW_TAG_subprogram ]
!571 = metadata !{i32 786453, i32 0, metadata !"", i32 0, i32 0, i64 0, i64 0, i64 0, i32 0, null, metadata !572, i32 0, i32 0} ; [ DW_TAG_subroutine_type ]
!572 = metadata !{metadata !477, metadata !387}
!573 = metadata !{i32 786478, i32 0, metadata !308, metadata !"end", metadata !"end", metadata !"_ZNSs3endEv", metadata !312, i32 618, metadata !568, i1 false, i1 false, i32 0, i32 0, null, i32 256, i1 false, null, null, i32 0, metadata !89, i32 618} ; [ DW_TAG_subprogram ]
!574 = metadata !{i32 786478, i32 0, metadata !308, metadata !"end", metadata !"end", metadata !"_ZNKSs3endEv", metadata !312, i32 629, metadata !571, i1 false, i1 false, i32 0, i32 0, null, i32 256, i1 false, null, null, i32 0, metadata !89, i32 629} ; [ DW_TAG_subprogram ]
!575 = metadata !{i32 786478, i32 0, metadata !308, metadata !"rbegin", metadata !"rbegin", metadata !"_ZNSs6rbeginEv", metadata !312, i32 638, metadata !576, i1 false, i1 false, i32 0, i32 0, null, i32 256, i1 false, null, null, i32 0, metadata !89, i32 638} ; [ DW_TAG_subprogram ]
!576 = metadata !{i32 786453, i32 0, metadata !"", i32 0, i32 0, i64 0, i64 0, i64 0, i32 0, null, metadata !577, i32 0, i32 0} ; [ DW_TAG_subroutine_type ]
!577 = metadata !{metadata !578, metadata !392}
!578 = metadata !{i32 786454, metadata !308, metadata !"reverse_iterator", metadata !309, i32 125, i64 0, i64 0, i64 0, i32 0, metadata !579} ; [ DW_TAG_typedef ]
!579 = metadata !{i32 786434, null, metadata !"reverse_iterator<__gnu_cxx::__normal_iterator<char *, std::basic_string<char> > >", metadata !447, i32 97, i32 0, i32 0, i32 0, i32 4, null, null, i32 0} ; [ DW_TAG_class_type ]
!580 = metadata !{i32 786478, i32 0, metadata !308, metadata !"rbegin", metadata !"rbegin", metadata !"_ZNKSs6rbeginEv", metadata !312, i32 647, metadata !581, i1 false, i1 false, i32 0, i32 0, null, i32 256, i1 false, null, null, i32 0, metadata !89, i32 647} ; [ DW_TAG_subprogram ]
!581 = metadata !{i32 786453, i32 0, metadata !"", i32 0, i32 0, i64 0, i64 0, i64 0, i32 0, null, metadata !582, i32 0, i32 0} ; [ DW_TAG_subroutine_type ]
!582 = metadata !{metadata !583, metadata !387}
!583 = metadata !{i32 786454, metadata !308, metadata !"const_reverse_iterator", metadata !309, i32 124, i64 0, i64 0, i64 0, i32 0, metadata !584} ; [ DW_TAG_typedef ]
!584 = metadata !{i32 786434, null, metadata !"reverse_iterator<__gnu_cxx::__normal_iterator<const char *, std::basic_string<char> > >", metadata !447, i32 97, i32 0, i32 0, i32 0, i32 4, null, null, i32 0} ; [ DW_TAG_class_type ]
!585 = metadata !{i32 786478, i32 0, metadata !308, metadata !"rend", metadata !"rend", metadata !"_ZNSs4rendEv", metadata !312, i32 656, metadata !576, i1 false, i1 false, i32 0, i32 0, null, i32 256, i1 false, null, null, i32 0, metadata !89, i32 656} ; [ DW_TAG_subprogram ]
!586 = metadata !{i32 786478, i32 0, metadata !308, metadata !"rend", metadata !"rend", metadata !"_ZNKSs4rendEv", metadata !312, i32 665, metadata !581, i1 false, i1 false, i32 0, i32 0, null, i32 256, i1 false, null, null, i32 0, metadata !89, i32 665} ; [ DW_TAG_subprogram ]
!587 = metadata !{i32 786478, i32 0, metadata !308, metadata !"cbegin", metadata !"cbegin", metadata !"_ZNKSs6cbeginEv", metadata !312, i32 674, metadata !571, i1 false, i1 false, i32 0, i32 0, null, i32 256, i1 false, null, null, i32 0, metadata !89, i32 674} ; [ DW_TAG_subprogram ]
!588 = metadata !{i32 786478, i32 0, metadata !308, metadata !"cend", metadata !"cend", metadata !"_ZNKSs4cendEv", metadata !312, i32 682, metadata !571, i1 false, i1 false, i32 0, i32 0, null, i32 256, i1 false, null, null, i32 0, metadata !89, i32 682} ; [ DW_TAG_subprogram ]
!589 = metadata !{i32 786478, i32 0, metadata !308, metadata !"crbegin", metadata !"crbegin", metadata !"_ZNKSs7crbeginEv", metadata !312, i32 691, metadata !581, i1 false, i1 false, i32 0, i32 0, null, i32 256, i1 false, null, null, i32 0, metadata !89, i32 691} ; [ DW_TAG_subprogram ]
!590 = metadata !{i32 786478, i32 0, metadata !308, metadata !"crend", metadata !"crend", metadata !"_ZNKSs5crendEv", metadata !312, i32 700, metadata !581, i1 false, i1 false, i32 0, i32 0, null, i32 256, i1 false, null, null, i32 0, metadata !89, i32 700} ; [ DW_TAG_subprogram ]
!591 = metadata !{i32 786478, i32 0, metadata !308, metadata !"size", metadata !"size", metadata !"_ZNKSs4sizeEv", metadata !312, i32 709, metadata !592, i1 false, i1 false, i32 0, i32 0, null, i32 256, i1 false, null, null, i32 0, metadata !89, i32 709} ; [ DW_TAG_subprogram ]
!592 = metadata !{i32 786453, i32 0, metadata !"", i32 0, i32 0, i64 0, i64 0, i64 0, i32 0, null, metadata !593, i32 0, i32 0} ; [ DW_TAG_subroutine_type ]
!593 = metadata !{metadata !403, metadata !387}
!594 = metadata !{i32 786478, i32 0, metadata !308, metadata !"length", metadata !"length", metadata !"_ZNKSs6lengthEv", metadata !312, i32 715, metadata !592, i1 false, i1 false, i32 0, i32 0, null, i32 256, i1 false, null, null, i32 0, metadata !89, i32 715} ; [ DW_TAG_subprogram ]
!595 = metadata !{i32 786478, i32 0, metadata !308, metadata !"max_size", metadata !"max_size", metadata !"_ZNKSs8max_sizeEv", metadata !312, i32 720, metadata !592, i1 false, i1 false, i32 0, i32 0, null, i32 256, i1 false, null, null, i32 0, metadata !89, i32 720} ; [ DW_TAG_subprogram ]
!596 = metadata !{i32 786478, i32 0, metadata !308, metadata !"resize", metadata !"resize", metadata !"_ZNSs6resizeEmc", metadata !312, i32 734, metadata !597, i1 false, i1 false, i32 0, i32 0, null, i32 256, i1 false, null, null, i32 0, metadata !89, i32 734} ; [ DW_TAG_subprogram ]
!597 = metadata !{i32 786453, i32 0, metadata !"", i32 0, i32 0, i64 0, i64 0, i64 0, i32 0, null, metadata !598, i32 0, i32 0} ; [ DW_TAG_subroutine_type ]
!598 = metadata !{null, metadata !392, metadata !403, metadata !174}
!599 = metadata !{i32 786478, i32 0, metadata !308, metadata !"resize", metadata !"resize", metadata !"_ZNSs6resizeEm", metadata !312, i32 747, metadata !600, i1 false, i1 false, i32 0, i32 0, null, i32 256, i1 false, null, null, i32 0, metadata !89, i32 747} ; [ DW_TAG_subprogram ]
!600 = metadata !{i32 786453, i32 0, metadata !"", i32 0, i32 0, i64 0, i64 0, i64 0, i32 0, null, metadata !601, i32 0, i32 0} ; [ DW_TAG_subroutine_type ]
!601 = metadata !{null, metadata !392, metadata !403}
!602 = metadata !{i32 786478, i32 0, metadata !308, metadata !"shrink_to_fit", metadata !"shrink_to_fit", metadata !"_ZNSs13shrink_to_fitEv", metadata !312, i32 753, metadata !450, i1 false, i1 false, i32 0, i32 0, null, i32 256, i1 false, null, null, i32 0, metadata !89, i32 753} ; [ DW_TAG_subprogram ]
!603 = metadata !{i32 786478, i32 0, metadata !308, metadata !"capacity", metadata !"capacity", metadata !"_ZNKSs8capacityEv", metadata !312, i32 767, metadata !592, i1 false, i1 false, i32 0, i32 0, null, i32 256, i1 false, null, null, i32 0, metadata !89, i32 767} ; [ DW_TAG_subprogram ]
!604 = metadata !{i32 786478, i32 0, metadata !308, metadata !"reserve", metadata !"reserve", metadata !"_ZNSs7reserveEm", metadata !312, i32 788, metadata !600, i1 false, i1 false, i32 0, i32 0, null, i32 256, i1 false, null, null, i32 0, metadata !89, i32 788} ; [ DW_TAG_subprogram ]
!605 = metadata !{i32 786478, i32 0, metadata !308, metadata !"clear", metadata !"clear", metadata !"_ZNSs5clearEv", metadata !312, i32 794, metadata !450, i1 false, i1 false, i32 0, i32 0, null, i32 256, i1 false, null, null, i32 0, metadata !89, i32 794} ; [ DW_TAG_subprogram ]
!606 = metadata !{i32 786478, i32 0, metadata !308, metadata !"empty", metadata !"empty", metadata !"_ZNKSs5emptyEv", metadata !312, i32 802, metadata !607, i1 false, i1 false, i32 0, i32 0, null, i32 256, i1 false, null, null, i32 0, metadata !89, i32 802} ; [ DW_TAG_subprogram ]
!607 = metadata !{i32 786453, i32 0, metadata !"", i32 0, i32 0, i64 0, i64 0, i64 0, i32 0, null, metadata !608, i32 0, i32 0} ; [ DW_TAG_subroutine_type ]
!608 = metadata !{metadata !238, metadata !387}
!609 = metadata !{i32 786478, i32 0, metadata !308, metadata !"operator[]", metadata !"operator[]", metadata !"_ZNKSsixEm", metadata !312, i32 817, metadata !610, i1 false, i1 false, i32 0, i32 0, null, i32 256, i1 false, null, null, i32 0, metadata !89, i32 817} ; [ DW_TAG_subprogram ]
!610 = metadata !{i32 786453, i32 0, metadata !"", i32 0, i32 0, i64 0, i64 0, i64 0, i32 0, null, metadata !611, i32 0, i32 0} ; [ DW_TAG_subroutine_type ]
!611 = metadata !{metadata !612, metadata !387, metadata !403}
!612 = metadata !{i32 786454, metadata !308, metadata !"const_reference", metadata !309, i32 118, i64 0, i64 0, i64 0, i32 0, metadata !613} ; [ DW_TAG_typedef ]
!613 = metadata !{i32 786454, metadata !316, metadata !"const_reference", metadata !309, i32 100, i64 0, i64 0, i64 0, i32 0, metadata !346} ; [ DW_TAG_typedef ]
!614 = metadata !{i32 786478, i32 0, metadata !308, metadata !"operator[]", metadata !"operator[]", metadata !"_ZNSsixEm", metadata !312, i32 834, metadata !615, i1 false, i1 false, i32 0, i32 0, null, i32 256, i1 false, null, null, i32 0, metadata !89, i32 834} ; [ DW_TAG_subprogram ]
!615 = metadata !{i32 786453, i32 0, metadata !"", i32 0, i32 0, i64 0, i64 0, i64 0, i32 0, null, metadata !616, i32 0, i32 0} ; [ DW_TAG_subroutine_type ]
!616 = metadata !{metadata !617, metadata !392, metadata !403}
!617 = metadata !{i32 786454, metadata !308, metadata !"reference", metadata !309, i32 117, i64 0, i64 0, i64 0, i32 0, metadata !618} ; [ DW_TAG_typedef ]
!618 = metadata !{i32 786454, metadata !316, metadata !"reference", metadata !309, i32 99, i64 0, i64 0, i64 0, i32 0, metadata !340} ; [ DW_TAG_typedef ]
!619 = metadata !{i32 786478, i32 0, metadata !308, metadata !"at", metadata !"at", metadata !"_ZNKSs2atEm", metadata !312, i32 855, metadata !610, i1 false, i1 false, i32 0, i32 0, null, i32 256, i1 false, null, null, i32 0, metadata !89, i32 855} ; [ DW_TAG_subprogram ]
!620 = metadata !{i32 786478, i32 0, metadata !308, metadata !"front", metadata !"front", metadata !"_ZNSs5frontEv", metadata !312, i32 868, metadata !621, i1 false, i1 false, i32 0, i32 0, null, i32 256, i1 false, null, null, i32 0, metadata !89, i32 868} ; [ DW_TAG_subprogram ]
!621 = metadata !{i32 786453, i32 0, metadata !"", i32 0, i32 0, i64 0, i64 0, i64 0, i32 0, null, metadata !622, i32 0, i32 0} ; [ DW_TAG_subroutine_type ]
!622 = metadata !{metadata !617, metadata !392}
!623 = metadata !{i32 786478, i32 0, metadata !308, metadata !"front", metadata !"front", metadata !"_ZNKSs5frontEv", metadata !312, i32 876, metadata !624, i1 false, i1 false, i32 0, i32 0, null, i32 256, i1 false, null, null, i32 0, metadata !89, i32 876} ; [ DW_TAG_subprogram ]
!624 = metadata !{i32 786453, i32 0, metadata !"", i32 0, i32 0, i64 0, i64 0, i64 0, i32 0, null, metadata !625, i32 0, i32 0} ; [ DW_TAG_subroutine_type ]
!625 = metadata !{metadata !612, metadata !387}
!626 = metadata !{i32 786478, i32 0, metadata !308, metadata !"back", metadata !"back", metadata !"_ZNSs4backEv", metadata !312, i32 884, metadata !621, i1 false, i1 false, i32 0, i32 0, null, i32 256, i1 false, null, null, i32 0, metadata !89, i32 884} ; [ DW_TAG_subprogram ]
!627 = metadata !{i32 786478, i32 0, metadata !308, metadata !"back", metadata !"back", metadata !"_ZNKSs4backEv", metadata !312, i32 892, metadata !624, i1 false, i1 false, i32 0, i32 0, null, i32 256, i1 false, null, null, i32 0, metadata !89, i32 892} ; [ DW_TAG_subprogram ]
!628 = metadata !{i32 786478, i32 0, metadata !308, metadata !"at", metadata !"at", metadata !"_ZNSs2atEm", metadata !312, i32 908, metadata !615, i1 false, i1 false, i32 0, i32 0, null, i32 256, i1 false, null, null, i32 0, metadata !89, i32 908} ; [ DW_TAG_subprogram ]
!629 = metadata !{i32 786478, i32 0, metadata !308, metadata !"operator+=", metadata !"operator+=", metadata !"_ZNSspLERKSs", metadata !312, i32 923, metadata !552, i1 false, i1 false, i32 0, i32 0, null, i32 256, i1 false, null, null, i32 0, metadata !89, i32 923} ; [ DW_TAG_subprogram ]
!630 = metadata !{i32 786478, i32 0, metadata !308, metadata !"operator+=", metadata !"operator+=", metadata !"_ZNSspLEPKc", metadata !312, i32 932, metadata !556, i1 false, i1 false, i32 0, i32 0, null, i32 256, i1 false, null, null, i32 0, metadata !89, i32 932} ; [ DW_TAG_subprogram ]
!631 = metadata !{i32 786478, i32 0, metadata !308, metadata !"operator+=", metadata !"operator+=", metadata !"_ZNSspLEc", metadata !312, i32 941, metadata !559, i1 false, i1 false, i32 0, i32 0, null, i32 256, i1 false, null, null, i32 0, metadata !89, i32 941} ; [ DW_TAG_subprogram ]
!632 = metadata !{i32 786478, i32 0, metadata !308, metadata !"operator+=", metadata !"operator+=", metadata !"_ZNSspLESt16initializer_listIcE", metadata !312, i32 954, metadata !565, i1 false, i1 false, i32 0, i32 0, null, i32 256, i1 false, null, null, i32 0, metadata !89, i32 954} ; [ DW_TAG_subprogram ]
!633 = metadata !{i32 786478, i32 0, metadata !308, metadata !"append", metadata !"append", metadata !"_ZNSs6appendERKSs", metadata !312, i32 964, metadata !552, i1 false, i1 false, i32 0, i32 0, null, i32 256, i1 false, null, null, i32 0, metadata !89, i32 964} ; [ DW_TAG_subprogram ]
!634 = metadata !{i32 786478, i32 0, metadata !308, metadata !"append", metadata !"append", metadata !"_ZNSs6appendERKSsmm", metadata !312, i32 979, metadata !635, i1 false, i1 false, i32 0, i32 0, null, i32 256, i1 false, null, null, i32 0, metadata !89, i32 979} ; [ DW_TAG_subprogram ]
!635 = metadata !{i32 786453, i32 0, metadata !"", i32 0, i32 0, i64 0, i64 0, i64 0, i32 0, null, metadata !636, i32 0, i32 0} ; [ DW_TAG_subroutine_type ]
!636 = metadata !{metadata !554, metadata !392, metadata !500, metadata !403, metadata !403}
!637 = metadata !{i32 786478, i32 0, metadata !308, metadata !"append", metadata !"append", metadata !"_ZNSs6appendEPKcm", metadata !312, i32 988, metadata !638, i1 false, i1 false, i32 0, i32 0, null, i32 256, i1 false, null, null, i32 0, metadata !89, i32 988} ; [ DW_TAG_subprogram ]
!638 = metadata !{i32 786453, i32 0, metadata !"", i32 0, i32 0, i64 0, i64 0, i64 0, i32 0, null, metadata !639, i32 0, i32 0} ; [ DW_TAG_subroutine_type ]
!639 = metadata !{metadata !554, metadata !392, metadata !172, metadata !403}
!640 = metadata !{i32 786478, i32 0, metadata !308, metadata !"append", metadata !"append", metadata !"_ZNSs6appendEPKc", metadata !312, i32 996, metadata !556, i1 false, i1 false, i32 0, i32 0, null, i32 256, i1 false, null, null, i32 0, metadata !89, i32 996} ; [ DW_TAG_subprogram ]
!641 = metadata !{i32 786478, i32 0, metadata !308, metadata !"append", metadata !"append", metadata !"_ZNSs6appendEmc", metadata !312, i32 1011, metadata !642, i1 false, i1 false, i32 0, i32 0, null, i32 256, i1 false, null, null, i32 0, metadata !89, i32 1011} ; [ DW_TAG_subprogram ]
!642 = metadata !{i32 786453, i32 0, metadata !"", i32 0, i32 0, i64 0, i64 0, i64 0, i32 0, null, metadata !643, i32 0, i32 0} ; [ DW_TAG_subroutine_type ]
!643 = metadata !{metadata !554, metadata !392, metadata !403, metadata !174}
!644 = metadata !{i32 786478, i32 0, metadata !308, metadata !"append", metadata !"append", metadata !"_ZNSs6appendESt16initializer_listIcE", metadata !312, i32 1020, metadata !565, i1 false, i1 false, i32 0, i32 0, null, i32 256, i1 false, null, null, i32 0, metadata !89, i32 1020} ; [ DW_TAG_subprogram ]
!645 = metadata !{i32 786478, i32 0, metadata !308, metadata !"push_back", metadata !"push_back", metadata !"_ZNSs9push_backEc", metadata !312, i32 1042, metadata !646, i1 false, i1 false, i32 0, i32 0, null, i32 256, i1 false, null, null, i32 0, metadata !89, i32 1042} ; [ DW_TAG_subprogram ]
!646 = metadata !{i32 786453, i32 0, metadata !"", i32 0, i32 0, i64 0, i64 0, i64 0, i32 0, null, metadata !647, i32 0, i32 0} ; [ DW_TAG_subroutine_type ]
!647 = metadata !{null, metadata !392, metadata !174}
!648 = metadata !{i32 786478, i32 0, metadata !308, metadata !"assign", metadata !"assign", metadata !"_ZNSs6assignERKSs", metadata !312, i32 1057, metadata !552, i1 false, i1 false, i32 0, i32 0, null, i32 256, i1 false, null, null, i32 0, metadata !89, i32 1057} ; [ DW_TAG_subprogram ]
!649 = metadata !{i32 786478, i32 0, metadata !308, metadata !"assign", metadata !"assign", metadata !"_ZNSs6assignEOSs", metadata !312, i32 1069, metadata !562, i1 false, i1 false, i32 0, i32 0, null, i32 256, i1 false, null, null, i32 0, metadata !89, i32 1069} ; [ DW_TAG_subprogram ]
!650 = metadata !{i32 786478, i32 0, metadata !308, metadata !"assign", metadata !"assign", metadata !"_ZNSs6assignERKSsmm", metadata !312, i32 1089, metadata !635, i1 false, i1 false, i32 0, i32 0, null, i32 256, i1 false, null, null, i32 0, metadata !89, i32 1089} ; [ DW_TAG_subprogram ]
!651 = metadata !{i32 786478, i32 0, metadata !308, metadata !"assign", metadata !"assign", metadata !"_ZNSs6assignEPKcm", metadata !312, i32 1105, metadata !638, i1 false, i1 false, i32 0, i32 0, null, i32 256, i1 false, null, null, i32 0, metadata !89, i32 1105} ; [ DW_TAG_subprogram ]
!652 = metadata !{i32 786478, i32 0, metadata !308, metadata !"assign", metadata !"assign", metadata !"_ZNSs6assignEPKc", metadata !312, i32 1117, metadata !556, i1 false, i1 false, i32 0, i32 0, null, i32 256, i1 false, null, null, i32 0, metadata !89, i32 1117} ; [ DW_TAG_subprogram ]
!653 = metadata !{i32 786478, i32 0, metadata !308, metadata !"assign", metadata !"assign", metadata !"_ZNSs6assignEmc", metadata !312, i32 1133, metadata !642, i1 false, i1 false, i32 0, i32 0, null, i32 256, i1 false, null, null, i32 0, metadata !89, i32 1133} ; [ DW_TAG_subprogram ]
!654 = metadata !{i32 786478, i32 0, metadata !308, metadata !"assign", metadata !"assign", metadata !"_ZNSs6assignESt16initializer_listIcE", metadata !312, i32 1156, metadata !565, i1 false, i1 false, i32 0, i32 0, null, i32 256, i1 false, null, null, i32 0, metadata !89, i32 1156} ; [ DW_TAG_subprogram ]
!655 = metadata !{i32 786478, i32 0, metadata !308, metadata !"insert", metadata !"insert", metadata !"_ZNSs6insertEN9__gnu_cxx17__normal_iteratorIPcSsEEmc", metadata !312, i32 1173, metadata !656, i1 false, i1 false, i32 0, i32 0, null, i32 256, i1 false, null, null, i32 0, metadata !89, i32 1173} ; [ DW_TAG_subprogram ]
!656 = metadata !{i32 786453, i32 0, metadata !"", i32 0, i32 0, i64 0, i64 0, i64 0, i32 0, null, metadata !657, i32 0, i32 0} ; [ DW_TAG_subroutine_type ]
!657 = metadata !{null, metadata !392, metadata !445, metadata !403, metadata !174}
!658 = metadata !{i32 786478, i32 0, metadata !308, metadata !"insert", metadata !"insert", metadata !"_ZNSs6insertEN9__gnu_cxx17__normal_iteratorIPcSsEESt16initializer_listIcE", metadata !312, i32 1200, metadata !659, i1 false, i1 false, i32 0, i32 0, null, i32 256, i1 false, null, null, i32 0, metadata !89, i32 1200} ; [ DW_TAG_subprogram ]
!659 = metadata !{i32 786453, i32 0, metadata !"", i32 0, i32 0, i64 0, i64 0, i64 0, i32 0, null, metadata !660, i32 0, i32 0} ; [ DW_TAG_subroutine_type ]
!660 = metadata !{null, metadata !392, metadata !445, metadata !523}
!661 = metadata !{i32 786478, i32 0, metadata !308, metadata !"insert", metadata !"insert", metadata !"_ZNSs6insertEmRKSs", metadata !312, i32 1219, metadata !662, i1 false, i1 false, i32 0, i32 0, null, i32 256, i1 false, null, null, i32 0, metadata !89, i32 1219} ; [ DW_TAG_subprogram ]
!662 = metadata !{i32 786453, i32 0, metadata !"", i32 0, i32 0, i64 0, i64 0, i64 0, i32 0, null, metadata !663, i32 0, i32 0} ; [ DW_TAG_subroutine_type ]
!663 = metadata !{metadata !554, metadata !392, metadata !403, metadata !500}
!664 = metadata !{i32 786478, i32 0, metadata !308, metadata !"insert", metadata !"insert", metadata !"_ZNSs6insertEmRKSsmm", metadata !312, i32 1241, metadata !665, i1 false, i1 false, i32 0, i32 0, null, i32 256, i1 false, null, null, i32 0, metadata !89, i32 1241} ; [ DW_TAG_subprogram ]
!665 = metadata !{i32 786453, i32 0, metadata !"", i32 0, i32 0, i64 0, i64 0, i64 0, i32 0, null, metadata !666, i32 0, i32 0} ; [ DW_TAG_subroutine_type ]
!666 = metadata !{metadata !554, metadata !392, metadata !403, metadata !500, metadata !403, metadata !403}
!667 = metadata !{i32 786478, i32 0, metadata !308, metadata !"insert", metadata !"insert", metadata !"_ZNSs6insertEmPKcm", metadata !312, i32 1264, metadata !668, i1 false, i1 false, i32 0, i32 0, null, i32 256, i1 false, null, null, i32 0, metadata !89, i32 1264} ; [ DW_TAG_subprogram ]
!668 = metadata !{i32 786453, i32 0, metadata !"", i32 0, i32 0, i64 0, i64 0, i64 0, i32 0, null, metadata !669, i32 0, i32 0} ; [ DW_TAG_subroutine_type ]
!669 = metadata !{metadata !554, metadata !392, metadata !403, metadata !172, metadata !403}
!670 = metadata !{i32 786478, i32 0, metadata !308, metadata !"insert", metadata !"insert", metadata !"_ZNSs6insertEmPKc", metadata !312, i32 1282, metadata !671, i1 false, i1 false, i32 0, i32 0, null, i32 256, i1 false, null, null, i32 0, metadata !89, i32 1282} ; [ DW_TAG_subprogram ]
!671 = metadata !{i32 786453, i32 0, metadata !"", i32 0, i32 0, i64 0, i64 0, i64 0, i32 0, null, metadata !672, i32 0, i32 0} ; [ DW_TAG_subroutine_type ]
!672 = metadata !{metadata !554, metadata !392, metadata !403, metadata !172}
!673 = metadata !{i32 786478, i32 0, metadata !308, metadata !"insert", metadata !"insert", metadata !"_ZNSs6insertEmmc", metadata !312, i32 1305, metadata !674, i1 false, i1 false, i32 0, i32 0, null, i32 256, i1 false, null, null, i32 0, metadata !89, i32 1305} ; [ DW_TAG_subprogram ]
!674 = metadata !{i32 786453, i32 0, metadata !"", i32 0, i32 0, i64 0, i64 0, i64 0, i32 0, null, metadata !675, i32 0, i32 0} ; [ DW_TAG_subroutine_type ]
!675 = metadata !{metadata !554, metadata !392, metadata !403, metadata !403, metadata !174}
!676 = metadata !{i32 786478, i32 0, metadata !308, metadata !"insert", metadata !"insert", metadata !"_ZNSs6insertEN9__gnu_cxx17__normal_iteratorIPcSsEEc", metadata !312, i32 1322, metadata !677, i1 false, i1 false, i32 0, i32 0, null, i32 256, i1 false, null, null, i32 0, metadata !89, i32 1322} ; [ DW_TAG_subprogram ]
!677 = metadata !{i32 786453, i32 0, metadata !"", i32 0, i32 0, i64 0, i64 0, i64 0, i32 0, null, metadata !678, i32 0, i32 0} ; [ DW_TAG_subroutine_type ]
!678 = metadata !{metadata !445, metadata !392, metadata !445, metadata !174}
!679 = metadata !{i32 786478, i32 0, metadata !308, metadata !"erase", metadata !"erase", metadata !"_ZNSs5eraseEmm", metadata !312, i32 1346, metadata !680, i1 false, i1 false, i32 0, i32 0, null, i32 256, i1 false, null, null, i32 0, metadata !89, i32 1346} ; [ DW_TAG_subprogram ]
!680 = metadata !{i32 786453, i32 0, metadata !"", i32 0, i32 0, i64 0, i64 0, i64 0, i32 0, null, metadata !681, i32 0, i32 0} ; [ DW_TAG_subroutine_type ]
!681 = metadata !{metadata !554, metadata !392, metadata !403, metadata !403}
!682 = metadata !{i32 786478, i32 0, metadata !308, metadata !"erase", metadata !"erase", metadata !"_ZNSs5eraseEN9__gnu_cxx17__normal_iteratorIPcSsEE", metadata !312, i32 1362, metadata !683, i1 false, i1 false, i32 0, i32 0, null, i32 256, i1 false, null, null, i32 0, metadata !89, i32 1362} ; [ DW_TAG_subprogram ]
!683 = metadata !{i32 786453, i32 0, metadata !"", i32 0, i32 0, i64 0, i64 0, i64 0, i32 0, null, metadata !684, i32 0, i32 0} ; [ DW_TAG_subroutine_type ]
!684 = metadata !{metadata !445, metadata !392, metadata !445}
!685 = metadata !{i32 786478, i32 0, metadata !308, metadata !"erase", metadata !"erase", metadata !"_ZNSs5eraseEN9__gnu_cxx17__normal_iteratorIPcSsEES2_", metadata !312, i32 1382, metadata !686, i1 false, i1 false, i32 0, i32 0, null, i32 256, i1 false, null, null, i32 0, metadata !89, i32 1382} ; [ DW_TAG_subprogram ]
!686 = metadata !{i32 786453, i32 0, metadata !"", i32 0, i32 0, i64 0, i64 0, i64 0, i32 0, null, metadata !687, i32 0, i32 0} ; [ DW_TAG_subroutine_type ]
!687 = metadata !{metadata !445, metadata !392, metadata !445, metadata !445}
!688 = metadata !{i32 786478, i32 0, metadata !308, metadata !"replace", metadata !"replace", metadata !"_ZNSs7replaceEmmRKSs", metadata !312, i32 1401, metadata !689, i1 false, i1 false, i32 0, i32 0, null, i32 256, i1 false, null, null, i32 0, metadata !89, i32 1401} ; [ DW_TAG_subprogram ]
!689 = metadata !{i32 786453, i32 0, metadata !"", i32 0, i32 0, i64 0, i64 0, i64 0, i32 0, null, metadata !690, i32 0, i32 0} ; [ DW_TAG_subroutine_type ]
!690 = metadata !{metadata !554, metadata !392, metadata !403, metadata !403, metadata !500}
!691 = metadata !{i32 786478, i32 0, metadata !308, metadata !"replace", metadata !"replace", metadata !"_ZNSs7replaceEmmRKSsmm", metadata !312, i32 1423, metadata !692, i1 false, i1 false, i32 0, i32 0, null, i32 256, i1 false, null, null, i32 0, metadata !89, i32 1423} ; [ DW_TAG_subprogram ]
!692 = metadata !{i32 786453, i32 0, metadata !"", i32 0, i32 0, i64 0, i64 0, i64 0, i32 0, null, metadata !693, i32 0, i32 0} ; [ DW_TAG_subroutine_type ]
!693 = metadata !{metadata !554, metadata !392, metadata !403, metadata !403, metadata !500, metadata !403, metadata !403}
!694 = metadata !{i32 786478, i32 0, metadata !308, metadata !"replace", metadata !"replace", metadata !"_ZNSs7replaceEmmPKcm", metadata !312, i32 1447, metadata !695, i1 false, i1 false, i32 0, i32 0, null, i32 256, i1 false, null, null, i32 0, metadata !89, i32 1447} ; [ DW_TAG_subprogram ]
!695 = metadata !{i32 786453, i32 0, metadata !"", i32 0, i32 0, i64 0, i64 0, i64 0, i32 0, null, metadata !696, i32 0, i32 0} ; [ DW_TAG_subroutine_type ]
!696 = metadata !{metadata !554, metadata !392, metadata !403, metadata !403, metadata !172, metadata !403}
!697 = metadata !{i32 786478, i32 0, metadata !308, metadata !"replace", metadata !"replace", metadata !"_ZNSs7replaceEmmPKc", metadata !312, i32 1466, metadata !698, i1 false, i1 false, i32 0, i32 0, null, i32 256, i1 false, null, null, i32 0, metadata !89, i32 1466} ; [ DW_TAG_subprogram ]
!698 = metadata !{i32 786453, i32 0, metadata !"", i32 0, i32 0, i64 0, i64 0, i64 0, i32 0, null, metadata !699, i32 0, i32 0} ; [ DW_TAG_subroutine_type ]
!699 = metadata !{metadata !554, metadata !392, metadata !403, metadata !403, metadata !172}
!700 = metadata !{i32 786478, i32 0, metadata !308, metadata !"replace", metadata !"replace", metadata !"_ZNSs7replaceEmmmc", metadata !312, i32 1489, metadata !701, i1 false, i1 false, i32 0, i32 0, null, i32 256, i1 false, null, null, i32 0, metadata !89, i32 1489} ; [ DW_TAG_subprogram ]
!701 = metadata !{i32 786453, i32 0, metadata !"", i32 0, i32 0, i64 0, i64 0, i64 0, i32 0, null, metadata !702, i32 0, i32 0} ; [ DW_TAG_subroutine_type ]
!702 = metadata !{metadata !554, metadata !392, metadata !403, metadata !403, metadata !403, metadata !174}
!703 = metadata !{i32 786478, i32 0, metadata !308, metadata !"replace", metadata !"replace", metadata !"_ZNSs7replaceEN9__gnu_cxx17__normal_iteratorIPcSsEES2_RKSs", metadata !312, i32 1507, metadata !704, i1 false, i1 false, i32 0, i32 0, null, i32 256, i1 false, null, null, i32 0, metadata !89, i32 1507} ; [ DW_TAG_subprogram ]
!704 = metadata !{i32 786453, i32 0, metadata !"", i32 0, i32 0, i64 0, i64 0, i64 0, i32 0, null, metadata !705, i32 0, i32 0} ; [ DW_TAG_subroutine_type ]
!705 = metadata !{metadata !554, metadata !392, metadata !445, metadata !445, metadata !500}
!706 = metadata !{i32 786478, i32 0, metadata !308, metadata !"replace", metadata !"replace", metadata !"_ZNSs7replaceEN9__gnu_cxx17__normal_iteratorIPcSsEES2_PKcm", metadata !312, i32 1525, metadata !707, i1 false, i1 false, i32 0, i32 0, null, i32 256, i1 false, null, null, i32 0, metadata !89, i32 1525} ; [ DW_TAG_subprogram ]
!707 = metadata !{i32 786453, i32 0, metadata !"", i32 0, i32 0, i64 0, i64 0, i64 0, i32 0, null, metadata !708, i32 0, i32 0} ; [ DW_TAG_subroutine_type ]
!708 = metadata !{metadata !554, metadata !392, metadata !445, metadata !445, metadata !172, metadata !403}
!709 = metadata !{i32 786478, i32 0, metadata !308, metadata !"replace", metadata !"replace", metadata !"_ZNSs7replaceEN9__gnu_cxx17__normal_iteratorIPcSsEES2_PKc", metadata !312, i32 1546, metadata !710, i1 false, i1 false, i32 0, i32 0, null, i32 256, i1 false, null, null, i32 0, metadata !89, i32 1546} ; [ DW_TAG_subprogram ]
!710 = metadata !{i32 786453, i32 0, metadata !"", i32 0, i32 0, i64 0, i64 0, i64 0, i32 0, null, metadata !711, i32 0, i32 0} ; [ DW_TAG_subroutine_type ]
!711 = metadata !{metadata !554, metadata !392, metadata !445, metadata !445, metadata !172}
!712 = metadata !{i32 786478, i32 0, metadata !308, metadata !"replace", metadata !"replace", metadata !"_ZNSs7replaceEN9__gnu_cxx17__normal_iteratorIPcSsEES2_mc", metadata !312, i32 1567, metadata !713, i1 false, i1 false, i32 0, i32 0, null, i32 256, i1 false, null, null, i32 0, metadata !89, i32 1567} ; [ DW_TAG_subprogram ]
!713 = metadata !{i32 786453, i32 0, metadata !"", i32 0, i32 0, i64 0, i64 0, i64 0, i32 0, null, metadata !714, i32 0, i32 0} ; [ DW_TAG_subroutine_type ]
!714 = metadata !{metadata !554, metadata !392, metadata !445, metadata !445, metadata !403, metadata !174}
!715 = metadata !{i32 786478, i32 0, metadata !308, metadata !"replace", metadata !"replace", metadata !"_ZNSs7replaceEN9__gnu_cxx17__normal_iteratorIPcSsEES2_S1_S1_", metadata !312, i32 1603, metadata !716, i1 false, i1 false, i32 0, i32 0, null, i32 256, i1 false, null, null, i32 0, metadata !89, i32 1603} ; [ DW_TAG_subprogram ]
!716 = metadata !{i32 786453, i32 0, metadata !"", i32 0, i32 0, i64 0, i64 0, i64 0, i32 0, null, metadata !717, i32 0, i32 0} ; [ DW_TAG_subroutine_type ]
!717 = metadata !{metadata !554, metadata !392, metadata !445, metadata !445, metadata !213, metadata !213}
!718 = metadata !{i32 786478, i32 0, metadata !308, metadata !"replace", metadata !"replace", metadata !"_ZNSs7replaceEN9__gnu_cxx17__normal_iteratorIPcSsEES2_PKcS4_", metadata !312, i32 1613, metadata !719, i1 false, i1 false, i32 0, i32 0, null, i32 256, i1 false, null, null, i32 0, metadata !89, i32 1613} ; [ DW_TAG_subprogram ]
!719 = metadata !{i32 786453, i32 0, metadata !"", i32 0, i32 0, i64 0, i64 0, i64 0, i32 0, null, metadata !720, i32 0, i32 0} ; [ DW_TAG_subroutine_type ]
!720 = metadata !{metadata !554, metadata !392, metadata !445, metadata !445, metadata !172, metadata !172}
!721 = metadata !{i32 786478, i32 0, metadata !308, metadata !"replace", metadata !"replace", metadata !"_ZNSs7replaceEN9__gnu_cxx17__normal_iteratorIPcSsEES2_S2_S2_", metadata !312, i32 1624, metadata !722, i1 false, i1 false, i32 0, i32 0, null, i32 256, i1 false, null, null, i32 0, metadata !89, i32 1624} ; [ DW_TAG_subprogram ]
!722 = metadata !{i32 786453, i32 0, metadata !"", i32 0, i32 0, i64 0, i64 0, i64 0, i32 0, null, metadata !723, i32 0, i32 0} ; [ DW_TAG_subroutine_type ]
!723 = metadata !{metadata !554, metadata !392, metadata !445, metadata !445, metadata !445, metadata !445}
!724 = metadata !{i32 786478, i32 0, metadata !308, metadata !"replace", metadata !"replace", metadata !"_ZNSs7replaceEN9__gnu_cxx17__normal_iteratorIPcSsEES2_NS0_IPKcSsEES5_", metadata !312, i32 1634, metadata !725, i1 false, i1 false, i32 0, i32 0, null, i32 256, i1 false, null, null, i32 0, metadata !89, i32 1634} ; [ DW_TAG_subprogram ]
!725 = metadata !{i32 786453, i32 0, metadata !"", i32 0, i32 0, i64 0, i64 0, i64 0, i32 0, null, metadata !726, i32 0, i32 0} ; [ DW_TAG_subroutine_type ]
!726 = metadata !{metadata !554, metadata !392, metadata !445, metadata !445, metadata !477, metadata !477}
!727 = metadata !{i32 786478, i32 0, metadata !308, metadata !"replace", metadata !"replace", metadata !"_ZNSs7replaceEN9__gnu_cxx17__normal_iteratorIPcSsEES2_St16initializer_listIcE", metadata !312, i32 1658, metadata !728, i1 false, i1 false, i32 0, i32 0, null, i32 256, i1 false, null, null, i32 0, metadata !89, i32 1658} ; [ DW_TAG_subprogram ]
!728 = metadata !{i32 786453, i32 0, metadata !"", i32 0, i32 0, i64 0, i64 0, i64 0, i32 0, null, metadata !729, i32 0, i32 0} ; [ DW_TAG_subroutine_type ]
!729 = metadata !{metadata !554, metadata !392, metadata !445, metadata !445, metadata !523}
!730 = metadata !{i32 786478, i32 0, metadata !308, metadata !"_M_replace_aux", metadata !"_M_replace_aux", metadata !"_ZNSs14_M_replace_auxEmmmc", metadata !312, i32 1676, metadata !701, i1 false, i1 false, i32 0, i32 0, null, i32 257, i1 false, null, null, i32 0, metadata !89, i32 1676} ; [ DW_TAG_subprogram ]
!731 = metadata !{i32 786478, i32 0, metadata !308, metadata !"_M_replace_safe", metadata !"_M_replace_safe", metadata !"_ZNSs15_M_replace_safeEmmPKcm", metadata !312, i32 1680, metadata !695, i1 false, i1 false, i32 0, i32 0, null, i32 257, i1 false, null, null, i32 0, metadata !89, i32 1680} ; [ DW_TAG_subprogram ]
!732 = metadata !{i32 786478, i32 0, metadata !308, metadata !"_S_construct_aux_2", metadata !"_S_construct_aux_2", metadata !"_ZNSs18_S_construct_aux_2EmcRKSaIcE", metadata !312, i32 1704, metadata !733, i1 false, i1 false, i32 0, i32 0, null, i32 257, i1 false, null, null, i32 0, metadata !89, i32 1704} ; [ DW_TAG_subprogram ]
!733 = metadata !{i32 786453, i32 0, metadata !"", i32 0, i32 0, i64 0, i64 0, i64 0, i32 0, null, metadata !734, i32 0, i32 0} ; [ DW_TAG_subroutine_type ]
!734 = metadata !{metadata !213, metadata !403, metadata !174, metadata !374}
!735 = metadata !{i32 786478, i32 0, metadata !308, metadata !"_S_construct", metadata !"_S_construct", metadata !"_ZNSs12_S_constructEmcRKSaIcE", metadata !312, i32 1729, metadata !733, i1 false, i1 false, i32 0, i32 0, null, i32 257, i1 false, null, null, i32 0, metadata !89, i32 1729} ; [ DW_TAG_subprogram ]
!736 = metadata !{i32 786478, i32 0, metadata !308, metadata !"copy", metadata !"copy", metadata !"_ZNKSs4copyEPcmm", metadata !312, i32 1745, metadata !737, i1 false, i1 false, i32 0, i32 0, null, i32 256, i1 false, null, null, i32 0, metadata !89, i32 1745} ; [ DW_TAG_subprogram ]
!737 = metadata !{i32 786453, i32 0, metadata !"", i32 0, i32 0, i64 0, i64 0, i64 0, i32 0, null, metadata !738, i32 0, i32 0} ; [ DW_TAG_subroutine_type ]
!738 = metadata !{metadata !403, metadata !387, metadata !213, metadata !403, metadata !403}
!739 = metadata !{i32 786478, i32 0, metadata !308, metadata !"swap", metadata !"swap", metadata !"_ZNSs4swapERSs", metadata !312, i32 1755, metadata !740, i1 false, i1 false, i32 0, i32 0, null, i32 256, i1 false, null, null, i32 0, metadata !89, i32 1755} ; [ DW_TAG_subprogram ]
!740 = metadata !{i32 786453, i32 0, metadata !"", i32 0, i32 0, i64 0, i64 0, i64 0, i32 0, null, metadata !741, i32 0, i32 0} ; [ DW_TAG_subroutine_type ]
!741 = metadata !{null, metadata !392, metadata !554}
!742 = metadata !{i32 786478, i32 0, metadata !308, metadata !"c_str", metadata !"c_str", metadata !"_ZNKSs5c_strEv", metadata !312, i32 1765, metadata !743, i1 false, i1 false, i32 0, i32 0, null, i32 256, i1 false, null, null, i32 0, metadata !89, i32 1765} ; [ DW_TAG_subprogram ]
!743 = metadata !{i32 786453, i32 0, metadata !"", i32 0, i32 0, i64 0, i64 0, i64 0, i32 0, null, metadata !744, i32 0, i32 0} ; [ DW_TAG_subroutine_type ]
!744 = metadata !{metadata !172, metadata !387}
!745 = metadata !{i32 786478, i32 0, metadata !308, metadata !"data", metadata !"data", metadata !"_ZNKSs4dataEv", metadata !312, i32 1775, metadata !743, i1 false, i1 false, i32 0, i32 0, null, i32 256, i1 false, null, null, i32 0, metadata !89, i32 1775} ; [ DW_TAG_subprogram ]
!746 = metadata !{i32 786478, i32 0, metadata !308, metadata !"get_allocator", metadata !"get_allocator", metadata !"_ZNKSs13get_allocatorEv", metadata !312, i32 1782, metadata !747, i1 false, i1 false, i32 0, i32 0, null, i32 256, i1 false, null, null, i32 0, metadata !89, i32 1782} ; [ DW_TAG_subprogram ]
!747 = metadata !{i32 786453, i32 0, metadata !"", i32 0, i32 0, i64 0, i64 0, i64 0, i32 0, null, metadata !748, i32 0, i32 0} ; [ DW_TAG_subroutine_type ]
!748 = metadata !{metadata !749, metadata !387}
!749 = metadata !{i32 786454, metadata !308, metadata !"allocator_type", metadata !309, i32 114, i64 0, i64 0, i64 0, i32 0, metadata !316} ; [ DW_TAG_typedef ]
!750 = metadata !{i32 786478, i32 0, metadata !308, metadata !"find", metadata !"find", metadata !"_ZNKSs4findEPKcmm", metadata !312, i32 1797, metadata !751, i1 false, i1 false, i32 0, i32 0, null, i32 256, i1 false, null, null, i32 0, metadata !89, i32 1797} ; [ DW_TAG_subprogram ]
!751 = metadata !{i32 786453, i32 0, metadata !"", i32 0, i32 0, i64 0, i64 0, i64 0, i32 0, null, metadata !752, i32 0, i32 0} ; [ DW_TAG_subroutine_type ]
!752 = metadata !{metadata !403, metadata !387, metadata !172, metadata !403, metadata !403}
!753 = metadata !{i32 786478, i32 0, metadata !308, metadata !"find", metadata !"find", metadata !"_ZNKSs4findERKSsm", metadata !312, i32 1810, metadata !754, i1 false, i1 false, i32 0, i32 0, null, i32 256, i1 false, null, null, i32 0, metadata !89, i32 1810} ; [ DW_TAG_subprogram ]
!754 = metadata !{i32 786453, i32 0, metadata !"", i32 0, i32 0, i64 0, i64 0, i64 0, i32 0, null, metadata !755, i32 0, i32 0} ; [ DW_TAG_subroutine_type ]
!755 = metadata !{metadata !403, metadata !387, metadata !500, metadata !403}
!756 = metadata !{i32 786478, i32 0, metadata !308, metadata !"find", metadata !"find", metadata !"_ZNKSs4findEPKcm", metadata !312, i32 1824, metadata !757, i1 false, i1 false, i32 0, i32 0, null, i32 256, i1 false, null, null, i32 0, metadata !89, i32 1824} ; [ DW_TAG_subprogram ]
!757 = metadata !{i32 786453, i32 0, metadata !"", i32 0, i32 0, i64 0, i64 0, i64 0, i32 0, null, metadata !758, i32 0, i32 0} ; [ DW_TAG_subroutine_type ]
!758 = metadata !{metadata !403, metadata !387, metadata !172, metadata !403}
!759 = metadata !{i32 786478, i32 0, metadata !308, metadata !"find", metadata !"find", metadata !"_ZNKSs4findEcm", metadata !312, i32 1841, metadata !760, i1 false, i1 false, i32 0, i32 0, null, i32 256, i1 false, null, null, i32 0, metadata !89, i32 1841} ; [ DW_TAG_subprogram ]
!760 = metadata !{i32 786453, i32 0, metadata !"", i32 0, i32 0, i64 0, i64 0, i64 0, i32 0, null, metadata !761, i32 0, i32 0} ; [ DW_TAG_subroutine_type ]
!761 = metadata !{metadata !403, metadata !387, metadata !174, metadata !403}
!762 = metadata !{i32 786478, i32 0, metadata !308, metadata !"rfind", metadata !"rfind", metadata !"_ZNKSs5rfindERKSsm", metadata !312, i32 1854, metadata !754, i1 false, i1 false, i32 0, i32 0, null, i32 256, i1 false, null, null, i32 0, metadata !89, i32 1854} ; [ DW_TAG_subprogram ]
!763 = metadata !{i32 786478, i32 0, metadata !308, metadata !"rfind", metadata !"rfind", metadata !"_ZNKSs5rfindEPKcmm", metadata !312, i32 1869, metadata !751, i1 false, i1 false, i32 0, i32 0, null, i32 256, i1 false, null, null, i32 0, metadata !89, i32 1869} ; [ DW_TAG_subprogram ]
!764 = metadata !{i32 786478, i32 0, metadata !308, metadata !"rfind", metadata !"rfind", metadata !"_ZNKSs5rfindEPKcm", metadata !312, i32 1882, metadata !757, i1 false, i1 false, i32 0, i32 0, null, i32 256, i1 false, null, null, i32 0, metadata !89, i32 1882} ; [ DW_TAG_subprogram ]
!765 = metadata !{i32 786478, i32 0, metadata !308, metadata !"rfind", metadata !"rfind", metadata !"_ZNKSs5rfindEcm", metadata !312, i32 1899, metadata !760, i1 false, i1 false, i32 0, i32 0, null, i32 256, i1 false, null, null, i32 0, metadata !89, i32 1899} ; [ DW_TAG_subprogram ]
!766 = metadata !{i32 786478, i32 0, metadata !308, metadata !"find_first_of", metadata !"find_first_of", metadata !"_ZNKSs13find_first_ofERKSsm", metadata !312, i32 1912, metadata !754, i1 false, i1 false, i32 0, i32 0, null, i32 256, i1 false, null, null, i32 0, metadata !89, i32 1912} ; [ DW_TAG_subprogram ]
!767 = metadata !{i32 786478, i32 0, metadata !308, metadata !"find_first_of", metadata !"find_first_of", metadata !"_ZNKSs13find_first_ofEPKcmm", metadata !312, i32 1927, metadata !751, i1 false, i1 false, i32 0, i32 0, null, i32 256, i1 false, null, null, i32 0, metadata !89, i32 1927} ; [ DW_TAG_subprogram ]
!768 = metadata !{i32 786478, i32 0, metadata !308, metadata !"find_first_of", metadata !"find_first_of", metadata !"_ZNKSs13find_first_ofEPKcm", metadata !312, i32 1940, metadata !757, i1 false, i1 false, i32 0, i32 0, null, i32 256, i1 false, null, null, i32 0, metadata !89, i32 1940} ; [ DW_TAG_subprogram ]
!769 = metadata !{i32 786478, i32 0, metadata !308, metadata !"find_first_of", metadata !"find_first_of", metadata !"_ZNKSs13find_first_ofEcm", metadata !312, i32 1959, metadata !760, i1 false, i1 false, i32 0, i32 0, null, i32 256, i1 false, null, null, i32 0, metadata !89, i32 1959} ; [ DW_TAG_subprogram ]
!770 = metadata !{i32 786478, i32 0, metadata !308, metadata !"find_last_of", metadata !"find_last_of", metadata !"_ZNKSs12find_last_ofERKSsm", metadata !312, i32 1973, metadata !754, i1 false, i1 false, i32 0, i32 0, null, i32 256, i1 false, null, null, i32 0, metadata !89, i32 1973} ; [ DW_TAG_subprogram ]
!771 = metadata !{i32 786478, i32 0, metadata !308, metadata !"find_last_of", metadata !"find_last_of", metadata !"_ZNKSs12find_last_ofEPKcmm", metadata !312, i32 1988, metadata !751, i1 false, i1 false, i32 0, i32 0, null, i32 256, i1 false, null, null, i32 0, metadata !89, i32 1988} ; [ DW_TAG_subprogram ]
!772 = metadata !{i32 786478, i32 0, metadata !308, metadata !"find_last_of", metadata !"find_last_of", metadata !"_ZNKSs12find_last_ofEPKcm", metadata !312, i32 2001, metadata !757, i1 false, i1 false, i32 0, i32 0, null, i32 256, i1 false, null, null, i32 0, metadata !89, i32 2001} ; [ DW_TAG_subprogram ]
!773 = metadata !{i32 786478, i32 0, metadata !308, metadata !"find_last_of", metadata !"find_last_of", metadata !"_ZNKSs12find_last_ofEcm", metadata !312, i32 2020, metadata !760, i1 false, i1 false, i32 0, i32 0, null, i32 256, i1 false, null, null, i32 0, metadata !89, i32 2020} ; [ DW_TAG_subprogram ]
!774 = metadata !{i32 786478, i32 0, metadata !308, metadata !"find_first_not_of", metadata !"find_first_not_of", metadata !"_ZNKSs17find_first_not_ofERKSsm", metadata !312, i32 2034, metadata !754, i1 false, i1 false, i32 0, i32 0, null, i32 256, i1 false, null, null, i32 0, metadata !89, i32 2034} ; [ DW_TAG_subprogram ]
!775 = metadata !{i32 786478, i32 0, metadata !308, metadata !"find_first_not_of", metadata !"find_first_not_of", metadata !"_ZNKSs17find_first_not_ofEPKcmm", metadata !312, i32 2049, metadata !751, i1 false, i1 false, i32 0, i32 0, null, i32 256, i1 false, null, null, i32 0, metadata !89, i32 2049} ; [ DW_TAG_subprogram ]
!776 = metadata !{i32 786478, i32 0, metadata !308, metadata !"find_first_not_of", metadata !"find_first_not_of", metadata !"_ZNKSs17find_first_not_ofEPKcm", metadata !312, i32 2063, metadata !757, i1 false, i1 false, i32 0, i32 0, null, i32 256, i1 false, null, null, i32 0, metadata !89, i32 2063} ; [ DW_TAG_subprogram ]
!777 = metadata !{i32 786478, i32 0, metadata !308, metadata !"find_first_not_of", metadata !"find_first_not_of", metadata !"_ZNKSs17find_first_not_ofEcm", metadata !312, i32 2080, metadata !760, i1 false, i1 false, i32 0, i32 0, null, i32 256, i1 false, null, null, i32 0, metadata !89, i32 2080} ; [ DW_TAG_subprogram ]
!778 = metadata !{i32 786478, i32 0, metadata !308, metadata !"find_last_not_of", metadata !"find_last_not_of", metadata !"_ZNKSs16find_last_not_ofERKSsm", metadata !312, i32 2093, metadata !754, i1 false, i1 false, i32 0, i32 0, null, i32 256, i1 false, null, null, i32 0, metadata !89, i32 2093} ; [ DW_TAG_subprogram ]
!779 = metadata !{i32 786478, i32 0, metadata !308, metadata !"find_last_not_of", metadata !"find_last_not_of", metadata !"_ZNKSs16find_last_not_ofEPKcmm", metadata !312, i32 2109, metadata !751, i1 false, i1 false, i32 0, i32 0, null, i32 256, i1 false, null, null, i32 0, metadata !89, i32 2109} ; [ DW_TAG_subprogram ]
!780 = metadata !{i32 786478, i32 0, metadata !308, metadata !"find_last_not_of", metadata !"find_last_not_of", metadata !"_ZNKSs16find_last_not_ofEPKcm", metadata !312, i32 2122, metadata !757, i1 false, i1 false, i32 0, i32 0, null, i32 256, i1 false, null, null, i32 0, metadata !89, i32 2122} ; [ DW_TAG_subprogram ]
!781 = metadata !{i32 786478, i32 0, metadata !308, metadata !"find_last_not_of", metadata !"find_last_not_of", metadata !"_ZNKSs16find_last_not_ofEcm", metadata !312, i32 2139, metadata !760, i1 false, i1 false, i32 0, i32 0, null, i32 256, i1 false, null, null, i32 0, metadata !89, i32 2139} ; [ DW_TAG_subprogram ]
!782 = metadata !{i32 786478, i32 0, metadata !308, metadata !"substr", metadata !"substr", metadata !"_ZNKSs6substrEmm", metadata !312, i32 2154, metadata !783, i1 false, i1 false, i32 0, i32 0, null, i32 256, i1 false, null, null, i32 0, metadata !89, i32 2154} ; [ DW_TAG_subprogram ]
!783 = metadata !{i32 786453, i32 0, metadata !"", i32 0, i32 0, i64 0, i64 0, i64 0, i32 0, null, metadata !784, i32 0, i32 0} ; [ DW_TAG_subroutine_type ]
!784 = metadata !{metadata !308, metadata !387, metadata !403, metadata !403}
!785 = metadata !{i32 786478, i32 0, metadata !308, metadata !"compare", metadata !"compare", metadata !"_ZNKSs7compareERKSs", metadata !312, i32 2172, metadata !786, i1 false, i1 false, i32 0, i32 0, null, i32 256, i1 false, null, null, i32 0, metadata !89, i32 2172} ; [ DW_TAG_subprogram ]
!786 = metadata !{i32 786453, i32 0, metadata !"", i32 0, i32 0, i64 0, i64 0, i64 0, i32 0, null, metadata !787, i32 0, i32 0} ; [ DW_TAG_subroutine_type ]
!787 = metadata !{metadata !56, metadata !387, metadata !500}
!788 = metadata !{i32 786478, i32 0, metadata !308, metadata !"compare", metadata !"compare", metadata !"_ZNKSs7compareEmmRKSs", metadata !312, i32 2202, metadata !789, i1 false, i1 false, i32 0, i32 0, null, i32 256, i1 false, null, null, i32 0, metadata !89, i32 2202} ; [ DW_TAG_subprogram ]
!789 = metadata !{i32 786453, i32 0, metadata !"", i32 0, i32 0, i64 0, i64 0, i64 0, i32 0, null, metadata !790, i32 0, i32 0} ; [ DW_TAG_subroutine_type ]
!790 = metadata !{metadata !56, metadata !387, metadata !403, metadata !403, metadata !500}
!791 = metadata !{i32 786478, i32 0, metadata !308, metadata !"compare", metadata !"compare", metadata !"_ZNKSs7compareEmmRKSsmm", metadata !312, i32 2226, metadata !792, i1 false, i1 false, i32 0, i32 0, null, i32 256, i1 false, null, null, i32 0, metadata !89, i32 2226} ; [ DW_TAG_subprogram ]
!792 = metadata !{i32 786453, i32 0, metadata !"", i32 0, i32 0, i64 0, i64 0, i64 0, i32 0, null, metadata !793, i32 0, i32 0} ; [ DW_TAG_subroutine_type ]
!793 = metadata !{metadata !56, metadata !387, metadata !403, metadata !403, metadata !500, metadata !403, metadata !403}
!794 = metadata !{i32 786478, i32 0, metadata !308, metadata !"compare", metadata !"compare", metadata !"_ZNKSs7compareEPKc", metadata !312, i32 2244, metadata !795, i1 false, i1 false, i32 0, i32 0, null, i32 256, i1 false, null, null, i32 0, metadata !89, i32 2244} ; [ DW_TAG_subprogram ]
!795 = metadata !{i32 786453, i32 0, metadata !"", i32 0, i32 0, i64 0, i64 0, i64 0, i32 0, null, metadata !796, i32 0, i32 0} ; [ DW_TAG_subroutine_type ]
!796 = metadata !{metadata !56, metadata !387, metadata !172}
!797 = metadata !{i32 786478, i32 0, metadata !308, metadata !"compare", metadata !"compare", metadata !"_ZNKSs7compareEmmPKc", metadata !312, i32 2267, metadata !798, i1 false, i1 false, i32 0, i32 0, null, i32 256, i1 false, null, null, i32 0, metadata !89, i32 2267} ; [ DW_TAG_subprogram ]
!798 = metadata !{i32 786453, i32 0, metadata !"", i32 0, i32 0, i64 0, i64 0, i64 0, i32 0, null, metadata !799, i32 0, i32 0} ; [ DW_TAG_subroutine_type ]
!799 = metadata !{metadata !56, metadata !387, metadata !403, metadata !403, metadata !172}
!800 = metadata !{i32 786478, i32 0, metadata !308, metadata !"compare", metadata !"compare", metadata !"_ZNKSs7compareEmmPKcm", metadata !312, i32 2292, metadata !801, i1 false, i1 false, i32 0, i32 0, null, i32 256, i1 false, null, null, i32 0, metadata !89, i32 2292} ; [ DW_TAG_subprogram ]
!801 = metadata !{i32 786453, i32 0, metadata !"", i32 0, i32 0, i64 0, i64 0, i64 0, i32 0, null, metadata !802, i32 0, i32 0} ; [ DW_TAG_subroutine_type ]
!802 = metadata !{metadata !56, metadata !387, metadata !403, metadata !403, metadata !172, metadata !403}
!803 = metadata !{metadata !804, metadata !805, metadata !858}
!804 = metadata !{i32 786479, null, metadata !"_CharT", metadata !174, null, i32 0, i32 0} ; [ DW_TAG_template_type_parameter ]
!805 = metadata !{i32 786479, null, metadata !"_Traits", metadata !806, null, i32 0, i32 0} ; [ DW_TAG_template_type_parameter ]
!806 = metadata !{i32 786434, metadata !807, metadata !"char_traits<char>", metadata !808, i32 234, i64 8, i64 8, i32 0, i32 0, null, metadata !809, i32 0, null, metadata !857} ; [ DW_TAG_class_type ]
!807 = metadata !{i32 786489, null, metadata !"std", metadata !808, i32 210} ; [ DW_TAG_namespace ]
!808 = metadata !{i32 786473, metadata !"/data/opt/Xilinx/Vivado/2017.4/lnx64/tools/gcc/lib/gcc/x86_64-unknown-linux-gnu/4.6.3/../../../../include/c++/4.6.3/bits/char_traits.h", metadata !"/home/iavendano/pynq-copter/pynqcopter/ip/pidfixed", null} ; [ DW_TAG_file_type ]
!809 = metadata !{metadata !810, metadata !817, metadata !820, metadata !821, metadata !825, metadata !828, metadata !831, metadata !835, metadata !836, metadata !839, metadata !845, metadata !848, metadata !851, metadata !854}
!810 = metadata !{i32 786478, i32 0, metadata !806, metadata !"assign", metadata !"assign", metadata !"_ZNSt11char_traitsIcE6assignERcRKc", metadata !808, i32 243, metadata !811, i1 false, i1 false, i32 0, i32 0, null, i32 256, i1 false, null, null, i32 0, metadata !89, i32 243} ; [ DW_TAG_subprogram ]
!811 = metadata !{i32 786453, i32 0, metadata !"", i32 0, i32 0, i64 0, i64 0, i64 0, i32 0, null, metadata !812, i32 0, i32 0} ; [ DW_TAG_subroutine_type ]
!812 = metadata !{null, metadata !813, metadata !815}
!813 = metadata !{i32 786448, null, null, null, i32 0, i64 0, i64 0, i64 0, i32 0, metadata !814} ; [ DW_TAG_reference_type ]
!814 = metadata !{i32 786454, metadata !806, metadata !"char_type", metadata !808, i32 236, i64 0, i64 0, i64 0, i32 0, metadata !174} ; [ DW_TAG_typedef ]
!815 = metadata !{i32 786448, null, null, null, i32 0, i64 0, i64 0, i64 0, i32 0, metadata !816} ; [ DW_TAG_reference_type ]
!816 = metadata !{i32 786470, null, metadata !"", null, i32 0, i64 0, i64 0, i64 0, i32 0, metadata !814} ; [ DW_TAG_const_type ]
!817 = metadata !{i32 786478, i32 0, metadata !806, metadata !"eq", metadata !"eq", metadata !"_ZNSt11char_traitsIcE2eqERKcS2_", metadata !808, i32 247, metadata !818, i1 false, i1 false, i32 0, i32 0, null, i32 256, i1 false, null, null, i32 0, metadata !89, i32 247} ; [ DW_TAG_subprogram ]
!818 = metadata !{i32 786453, i32 0, metadata !"", i32 0, i32 0, i64 0, i64 0, i64 0, i32 0, null, metadata !819, i32 0, i32 0} ; [ DW_TAG_subroutine_type ]
!819 = metadata !{metadata !238, metadata !815, metadata !815}
!820 = metadata !{i32 786478, i32 0, metadata !806, metadata !"lt", metadata !"lt", metadata !"_ZNSt11char_traitsIcE2ltERKcS2_", metadata !808, i32 251, metadata !818, i1 false, i1 false, i32 0, i32 0, null, i32 256, i1 false, null, null, i32 0, metadata !89, i32 251} ; [ DW_TAG_subprogram ]
!821 = metadata !{i32 786478, i32 0, metadata !806, metadata !"compare", metadata !"compare", metadata !"_ZNSt11char_traitsIcE7compareEPKcS2_m", metadata !808, i32 255, metadata !822, i1 false, i1 false, i32 0, i32 0, null, i32 256, i1 false, null, null, i32 0, metadata !89, i32 255} ; [ DW_TAG_subprogram ]
!822 = metadata !{i32 786453, i32 0, metadata !"", i32 0, i32 0, i64 0, i64 0, i64 0, i32 0, null, metadata !823, i32 0, i32 0} ; [ DW_TAG_subroutine_type ]
!823 = metadata !{metadata !56, metadata !824, metadata !824, metadata !139}
!824 = metadata !{i32 786447, null, metadata !"", null, i32 0, i64 64, i64 64, i64 0, i32 0, metadata !816} ; [ DW_TAG_pointer_type ]
!825 = metadata !{i32 786478, i32 0, metadata !806, metadata !"length", metadata !"length", metadata !"_ZNSt11char_traitsIcE6lengthEPKc", metadata !808, i32 259, metadata !826, i1 false, i1 false, i32 0, i32 0, null, i32 256, i1 false, null, null, i32 0, metadata !89, i32 259} ; [ DW_TAG_subprogram ]
!826 = metadata !{i32 786453, i32 0, metadata !"", i32 0, i32 0, i64 0, i64 0, i64 0, i32 0, null, metadata !827, i32 0, i32 0} ; [ DW_TAG_subroutine_type ]
!827 = metadata !{metadata !139, metadata !824}
!828 = metadata !{i32 786478, i32 0, metadata !806, metadata !"find", metadata !"find", metadata !"_ZNSt11char_traitsIcE4findEPKcmRS1_", metadata !808, i32 263, metadata !829, i1 false, i1 false, i32 0, i32 0, null, i32 256, i1 false, null, null, i32 0, metadata !89, i32 263} ; [ DW_TAG_subprogram ]
!829 = metadata !{i32 786453, i32 0, metadata !"", i32 0, i32 0, i64 0, i64 0, i64 0, i32 0, null, metadata !830, i32 0, i32 0} ; [ DW_TAG_subroutine_type ]
!830 = metadata !{metadata !824, metadata !824, metadata !139, metadata !815}
!831 = metadata !{i32 786478, i32 0, metadata !806, metadata !"move", metadata !"move", metadata !"_ZNSt11char_traitsIcE4moveEPcPKcm", metadata !808, i32 267, metadata !832, i1 false, i1 false, i32 0, i32 0, null, i32 256, i1 false, null, null, i32 0, metadata !89, i32 267} ; [ DW_TAG_subprogram ]
!832 = metadata !{i32 786453, i32 0, metadata !"", i32 0, i32 0, i64 0, i64 0, i64 0, i32 0, null, metadata !833, i32 0, i32 0} ; [ DW_TAG_subroutine_type ]
!833 = metadata !{metadata !834, metadata !834, metadata !824, metadata !139}
!834 = metadata !{i32 786447, null, metadata !"", null, i32 0, i64 64, i64 64, i64 0, i32 0, metadata !814} ; [ DW_TAG_pointer_type ]
!835 = metadata !{i32 786478, i32 0, metadata !806, metadata !"copy", metadata !"copy", metadata !"_ZNSt11char_traitsIcE4copyEPcPKcm", metadata !808, i32 271, metadata !832, i1 false, i1 false, i32 0, i32 0, null, i32 256, i1 false, null, null, i32 0, metadata !89, i32 271} ; [ DW_TAG_subprogram ]
!836 = metadata !{i32 786478, i32 0, metadata !806, metadata !"assign", metadata !"assign", metadata !"_ZNSt11char_traitsIcE6assignEPcmc", metadata !808, i32 275, metadata !837, i1 false, i1 false, i32 0, i32 0, null, i32 256, i1 false, null, null, i32 0, metadata !89, i32 275} ; [ DW_TAG_subprogram ]
!837 = metadata !{i32 786453, i32 0, metadata !"", i32 0, i32 0, i64 0, i64 0, i64 0, i32 0, null, metadata !838, i32 0, i32 0} ; [ DW_TAG_subroutine_type ]
!838 = metadata !{metadata !834, metadata !834, metadata !139, metadata !814}
!839 = metadata !{i32 786478, i32 0, metadata !806, metadata !"to_char_type", metadata !"to_char_type", metadata !"_ZNSt11char_traitsIcE12to_char_typeERKi", metadata !808, i32 279, metadata !840, i1 false, i1 false, i32 0, i32 0, null, i32 256, i1 false, null, null, i32 0, metadata !89, i32 279} ; [ DW_TAG_subprogram ]
!840 = metadata !{i32 786453, i32 0, metadata !"", i32 0, i32 0, i64 0, i64 0, i64 0, i32 0, null, metadata !841, i32 0, i32 0} ; [ DW_TAG_subroutine_type ]
!841 = metadata !{metadata !814, metadata !842}
!842 = metadata !{i32 786448, null, null, null, i32 0, i64 0, i64 0, i64 0, i32 0, metadata !843} ; [ DW_TAG_reference_type ]
!843 = metadata !{i32 786470, null, metadata !"", null, i32 0, i64 0, i64 0, i64 0, i32 0, metadata !844} ; [ DW_TAG_const_type ]
!844 = metadata !{i32 786454, metadata !806, metadata !"int_type", metadata !808, i32 237, i64 0, i64 0, i64 0, i32 0, metadata !56} ; [ DW_TAG_typedef ]
!845 = metadata !{i32 786478, i32 0, metadata !806, metadata !"to_int_type", metadata !"to_int_type", metadata !"_ZNSt11char_traitsIcE11to_int_typeERKc", metadata !808, i32 285, metadata !846, i1 false, i1 false, i32 0, i32 0, null, i32 256, i1 false, null, null, i32 0, metadata !89, i32 285} ; [ DW_TAG_subprogram ]
!846 = metadata !{i32 786453, i32 0, metadata !"", i32 0, i32 0, i64 0, i64 0, i64 0, i32 0, null, metadata !847, i32 0, i32 0} ; [ DW_TAG_subroutine_type ]
!847 = metadata !{metadata !844, metadata !815}
!848 = metadata !{i32 786478, i32 0, metadata !806, metadata !"eq_int_type", metadata !"eq_int_type", metadata !"_ZNSt11char_traitsIcE11eq_int_typeERKiS2_", metadata !808, i32 289, metadata !849, i1 false, i1 false, i32 0, i32 0, null, i32 256, i1 false, null, null, i32 0, metadata !89, i32 289} ; [ DW_TAG_subprogram ]
!849 = metadata !{i32 786453, i32 0, metadata !"", i32 0, i32 0, i64 0, i64 0, i64 0, i32 0, null, metadata !850, i32 0, i32 0} ; [ DW_TAG_subroutine_type ]
!850 = metadata !{metadata !238, metadata !842, metadata !842}
!851 = metadata !{i32 786478, i32 0, metadata !806, metadata !"eof", metadata !"eof", metadata !"_ZNSt11char_traitsIcE3eofEv", metadata !808, i32 293, metadata !852, i1 false, i1 false, i32 0, i32 0, null, i32 256, i1 false, null, null, i32 0, metadata !89, i32 293} ; [ DW_TAG_subprogram ]
!852 = metadata !{i32 786453, i32 0, metadata !"", i32 0, i32 0, i64 0, i64 0, i64 0, i32 0, null, metadata !853, i32 0, i32 0} ; [ DW_TAG_subroutine_type ]
!853 = metadata !{metadata !844}
!854 = metadata !{i32 786478, i32 0, metadata !806, metadata !"not_eof", metadata !"not_eof", metadata !"_ZNSt11char_traitsIcE7not_eofERKi", metadata !808, i32 297, metadata !855, i1 false, i1 false, i32 0, i32 0, null, i32 256, i1 false, null, null, i32 0, metadata !89, i32 297} ; [ DW_TAG_subprogram ]
!855 = metadata !{i32 786453, i32 0, metadata !"", i32 0, i32 0, i64 0, i64 0, i64 0, i32 0, null, metadata !856, i32 0, i32 0} ; [ DW_TAG_subroutine_type ]
!856 = metadata !{metadata !844, metadata !842}
!857 = metadata !{metadata !804}
!858 = metadata !{i32 786479, null, metadata !"_Alloc", metadata !316, null, i32 0, i32 0} ; [ DW_TAG_template_type_parameter ]
!859 = metadata !{i32 786447, i32 0, metadata !"", i32 0, i32 0, i64 64, i64 64, i64 0, i32 64, metadata !288} ; [ DW_TAG_pointer_type ]
!860 = metadata !{i32 786478, i32 0, metadata !115, metadata !"operator==", metadata !"operator==", metadata !"_ZNKSt6localeeqERKS_", metadata !117, i32 226, metadata !861, i1 false, i1 false, i32 0, i32 0, null, i32 256, i1 false, null, null, i32 0, metadata !89, i32 226} ; [ DW_TAG_subprogram ]
!861 = metadata !{i32 786453, i32 0, metadata !"", i32 0, i32 0, i64 0, i64 0, i64 0, i32 0, null, metadata !862, i32 0, i32 0} ; [ DW_TAG_subroutine_type ]
!862 = metadata !{metadata !238, metadata !859, metadata !287}
!863 = metadata !{i32 786478, i32 0, metadata !115, metadata !"operator!=", metadata !"operator!=", metadata !"_ZNKSt6localeneERKS_", metadata !117, i32 235, metadata !861, i1 false, i1 false, i32 0, i32 0, null, i32 256, i1 false, null, null, i32 0, metadata !89, i32 235} ; [ DW_TAG_subprogram ]
!864 = metadata !{i32 786478, i32 0, metadata !115, metadata !"global", metadata !"global", metadata !"_ZNSt6locale6globalERKS_", metadata !117, i32 270, metadata !865, i1 false, i1 false, i32 0, i32 0, null, i32 256, i1 false, null, null, i32 0, metadata !89, i32 270} ; [ DW_TAG_subprogram ]
!865 = metadata !{i32 786453, i32 0, metadata !"", i32 0, i32 0, i64 0, i64 0, i64 0, i32 0, null, metadata !866, i32 0, i32 0} ; [ DW_TAG_subroutine_type ]
!866 = metadata !{metadata !115, metadata !287}
!867 = metadata !{i32 786478, i32 0, metadata !115, metadata !"classic", metadata !"classic", metadata !"_ZNSt6locale7classicEv", metadata !117, i32 276, metadata !868, i1 false, i1 false, i32 0, i32 0, null, i32 256, i1 false, null, null, i32 0, metadata !89, i32 276} ; [ DW_TAG_subprogram ]
!868 = metadata !{i32 786453, i32 0, metadata !"", i32 0, i32 0, i64 0, i64 0, i64 0, i32 0, null, metadata !869, i32 0, i32 0} ; [ DW_TAG_subroutine_type ]
!869 = metadata !{metadata !287}
!870 = metadata !{i32 786478, i32 0, metadata !115, metadata !"locale", metadata !"locale", metadata !"", metadata !117, i32 311, metadata !871, i1 false, i1 false, i32 0, i32 0, null, i32 385, i1 false, null, null, i32 0, metadata !89, i32 311} ; [ DW_TAG_subprogram ]
!871 = metadata !{i32 786453, i32 0, metadata !"", i32 0, i32 0, i64 0, i64 0, i64 0, i32 0, null, metadata !872, i32 0, i32 0} ; [ DW_TAG_subroutine_type ]
!872 = metadata !{null, metadata !283, metadata !120}
!873 = metadata !{i32 786478, i32 0, metadata !115, metadata !"_S_initialize", metadata !"_S_initialize", metadata !"_ZNSt6locale13_S_initializeEv", metadata !117, i32 314, metadata !133, i1 false, i1 false, i32 0, i32 0, null, i32 257, i1 false, null, null, i32 0, metadata !89, i32 314} ; [ DW_TAG_subprogram ]
!874 = metadata !{i32 786478, i32 0, metadata !115, metadata !"_S_initialize_once", metadata !"_S_initialize_once", metadata !"_ZNSt6locale18_S_initialize_onceEv", metadata !117, i32 317, metadata !133, i1 false, i1 false, i32 0, i32 0, null, i32 257, i1 false, null, null, i32 0, metadata !89, i32 317} ; [ DW_TAG_subprogram ]
!875 = metadata !{i32 786478, i32 0, metadata !115, metadata !"_S_normalize_category", metadata !"_S_normalize_category", metadata !"_ZNSt6locale21_S_normalize_categoryEi", metadata !117, i32 320, metadata !876, i1 false, i1 false, i32 0, i32 0, null, i32 257, i1 false, null, null, i32 0, metadata !89, i32 320} ; [ DW_TAG_subprogram ]
!876 = metadata !{i32 786453, i32 0, metadata !"", i32 0, i32 0, i64 0, i64 0, i64 0, i32 0, null, metadata !877, i32 0, i32 0} ; [ DW_TAG_subroutine_type ]
!877 = metadata !{metadata !243, metadata !243}
!878 = metadata !{i32 786478, i32 0, metadata !115, metadata !"_M_coalesce", metadata !"_M_coalesce", metadata !"_ZNSt6locale11_M_coalesceERKS_S1_i", metadata !117, i32 323, metadata !296, i1 false, i1 false, i32 0, i32 0, null, i32 257, i1 false, null, null, i32 0, metadata !89, i32 323} ; [ DW_TAG_subprogram ]
!879 = metadata !{i32 786474, metadata !115, null, metadata !117, i32 0, i64 0, i64 0, i64 0, i32 0, metadata !121} ; [ DW_TAG_friend ]
!880 = metadata !{i32 786474, metadata !115, null, metadata !117, i32 0, i64 0, i64 0, i64 0, i32 0, metadata !128} ; [ DW_TAG_friend ]
!881 = metadata !{i32 786478, i32 0, metadata !49, metadata !"register_callback", metadata !"register_callback", metadata !"_ZNSt8ios_base17register_callbackEPFvNS_5eventERS_iEi", metadata !5, i32 450, metadata !882, i1 false, i1 false, i32 0, i32 0, null, i32 256, i1 false, null, null, i32 0, metadata !89, i32 450} ; [ DW_TAG_subprogram ]
!882 = metadata !{i32 786453, i32 0, metadata !"", i32 0, i32 0, i64 0, i64 0, i64 0, i32 0, null, metadata !883, i32 0, i32 0} ; [ DW_TAG_subroutine_type ]
!883 = metadata !{null, metadata !884, metadata !77, metadata !56}
!884 = metadata !{i32 786447, i32 0, metadata !"", i32 0, i32 0, i64 64, i64 64, i64 0, i32 64, metadata !49} ; [ DW_TAG_pointer_type ]
!885 = metadata !{i32 786478, i32 0, metadata !49, metadata !"_M_call_callbacks", metadata !"_M_call_callbacks", metadata !"_ZNSt8ios_base17_M_call_callbacksENS_5eventE", metadata !5, i32 494, metadata !886, i1 false, i1 false, i32 0, i32 0, null, i32 258, i1 false, null, null, i32 0, metadata !89, i32 494} ; [ DW_TAG_subprogram ]
!886 = metadata !{i32 786453, i32 0, metadata !"", i32 0, i32 0, i64 0, i64 0, i64 0, i32 0, null, metadata !887, i32 0, i32 0} ; [ DW_TAG_subroutine_type ]
!887 = metadata !{null, metadata !884, metadata !48}
!888 = metadata !{i32 786478, i32 0, metadata !49, metadata !"_M_dispose_callbacks", metadata !"_M_dispose_callbacks", metadata !"_ZNSt8ios_base20_M_dispose_callbacksEv", metadata !5, i32 497, metadata !889, i1 false, i1 false, i32 0, i32 0, null, i32 258, i1 false, null, null, i32 0, metadata !89, i32 497} ; [ DW_TAG_subprogram ]
!889 = metadata !{i32 786453, i32 0, metadata !"", i32 0, i32 0, i64 0, i64 0, i64 0, i32 0, null, metadata !890, i32 0, i32 0} ; [ DW_TAG_subroutine_type ]
!890 = metadata !{null, metadata !884}
!891 = metadata !{i32 786478, i32 0, metadata !49, metadata !"_M_grow_words", metadata !"_M_grow_words", metadata !"_ZNSt8ios_base13_M_grow_wordsEib", metadata !5, i32 520, metadata !892, i1 false, i1 false, i32 0, i32 0, null, i32 258, i1 false, null, null, i32 0, metadata !89, i32 520} ; [ DW_TAG_subprogram ]
!892 = metadata !{i32 786453, i32 0, metadata !"", i32 0, i32 0, i64 0, i64 0, i64 0, i32 0, null, metadata !893, i32 0, i32 0} ; [ DW_TAG_subroutine_type ]
!893 = metadata !{metadata !894, metadata !884, metadata !56, metadata !238}
!894 = metadata !{i32 786448, null, null, null, i32 0, i64 0, i64 0, i64 0, i32 0, metadata !98} ; [ DW_TAG_reference_type ]
!895 = metadata !{i32 786478, i32 0, metadata !49, metadata !"_M_init", metadata !"_M_init", metadata !"_ZNSt8ios_base7_M_initEv", metadata !5, i32 526, metadata !889, i1 false, i1 false, i32 0, i32 0, null, i32 258, i1 false, null, null, i32 0, metadata !89, i32 526} ; [ DW_TAG_subprogram ]
!896 = metadata !{i32 786478, i32 0, metadata !49, metadata !"flags", metadata !"flags", metadata !"_ZNKSt8ios_base5flagsEv", metadata !5, i32 552, metadata !897, i1 false, i1 false, i32 0, i32 0, null, i32 256, i1 false, null, null, i32 0, metadata !89, i32 552} ; [ DW_TAG_subprogram ]
!897 = metadata !{i32 786453, i32 0, metadata !"", i32 0, i32 0, i64 0, i64 0, i64 0, i32 0, null, metadata !898, i32 0, i32 0} ; [ DW_TAG_subroutine_type ]
!898 = metadata !{metadata !67, metadata !899}
!899 = metadata !{i32 786447, i32 0, metadata !"", i32 0, i32 0, i64 64, i64 64, i64 0, i32 64, metadata !900} ; [ DW_TAG_pointer_type ]
!900 = metadata !{i32 786470, null, metadata !"", null, i32 0, i64 0, i64 0, i64 0, i32 0, metadata !49} ; [ DW_TAG_const_type ]
!901 = metadata !{i32 786478, i32 0, metadata !49, metadata !"flags", metadata !"flags", metadata !"_ZNSt8ios_base5flagsESt13_Ios_Fmtflags", metadata !5, i32 563, metadata !902, i1 false, i1 false, i32 0, i32 0, null, i32 256, i1 false, null, null, i32 0, metadata !89, i32 563} ; [ DW_TAG_subprogram ]
!902 = metadata !{i32 786453, i32 0, metadata !"", i32 0, i32 0, i64 0, i64 0, i64 0, i32 0, null, metadata !903, i32 0, i32 0} ; [ DW_TAG_subroutine_type ]
!903 = metadata !{metadata !67, metadata !884, metadata !67}
!904 = metadata !{i32 786478, i32 0, metadata !49, metadata !"setf", metadata !"setf", metadata !"_ZNSt8ios_base4setfESt13_Ios_Fmtflags", metadata !5, i32 579, metadata !902, i1 false, i1 false, i32 0, i32 0, null, i32 256, i1 false, null, null, i32 0, metadata !89, i32 579} ; [ DW_TAG_subprogram ]
!905 = metadata !{i32 786478, i32 0, metadata !49, metadata !"setf", metadata !"setf", metadata !"_ZNSt8ios_base4setfESt13_Ios_FmtflagsS0_", metadata !5, i32 596, metadata !906, i1 false, i1 false, i32 0, i32 0, null, i32 256, i1 false, null, null, i32 0, metadata !89, i32 596} ; [ DW_TAG_subprogram ]
!906 = metadata !{i32 786453, i32 0, metadata !"", i32 0, i32 0, i64 0, i64 0, i64 0, i32 0, null, metadata !907, i32 0, i32 0} ; [ DW_TAG_subroutine_type ]
!907 = metadata !{metadata !67, metadata !884, metadata !67, metadata !67}
!908 = metadata !{i32 786478, i32 0, metadata !49, metadata !"unsetf", metadata !"unsetf", metadata !"_ZNSt8ios_base6unsetfESt13_Ios_Fmtflags", metadata !5, i32 611, metadata !909, i1 false, i1 false, i32 0, i32 0, null, i32 256, i1 false, null, null, i32 0, metadata !89, i32 611} ; [ DW_TAG_subprogram ]
!909 = metadata !{i32 786453, i32 0, metadata !"", i32 0, i32 0, i64 0, i64 0, i64 0, i32 0, null, metadata !910, i32 0, i32 0} ; [ DW_TAG_subroutine_type ]
!910 = metadata !{null, metadata !884, metadata !67}
!911 = metadata !{i32 786478, i32 0, metadata !49, metadata !"precision", metadata !"precision", metadata !"_ZNKSt8ios_base9precisionEv", metadata !5, i32 622, metadata !912, i1 false, i1 false, i32 0, i32 0, null, i32 256, i1 false, null, null, i32 0, metadata !89, i32 622} ; [ DW_TAG_subprogram ]
!912 = metadata !{i32 786453, i32 0, metadata !"", i32 0, i32 0, i64 0, i64 0, i64 0, i32 0, null, metadata !913, i32 0, i32 0} ; [ DW_TAG_subroutine_type ]
!913 = metadata !{metadata !58, metadata !899}
!914 = metadata !{i32 786478, i32 0, metadata !49, metadata !"precision", metadata !"precision", metadata !"_ZNSt8ios_base9precisionEl", metadata !5, i32 631, metadata !915, i1 false, i1 false, i32 0, i32 0, null, i32 256, i1 false, null, null, i32 0, metadata !89, i32 631} ; [ DW_TAG_subprogram ]
!915 = metadata !{i32 786453, i32 0, metadata !"", i32 0, i32 0, i64 0, i64 0, i64 0, i32 0, null, metadata !916, i32 0, i32 0} ; [ DW_TAG_subroutine_type ]
!916 = metadata !{metadata !58, metadata !884, metadata !58}
!917 = metadata !{i32 786478, i32 0, metadata !49, metadata !"width", metadata !"width", metadata !"_ZNKSt8ios_base5widthEv", metadata !5, i32 645, metadata !912, i1 false, i1 false, i32 0, i32 0, null, i32 256, i1 false, null, null, i32 0, metadata !89, i32 645} ; [ DW_TAG_subprogram ]
!918 = metadata !{i32 786478, i32 0, metadata !49, metadata !"width", metadata !"width", metadata !"_ZNSt8ios_base5widthEl", metadata !5, i32 654, metadata !915, i1 false, i1 false, i32 0, i32 0, null, i32 256, i1 false, null, null, i32 0, metadata !89, i32 654} ; [ DW_TAG_subprogram ]
!919 = metadata !{i32 786478, i32 0, metadata !49, metadata !"sync_with_stdio", metadata !"sync_with_stdio", metadata !"_ZNSt8ios_base15sync_with_stdioEb", metadata !5, i32 673, metadata !920, i1 false, i1 false, i32 0, i32 0, null, i32 256, i1 false, null, null, i32 0, metadata !89, i32 673} ; [ DW_TAG_subprogram ]
!920 = metadata !{i32 786453, i32 0, metadata !"", i32 0, i32 0, i64 0, i64 0, i64 0, i32 0, null, metadata !921, i32 0, i32 0} ; [ DW_TAG_subroutine_type ]
!921 = metadata !{metadata !238, metadata !238}
!922 = metadata !{i32 786478, i32 0, metadata !49, metadata !"imbue", metadata !"imbue", metadata !"_ZNSt8ios_base5imbueERKSt6locale", metadata !5, i32 685, metadata !923, i1 false, i1 false, i32 0, i32 0, null, i32 256, i1 false, null, null, i32 0, metadata !89, i32 685} ; [ DW_TAG_subprogram ]
!923 = metadata !{i32 786453, i32 0, metadata !"", i32 0, i32 0, i64 0, i64 0, i64 0, i32 0, null, metadata !924, i32 0, i32 0} ; [ DW_TAG_subroutine_type ]
!924 = metadata !{metadata !115, metadata !884, metadata !287}
!925 = metadata !{i32 786478, i32 0, metadata !49, metadata !"getloc", metadata !"getloc", metadata !"_ZNKSt8ios_base6getlocEv", metadata !5, i32 696, metadata !926, i1 false, i1 false, i32 0, i32 0, null, i32 256, i1 false, null, null, i32 0, metadata !89, i32 696} ; [ DW_TAG_subprogram ]
!926 = metadata !{i32 786453, i32 0, metadata !"", i32 0, i32 0, i64 0, i64 0, i64 0, i32 0, null, metadata !927, i32 0, i32 0} ; [ DW_TAG_subroutine_type ]
!927 = metadata !{metadata !115, metadata !899}
!928 = metadata !{i32 786478, i32 0, metadata !49, metadata !"_M_getloc", metadata !"_M_getloc", metadata !"_ZNKSt8ios_base9_M_getlocEv", metadata !5, i32 707, metadata !929, i1 false, i1 false, i32 0, i32 0, null, i32 256, i1 false, null, null, i32 0, metadata !89, i32 707} ; [ DW_TAG_subprogram ]
!929 = metadata !{i32 786453, i32 0, metadata !"", i32 0, i32 0, i64 0, i64 0, i64 0, i32 0, null, metadata !930, i32 0, i32 0} ; [ DW_TAG_subroutine_type ]
!930 = metadata !{metadata !287, metadata !899}
!931 = metadata !{i32 786478, i32 0, metadata !49, metadata !"xalloc", metadata !"xalloc", metadata !"_ZNSt8ios_base6xallocEv", metadata !5, i32 726, metadata !54, i1 false, i1 false, i32 0, i32 0, null, i32 256, i1 false, null, null, i32 0, metadata !89, i32 726} ; [ DW_TAG_subprogram ]
!932 = metadata !{i32 786478, i32 0, metadata !49, metadata !"iword", metadata !"iword", metadata !"_ZNSt8ios_base5iwordEi", metadata !5, i32 742, metadata !933, i1 false, i1 false, i32 0, i32 0, null, i32 256, i1 false, null, null, i32 0, metadata !89, i32 742} ; [ DW_TAG_subprogram ]
!933 = metadata !{i32 786453, i32 0, metadata !"", i32 0, i32 0, i64 0, i64 0, i64 0, i32 0, null, metadata !934, i32 0, i32 0} ; [ DW_TAG_subroutine_type ]
!934 = metadata !{metadata !935, metadata !884, metadata !56}
!935 = metadata !{i32 786448, null, null, null, i32 0, i64 0, i64 0, i64 0, i32 0, metadata !64} ; [ DW_TAG_reference_type ]
!936 = metadata !{i32 786478, i32 0, metadata !49, metadata !"pword", metadata !"pword", metadata !"_ZNSt8ios_base5pwordEi", metadata !5, i32 763, metadata !937, i1 false, i1 false, i32 0, i32 0, null, i32 256, i1 false, null, null, i32 0, metadata !89, i32 763} ; [ DW_TAG_subprogram ]
!937 = metadata !{i32 786453, i32 0, metadata !"", i32 0, i32 0, i64 0, i64 0, i64 0, i32 0, null, metadata !938, i32 0, i32 0} ; [ DW_TAG_subroutine_type ]
!938 = metadata !{metadata !939, metadata !884, metadata !56}
!939 = metadata !{i32 786448, null, null, null, i32 0, i64 0, i64 0, i64 0, i32 0, metadata !101} ; [ DW_TAG_reference_type ]
!940 = metadata !{i32 786478, i32 0, metadata !49, metadata !"~ios_base", metadata !"~ios_base", metadata !"", metadata !5, i32 779, metadata !889, i1 false, i1 false, i32 1, i32 0, metadata !49, i32 256, i1 false, null, null, i32 0, metadata !89, i32 779} ; [ DW_TAG_subprogram ]
!941 = metadata !{i32 786478, i32 0, metadata !49, metadata !"ios_base", metadata !"ios_base", metadata !"", metadata !5, i32 782, metadata !889, i1 false, i1 false, i32 0, i32 0, null, i32 258, i1 false, null, null, i32 0, metadata !89, i32 782} ; [ DW_TAG_subprogram ]
!942 = metadata !{i32 786478, i32 0, metadata !49, metadata !"ios_base", metadata !"ios_base", metadata !"", metadata !5, i32 787, metadata !943, i1 false, i1 false, i32 0, i32 0, null, i32 257, i1 false, null, null, i32 0, metadata !89, i32 787} ; [ DW_TAG_subprogram ]
!943 = metadata !{i32 786453, i32 0, metadata !"", i32 0, i32 0, i64 0, i64 0, i64 0, i32 0, null, metadata !944, i32 0, i32 0} ; [ DW_TAG_subroutine_type ]
!944 = metadata !{null, metadata !884, metadata !945}
!945 = metadata !{i32 786448, null, null, null, i32 0, i64 0, i64 0, i64 0, i32 0, metadata !900} ; [ DW_TAG_reference_type ]
!946 = metadata !{i32 786478, i32 0, metadata !49, metadata !"operator=", metadata !"operator=", metadata !"_ZNSt8ios_baseaSERKS_", metadata !5, i32 790, metadata !947, i1 false, i1 false, i32 0, i32 0, null, i32 257, i1 false, null, null, i32 0, metadata !89, i32 790} ; [ DW_TAG_subprogram ]
!947 = metadata !{i32 786453, i32 0, metadata !"", i32 0, i32 0, i64 0, i64 0, i64 0, i32 0, null, metadata !948, i32 0, i32 0} ; [ DW_TAG_subroutine_type ]
!948 = metadata !{metadata !81, metadata !884, metadata !945}
!949 = metadata !{metadata !950, metadata !951, metadata !952}
!950 = metadata !{i32 786472, metadata !"erase_event", i64 0} ; [ DW_TAG_enumerator ]
!951 = metadata !{i32 786472, metadata !"imbue_event", i64 1} ; [ DW_TAG_enumerator ]
!952 = metadata !{i32 786472, metadata !"copyfmt_event", i64 2} ; [ DW_TAG_enumerator ]
!953 = metadata !{i32 786436, null, metadata !"ap_q_mode", metadata !954, i32 658, i64 3, i64 4, i32 0, i32 0, null, metadata !955, i32 0, i32 0} ; [ DW_TAG_enumeration_type ]
!954 = metadata !{i32 786473, metadata !"/data/opt/Xilinx/Vivado/2017.4/common/technology/autopilot/ap_int_syn.h", metadata !"/home/iavendano/pynq-copter/pynqcopter/ip/pidfixed", null} ; [ DW_TAG_file_type ]
!955 = metadata !{metadata !956, metadata !957, metadata !958, metadata !959, metadata !960, metadata !961, metadata !962}
!956 = metadata !{i32 786472, metadata !"SC_RND", i64 0} ; [ DW_TAG_enumerator ]
!957 = metadata !{i32 786472, metadata !"SC_RND_ZERO", i64 1} ; [ DW_TAG_enumerator ]
!958 = metadata !{i32 786472, metadata !"SC_RND_MIN_INF", i64 2} ; [ DW_TAG_enumerator ]
!959 = metadata !{i32 786472, metadata !"SC_RND_INF", i64 3} ; [ DW_TAG_enumerator ]
!960 = metadata !{i32 786472, metadata !"SC_RND_CONV", i64 4} ; [ DW_TAG_enumerator ]
!961 = metadata !{i32 786472, metadata !"SC_TRN", i64 5} ; [ DW_TAG_enumerator ]
!962 = metadata !{i32 786472, metadata !"SC_TRN_ZERO", i64 6} ; [ DW_TAG_enumerator ]
!963 = metadata !{i32 786436, null, metadata !"ap_o_mode", metadata !954, i32 668, i64 3, i64 4, i32 0, i32 0, null, metadata !964, i32 0, i32 0} ; [ DW_TAG_enumeration_type ]
!964 = metadata !{metadata !965, metadata !966, metadata !967, metadata !968, metadata !969}
!965 = metadata !{i32 786472, metadata !"SC_SAT", i64 0} ; [ DW_TAG_enumerator ]
!966 = metadata !{i32 786472, metadata !"SC_SAT_ZERO", i64 1} ; [ DW_TAG_enumerator ]
!967 = metadata !{i32 786472, metadata !"SC_SAT_SYM", i64 2} ; [ DW_TAG_enumerator ]
!968 = metadata !{i32 786472, metadata !"SC_WRAP", i64 3} ; [ DW_TAG_enumerator ]
!969 = metadata !{i32 786472, metadata !"SC_WRAP_SM", i64 4} ; [ DW_TAG_enumerator ]
!970 = metadata !{i32 786436, null, metadata !"BaseMode", metadata !954, i32 603, i64 5, i64 8, i32 0, i32 0, null, metadata !971, i32 0, i32 0} ; [ DW_TAG_enumeration_type ]
!971 = metadata !{metadata !972, metadata !973, metadata !974, metadata !975}
!972 = metadata !{i32 786472, metadata !"SC_BIN", i64 2} ; [ DW_TAG_enumerator ]
!973 = metadata !{i32 786472, metadata !"SC_OCT", i64 8} ; [ DW_TAG_enumerator ]
!974 = metadata !{i32 786472, metadata !"SC_DEC", i64 10} ; [ DW_TAG_enumerator ]
!975 = metadata !{i32 786472, metadata !"SC_HEX", i64 16} ; [ DW_TAG_enumerator ]
!976 = metadata !{i32 786436, metadata !977, metadata !"", metadata !978, i32 667, i64 5, i64 8, i32 0, i32 0, null, metadata !3251, i32 0, i32 0} ; [ DW_TAG_enumeration_type ]
!977 = metadata !{i32 786478, i32 0, null, metadata !"ap_fixed_base<18, 11, true, 5, 3, 0>", metadata !"ap_fixed_base<18, 11, true, 5, 3, 0>", metadata !"_ZN13ap_fixed_baseILi16ELi9ELb1EL9ap_q_mode5EL9ap_o_mode3ELi0EEC2ILi18ELi11ELb1ELS0_5ELS1_3ELi0EEERKS_IXT_EXT0_EXT1_EXT2_EXT3_EXT4_EE", metadata !978, i32 663, metadata !979, i1 false, i1 true, i32 0, i32 0, null, i32 256, i1 false, null, metadata !2027, null, metadata !89, i32 663} ; [ DW_TAG_subprogram ]
!978 = metadata !{i32 786473, metadata !"/data/opt/Xilinx/Vivado/2017.4/common/technology/autopilot/ap_fixed_syn.h", metadata !"/home/iavendano/pynq-copter/pynqcopter/ip/pidfixed", null} ; [ DW_TAG_file_type ]
!979 = metadata !{i32 786453, i32 0, metadata !"", i32 0, i32 0, i64 0, i64 0, i64 0, i32 0, null, metadata !980, i32 0, i32 0} ; [ DW_TAG_subroutine_type ]
!980 = metadata !{null, metadata !981, metadata !2025}
!981 = metadata !{i32 786447, i32 0, metadata !"", i32 0, i32 0, i64 64, i64 64, i64 0, i32 64, metadata !982} ; [ DW_TAG_pointer_type ]
!982 = metadata !{i32 786434, null, metadata !"ap_fixed_base<16, 9, true, 5, 3, 0>", metadata !978, i32 512, i64 16, i64 16, i32 0, i32 0, null, metadata !983, i32 0, null, metadata !3248} ; [ DW_TAG_class_type ]
!983 = metadata !{metadata !984, metadata !997, metadata !1000, metadata !1003, metadata !1006, metadata !1018, metadata !1024, metadata !1027, metadata !1030, metadata !1034, metadata !1038, metadata !1042, metadata !1045, metadata !1048, metadata !1052, metadata !1055, metadata !1058, metadata !1063, metadata !1068, metadata !1071, metadata !1074, metadata !1079, metadata !1083, metadata !1088, metadata !1091, metadata !1094, metadata !1097, metadata !1100, metadata !1103, metadata !1106, metadata !1110, metadata !1113, metadata !1117, metadata !1120, metadata !1123, metadata !1126, metadata !1411, metadata !1414, metadata !1417, metadata !1420, metadata !1423, metadata !1426, metadata !1429, metadata !1432, metadata !1433, metadata !1434, metadata !1435, metadata !1438, metadata !1441, metadata !1444, metadata !1447, metadata !1450, metadata !1453, metadata !1454, metadata !1455, metadata !1458, metadata !1461, metadata !1464, metadata !1467, metadata !1468, metadata !1471, metadata !1474, metadata !1475, metadata !1478, metadata !1479, metadata !1482, metadata !3172, metadata !3173, metadata !3174, metadata !3177, metadata !3180, metadata !3183, metadata !3184, metadata !3185, metadata !3188, metadata !3191, metadata !3192, metadata !3193, metadata !3196, metadata !3197, metadata !3198, metadata !3199, metadata !3200, metadata !3201, metadata !3205, metadata !3208, metadata !3209, metadata !3210, metadata !3213, metadata !3216, metadata !3220, metadata !3221, metadata !3224, metadata !3225, metadata !3228, metadata !3231, metadata !3232, metadata !3233, metadata !3234, metadata !3235, metadata !3238, metadata !3241, metadata !3242, metadata !3245}
!984 = metadata !{i32 786460, metadata !982, null, metadata !978, i32 0, i64 0, i64 0, i64 0, i32 0, metadata !985} ; [ DW_TAG_inheritance ]
!985 = metadata !{i32 786434, null, metadata !"ssdm_int<16 + 1024 * 0, true>", metadata !986, i32 18, i64 16, i64 16, i32 0, i32 0, null, metadata !987, i32 0, null, metadata !994} ; [ DW_TAG_class_type ]
!986 = metadata !{i32 786473, metadata !"/data/opt/Xilinx/Vivado/2017.4/common/technology/autopilot/etc/autopilot_dt.def", metadata !"/home/iavendano/pynq-copter/pynqcopter/ip/pidfixed", null} ; [ DW_TAG_file_type ]
!987 = metadata !{metadata !988, metadata !990}
!988 = metadata !{i32 786445, metadata !985, metadata !"V", metadata !986, i32 18, i64 16, i64 16, i64 0, i32 0, metadata !989} ; [ DW_TAG_member ]
!989 = metadata !{i32 786468, null, metadata !"int16", null, i32 0, i64 16, i64 16, i64 0, i32 0, i32 5} ; [ DW_TAG_base_type ]
!990 = metadata !{i32 786478, i32 0, metadata !985, metadata !"ssdm_int", metadata !"ssdm_int", metadata !"", metadata !986, i32 18, metadata !991, i1 false, i1 false, i32 0, i32 0, null, i32 256, i1 false, null, null, i32 0, metadata !89, i32 18} ; [ DW_TAG_subprogram ]
!991 = metadata !{i32 786453, i32 0, metadata !"", i32 0, i32 0, i64 0, i64 0, i64 0, i32 0, null, metadata !992, i32 0, i32 0} ; [ DW_TAG_subroutine_type ]
!992 = metadata !{null, metadata !993}
!993 = metadata !{i32 786447, i32 0, metadata !"", i32 0, i32 0, i64 64, i64 64, i64 0, i32 64, metadata !985} ; [ DW_TAG_pointer_type ]
!994 = metadata !{metadata !995, metadata !996}
!995 = metadata !{i32 786480, null, metadata !"_AP_N", metadata !56, i64 16, null, i32 0, i32 0} ; [ DW_TAG_template_value_parameter ]
!996 = metadata !{i32 786480, null, metadata !"_AP_S", metadata !238, i64 1, null, i32 0, i32 0} ; [ DW_TAG_template_value_parameter ]
!997 = metadata !{i32 786478, i32 0, metadata !982, metadata !"overflow_adjust", metadata !"overflow_adjust", metadata !"_ZN13ap_fixed_baseILi16ELi9ELb1EL9ap_q_mode5EL9ap_o_mode3ELi0EE15overflow_adjustEbbbb", metadata !978, i32 522, metadata !998, i1 false, i1 false, i32 0, i32 0, null, i32 256, i1 false, null, null, i32 0, metadata !89, i32 522} ; [ DW_TAG_subprogram ]
!998 = metadata !{i32 786453, i32 0, metadata !"", i32 0, i32 0, i64 0, i64 0, i64 0, i32 0, null, metadata !999, i32 0, i32 0} ; [ DW_TAG_subroutine_type ]
!999 = metadata !{null, metadata !981, metadata !238, metadata !238, metadata !238, metadata !238}
!1000 = metadata !{i32 786478, i32 0, metadata !982, metadata !"quantization_adjust", metadata !"quantization_adjust", metadata !"_ZN13ap_fixed_baseILi16ELi9ELb1EL9ap_q_mode5EL9ap_o_mode3ELi0EE19quantization_adjustEbbb", metadata !978, i32 595, metadata !1001, i1 false, i1 false, i32 0, i32 0, null, i32 256, i1 false, null, null, i32 0, metadata !89, i32 595} ; [ DW_TAG_subprogram ]
!1001 = metadata !{i32 786453, i32 0, metadata !"", i32 0, i32 0, i64 0, i64 0, i64 0, i32 0, null, metadata !1002, i32 0, i32 0} ; [ DW_TAG_subroutine_type ]
!1002 = metadata !{metadata !238, metadata !981, metadata !238, metadata !238, metadata !238}
!1003 = metadata !{i32 786478, i32 0, metadata !982, metadata !"ap_fixed_base", metadata !"ap_fixed_base", metadata !"", metadata !978, i32 653, metadata !1004, i1 false, i1 false, i32 0, i32 0, null, i32 256, i1 false, null, null, i32 0, metadata !89, i32 653} ; [ DW_TAG_subprogram ]
!1004 = metadata !{i32 786453, i32 0, metadata !"", i32 0, i32 0, i64 0, i64 0, i64 0, i32 0, null, metadata !1005, i32 0, i32 0} ; [ DW_TAG_subroutine_type ]
!1005 = metadata !{null, metadata !981}
!1006 = metadata !{i32 786478, i32 0, metadata !982, metadata !"ap_fixed_base<16, 9, true, 5, 3, 0>", metadata !"ap_fixed_base<16, 9, true, 5, 3, 0>", metadata !"", metadata !978, i32 663, metadata !1007, i1 false, i1 false, i32 0, i32 0, null, i32 256, i1 false, null, metadata !1011, i32 0, metadata !89, i32 663} ; [ DW_TAG_subprogram ]
!1007 = metadata !{i32 786453, i32 0, metadata !"", i32 0, i32 0, i64 0, i64 0, i64 0, i32 0, null, metadata !1008, i32 0, i32 0} ; [ DW_TAG_subroutine_type ]
!1008 = metadata !{null, metadata !981, metadata !1009}
!1009 = metadata !{i32 786448, null, null, null, i32 0, i64 0, i64 0, i64 0, i32 0, metadata !1010} ; [ DW_TAG_reference_type ]
!1010 = metadata !{i32 786470, null, metadata !"", null, i32 0, i64 0, i64 0, i64 0, i32 0, metadata !982} ; [ DW_TAG_const_type ]
!1011 = metadata !{metadata !1012, metadata !1013, metadata !1014, metadata !1015, metadata !1016, metadata !1017}
!1012 = metadata !{i32 786480, null, metadata !"_AP_W2", metadata !56, i64 16, null, i32 0, i32 0} ; [ DW_TAG_template_value_parameter ]
!1013 = metadata !{i32 786480, null, metadata !"_AP_I2", metadata !56, i64 9, null, i32 0, i32 0} ; [ DW_TAG_template_value_parameter ]
!1014 = metadata !{i32 786480, null, metadata !"_AP_S2", metadata !238, i64 1, null, i32 0, i32 0} ; [ DW_TAG_template_value_parameter ]
!1015 = metadata !{i32 786480, null, metadata !"_AP_Q2", metadata !953, i64 5, null, i32 0, i32 0} ; [ DW_TAG_template_value_parameter ]
!1016 = metadata !{i32 786480, null, metadata !"_AP_O2", metadata !963, i64 3, null, i32 0, i32 0} ; [ DW_TAG_template_value_parameter ]
