; ModuleID = '/home/brennan/Documents/pynq-copter/pynqcopter/ip/rc_receiver/rc_receiver/rc_receiver/.autopilot/db/a.o.3.bc'
target datalayout = "e-p:64:64:64-i1:8:8-i8:8:8-i16:16:16-i32:32:32-i64:64:64-f32:32:32-f64:64:64-v64:64:64-v128:128:128-a0:0:64-s0:64:64-f80:128:128-n8:16:32:64-S128"
target triple = "x86_64-unknown-linux-gnu"

@rc_receiver_str = internal unnamed_addr constant [12 x i8] c"rc_receiver\00" ; [#uses=1 type=[12 x i8]*]
@llvm_global_ctors_1 = appending global [2 x void ()*] [void ()* @_GLOBAL__I_a, void ()* @_GLOBAL__I_a12] ; [#uses=0 type=[2 x void ()*]*]
@llvm_global_ctors_0 = appending global [2 x i32] [i32 65535, i32 65535] ; [#uses=0 type=[2 x i32]*]
@last_on_V = internal unnamed_addr global i5 0    ; [#uses=2 type=i5*]
@acc = internal unnamed_addr global i32 0, align 4 ; [#uses=2 type=i32*]
@p_str6 = private unnamed_addr constant [8 x i8] c"ap_none\00", align 1 ; [#uses=1 type=[8 x i8]*]
@p_str5 = private unnamed_addr constant [4 x i8] c"off\00", align 1 ; [#uses=1 type=[4 x i8]*]
@p_str4 = private unnamed_addr constant [6 x i8] c"m_axi\00", align 1 ; [#uses=1 type=[6 x i8]*]
@p_str3 = private unnamed_addr constant [3 x i8] c"in\00", align 1 ; [#uses=3 type=[3 x i8]*]
@p_str2 = private unnamed_addr constant [1 x i8] zeroinitializer, align 1 ; [#uses=27 type=[1 x i8]*]
@p_str = private unnamed_addr constant [10 x i8] c"s_axilite\00", align 1 ; [#uses=3 type=[10 x i8]*]

; [#uses=0]
define void @rc_receiver(i32 %min_high, i32 %max_high, i16* %mixer_out_V, i5 %channels_V) {
codeRepl:
  call void (...)* @_ssdm_op_SpecBitsMap(i32 %min_high), !map !89
  call void (...)* @_ssdm_op_SpecBitsMap(i32 %max_high), !map !95
  call void (...)* @_ssdm_op_SpecBitsMap(i16* %mixer_out_V), !map !99
  call void (...)* @_ssdm_op_SpecBitsMap(i5 %channels_V), !map !105
  call void (...)* @_ssdm_op_SpecTopModule([12 x i8]* @rc_receiver_str) nounwind
  %channels_V_read = call i5 @_ssdm_op_Read.ap_none.i5(i5 %channels_V) ; [#uses=6 type=i5]
  call void @llvm.dbg.value(metadata !{i5 %channels_V_read}, i64 0, metadata !109), !dbg !540 ; [debug line = 280:84@83:2] [debug variable = op2.V]
  %max_high_read = call i32 @_ssdm_op_Read.s_axilite.i32(i32 %max_high) ; [#uses=1 type=i32]
  call void @llvm.dbg.value(metadata !{i32 %max_high_read}, i64 0, metadata !1221), !dbg !1222 ; [debug line = 39:17] [debug variable = max_high]
  %min_high_read = call i32 @_ssdm_op_Read.s_axilite.i32(i32 %min_high) ; [#uses=2 type=i32]
  call void @llvm.dbg.value(metadata !{i32 %min_high_read}, i64 0, metadata !1223), !dbg !1224 ; [debug line = 38:17] [debug variable = min_high]
  call void @llvm.dbg.value(metadata !{i32 %min_high}, i64 0, metadata !1223), !dbg !1224 ; [debug line = 38:17] [debug variable = min_high]
  call void @llvm.dbg.value(metadata !{i32 %max_high}, i64 0, metadata !1221), !dbg !1222 ; [debug line = 39:17] [debug variable = max_high]
  call void @llvm.dbg.value(metadata !{i16* %mixer_out_V}, i64 0, metadata !1225), !dbg !1236 ; [debug line = 40:8] [debug variable = mixer_out.V]
  call void (...)* @_ssdm_op_SpecInterface(i32 %min_high, [10 x i8]* @p_str, i32 0, i32 0, [1 x i8]* @p_str2, i32 0, i32 0, [3 x i8]* @p_str3, [1 x i8]* @p_str2, [1 x i8]* @p_str2, i32 0, i32 0, i32 0, i32 0, [1 x i8]* @p_str2, [1 x i8]* @p_str2) nounwind, !dbg !1237 ; [debug line = 45:1]
  call void (...)* @_ssdm_op_SpecInterface(i32 %max_high, [10 x i8]* @p_str, i32 0, i32 0, [1 x i8]* @p_str2, i32 0, i32 0, [3 x i8]* @p_str3, [1 x i8]* @p_str2, [1 x i8]* @p_str2, i32 0, i32 0, i32 0, i32 0, [1 x i8]* @p_str2, [1 x i8]* @p_str2) nounwind, !dbg !1238 ; [debug line = 46:1]
  call void (...)* @_ssdm_op_SpecInterface(i32 0, [10 x i8]* @p_str, i32 0, i32 0, [1 x i8]* @p_str2, i32 0, i32 0, [3 x i8]* @p_str3, [1 x i8]* @p_str2, [1 x i8]* @p_str2, i32 0, i32 0, i32 0, i32 0, [1 x i8]* @p_str2, [1 x i8]* @p_str2) nounwind, !dbg !1239 ; [debug line = 47:1]
  call void (...)* @_ssdm_op_SpecInterface(i16* %mixer_out_V, [6 x i8]* @p_str4, i32 0, i32 0, [1 x i8]* @p_str2, i32 0, i32 0, [1 x i8]* @p_str2, [4 x i8]* @p_str5, [1 x i8]* @p_str2, i32 16, i32 16, i32 16, i32 16, [1 x i8]* @p_str2, [1 x i8]* @p_str2)
  call void (...)* @_ssdm_op_SpecInterface(i5 %channels_V, [8 x i8]* @p_str6, i32 0, i32 0, [1 x i8]* @p_str2, i32 0, i32 0, [1 x i8]* @p_str2, [1 x i8]* @p_str2, [1 x i8]* @p_str2, i32 0, i32 0, i32 0, i32 0, [1 x i8]* @p_str2, [1 x i8]* @p_str2) nounwind, !dbg !1240 ; [debug line = 51:1]
  call void (...)* @_ssdm_op_SpecPipeline(i32 -1, i32 1, i32 1, i32 0, [1 x i8]* @p_str2) nounwind, !dbg !1241 ; [debug line = 52:1]
  %p_Val2_s = load i5* @last_on_V, align 1, !dbg !1242 ; [#uses=5 type=i5] [debug line = 1259:147@69:7]
  call void @llvm.dbg.value(metadata !{i5 %channels_V}, i64 0, metadata !1249), !dbg !1250 ; [debug line = 1259:147@65:6] [debug variable = __Val2__]
  %tmp_4 = trunc i5 %channels_V_read to i1, !dbg !1252 ; [#uses=3 type=i1] [debug line = 1259:149@65:6]
  %acc_load = load i32* @acc, align 4, !dbg !1253 ; [#uses=2 type=i32] [debug line = 69:21]
  %tmp_1 = add i32 1, %acc_load, !dbg !1254       ; [#uses=1 type=i32] [debug line = 66:4]
  %acc_loc = select i1 %tmp_4, i32 %tmp_1, i32 %acc_load, !dbg !1251 ; [#uses=3 type=i32] [debug line = 65:6]
  call void @llvm.dbg.value(metadata !{i5 %p_Val2_s}, i64 0, metadata !1249), !dbg !1242 ; [debug line = 1259:147@69:7] [debug variable = __Val2__]
  %tmp_5 = trunc i5 %p_Val2_s to i1, !dbg !1256   ; [#uses=1 type=i1] [debug line = 1259:149@69:7]
  call void @llvm.dbg.value(metadata !{i5 %channels_V}, i64 0, metadata !1257), !dbg !1261 ; [debug line = 1404:90@69:21] [debug variable = __Val2__]
  %tmp_7 = xor i1 %tmp_4, true, !dbg !1253        ; [#uses=1 type=i1] [debug line = 69:21]
  %tmp_9 = and i1 %tmp_5, %tmp_7, !dbg !1253      ; [#uses=1 type=i1] [debug line = 69:21]
  %tmp_3 = icmp ugt i32 %acc_loc, 10, !dbg !1253  ; [#uses=1 type=i1] [debug line = 69:21]
  %or_cond = and i1 %tmp_9, %tmp_3, !dbg !1253    ; [#uses=4 type=i1] [debug line = 69:21]
  %p_acc_loc = select i1 %or_cond, i32 0, i32 %acc_loc, !dbg !1253 ; [#uses=2 type=i32] [debug line = 69:21]
  %acc_loc_s = select i1 %or_cond, i32 %acc_loc, i32 0, !dbg !1253 ; [#uses=1 type=i32] [debug line = 69:21]
  %tmp_10 = call i1 @_ssdm_op_BitSelect.i1.i5.i32(i5 %channels_V_read, i32 1), !dbg !1252 ; [#uses=3 type=i1] [debug line = 1259:149@65:6]
  %tmp_10_1 = add i32 1, %p_acc_loc, !dbg !1254   ; [#uses=1 type=i32] [debug line = 66:4]
  %acc_new_1 = select i1 %tmp_10, i32 %tmp_10_1, i32 %p_acc_loc, !dbg !1251 ; [#uses=3 type=i32] [debug line = 65:6]
  %tmp_11 = call i1 @_ssdm_op_BitSelect.i1.i5.i32(i5 %p_Val2_s, i32 1), !dbg !1256 ; [#uses=1 type=i1] [debug line = 1259:149@69:7]
  %tmp_11_1 = xor i1 %tmp_10, true, !dbg !1253    ; [#uses=1 type=i1] [debug line = 69:21]
  %tmp_12_1 = and i1 %tmp_11, %tmp_11_1, !dbg !1253 ; [#uses=1 type=i1] [debug line = 69:21]
  %tmp_14_1 = icmp ugt i32 %acc_new_1, 10, !dbg !1253 ; [#uses=1 type=i1] [debug line = 69:21]
  %or_cond_1 = and i1 %tmp_12_1, %tmp_14_1, !dbg !1253 ; [#uses=5 type=i1] [debug line = 69:21]
  %p_acc_new_1 = select i1 %or_cond_1, i32 0, i32 %acc_new_1, !dbg !1253 ; [#uses=2 type=i32] [debug line = 69:21]
  %p_cast = zext i1 %or_cond_1 to i2, !dbg !1253  ; [#uses=1 type=i2] [debug line = 69:21]
  %write_val_2_1_write_s = select i1 %or_cond_1, i32 %acc_new_1, i32 %acc_loc_s, !dbg !1253 ; [#uses=1 type=i32] [debug line = 69:21]
  %tmp_12 = call i1 @_ssdm_op_BitSelect.i1.i5.i32(i5 %channels_V_read, i32 2), !dbg !1252 ; [#uses=3 type=i1] [debug line = 1259:149@65:6]
  %tmp_10_2 = add i32 1, %p_acc_new_1, !dbg !1254 ; [#uses=1 type=i32] [debug line = 66:4]
  %acc_new_3 = select i1 %tmp_12, i32 %tmp_10_2, i32 %p_acc_new_1, !dbg !1251 ; [#uses=3 type=i32] [debug line = 65:6]
  %tmp_13 = call i1 @_ssdm_op_BitSelect.i1.i5.i32(i5 %p_Val2_s, i32 2), !dbg !1256 ; [#uses=1 type=i1] [debug line = 1259:149@69:7]
  %tmp_11_2 = xor i1 %tmp_12, true, !dbg !1253    ; [#uses=1 type=i1] [debug line = 69:21]
  %tmp_12_2 = and i1 %tmp_13, %tmp_11_2, !dbg !1253 ; [#uses=1 type=i1] [debug line = 69:21]
  %tmp_14_2 = icmp ugt i32 %acc_new_3, 10, !dbg !1253 ; [#uses=1 type=i1] [debug line = 69:21]
  %or_cond_2 = and i1 %tmp_12_2, %tmp_14_2, !dbg !1253 ; [#uses=5 type=i1] [debug line = 69:21]
  %p_acc_new_3 = select i1 %or_cond_2, i32 0, i32 %acc_new_3, !dbg !1253 ; [#uses=2 type=i32] [debug line = 69:21]
  %p_write_to_1_1 = select i1 %or_cond_2, i2 -2, i2 %p_cast, !dbg !1253 ; [#uses=1 type=i2] [debug line = 69:21]
  %p_write_to_1_1_cast = zext i2 %p_write_to_1_1 to i3, !dbg !1253 ; [#uses=1 type=i3] [debug line = 69:21]
  %write_val_2_2_write_s = select i1 %or_cond_2, i32 %acc_new_3, i32 %write_val_2_1_write_s, !dbg !1253 ; [#uses=1 type=i32] [debug line = 69:21]
  %tmp_14 = call i1 @_ssdm_op_BitSelect.i1.i5.i32(i5 %channels_V_read, i32 3), !dbg !1252 ; [#uses=3 type=i1] [debug line = 1259:149@65:6]
  %tmp_10_3 = add i32 1, %p_acc_new_3, !dbg !1254 ; [#uses=1 type=i32] [debug line = 66:4]
  %acc_new_5 = select i1 %tmp_14, i32 %tmp_10_3, i32 %p_acc_new_3, !dbg !1251 ; [#uses=3 type=i32] [debug line = 65:6]
  %tmp_15 = call i1 @_ssdm_op_BitSelect.i1.i5.i32(i5 %p_Val2_s, i32 3), !dbg !1256 ; [#uses=1 type=i1] [debug line = 1259:149@69:7]
  %tmp_11_3 = xor i1 %tmp_14, true, !dbg !1253    ; [#uses=1 type=i1] [debug line = 69:21]
  %tmp_12_3 = and i1 %tmp_15, %tmp_11_3, !dbg !1253 ; [#uses=1 type=i1] [debug line = 69:21]
  %tmp_14_3 = icmp ugt i32 %acc_new_5, 10, !dbg !1253 ; [#uses=1 type=i1] [debug line = 69:21]
  %or_cond_3 = and i1 %tmp_12_3, %tmp_14_3, !dbg !1253 ; [#uses=4 type=i1] [debug line = 69:21]
  %p_acc_new_5 = select i1 %or_cond_3, i32 0, i32 %acc_new_5, !dbg !1253 ; [#uses=2 type=i32] [debug line = 69:21]
  %write_val_2_3_write_s = select i1 %or_cond_3, i32 %acc_new_5, i32 %write_val_2_2_write_s, !dbg !1253 ; [#uses=1 type=i32] [debug line = 69:21]
  %tmp_16 = call i1 @_ssdm_op_BitSelect.i1.i5.i32(i5 %channels_V_read, i32 4), !dbg !1252 ; [#uses=3 type=i1] [debug line = 1259:149@65:6]
  %tmp_10_4 = add i32 1, %p_acc_new_5, !dbg !1254 ; [#uses=1 type=i32] [debug line = 66:4]
  %acc_new_7 = select i1 %tmp_16, i32 %tmp_10_4, i32 %p_acc_new_5, !dbg !1251 ; [#uses=3 type=i32] [debug line = 65:6]
  %tmp_17 = call i1 @_ssdm_op_BitSelect.i1.i5.i32(i5 %p_Val2_s, i32 4), !dbg !1256 ; [#uses=1 type=i1] [debug line = 1259:149@69:7]
  %tmp_11_4 = xor i1 %tmp_16, true, !dbg !1253    ; [#uses=1 type=i1] [debug line = 69:21]
  %tmp_12_4 = and i1 %tmp_17, %tmp_11_4, !dbg !1253 ; [#uses=1 type=i1] [debug line = 69:21]
  %tmp_14_4 = icmp ugt i32 %acc_new_7, 10, !dbg !1253 ; [#uses=1 type=i1] [debug line = 69:21]
  %or_cond_4 = and i1 %tmp_12_4, %tmp_14_4, !dbg !1253 ; [#uses=5 type=i1] [debug line = 69:21]
  %tmp2 = or i1 %or_cond, %tmp_4, !dbg !1253      ; [#uses=1 type=i1] [debug line = 69:21]
  %tmp4 = or i1 %or_cond_1, %tmp_12, !dbg !1253   ; [#uses=1 type=i1] [debug line = 69:21]
  %tmp3 = or i1 %tmp4, %tmp_10, !dbg !1253        ; [#uses=1 type=i1] [debug line = 69:21]
  %tmp1 = or i1 %tmp3, %tmp2, !dbg !1253          ; [#uses=1 type=i1] [debug line = 69:21]
  %tmp6 = or i1 %or_cond_2, %tmp_14, !dbg !1253   ; [#uses=1 type=i1] [debug line = 69:21]
  %tmp8 = or i1 %tmp_16, %or_cond_4, !dbg !1253   ; [#uses=1 type=i1] [debug line = 69:21]
  %tmp7 = or i1 %tmp8, %or_cond_3, !dbg !1253     ; [#uses=1 type=i1] [debug line = 69:21]
  %tmp5 = or i1 %tmp7, %tmp6, !dbg !1253          ; [#uses=1 type=i1] [debug line = 69:21]
  %p_acc_flag_7 = or i1 %tmp5, %tmp1, !dbg !1253  ; [#uses=1 type=i1] [debug line = 69:21]
  %p_acc_new_7 = select i1 %or_cond_4, i32 0, i32 %acc_new_7, !dbg !1253 ; [#uses=1 type=i32] [debug line = 69:21]
  %p_write_to_1_2 = select i1 %or_cond_4, i3 -4, i3 3, !dbg !1253 ; [#uses=1 type=i3] [debug line = 69:21]
  %tmp = or i1 %or_cond_4, %or_cond_3, !dbg !1253 ; [#uses=2 type=i1] [debug line = 69:21]
  %p_write_to_1_3 = select i1 %tmp, i3 %p_write_to_1_2, i3 %p_write_to_1_1_cast, !dbg !1253 ; [#uses=1 type=i3] [debug line = 69:21]
  %tmp9 = or i1 %or_cond_1, %or_cond, !dbg !1253  ; [#uses=1 type=i1] [debug line = 69:21]
  %tmp10 = or i1 %tmp, %or_cond_2, !dbg !1253     ; [#uses=1 type=i1] [debug line = 69:21]
  %p_should_write_1_3 = or i1 %tmp10, %tmp9, !dbg !1253 ; [#uses=1 type=i1] [debug line = 69:21]
  %write_val_2_4_write_s = select i1 %or_cond_4, i32 %acc_new_7, i32 %write_val_2_3_write_s, !dbg !1253 ; [#uses=1 type=i32] [debug line = 69:21]
  br i1 %p_acc_flag_7, label %mergeST, label %._crit_edge70.4.new

; <label>:0                                       ; preds = %._crit_edge70.4.new
  %tmp_2 = zext i3 %p_write_to_1_3 to i64, !dbg !1262 ; [#uses=1 type=i64] [debug line = 80:3]
  %p_Val2_1 = sub i32 %write_val_2_4_write_s, %min_high_read, !dbg !1264 ; [#uses=1 type=i32] [debug line = 80:27]
  call void @llvm.dbg.value(metadata !{i32 %p_Val2_1}, i64 0, metadata !1265), !dbg !3558 ; [debug line = 496:64@80:27] [debug variable = v]
  call void @llvm.dbg.value(metadata !{i32 %p_Val2_1}, i64 0, metadata !3559), !dbg !3561 ; [debug line = 496:64@496:76@80:27] [debug variable = v]
  call void @llvm.dbg.value(metadata !{i32 %p_Val2_1}, i64 0, metadata !3563), !dbg !3565 ; [debug line = 796:71@496:75@496:76@80:27] [debug variable = b]
  call void @llvm.dbg.value(metadata !{i32 %p_Val2_1}, i64 0, metadata !3567), !dbg !3569 ; [debug line = 2233:0@796:77@496:75@496:76@80:27] [debug variable = i_op]
  call void @llvm.dbg.value(metadata !{i32 %p_Val2_1}, i64 0, metadata !3572), !dbg !3574 ; [debug line = 2233:0@2233:0@796:77@496:75@496:76@80:27] [debug variable = i_op]
  call void @llvm.dbg.value(metadata !{i32 %p_Val2_1}, i64 0, metadata !3575) nounwind, !dbg !3581 ; [debug line = 675:0@773:5@796:77@496:75@496:76@80:27] [debug variable = __Val2__]
  %p_Val2_2 = sub i32 %max_high_read, %min_high_read, !dbg !1264 ; [#uses=1 type=i32] [debug line = 80:27]
  call void @llvm.dbg.value(metadata !{i32 %p_Val2_2}, i64 0, metadata !1265), !dbg !3558 ; [debug line = 496:64@80:27] [debug variable = v]
  call void @llvm.dbg.value(metadata !{i32 %p_Val2_2}, i64 0, metadata !3559), !dbg !3561 ; [debug line = 496:64@496:76@80:27] [debug variable = v]
  call void @llvm.dbg.value(metadata !{i32 %p_Val2_2}, i64 0, metadata !3563), !dbg !3565 ; [debug line = 796:71@496:75@496:76@80:27] [debug variable = b]
  call void @llvm.dbg.value(metadata !{i32 %p_Val2_2}, i64 0, metadata !3567), !dbg !3569 ; [debug line = 2233:0@796:77@496:75@496:76@80:27] [debug variable = i_op]
  call void @llvm.dbg.value(metadata !{i32 %p_Val2_2}, i64 0, metadata !3572), !dbg !3574 ; [debug line = 2233:0@2233:0@796:77@496:75@496:76@80:27] [debug variable = i_op]
  call void @llvm.dbg.value(metadata !{i32 %p_Val2_2}, i64 0, metadata !3575) nounwind, !dbg !3581 ; [debug line = 675:0@773:5@796:77@496:75@496:76@80:27] [debug variable = __Val2__]
  %tmp_6 = call i48 @_ssdm_op_BitConcatenate.i48.i32.i16(i32 %p_Val2_2, i16 0), !dbg !3582 ; [#uses=1 type=i48] [debug line = 703:17@773:5@796:77@496:75@496:76@80:27]
  %tmp_8 = call i63 @_ssdm_op_BitConcatenate.i63.i32.i31(i32 %p_Val2_1, i31 0), !dbg !3584 ; [#uses=1 type=i63] [debug line = 703:17@773:5@1377:45@80:27]
  %tmp_9_cast = zext i48 %tmp_6 to i63, !dbg !3865 ; [#uses=1 type=i63] [debug line = 682:17@338:43@338:44@80:27]
  %tmp_s = udiv i63 %tmp_8, %tmp_9_cast, !dbg !3865 ; [#uses=1 type=i63] [debug line = 682:17@338:43@338:44@80:27]
  %tmp_18 = trunc i63 %tmp_s to i16, !dbg !3865   ; [#uses=1 type=i16] [debug line = 682:17@338:43@338:44@80:27]
  %mixer_out_V_addr = getelementptr i16* %mixer_out_V, i64 %tmp_2 ; [#uses=3 type=i16*]
  %mixer_out_V_addr_req = call i1 @_ssdm_op_WriteReq.m_axi.i16P(i16* %mixer_out_V_addr, i32 1), !dbg !3875 ; [#uses=0 type=i1] [debug line = 388:5@80:27]
  call void @_ssdm_op_Write.m_axi.i16P(i16* %mixer_out_V_addr, i16 %tmp_18, i2 -1), !dbg !3875 ; [debug line = 388:5@80:27]
  %mixer_out_V_addr_res = call i1 @_ssdm_op_WriteResp.m_axi.i16P(i16* %mixer_out_V_addr), !dbg !3875 ; [#uses=0 type=i1] [debug line = 388:5@80:27]
  br label %._crit_edge71, !dbg !3878             ; [debug line = 82:2]

._crit_edge71:                                    ; preds = %._crit_edge70.4.new, %0
  call void @llvm.dbg.value(metadata !{i5 %channels_V}, i64 0, metadata !109), !dbg !540 ; [debug line = 280:84@83:2] [debug variable = op2.V]
  store i5 %channels_V_read, i5* @last_on_V, align 1, !dbg !3879 ; [debug line = 281:5@83:2]
  ret void, !dbg !3881                            ; [debug line = 85:2]

mergeST:                                          ; preds = %codeRepl
  store i32 %p_acc_new_7, i32* @acc, align 4, !dbg !1254 ; [debug line = 66:4]
  br label %._crit_edge70.4.new

._crit_edge70.4.new:                              ; preds = %mergeST, %codeRepl
  br i1 %p_should_write_1_3, label %0, label %._crit_edge71, !dbg !3882 ; [debug line = 79:2]
}

; [#uses=22]
declare void @llvm.dbg.value(metadata, i64, metadata) nounwind readnone

; [#uses=1]
define weak i1 @_ssdm_op_WriteResp.m_axi.i16P(i16*) {
entry:
  ret i1 true
}

; [#uses=1]
define weak i1 @_ssdm_op_WriteReq.m_axi.i16P(i16*, i32) {
entry:
  ret i1 true
}

; [#uses=1]
define weak void @_ssdm_op_Write.m_axi.i16P(i16*, i16, i2) {
entry:
  ret void
}

; [#uses=1]
define weak void @_ssdm_op_SpecTopModule(...) {
entry:
  ret void
}

; [#uses=1]
define weak void @_ssdm_op_SpecPipeline(...) nounwind {
entry:
  ret void
}

; [#uses=5]
define weak void @_ssdm_op_SpecInterface(...) nounwind {
entry:
  ret void
}

; [#uses=4]
define weak void @_ssdm_op_SpecBitsMap(...) {
entry:
  ret void
}

; [#uses=2]
define weak i32 @_ssdm_op_Read.s_axilite.i32(i32) {
entry:
  ret i32 %0
}

; [#uses=1]
define weak i5 @_ssdm_op_Read.ap_none.i5(i5) {
entry:
  ret i5 %0
}

; [#uses=0]
declare i16 @_ssdm_op_PartSelect.i16.i63.i32.i32(i63, i32, i32) nounwind readnone

; [#uses=0]
declare i1 @_ssdm_op_PartSelect.i1.i5.i32.i32(i5, i32, i32) nounwind readnone

; [#uses=8]
define weak i1 @_ssdm_op_BitSelect.i1.i5.i32(i5, i32) nounwind readnone {
entry:
  %empty = trunc i32 %1 to i5                     ; [#uses=1 type=i5]
  %empty_2 = shl i5 1, %empty                     ; [#uses=1 type=i5]
  %empty_3 = and i5 %0, %empty_2                  ; [#uses=1 type=i5]
  %empty_4 = icmp ne i5 %empty_3, 0               ; [#uses=1 type=i1]
  ret i1 %empty_4
}

; [#uses=1]
define weak i63 @_ssdm_op_BitConcatenate.i63.i32.i31(i32, i31) nounwind readnone {
entry:
  %empty = zext i32 %0 to i63                     ; [#uses=1 type=i63]
  %empty_5 = zext i31 %1 to i63                   ; [#uses=1 type=i63]
  %empty_6 = shl i63 %empty, 31                   ; [#uses=1 type=i63]
  %empty_7 = or i63 %empty_6, %empty_5            ; [#uses=1 type=i63]
  ret i63 %empty_7
}

; [#uses=1]
define weak i48 @_ssdm_op_BitConcatenate.i48.i32.i16(i32, i16) nounwind readnone {
entry:
  %empty = zext i32 %0 to i48                     ; [#uses=1 type=i48]
  %empty_8 = zext i16 %1 to i48                   ; [#uses=1 type=i48]
  %empty_9 = shl i48 %empty, 16                   ; [#uses=1 type=i48]
  %empty_10 = or i48 %empty_9, %empty_8           ; [#uses=1 type=i48]
  ret i48 %empty_10
}

; [#uses=1]
declare void @_GLOBAL__I_a12() nounwind section ".text.startup"

; [#uses=1]
declare void @_GLOBAL__I_a() nounwind section ".text.startup"

!opencl.kernels = !{!0, !7, !13, !16, !16, !16, !18, !24, !26, !26, !18, !18, !18, !27, !27, !30, !32, !32, !18, !34, !34, !26, !18, !18, !18, !36, !39, !39, !45, !45, !18, !18, !47, !47, !48, !49, !49, !18, !50, !50, !52, !18, !54, !54, !56, !18, !58, !58, !18, !59, !18, !18, !18, !63, !63, !65, !65, !67, !18, !18, !18, !69, !58, !58, !72, !18, !18, !18, !74, !74, !76, !76, !78, !18, !18, !18, !18, !18, !18, !80, !18, !18, !18, !18, !18, !47, !47, !48, !49, !49, !18, !50, !50, !52, !18, !54, !54, !56, !18, !58, !58, !18, !59, !18, !18, !18, !63, !63, !65, !65, !67, !18, !18, !18, !69, !58, !58, !72, !18, !18, !18, !74, !74, !76, !76, !78, !18, !18, !18, !18, !18, !18, !80, !18, !18, !18, !18, !18}
!hls.encrypted.func = !{}
!llvm.map.gv = !{!82}

!0 = metadata !{null, metadata !1, metadata !2, metadata !3, metadata !4, metadata !5, metadata !6}
!1 = metadata !{metadata !"kernel_arg_addr_space", i32 0, i32 0, i32 1, i32 0}
!2 = metadata !{metadata !"kernel_arg_access_qual", metadata !"none", metadata !"none", metadata !"none", metadata !"none"}
!3 = metadata !{metadata !"kernel_arg_type", metadata !"uint", metadata !"uint", metadata !"F_t*", metadata !"C_t"}
!4 = metadata !{metadata !"kernel_arg_type_qual", metadata !"", metadata !"", metadata !"", metadata !""}
!5 = metadata !{metadata !"kernel_arg_name", metadata !"min_high", metadata !"max_high", metadata !"mixer_out", metadata !"channels"}
!6 = metadata !{metadata !"reqd_work_group_size", i32 1, i32 1, i32 1}
!7 = metadata !{null, metadata !8, metadata !9, metadata !10, metadata !11, metadata !12, metadata !6}
!8 = metadata !{metadata !"kernel_arg_addr_space", i32 0}
!9 = metadata !{metadata !"kernel_arg_access_qual", metadata !"none"}
!10 = metadata !{metadata !"kernel_arg_type", metadata !"const ap_uint<5> &"}
!11 = metadata !{metadata !"kernel_arg_type_qual", metadata !""}
!12 = metadata !{metadata !"kernel_arg_name", metadata !"op2"}
!13 = metadata !{null, metadata !8, metadata !9, metadata !14, metadata !11, metadata !15, metadata !6}
!14 = metadata !{metadata !"kernel_arg_type", metadata !"const ap_fixed<16, 1, (enum ap_q_mode)5, (enum ap_o_mode)3, 0> &"}
!15 = metadata !{metadata !"kernel_arg_name", metadata !"op"}
!16 = metadata !{null, metadata !8, metadata !9, metadata !17, metadata !11, metadata !15, metadata !6}
!17 = metadata !{metadata !"kernel_arg_type", metadata !"const ap_fixed_base<64, 48, false, (enum ap_q_mode)5, (enum ap_o_mode)3, 0> &"}
!18 = metadata !{null, metadata !19, metadata !20, metadata !21, metadata !22, metadata !23, metadata !6}
!19 = metadata !{metadata !"kernel_arg_addr_space"}
!20 = metadata !{metadata !"kernel_arg_access_qual"}
!21 = metadata !{metadata !"kernel_arg_type"}
!22 = metadata !{metadata !"kernel_arg_type_qual"}
!23 = metadata !{metadata !"kernel_arg_name"}
!24 = metadata !{null, metadata !8, metadata !9, metadata !25, metadata !11, metadata !12, metadata !6}
!25 = metadata !{metadata !"kernel_arg_type", metadata !"const ap_fixed_base<48, 32, false, (enum ap_q_mode)5, (enum ap_o_mode)3, 0> &"}
!26 = metadata !{null, metadata !8, metadata !9, metadata !25, metadata !11, metadata !15, metadata !6}
!27 = metadata !{null, metadata !8, metadata !9, metadata !28, metadata !11, metadata !29, metadata !6}
!28 = metadata !{metadata !"kernel_arg_type", metadata !"uint"}
!29 = metadata !{metadata !"kernel_arg_name", metadata !"v"}
!30 = metadata !{null, metadata !8, metadata !9, metadata !28, metadata !11, metadata !31, metadata !6}
!31 = metadata !{metadata !"kernel_arg_name", metadata !"b"}
!32 = metadata !{null, metadata !8, metadata !9, metadata !28, metadata !11, metadata !33, metadata !6}
!33 = metadata !{metadata !"kernel_arg_name", metadata !"i_op"}
!34 = metadata !{null, metadata !8, metadata !9, metadata !35, metadata !11, metadata !15, metadata !6}
!35 = metadata !{metadata !"kernel_arg_type", metadata !"const ap_fixed_base<32, 32, false, (enum ap_q_mode)5, (enum ap_o_mode)3, 0> &"}
!36 = metadata !{null, metadata !8, metadata !9, metadata !37, metadata !11, metadata !38, metadata !6}
!37 = metadata !{metadata !"kernel_arg_type", metadata !"int"}
!38 = metadata !{metadata !"kernel_arg_name", metadata !"index"}
!39 = metadata !{null, metadata !40, metadata !41, metadata !42, metadata !43, metadata !44, metadata !6}
!40 = metadata !{metadata !"kernel_arg_addr_space", i32 1, i32 0}
!41 = metadata !{metadata !"kernel_arg_access_qual", metadata !"none", metadata !"none"}
!42 = metadata !{metadata !"kernel_arg_type", metadata !"ap_int_base<5, false>*", metadata !"int"}
!43 = metadata !{metadata !"kernel_arg_type_qual", metadata !"", metadata !""}
!44 = metadata !{metadata !"kernel_arg_name", metadata !"bv", metadata !"index"}
!45 = metadata !{null, metadata !8, metadata !9, metadata !37, metadata !11, metadata !46, metadata !6}
!46 = metadata !{metadata !"kernel_arg_name", metadata !"val"}
!47 = metadata !{null, metadata !8, metadata !9, metadata !37, metadata !11, metadata !29, metadata !6}
!48 = metadata !{null, metadata !8, metadata !9, metadata !37, metadata !11, metadata !31, metadata !6}
!49 = metadata !{null, metadata !8, metadata !9, metadata !37, metadata !11, metadata !33, metadata !6}
!50 = metadata !{null, metadata !8, metadata !9, metadata !51, metadata !11, metadata !15, metadata !6}
!51 = metadata !{metadata !"kernel_arg_type", metadata !"const ap_fixed_base<32, 32, true, (enum ap_q_mode)5, (enum ap_o_mode)3, 0> &"}
!52 = metadata !{null, metadata !8, metadata !9, metadata !53, metadata !11, metadata !15, metadata !6}
!53 = metadata !{metadata !"kernel_arg_type", metadata !"const ap_fixed_base<19, 4, true, (enum ap_q_mode)5, (enum ap_o_mode)3, 0> &"}
!54 = metadata !{null, metadata !8, metadata !9, metadata !55, metadata !11, metadata !29, metadata !6}
!55 = metadata !{metadata !"kernel_arg_type", metadata !"double"}
!56 = metadata !{null, metadata !8, metadata !9, metadata !55, metadata !11, metadata !57, metadata !6}
!57 = metadata !{metadata !"kernel_arg_name", metadata !"d"}
!58 = metadata !{null, metadata !8, metadata !9, metadata !37, metadata !11, metadata !15, metadata !6}
!59 = metadata !{null, metadata !60, metadata !41, metadata !61, metadata !43, metadata !62, metadata !6}
!60 = metadata !{metadata !"kernel_arg_addr_space", i32 0, i32 0}
!61 = metadata !{metadata !"kernel_arg_type", metadata !"const ap_int_base<1, false> &", metadata !"const ap_int_base<54, true> &"}
!62 = metadata !{metadata !"kernel_arg_name", metadata !"op", metadata !"op2"}
!63 = metadata !{null, metadata !8, metadata !9, metadata !64, metadata !11, metadata !15, metadata !6}
!64 = metadata !{metadata !"kernel_arg_type", metadata !"const ap_int_base<54, true> &"}
!65 = metadata !{null, metadata !8, metadata !9, metadata !66, metadata !11, metadata !15, metadata !6}
!66 = metadata !{metadata !"kernel_arg_type", metadata !"const ap_int_base<1, false> &"}
!67 = metadata !{null, metadata !8, metadata !9, metadata !68, metadata !11, metadata !12, metadata !6}
!68 = metadata !{metadata !"kernel_arg_type", metadata !"const ap_int_base<55, true> &"}
!69 = metadata !{null, metadata !60, metadata !41, metadata !70, metadata !43, metadata !71, metadata !6}
!70 = metadata !{metadata !"kernel_arg_type", metadata !"const ap_int_base<11, false> &", metadata !"int"}
!71 = metadata !{metadata !"kernel_arg_name", metadata !"op", metadata !"i_op"}
!72 = metadata !{null, metadata !60, metadata !41, metadata !73, metadata !43, metadata !62, metadata !6}
!73 = metadata !{metadata !"kernel_arg_type", metadata !"const ap_int_base<11, false> &", metadata !"const ap_int_base<32, true> &"}
!74 = metadata !{null, metadata !8, metadata !9, metadata !75, metadata !11, metadata !15, metadata !6}
!75 = metadata !{metadata !"kernel_arg_type", metadata !"const ap_int_base<32, true> &"}
!76 = metadata !{null, metadata !8, metadata !9, metadata !77, metadata !11, metadata !15, metadata !6}
!77 = metadata !{metadata !"kernel_arg_type", metadata !"const ap_int_base<11, false> &"}
!78 = metadata !{null, metadata !8, metadata !9, metadata !79, metadata !11, metadata !12, metadata !6}
!79 = metadata !{metadata !"kernel_arg_type", metadata !"const ap_int_base<33, true> &"}
!80 = metadata !{null, metadata !8, metadata !9, metadata !55, metadata !11, metadata !81, metadata !6}
!81 = metadata !{metadata !"kernel_arg_name", metadata !"pf"}
!82 = metadata !{metadata !83, [2 x i32]* @llvm_global_ctors_0}
!83 = metadata !{metadata !84}
!84 = metadata !{i32 0, i32 31, metadata !85}
!85 = metadata !{metadata !86}
!86 = metadata !{metadata !"llvm.global_ctors.0", metadata !87, metadata !"", i32 0, i32 31}
!87 = metadata !{metadata !88}
!88 = metadata !{i32 0, i32 1, i32 1}
!89 = metadata !{metadata !90}
!90 = metadata !{i32 0, i32 31, metadata !91}
!91 = metadata !{metadata !92}
!92 = metadata !{metadata !"min_high", metadata !93, metadata !"unsigned int", i32 0, i32 31}
!93 = metadata !{metadata !94}
!94 = metadata !{i32 0, i32 0, i32 0}
!95 = metadata !{metadata !96}
!96 = metadata !{i32 0, i32 31, metadata !97}
!97 = metadata !{metadata !98}
!98 = metadata !{metadata !"max_high", metadata !93, metadata !"unsigned int", i32 0, i32 31}
!99 = metadata !{metadata !100}
!100 = metadata !{i32 0, i32 15, metadata !101}
!101 = metadata !{metadata !102}
!102 = metadata !{metadata !"mixer_out.V", metadata !103, metadata !"int16", i32 0, i32 15}
!103 = metadata !{metadata !104}
!104 = metadata !{i32 0, i32 4095, i32 1}
!105 = metadata !{metadata !106}
!106 = metadata !{i32 0, i32 4, metadata !107}
!107 = metadata !{metadata !108}
!108 = metadata !{metadata !"channels.V", metadata !93, metadata !"uint5", i32 0, i32 4}
!109 = metadata !{i32 790533, metadata !110, metadata !"op2.V", null, i32 280, metadata !533, i32 0, i32 0} ; [ DW_TAG_arg_variable_field_ro ]
!110 = metadata !{i32 786689, metadata !111, metadata !"op2", metadata !112, i32 33554712, metadata !459, i32 0, i32 0} ; [ DW_TAG_arg_variable ]
!111 = metadata !{i32 786478, i32 0, null, metadata !"operator=", metadata !"operator=", metadata !"_ZN7ap_uintILi5EEaSERKS0_", metadata !112, i32 280, metadata !113, i1 false, i1 true, i32 0, i32 0, null, i32 256, i1 false, null, null, metadata !529, metadata !132, i32 280} ; [ DW_TAG_subprogram ]
!112 = metadata !{i32 786473, metadata !"/home/brennan/Vivado/Vivado/2017.4/common/technology/autopilot/ap_int.h", metadata !"/home/brennan/Documents/pynq-copter/pynqcopter/ip/rc_receiver", null} ; [ DW_TAG_file_type ]
!113 = metadata !{i32 786453, i32 0, metadata !"", i32 0, i32 0, i64 0, i64 0, i64 0, i32 0, null, metadata !114, i32 0, i32 0} ; [ DW_TAG_subroutine_type ]
!114 = metadata !{metadata !115, metadata !455, metadata !459}
!115 = metadata !{i32 786448, null, null, null, i32 0, i64 0, i64 0, i64 0, i32 0, metadata !116} ; [ DW_TAG_reference_type ]
!116 = metadata !{i32 786434, null, metadata !"ap_uint<5>", metadata !112, i32 183, i64 8, i64 8, i32 0, i32 0, null, metadata !117, i32 0, null, metadata !532} ; [ DW_TAG_class_type ]
!117 = metadata !{metadata !118, metadata !452, metadata !456, metadata !462, metadata !468, metadata !471, metadata !474, metadata !477, metadata !480, metadata !483, metadata !486, metadata !489, metadata !492, metadata !495, metadata !498, metadata !501, metadata !504, metadata !507, metadata !510, metadata !513, metadata !516, metadata !519, metadata !523, metadata !526, metadata !529, metadata !530, metadata !531}
!118 = metadata !{i32 786460, metadata !116, null, metadata !112, i32 0, i64 0, i64 0, i64 0, i32 0, metadata !119} ; [ DW_TAG_inheritance ]
!119 = metadata !{i32 786434, null, metadata !"ap_int_base<5, false, true>", metadata !120, i32 1453, i64 8, i64 8, i32 0, i32 0, null, metadata !121, i32 0, null, metadata !450} ; [ DW_TAG_class_type ]
!120 = metadata !{i32 786473, metadata !"/home/brennan/Vivado/Vivado/2017.4/common/technology/autopilot/ap_int_syn.h", metadata !"/home/brennan/Documents/pynq-copter/pynqcopter/ip/rc_receiver", null} ; [ DW_TAG_file_type ]
!121 = metadata !{metadata !122, metadata !144, metadata !148, metadata !156, metadata !162, metadata !165, metadata !169, metadata !173, metadata !177, metadata !181, metadata !184, metadata !188, metadata !192, metadata !196, metadata !202, metadata !207, metadata !212, metadata !216, metadata !220, metadata !226, metadata !229, metadata !233, metadata !236, metadata !239, metadata !240, metadata !244, metadata !247, metadata !250, metadata !253, metadata !256, metadata !259, metadata !262, metadata !265, metadata !268, metadata !271, metadata !274, metadata !277, metadata !287, metadata !290, metadata !293, metadata !296, metadata !299, metadata !302, metadata !305, metadata !308, metadata !311, metadata !314, metadata !317, metadata !320, metadata !323, metadata !324, metadata !328, metadata !331, metadata !332, metadata !333, metadata !334, metadata !335, metadata !336, metadata !339, metadata !340, metadata !343, metadata !344, metadata !345, metadata !346, metadata !347, metadata !348, metadata !351, metadata !352, metadata !353, metadata !356, metadata !357, metadata !360, metadata !361, metadata !365, metadata !369, metadata !370, metadata !373, metadata !374, metadata !416, metadata !417, metadata !418, metadata !419, metadata !422, metadata !423, metadata !424, metadata !425, metadata !426, metadata !427, metadata !428, metadata !429, metadata !430, metadata !431, metadata !432, metadata !433, metadata !443, metadata !446, metadata !449}
!122 = metadata !{i32 786460, metadata !119, null, metadata !120, i32 0, i64 0, i64 0, i64 0, i32 0, metadata !123} ; [ DW_TAG_inheritance ]
!123 = metadata !{i32 786434, null, metadata !"ssdm_int<5 + 1024 * 0, false>", metadata !124, i32 7, i64 8, i64 8, i32 0, i32 0, null, metadata !125, i32 0, null, metadata !139} ; [ DW_TAG_class_type ]
!124 = metadata !{i32 786473, metadata !"/home/brennan/Vivado/Vivado/2017.4/common/technology/autopilot/etc/autopilot_dt.def", metadata !"/home/brennan/Documents/pynq-copter/pynqcopter/ip/rc_receiver", null} ; [ DW_TAG_file_type ]
!125 = metadata !{metadata !126, metadata !128, metadata !134}
!126 = metadata !{i32 786445, metadata !123, metadata !"V", metadata !124, i32 7, i64 5, i64 8, i64 0, i32 0, metadata !127} ; [ DW_TAG_member ]
!127 = metadata !{i32 786468, null, metadata !"uint5", null, i32 0, i64 5, i64 8, i64 0, i32 0, i32 7} ; [ DW_TAG_base_type ]
!128 = metadata !{i32 786478, i32 0, metadata !123, metadata !"ssdm_int", metadata !"ssdm_int", metadata !"", metadata !124, i32 7, metadata !129, i1 false, i1 false, i32 0, i32 0, null, i32 256, i1 false, null, null, i32 0, metadata !132, i32 7} ; [ DW_TAG_subprogram ]
!129 = metadata !{i32 786453, i32 0, metadata !"", i32 0, i32 0, i64 0, i64 0, i64 0, i32 0, null, metadata !130, i32 0, i32 0} ; [ DW_TAG_subroutine_type ]
!130 = metadata !{null, metadata !131}
!131 = metadata !{i32 786447, i32 0, metadata !"", i32 0, i32 0, i64 64, i64 64, i64 0, i32 64, metadata !123} ; [ DW_TAG_pointer_type ]
!132 = metadata !{metadata !133}
!133 = metadata !{i32 786468}                     ; [ DW_TAG_base_type ]
!134 = metadata !{i32 786478, i32 0, metadata !123, metadata !"ssdm_int", metadata !"ssdm_int", metadata !"", metadata !124, i32 7, metadata !135, i1 false, i1 false, i32 0, i32 0, null, i32 320, i1 false, null, null, i32 0, metadata !132, i32 7} ; [ DW_TAG_subprogram ]
!135 = metadata !{i32 786453, i32 0, metadata !"", i32 0, i32 0, i64 0, i64 0, i64 0, i32 0, null, metadata !136, i32 0, i32 0} ; [ DW_TAG_subroutine_type ]
!136 = metadata !{null, metadata !131, metadata !137}
!137 = metadata !{i32 786448, null, null, null, i32 0, i64 0, i64 0, i64 0, i32 0, metadata !138} ; [ DW_TAG_reference_type ]
!138 = metadata !{i32 786470, null, metadata !"", null, i32 0, i64 0, i64 0, i64 0, i32 0, metadata !123} ; [ DW_TAG_const_type ]
!139 = metadata !{metadata !140, metadata !142}
!140 = metadata !{i32 786480, null, metadata !"_AP_N", metadata !141, i64 5, null, i32 0, i32 0} ; [ DW_TAG_template_value_parameter ]
!141 = metadata !{i32 786468, null, metadata !"int", null, i32 0, i64 32, i64 32, i64 0, i32 0, i32 5} ; [ DW_TAG_base_type ]
!142 = metadata !{i32 786480, null, metadata !"_AP_S", metadata !143, i64 0, null, i32 0, i32 0} ; [ DW_TAG_template_value_parameter ]
!143 = metadata !{i32 786468, null, metadata !"bool", null, i32 0, i64 8, i64 8, i64 0, i32 0, i32 2} ; [ DW_TAG_base_type ]
!144 = metadata !{i32 786478, i32 0, metadata !119, metadata !"ap_int_base", metadata !"ap_int_base", metadata !"", metadata !120, i32 1494, metadata !145, i1 false, i1 false, i32 0, i32 0, null, i32 256, i1 false, null, null, i32 0, metadata !132, i32 1494} ; [ DW_TAG_subprogram ]
!145 = metadata !{i32 786453, i32 0, metadata !"", i32 0, i32 0, i64 0, i64 0, i64 0, i32 0, null, metadata !146, i32 0, i32 0} ; [ DW_TAG_subroutine_type ]
!146 = metadata !{null, metadata !147}
!147 = metadata !{i32 786447, i32 0, metadata !"", i32 0, i32 0, i64 64, i64 64, i64 0, i32 64, metadata !119} ; [ DW_TAG_pointer_type ]
!148 = metadata !{i32 786478, i32 0, metadata !119, metadata !"ap_int_base<5, false>", metadata !"ap_int_base<5, false>", metadata !"", metadata !120, i32 1506, metadata !149, i1 false, i1 false, i32 0, i32 0, null, i32 256, i1 false, null, metadata !153, i32 0, metadata !132, i32 1506} ; [ DW_TAG_subprogram ]
!149 = metadata !{i32 786453, i32 0, metadata !"", i32 0, i32 0, i64 0, i64 0, i64 0, i32 0, null, metadata !150, i32 0, i32 0} ; [ DW_TAG_subroutine_type ]
!150 = metadata !{null, metadata !147, metadata !151}
!151 = metadata !{i32 786448, null, null, null, i32 0, i64 0, i64 0, i64 0, i32 0, metadata !152} ; [ DW_TAG_reference_type ]
!152 = metadata !{i32 786470, null, metadata !"", null, i32 0, i64 0, i64 0, i64 0, i32 0, metadata !119} ; [ DW_TAG_const_type ]
!153 = metadata !{metadata !154, metadata !155}
!154 = metadata !{i32 786480, null, metadata !"_AP_W2", metadata !141, i64 5, null, i32 0, i32 0} ; [ DW_TAG_template_value_parameter ]
!155 = metadata !{i32 786480, null, metadata !"_AP_S2", metadata !143, i64 0, null, i32 0, i32 0} ; [ DW_TAG_template_value_parameter ]
!156 = metadata !{i32 786478, i32 0, metadata !119, metadata !"ap_int_base<5, false>", metadata !"ap_int_base<5, false>", metadata !"", metadata !120, i32 1509, metadata !157, i1 false, i1 false, i32 0, i32 0, null, i32 256, i1 false, null, metadata !153, i32 0, metadata !132, i32 1509} ; [ DW_TAG_subprogram ]
!157 = metadata !{i32 786453, i32 0, metadata !"", i32 0, i32 0, i64 0, i64 0, i64 0, i32 0, null, metadata !158, i32 0, i32 0} ; [ DW_TAG_subroutine_type ]
!158 = metadata !{null, metadata !147, metadata !159}
!159 = metadata !{i32 786448, null, null, null, i32 0, i64 0, i64 0, i64 0, i32 0, metadata !160} ; [ DW_TAG_reference_type ]
!160 = metadata !{i32 786470, null, metadata !"", null, i32 0, i64 0, i64 0, i64 0, i32 0, metadata !161} ; [ DW_TAG_const_type ]
!161 = metadata !{i32 786485, null, metadata !"", null, i32 0, i64 0, i64 0, i64 0, i32 0, metadata !119} ; [ DW_TAG_volatile_type ]
!162 = metadata !{i32 786478, i32 0, metadata !119, metadata !"ap_int_base", metadata !"ap_int_base", metadata !"", metadata !120, i32 1516, metadata !163, i1 false, i1 false, i32 0, i32 0, null, i32 384, i1 false, null, null, i32 0, metadata !132, i32 1516} ; [ DW_TAG_subprogram ]
!163 = metadata !{i32 786453, i32 0, metadata !"", i32 0, i32 0, i64 0, i64 0, i64 0, i32 0, null, metadata !164, i32 0, i32 0} ; [ DW_TAG_subroutine_type ]
!164 = metadata !{null, metadata !147, metadata !143}
!165 = metadata !{i32 786478, i32 0, metadata !119, metadata !"ap_int_base", metadata !"ap_int_base", metadata !"", metadata !120, i32 1517, metadata !166, i1 false, i1 false, i32 0, i32 0, null, i32 384, i1 false, null, null, i32 0, metadata !132, i32 1517} ; [ DW_TAG_subprogram ]
!166 = metadata !{i32 786453, i32 0, metadata !"", i32 0, i32 0, i64 0, i64 0, i64 0, i32 0, null, metadata !167, i32 0, i32 0} ; [ DW_TAG_subroutine_type ]
!167 = metadata !{null, metadata !147, metadata !168}
!168 = metadata !{i32 786468, null, metadata !"signed char", null, i32 0, i64 8, i64 8, i64 0, i32 0, i32 6} ; [ DW_TAG_base_type ]
!169 = metadata !{i32 786478, i32 0, metadata !119, metadata !"ap_int_base", metadata !"ap_int_base", metadata !"", metadata !120, i32 1518, metadata !170, i1 false, i1 false, i32 0, i32 0, null, i32 384, i1 false, null, null, i32 0, metadata !132, i32 1518} ; [ DW_TAG_subprogram ]
!170 = metadata !{i32 786453, i32 0, metadata !"", i32 0, i32 0, i64 0, i64 0, i64 0, i32 0, null, metadata !171, i32 0, i32 0} ; [ DW_TAG_subroutine_type ]
!171 = metadata !{null, metadata !147, metadata !172}
!172 = metadata !{i32 786468, null, metadata !"unsigned char", null, i32 0, i64 8, i64 8, i64 0, i32 0, i32 8} ; [ DW_TAG_base_type ]
!173 = metadata !{i32 786478, i32 0, metadata !119, metadata !"ap_int_base", metadata !"ap_int_base", metadata !"", metadata !120, i32 1519, metadata !174, i1 false, i1 false, i32 0, i32 0, null, i32 384, i1 false, null, null, i32 0, metadata !132, i32 1519} ; [ DW_TAG_subprogram ]
!174 = metadata !{i32 786453, i32 0, metadata !"", i32 0, i32 0, i64 0, i64 0, i64 0, i32 0, null, metadata !175, i32 0, i32 0} ; [ DW_TAG_subroutine_type ]
!175 = metadata !{null, metadata !147, metadata !176}
!176 = metadata !{i32 786468, null, metadata !"short", null, i32 0, i64 16, i64 16, i64 0, i32 0, i32 5} ; [ DW_TAG_base_type ]
!177 = metadata !{i32 786478, i32 0, metadata !119, metadata !"ap_int_base", metadata !"ap_int_base", metadata !"", metadata !120, i32 1520, metadata !178, i1 false, i1 false, i32 0, i32 0, null, i32 384, i1 false, null, null, i32 0, metadata !132, i32 1520} ; [ DW_TAG_subprogram ]
!178 = metadata !{i32 786453, i32 0, metadata !"", i32 0, i32 0, i64 0, i64 0, i64 0, i32 0, null, metadata !179, i32 0, i32 0} ; [ DW_TAG_subroutine_type ]
!179 = metadata !{null, metadata !147, metadata !180}
!180 = metadata !{i32 786468, null, metadata !"unsigned short", null, i32 0, i64 16, i64 16, i64 0, i32 0, i32 7} ; [ DW_TAG_base_type ]
!181 = metadata !{i32 786478, i32 0, metadata !119, metadata !"ap_int_base", metadata !"ap_int_base", metadata !"", metadata !120, i32 1521, metadata !182, i1 false, i1 false, i32 0, i32 0, null, i32 384, i1 false, null, null, i32 0, metadata !132, i32 1521} ; [ DW_TAG_subprogram ]
!182 = metadata !{i32 786453, i32 0, metadata !"", i32 0, i32 0, i64 0, i64 0, i64 0, i32 0, null, metadata !183, i32 0, i32 0} ; [ DW_TAG_subroutine_type ]
!183 = metadata !{null, metadata !147, metadata !141}
!184 = metadata !{i32 786478, i32 0, metadata !119, metadata !"ap_int_base", metadata !"ap_int_base", metadata !"", metadata !120, i32 1522, metadata !185, i1 false, i1 false, i32 0, i32 0, null, i32 384, i1 false, null, null, i32 0, metadata !132, i32 1522} ; [ DW_TAG_subprogram ]
!185 = metadata !{i32 786453, i32 0, metadata !"", i32 0, i32 0, i64 0, i64 0, i64 0, i32 0, null, metadata !186, i32 0, i32 0} ; [ DW_TAG_subroutine_type ]
!186 = metadata !{null, metadata !147, metadata !187}
!187 = metadata !{i32 786468, null, metadata !"unsigned int", null, i32 0, i64 32, i64 32, i64 0, i32 0, i32 7} ; [ DW_TAG_base_type ]
!188 = metadata !{i32 786478, i32 0, metadata !119, metadata !"ap_int_base", metadata !"ap_int_base", metadata !"", metadata !120, i32 1523, metadata !189, i1 false, i1 false, i32 0, i32 0, null, i32 384, i1 false, null, null, i32 0, metadata !132, i32 1523} ; [ DW_TAG_subprogram ]
!189 = metadata !{i32 786453, i32 0, metadata !"", i32 0, i32 0, i64 0, i64 0, i64 0, i32 0, null, metadata !190, i32 0, i32 0} ; [ DW_TAG_subroutine_type ]
!190 = metadata !{null, metadata !147, metadata !191}
!191 = metadata !{i32 786468, null, metadata !"long int", null, i32 0, i64 64, i64 64, i64 0, i32 0, i32 5} ; [ DW_TAG_base_type ]
!192 = metadata !{i32 786478, i32 0, metadata !119, metadata !"ap_int_base", metadata !"ap_int_base", metadata !"", metadata !120, i32 1524, metadata !193, i1 false, i1 false, i32 0, i32 0, null, i32 384, i1 false, null, null, i32 0, metadata !132, i32 1524} ; [ DW_TAG_subprogram ]
!193 = metadata !{i32 786453, i32 0, metadata !"", i32 0, i32 0, i64 0, i64 0, i64 0, i32 0, null, metadata !194, i32 0, i32 0} ; [ DW_TAG_subroutine_type ]
!194 = metadata !{null, metadata !147, metadata !195}
!195 = metadata !{i32 786468, null, metadata !"long unsigned int", null, i32 0, i64 64, i64 64, i64 0, i32 0, i32 7} ; [ DW_TAG_base_type ]
!196 = metadata !{i32 786478, i32 0, metadata !119, metadata !"ap_int_base", metadata !"ap_int_base", metadata !"", metadata !120, i32 1525, metadata !197, i1 false, i1 false, i32 0, i32 0, null, i32 384, i1 false, null, null, i32 0, metadata !132, i32 1525} ; [ DW_TAG_subprogram ]
!197 = metadata !{i32 786453, i32 0, metadata !"", i32 0, i32 0, i64 0, i64 0, i64 0, i32 0, null, metadata !198, i32 0, i32 0} ; [ DW_TAG_subroutine_type ]
!198 = metadata !{null, metadata !147, metadata !199}
!199 = metadata !{i32 786454, null, metadata !"ap_slong", metadata !200, i32 112, i64 0, i64 0, i64 0, i32 0, metadata !201} ; [ DW_TAG_typedef ]
!200 = metadata !{i32 786473, metadata !"/home/brennan/Vivado/Vivado/2017.4/common/technology/autopilot/ap_fixed_syn.h", metadata !"/home/brennan/Documents/pynq-copter/pynqcopter/ip/rc_receiver", null} ; [ DW_TAG_file_type ]
!201 = metadata !{i32 786468, null, metadata !"long long int", null, i32 0, i64 64, i64 64, i64 0, i32 0, i32 5} ; [ DW_TAG_base_type ]
!202 = metadata !{i32 786478, i32 0, metadata !119, metadata !"ap_int_base", metadata !"ap_int_base", metadata !"", metadata !120, i32 1526, metadata !203, i1 false, i1 false, i32 0, i32 0, null, i32 384, i1 false, null, null, i32 0, metadata !132, i32 1526} ; [ DW_TAG_subprogram ]
!203 = metadata !{i32 786453, i32 0, metadata !"", i32 0, i32 0, i64 0, i64 0, i64 0, i32 0, null, metadata !204, i32 0, i32 0} ; [ DW_TAG_subroutine_type ]
!204 = metadata !{null, metadata !147, metadata !205}
!205 = metadata !{i32 786454, null, metadata !"ap_ulong", metadata !200, i32 111, i64 0, i64 0, i64 0, i32 0, metadata !206} ; [ DW_TAG_typedef ]
!206 = metadata !{i32 786468, null, metadata !"long long unsigned int", null, i32 0, i64 64, i64 64, i64 0, i32 0, i32 7} ; [ DW_TAG_base_type ]
!207 = metadata !{i32 786478, i32 0, metadata !119, metadata !"ap_int_base", metadata !"ap_int_base", metadata !"", metadata !120, i32 1527, metadata !208, i1 false, i1 false, i32 0, i32 0, null, i32 384, i1 false, null, null, i32 0, metadata !132, i32 1527} ; [ DW_TAG_subprogram ]
!208 = metadata !{i32 786453, i32 0, metadata !"", i32 0, i32 0, i64 0, i64 0, i64 0, i32 0, null, metadata !209, i32 0, i32 0} ; [ DW_TAG_subroutine_type ]
!209 = metadata !{null, metadata !147, metadata !210}
!210 = metadata !{i32 786454, null, metadata !"half", metadata !200, i32 54, i64 0, i64 0, i64 0, i32 0, metadata !211} ; [ DW_TAG_typedef ]
!211 = metadata !{i32 786468, null, metadata !"half", null, i32 0, i64 16, i64 16, i64 0, i32 0, i32 4} ; [ DW_TAG_base_type ]
!212 = metadata !{i32 786478, i32 0, metadata !119, metadata !"ap_int_base", metadata !"ap_int_base", metadata !"", metadata !120, i32 1528, metadata !213, i1 false, i1 false, i32 0, i32 0, null, i32 384, i1 false, null, null, i32 0, metadata !132, i32 1528} ; [ DW_TAG_subprogram ]
!213 = metadata !{i32 786453, i32 0, metadata !"", i32 0, i32 0, i64 0, i64 0, i64 0, i32 0, null, metadata !214, i32 0, i32 0} ; [ DW_TAG_subroutine_type ]
!214 = metadata !{null, metadata !147, metadata !215}
!215 = metadata !{i32 786468, null, metadata !"float", null, i32 0, i64 32, i64 32, i64 0, i32 0, i32 4} ; [ DW_TAG_base_type ]
!216 = metadata !{i32 786478, i32 0, metadata !119, metadata !"ap_int_base", metadata !"ap_int_base", metadata !"", metadata !120, i32 1529, metadata !217, i1 false, i1 false, i32 0, i32 0, null, i32 384, i1 false, null, null, i32 0, metadata !132, i32 1529} ; [ DW_TAG_subprogram ]
!217 = metadata !{i32 786453, i32 0, metadata !"", i32 0, i32 0, i64 0, i64 0, i64 0, i32 0, null, metadata !218, i32 0, i32 0} ; [ DW_TAG_subroutine_type ]
!218 = metadata !{null, metadata !147, metadata !219}
!219 = metadata !{i32 786468, null, metadata !"double", null, i32 0, i64 64, i64 64, i64 0, i32 0, i32 4} ; [ DW_TAG_base_type ]
!220 = metadata !{i32 786478, i32 0, metadata !119, metadata !"ap_int_base", metadata !"ap_int_base", metadata !"", metadata !120, i32 1556, metadata !221, i1 false, i1 false, i32 0, i32 0, null, i32 256, i1 false, null, null, i32 0, metadata !132, i32 1556} ; [ DW_TAG_subprogram ]
!221 = metadata !{i32 786453, i32 0, metadata !"", i32 0, i32 0, i64 0, i64 0, i64 0, i32 0, null, metadata !222, i32 0, i32 0} ; [ DW_TAG_subroutine_type ]
!222 = metadata !{null, metadata !147, metadata !223}
!223 = metadata !{i32 786447, null, metadata !"", null, i32 0, i64 64, i64 64, i64 0, i32 0, metadata !224} ; [ DW_TAG_pointer_type ]
!224 = metadata !{i32 786470, null, metadata !"", null, i32 0, i64 0, i64 0, i64 0, i32 0, metadata !225} ; [ DW_TAG_const_type ]
!225 = metadata !{i32 786468, null, metadata !"char", null, i32 0, i64 8, i64 8, i64 0, i32 0, i32 6} ; [ DW_TAG_base_type ]
!226 = metadata !{i32 786478, i32 0, metadata !119, metadata !"ap_int_base", metadata !"ap_int_base", metadata !"", metadata !120, i32 1563, metadata !227, i1 false, i1 false, i32 0, i32 0, null, i32 256, i1 false, null, null, i32 0, metadata !132, i32 1563} ; [ DW_TAG_subprogram ]
!227 = metadata !{i32 786453, i32 0, metadata !"", i32 0, i32 0, i64 0, i64 0, i64 0, i32 0, null, metadata !228, i32 0, i32 0} ; [ DW_TAG_subroutine_type ]
!228 = metadata !{null, metadata !147, metadata !223, metadata !168}
!229 = metadata !{i32 786478, i32 0, metadata !119, metadata !"read", metadata !"read", metadata !"_ZNV11ap_int_baseILi5ELb0ELb1EE4readEv", metadata !120, i32 1584, metadata !230, i1 false, i1 false, i32 0, i32 0, null, i32 256, i1 false, null, null, i32 0, metadata !132, i32 1584} ; [ DW_TAG_subprogram ]
!230 = metadata !{i32 786453, i32 0, metadata !"", i32 0, i32 0, i64 0, i64 0, i64 0, i32 0, null, metadata !231, i32 0, i32 0} ; [ DW_TAG_subroutine_type ]
!231 = metadata !{metadata !119, metadata !232}
!232 = metadata !{i32 786447, i32 0, metadata !"", i32 0, i32 0, i64 64, i64 64, i64 0, i32 64, metadata !161} ; [ DW_TAG_pointer_type ]
!233 = metadata !{i32 786478, i32 0, metadata !119, metadata !"write", metadata !"write", metadata !"_ZNV11ap_int_baseILi5ELb0ELb1EE5writeERKS0_", metadata !120, i32 1590, metadata !234, i1 false, i1 false, i32 0, i32 0, null, i32 256, i1 false, null, null, i32 0, metadata !132, i32 1590} ; [ DW_TAG_subprogram ]
!234 = metadata !{i32 786453, i32 0, metadata !"", i32 0, i32 0, i64 0, i64 0, i64 0, i32 0, null, metadata !235, i32 0, i32 0} ; [ DW_TAG_subroutine_type ]
!235 = metadata !{null, metadata !232, metadata !151}
!236 = metadata !{i32 786478, i32 0, metadata !119, metadata !"operator=", metadata !"operator=", metadata !"_ZNV11ap_int_baseILi5ELb0ELb1EEaSERVKS0_", metadata !120, i32 1602, metadata !237, i1 false, i1 false, i32 0, i32 0, null, i32 256, i1 false, null, null, i32 0, metadata !132, i32 1602} ; [ DW_TAG_subprogram ]
!237 = metadata !{i32 786453, i32 0, metadata !"", i32 0, i32 0, i64 0, i64 0, i64 0, i32 0, null, metadata !238, i32 0, i32 0} ; [ DW_TAG_subroutine_type ]
!238 = metadata !{null, metadata !232, metadata !159}
!239 = metadata !{i32 786478, i32 0, metadata !119, metadata !"operator=", metadata !"operator=", metadata !"_ZNV11ap_int_baseILi5ELb0ELb1EEaSERKS0_", metadata !120, i32 1611, metadata !234, i1 false, i1 false, i32 0, i32 0, null, i32 256, i1 false, null, null, i32 0, metadata !132, i32 1611} ; [ DW_TAG_subprogram ]
!240 = metadata !{i32 786478, i32 0, metadata !119, metadata !"operator=", metadata !"operator=", metadata !"_ZN11ap_int_baseILi5ELb0ELb1EEaSERVKS0_", metadata !120, i32 1634, metadata !241, i1 false, i1 false, i32 0, i32 0, null, i32 256, i1 false, null, null, i32 0, metadata !132, i32 1634} ; [ DW_TAG_subprogram ]
!241 = metadata !{i32 786453, i32 0, metadata !"", i32 0, i32 0, i64 0, i64 0, i64 0, i32 0, null, metadata !242, i32 0, i32 0} ; [ DW_TAG_subroutine_type ]
!242 = metadata !{metadata !243, metadata !147, metadata !159}
!243 = metadata !{i32 786448, null, null, null, i32 0, i64 0, i64 0, i64 0, i32 0, metadata !119} ; [ DW_TAG_reference_type ]
!244 = metadata !{i32 786478, i32 0, metadata !119, metadata !"operator=", metadata !"operator=", metadata !"_ZN11ap_int_baseILi5ELb0ELb1EEaSERKS0_", metadata !120, i32 1639, metadata !245, i1 false, i1 false, i32 0, i32 0, null, i32 256, i1 false, null, null, i32 0, metadata !132, i32 1639} ; [ DW_TAG_subprogram ]
!245 = metadata !{i32 786453, i32 0, metadata !"", i32 0, i32 0, i64 0, i64 0, i64 0, i32 0, null, metadata !246, i32 0, i32 0} ; [ DW_TAG_subroutine_type ]
!246 = metadata !{metadata !243, metadata !147, metadata !151}
!247 = metadata !{i32 786478, i32 0, metadata !119, metadata !"operator=", metadata !"operator=", metadata !"_ZN11ap_int_baseILi5ELb0ELb1EEaSEPKc", metadata !120, i32 1643, metadata !248, i1 false, i1 false, i32 0, i32 0, null, i32 256, i1 false, null, null, i32 0, metadata !132, i32 1643} ; [ DW_TAG_subprogram ]
!248 = metadata !{i32 786453, i32 0, metadata !"", i32 0, i32 0, i64 0, i64 0, i64 0, i32 0, null, metadata !249, i32 0, i32 0} ; [ DW_TAG_subroutine_type ]
!249 = metadata !{metadata !243, metadata !147, metadata !223}
!250 = metadata !{i32 786478, i32 0, metadata !119, metadata !"set", metadata !"set", metadata !"_ZN11ap_int_baseILi5ELb0ELb1EE3setEPKca", metadata !120, i32 1651, metadata !251, i1 false, i1 false, i32 0, i32 0, null, i32 256, i1 false, null, null, i32 0, metadata !132, i32 1651} ; [ DW_TAG_subprogram ]
!251 = metadata !{i32 786453, i32 0, metadata !"", i32 0, i32 0, i64 0, i64 0, i64 0, i32 0, null, metadata !252, i32 0, i32 0} ; [ DW_TAG_subroutine_type ]
!252 = metadata !{metadata !243, metadata !147, metadata !223, metadata !168}
!253 = metadata !{i32 786478, i32 0, metadata !119, metadata !"operator=", metadata !"operator=", metadata !"_ZN11ap_int_baseILi5ELb0ELb1EEaSEa", metadata !120, i32 1665, metadata !254, i1 false, i1 false, i32 0, i32 0, null, i32 256, i1 false, null, null, i32 0, metadata !132, i32 1665} ; [ DW_TAG_subprogram ]
!254 = metadata !{i32 786453, i32 0, metadata !"", i32 0, i32 0, i64 0, i64 0, i64 0, i32 0, null, metadata !255, i32 0, i32 0} ; [ DW_TAG_subroutine_type ]
!255 = metadata !{metadata !243, metadata !147, metadata !168}
!256 = metadata !{i32 786478, i32 0, metadata !119, metadata !"operator=", metadata !"operator=", metadata !"_ZN11ap_int_baseILi5ELb0ELb1EEaSEh", metadata !120, i32 1666, metadata !257, i1 false, i1 false, i32 0, i32 0, null, i32 256, i1 false, null, null, i32 0, metadata !132, i32 1666} ; [ DW_TAG_subprogram ]
!257 = metadata !{i32 786453, i32 0, metadata !"", i32 0, i32 0, i64 0, i64 0, i64 0, i32 0, null, metadata !258, i32 0, i32 0} ; [ DW_TAG_subroutine_type ]
!258 = metadata !{metadata !243, metadata !147, metadata !172}
!259 = metadata !{i32 786478, i32 0, metadata !119, metadata !"operator=", metadata !"operator=", metadata !"_ZN11ap_int_baseILi5ELb0ELb1EEaSEs", metadata !120, i32 1667, metadata !260, i1 false, i1 false, i32 0, i32 0, null, i32 256, i1 false, null, null, i32 0, metadata !132, i32 1667} ; [ DW_TAG_subprogram ]
!260 = metadata !{i32 786453, i32 0, metadata !"", i32 0, i32 0, i64 0, i64 0, i64 0, i32 0, null, metadata !261, i32 0, i32 0} ; [ DW_TAG_subroutine_type ]
!261 = metadata !{metadata !243, metadata !147, metadata !176}
!262 = metadata !{i32 786478, i32 0, metadata !119, metadata !"operator=", metadata !"operator=", metadata !"_ZN11ap_int_baseILi5ELb0ELb1EEaSEt", metadata !120, i32 1668, metadata !263, i1 false, i1 false, i32 0, i32 0, null, i32 256, i1 false, null, null, i32 0, metadata !132, i32 1668} ; [ DW_TAG_subprogram ]
!263 = metadata !{i32 786453, i32 0, metadata !"", i32 0, i32 0, i64 0, i64 0, i64 0, i32 0, null, metadata !264, i32 0, i32 0} ; [ DW_TAG_subroutine_type ]
!264 = metadata !{metadata !243, metadata !147, metadata !180}
!265 = metadata !{i32 786478, i32 0, metadata !119, metadata !"operator=", metadata !"operator=", metadata !"_ZN11ap_int_baseILi5ELb0ELb1EEaSEi", metadata !120, i32 1669, metadata !266, i1 false, i1 false, i32 0, i32 0, null, i32 256, i1 false, null, null, i32 0, metadata !132, i32 1669} ; [ DW_TAG_subprogram ]
!266 = metadata !{i32 786453, i32 0, metadata !"", i32 0, i32 0, i64 0, i64 0, i64 0, i32 0, null, metadata !267, i32 0, i32 0} ; [ DW_TAG_subroutine_type ]
!267 = metadata !{metadata !243, metadata !147, metadata !141}
!268 = metadata !{i32 786478, i32 0, metadata !119, metadata !"operator=", metadata !"operator=", metadata !"_ZN11ap_int_baseILi5ELb0ELb1EEaSEj", metadata !120, i32 1670, metadata !269, i1 false, i1 false, i32 0, i32 0, null, i32 256, i1 false, null, null, i32 0, metadata !132, i32 1670} ; [ DW_TAG_subprogram ]
!269 = metadata !{i32 786453, i32 0, metadata !"", i32 0, i32 0, i64 0, i64 0, i64 0, i32 0, null, metadata !270, i32 0, i32 0} ; [ DW_TAG_subroutine_type ]
!270 = metadata !{metadata !243, metadata !147, metadata !187}
!271 = metadata !{i32 786478, i32 0, metadata !119, metadata !"operator=", metadata !"operator=", metadata !"_ZN11ap_int_baseILi5ELb0ELb1EEaSEx", metadata !120, i32 1671, metadata !272, i1 false, i1 false, i32 0, i32 0, null, i32 256, i1 false, null, null, i32 0, metadata !132, i32 1671} ; [ DW_TAG_subprogram ]
!272 = metadata !{i32 786453, i32 0, metadata !"", i32 0, i32 0, i64 0, i64 0, i64 0, i32 0, null, metadata !273, i32 0, i32 0} ; [ DW_TAG_subroutine_type ]
!273 = metadata !{metadata !243, metadata !147, metadata !199}
!274 = metadata !{i32 786478, i32 0, metadata !119, metadata !"operator=", metadata !"operator=", metadata !"_ZN11ap_int_baseILi5ELb0ELb1EEaSEy", metadata !120, i32 1672, metadata !275, i1 false, i1 false, i32 0, i32 0, null, i32 256, i1 false, null, null, i32 0, metadata !132, i32 1672} ; [ DW_TAG_subprogram ]
!275 = metadata !{i32 786453, i32 0, metadata !"", i32 0, i32 0, i64 0, i64 0, i64 0, i32 0, null, metadata !276, i32 0, i32 0} ; [ DW_TAG_subroutine_type ]
!276 = metadata !{metadata !243, metadata !147, metadata !205}
!277 = metadata !{i32 786478, i32 0, metadata !119, metadata !"operator unsigned char", metadata !"operator unsigned char", metadata !"_ZNK11ap_int_baseILi5ELb0ELb1EEcvhEv", metadata !120, i32 1710, metadata !278, i1 false, i1 false, i32 0, i32 0, null, i32 256, i1 false, null, null, i32 0, metadata !132, i32 1710} ; [ DW_TAG_subprogram ]
!278 = metadata !{i32 786453, i32 0, metadata !"", i32 0, i32 0, i64 0, i64 0, i64 0, i32 0, null, metadata !279, i32 0, i32 0} ; [ DW_TAG_subroutine_type ]
!279 = metadata !{metadata !280, metadata !286}
!280 = metadata !{i32 786454, metadata !119, metadata !"RetType", metadata !120, i32 1458, i64 0, i64 0, i64 0, i32 0, metadata !281} ; [ DW_TAG_typedef ]
!281 = metadata !{i32 786454, metadata !282, metadata !"Type", metadata !120, i32 1426, i64 0, i64 0, i64 0, i32 0, metadata !172} ; [ DW_TAG_typedef ]
!282 = metadata !{i32 786434, null, metadata !"retval<1, false>", metadata !120, i32 1425, i64 8, i64 8, i32 0, i32 0, null, metadata !283, i32 0, null, metadata !284} ; [ DW_TAG_class_type ]
!283 = metadata !{i32 0}
!284 = metadata !{metadata !285, metadata !142}
!285 = metadata !{i32 786480, null, metadata !"_AP_N", metadata !141, i64 1, null, i32 0, i32 0} ; [ DW_TAG_template_value_parameter ]
!286 = metadata !{i32 786447, i32 0, metadata !"", i32 0, i32 0, i64 64, i64 64, i64 0, i32 64, metadata !152} ; [ DW_TAG_pointer_type ]
!287 = metadata !{i32 786478, i32 0, metadata !119, metadata !"to_bool", metadata !"to_bool", metadata !"_ZNK11ap_int_baseILi5ELb0ELb1EE7to_boolEv", metadata !120, i32 1716, metadata !288, i1 false, i1 false, i32 0, i32 0, null, i32 256, i1 false, null, null, i32 0, metadata !132, i32 1716} ; [ DW_TAG_subprogram ]
!288 = metadata !{i32 786453, i32 0, metadata !"", i32 0, i32 0, i64 0, i64 0, i64 0, i32 0, null, metadata !289, i32 0, i32 0} ; [ DW_TAG_subroutine_type ]
!289 = metadata !{metadata !143, metadata !286}
!290 = metadata !{i32 786478, i32 0, metadata !119, metadata !"to_uchar", metadata !"to_uchar", metadata !"_ZNK11ap_int_baseILi5ELb0ELb1EE8to_ucharEv", metadata !120, i32 1717, metadata !291, i1 false, i1 false, i32 0, i32 0, null, i32 256, i1 false, null, null, i32 0, metadata !132, i32 1717} ; [ DW_TAG_subprogram ]
!291 = metadata !{i32 786453, i32 0, metadata !"", i32 0, i32 0, i64 0, i64 0, i64 0, i32 0, null, metadata !292, i32 0, i32 0} ; [ DW_TAG_subroutine_type ]
!292 = metadata !{metadata !172, metadata !286}
!293 = metadata !{i32 786478, i32 0, metadata !119, metadata !"to_char", metadata !"to_char", metadata !"_ZNK11ap_int_baseILi5ELb0ELb1EE7to_charEv", metadata !120, i32 1718, metadata !294, i1 false, i1 false, i32 0, i32 0, null, i32 256, i1 false, null, null, i32 0, metadata !132, i32 1718} ; [ DW_TAG_subprogram ]
!294 = metadata !{i32 786453, i32 0, metadata !"", i32 0, i32 0, i64 0, i64 0, i64 0, i32 0, null, metadata !295, i32 0, i32 0} ; [ DW_TAG_subroutine_type ]
!295 = metadata !{metadata !168, metadata !286}
!296 = metadata !{i32 786478, i32 0, metadata !119, metadata !"to_ushort", metadata !"to_ushort", metadata !"_ZNK11ap_int_baseILi5ELb0ELb1EE9to_ushortEv", metadata !120, i32 1719, metadata !297, i1 false, i1 false, i32 0, i32 0, null, i32 256, i1 false, null, null, i32 0, metadata !132, i32 1719} ; [ DW_TAG_subprogram ]
!297 = metadata !{i32 786453, i32 0, metadata !"", i32 0, i32 0, i64 0, i64 0, i64 0, i32 0, null, metadata !298, i32 0, i32 0} ; [ DW_TAG_subroutine_type ]
!298 = metadata !{metadata !180, metadata !286}
!299 = metadata !{i32 786478, i32 0, metadata !119, metadata !"to_short", metadata !"to_short", metadata !"_ZNK11ap_int_baseILi5ELb0ELb1EE8to_shortEv", metadata !120, i32 1720, metadata !300, i1 false, i1 false, i32 0, i32 0, null, i32 256, i1 false, null, null, i32 0, metadata !132, i32 1720} ; [ DW_TAG_subprogram ]
!300 = metadata !{i32 786453, i32 0, metadata !"", i32 0, i32 0, i64 0, i64 0, i64 0, i32 0, null, metadata !301, i32 0, i32 0} ; [ DW_TAG_subroutine_type ]
!301 = metadata !{metadata !176, metadata !286}
!302 = metadata !{i32 786478, i32 0, metadata !119, metadata !"to_int", metadata !"to_int", metadata !"_ZNK11ap_int_baseILi5ELb0ELb1EE6to_intEv", metadata !120, i32 1721, metadata !303, i1 false, i1 false, i32 0, i32 0, null, i32 256, i1 false, null, null, i32 0, metadata !132, i32 1721} ; [ DW_TAG_subprogram ]
!303 = metadata !{i32 786453, i32 0, metadata !"", i32 0, i32 0, i64 0, i64 0, i64 0, i32 0, null, metadata !304, i32 0, i32 0} ; [ DW_TAG_subroutine_type ]
!304 = metadata !{metadata !141, metadata !286}
!305 = metadata !{i32 786478, i32 0, metadata !119, metadata !"to_uint", metadata !"to_uint", metadata !"_ZNK11ap_int_baseILi5ELb0ELb1EE7to_uintEv", metadata !120, i32 1722, metadata !306, i1 false, i1 false, i32 0, i32 0, null, i32 256, i1 false, null, null, i32 0, metadata !132, i32 1722} ; [ DW_TAG_subprogram ]
!306 = metadata !{i32 786453, i32 0, metadata !"", i32 0, i32 0, i64 0, i64 0, i64 0, i32 0, null, metadata !307, i32 0, i32 0} ; [ DW_TAG_subroutine_type ]
!307 = metadata !{metadata !187, metadata !286}
!308 = metadata !{i32 786478, i32 0, metadata !119, metadata !"to_long", metadata !"to_long", metadata !"_ZNK11ap_int_baseILi5ELb0ELb1EE7to_longEv", metadata !120, i32 1723, metadata !309, i1 false, i1 false, i32 0, i32 0, null, i32 256, i1 false, null, null, i32 0, metadata !132, i32 1723} ; [ DW_TAG_subprogram ]
!309 = metadata !{i32 786453, i32 0, metadata !"", i32 0, i32 0, i64 0, i64 0, i64 0, i32 0, null, metadata !310, i32 0, i32 0} ; [ DW_TAG_subroutine_type ]
!310 = metadata !{metadata !191, metadata !286}
!311 = metadata !{i32 786478, i32 0, metadata !119, metadata !"to_ulong", metadata !"to_ulong", metadata !"_ZNK11ap_int_baseILi5ELb0ELb1EE8to_ulongEv", metadata !120, i32 1724, metadata !312, i1 false, i1 false, i32 0, i32 0, null, i32 256, i1 false, null, null, i32 0, metadata !132, i32 1724} ; [ DW_TAG_subprogram ]
!312 = metadata !{i32 786453, i32 0, metadata !"", i32 0, i32 0, i64 0, i64 0, i64 0, i32 0, null, metadata !313, i32 0, i32 0} ; [ DW_TAG_subroutine_type ]
!313 = metadata !{metadata !195, metadata !286}
!314 = metadata !{i32 786478, i32 0, metadata !119, metadata !"to_int64", metadata !"to_int64", metadata !"_ZNK11ap_int_baseILi5ELb0ELb1EE8to_int64Ev", metadata !120, i32 1725, metadata !315, i1 false, i1 false, i32 0, i32 0, null, i32 256, i1 false, null, null, i32 0, metadata !132, i32 1725} ; [ DW_TAG_subprogram ]
!315 = metadata !{i32 786453, i32 0, metadata !"", i32 0, i32 0, i64 0, i64 0, i64 0, i32 0, null, metadata !316, i32 0, i32 0} ; [ DW_TAG_subroutine_type ]
!316 = metadata !{metadata !199, metadata !286}
!317 = metadata !{i32 786478, i32 0, metadata !119, metadata !"to_uint64", metadata !"to_uint64", metadata !"_ZNK11ap_int_baseILi5ELb0ELb1EE9to_uint64Ev", metadata !120, i32 1726, metadata !318, i1 false, i1 false, i32 0, i32 0, null, i32 256, i1 false, null, null, i32 0, metadata !132, i32 1726} ; [ DW_TAG_subprogram ]
!318 = metadata !{i32 786453, i32 0, metadata !"", i32 0, i32 0, i64 0, i64 0, i64 0, i32 0, null, metadata !319, i32 0, i32 0} ; [ DW_TAG_subroutine_type ]
!319 = metadata !{metadata !205, metadata !286}
!320 = metadata !{i32 786478, i32 0, metadata !119, metadata !"to_double", metadata !"to_double", metadata !"_ZNK11ap_int_baseILi5ELb0ELb1EE9to_doubleEv", metadata !120, i32 1727, metadata !321, i1 false, i1 false, i32 0, i32 0, null, i32 256, i1 false, null, null, i32 0, metadata !132, i32 1727} ; [ DW_TAG_subprogram ]
!321 = metadata !{i32 786453, i32 0, metadata !"", i32 0, i32 0, i64 0, i64 0, i64 0, i32 0, null, metadata !322, i32 0, i32 0} ; [ DW_TAG_subroutine_type ]
!322 = metadata !{metadata !219, metadata !286}
!323 = metadata !{i32 786478, i32 0, metadata !119, metadata !"length", metadata !"length", metadata !"_ZNK11ap_int_baseILi5ELb0ELb1EE6lengthEv", metadata !120, i32 1741, metadata !303, i1 false, i1 false, i32 0, i32 0, null, i32 256, i1 false, null, null, i32 0, metadata !132, i32 1741} ; [ DW_TAG_subprogram ]
!324 = metadata !{i32 786478, i32 0, metadata !119, metadata !"length", metadata !"length", metadata !"_ZNVK11ap_int_baseILi5ELb0ELb1EE6lengthEv", metadata !120, i32 1742, metadata !325, i1 false, i1 false, i32 0, i32 0, null, i32 256, i1 false, null, null, i32 0, metadata !132, i32 1742} ; [ DW_TAG_subprogram ]
!325 = metadata !{i32 786453, i32 0, metadata !"", i32 0, i32 0, i64 0, i64 0, i64 0, i32 0, null, metadata !326, i32 0, i32 0} ; [ DW_TAG_subroutine_type ]
!326 = metadata !{metadata !141, metadata !327}
!327 = metadata !{i32 786447, i32 0, metadata !"", i32 0, i32 0, i64 64, i64 64, i64 0, i32 64, metadata !160} ; [ DW_TAG_pointer_type ]
!328 = metadata !{i32 786478, i32 0, metadata !119, metadata !"reverse", metadata !"reverse", metadata !"_ZN11ap_int_baseILi5ELb0ELb1EE7reverseEv", metadata !120, i32 1747, metadata !329, i1 false, i1 false, i32 0, i32 0, null, i32 256, i1 false, null, null, i32 0, metadata !132, i32 1747} ; [ DW_TAG_subprogram ]
!329 = metadata !{i32 786453, i32 0, metadata !"", i32 0, i32 0, i64 0, i64 0, i64 0, i32 0, null, metadata !330, i32 0, i32 0} ; [ DW_TAG_subroutine_type ]
!330 = metadata !{metadata !243, metadata !147}
!331 = metadata !{i32 786478, i32 0, metadata !119, metadata !"iszero", metadata !"iszero", metadata !"_ZNK11ap_int_baseILi5ELb0ELb1EE6iszeroEv", metadata !120, i32 1753, metadata !288, i1 false, i1 false, i32 0, i32 0, null, i32 256, i1 false, null, null, i32 0, metadata !132, i32 1753} ; [ DW_TAG_subprogram ]
!332 = metadata !{i32 786478, i32 0, metadata !119, metadata !"is_zero", metadata !"is_zero", metadata !"_ZNK11ap_int_baseILi5ELb0ELb1EE7is_zeroEv", metadata !120, i32 1758, metadata !288, i1 false, i1 false, i32 0, i32 0, null, i32 256, i1 false, null, null, i32 0, metadata !132, i32 1758} ; [ DW_TAG_subprogram ]
!333 = metadata !{i32 786478, i32 0, metadata !119, metadata !"sign", metadata !"sign", metadata !"_ZNK11ap_int_baseILi5ELb0ELb1EE4signEv", metadata !120, i32 1763, metadata !288, i1 false, i1 false, i32 0, i32 0, null, i32 256, i1 false, null, null, i32 0, metadata !132, i32 1763} ; [ DW_TAG_subprogram ]
!334 = metadata !{i32 786478, i32 0, metadata !119, metadata !"clear", metadata !"clear", metadata !"_ZN11ap_int_baseILi5ELb0ELb1EE5clearEi", metadata !120, i32 1771, metadata !182, i1 false, i1 false, i32 0, i32 0, null, i32 256, i1 false, null, null, i32 0, metadata !132, i32 1771} ; [ DW_TAG_subprogram ]
!335 = metadata !{i32 786478, i32 0, metadata !119, metadata !"invert", metadata !"invert", metadata !"_ZN11ap_int_baseILi5ELb0ELb1EE6invertEi", metadata !120, i32 1777, metadata !182, i1 false, i1 false, i32 0, i32 0, null, i32 256, i1 false, null, null, i32 0, metadata !132, i32 1777} ; [ DW_TAG_subprogram ]
!336 = metadata !{i32 786478, i32 0, metadata !119, metadata !"test", metadata !"test", metadata !"_ZNK11ap_int_baseILi5ELb0ELb1EE4testEi", metadata !120, i32 1785, metadata !337, i1 false, i1 false, i32 0, i32 0, null, i32 256, i1 false, null, null, i32 0, metadata !132, i32 1785} ; [ DW_TAG_subprogram ]
!337 = metadata !{i32 786453, i32 0, metadata !"", i32 0, i32 0, i64 0, i64 0, i64 0, i32 0, null, metadata !338, i32 0, i32 0} ; [ DW_TAG_subroutine_type ]
!338 = metadata !{metadata !143, metadata !286, metadata !141}
!339 = metadata !{i32 786478, i32 0, metadata !119, metadata !"set", metadata !"set", metadata !"_ZN11ap_int_baseILi5ELb0ELb1EE3setEi", metadata !120, i32 1791, metadata !182, i1 false, i1 false, i32 0, i32 0, null, i32 256, i1 false, null, null, i32 0, metadata !132, i32 1791} ; [ DW_TAG_subprogram ]
!340 = metadata !{i32 786478, i32 0, metadata !119, metadata !"set", metadata !"set", metadata !"_ZN11ap_int_baseILi5ELb0ELb1EE3setEib", metadata !120, i32 1797, metadata !341, i1 false, i1 false, i32 0, i32 0, null, i32 256, i1 false, null, null, i32 0, metadata !132, i32 1797} ; [ DW_TAG_subprogram ]
!341 = metadata !{i32 786453, i32 0, metadata !"", i32 0, i32 0, i64 0, i64 0, i64 0, i32 0, null, metadata !342, i32 0, i32 0} ; [ DW_TAG_subroutine_type ]
!342 = metadata !{null, metadata !147, metadata !141, metadata !143}
!343 = metadata !{i32 786478, i32 0, metadata !119, metadata !"lrotate", metadata !"lrotate", metadata !"_ZN11ap_int_baseILi5ELb0ELb1EE7lrotateEi", metadata !120, i32 1804, metadata !182, i1 false, i1 false, i32 0, i32 0, null, i32 256, i1 false, null, null, i32 0, metadata !132, i32 1804} ; [ DW_TAG_subprogram ]
!344 = metadata !{i32 786478, i32 0, metadata !119, metadata !"rrotate", metadata !"rrotate", metadata !"_ZN11ap_int_baseILi5ELb0ELb1EE7rrotateEi", metadata !120, i32 1813, metadata !182, i1 false, i1 false, i32 0, i32 0, null, i32 256, i1 false, null, null, i32 0, metadata !132, i32 1813} ; [ DW_TAG_subprogram ]
!345 = metadata !{i32 786478, i32 0, metadata !119, metadata !"set_bit", metadata !"set_bit", metadata !"_ZN11ap_int_baseILi5ELb0ELb1EE7set_bitEib", metadata !120, i32 1821, metadata !341, i1 false, i1 false, i32 0, i32 0, null, i32 256, i1 false, null, null, i32 0, metadata !132, i32 1821} ; [ DW_TAG_subprogram ]
!346 = metadata !{i32 786478, i32 0, metadata !119, metadata !"get_bit", metadata !"get_bit", metadata !"_ZNK11ap_int_baseILi5ELb0ELb1EE7get_bitEi", metadata !120, i32 1826, metadata !337, i1 false, i1 false, i32 0, i32 0, null, i32 256, i1 false, null, null, i32 0, metadata !132, i32 1826} ; [ DW_TAG_subprogram ]
!347 = metadata !{i32 786478, i32 0, metadata !119, metadata !"b_not", metadata !"b_not", metadata !"_ZN11ap_int_baseILi5ELb0ELb1EE5b_notEv", metadata !120, i32 1831, metadata !145, i1 false, i1 false, i32 0, i32 0, null, i32 256, i1 false, null, null, i32 0, metadata !132, i32 1831} ; [ DW_TAG_subprogram ]
!348 = metadata !{i32 786478, i32 0, metadata !119, metadata !"countLeadingZeros", metadata !"countLeadingZeros", metadata !"_ZN11ap_int_baseILi5ELb0ELb1EE17countLeadingZerosEv", metadata !120, i32 1838, metadata !349, i1 false, i1 false, i32 0, i32 0, null, i32 256, i1 false, null, null, i32 0, metadata !132, i32 1838} ; [ DW_TAG_subprogram ]
!349 = metadata !{i32 786453, i32 0, metadata !"", i32 0, i32 0, i64 0, i64 0, i64 0, i32 0, null, metadata !350, i32 0, i32 0} ; [ DW_TAG_subroutine_type ]
!350 = metadata !{metadata !141, metadata !147}
!351 = metadata !{i32 786478, i32 0, metadata !119, metadata !"operator++", metadata !"operator++", metadata !"_ZN11ap_int_baseILi5ELb0ELb1EEppEv", metadata !120, i32 1895, metadata !329, i1 false, i1 false, i32 0, i32 0, null, i32 256, i1 false, null, null, i32 0, metadata !132, i32 1895} ; [ DW_TAG_subprogram ]
!352 = metadata !{i32 786478, i32 0, metadata !119, metadata !"operator--", metadata !"operator--", metadata !"_ZN11ap_int_baseILi5ELb0ELb1EEmmEv", metadata !120, i32 1899, metadata !329, i1 false, i1 false, i32 0, i32 0, null, i32 256, i1 false, null, null, i32 0, metadata !132, i32 1899} ; [ DW_TAG_subprogram ]
!353 = metadata !{i32 786478, i32 0, metadata !119, metadata !"operator++", metadata !"operator++", metadata !"_ZN11ap_int_baseILi5ELb0ELb1EEppEi", metadata !120, i32 1907, metadata !354, i1 false, i1 false, i32 0, i32 0, null, i32 256, i1 false, null, null, i32 0, metadata !132, i32 1907} ; [ DW_TAG_subprogram ]
!354 = metadata !{i32 786453, i32 0, metadata !"", i32 0, i32 0, i64 0, i64 0, i64 0, i32 0, null, metadata !355, i32 0, i32 0} ; [ DW_TAG_subroutine_type ]
!355 = metadata !{metadata !152, metadata !147, metadata !141}
!356 = metadata !{i32 786478, i32 0, metadata !119, metadata !"operator--", metadata !"operator--", metadata !"_ZN11ap_int_baseILi5ELb0ELb1EEmmEi", metadata !120, i32 1912, metadata !354, i1 false, i1 false, i32 0, i32 0, null, i32 256, i1 false, null, null, i32 0, metadata !132, i32 1912} ; [ DW_TAG_subprogram ]
!357 = metadata !{i32 786478, i32 0, metadata !119, metadata !"operator+", metadata !"operator+", metadata !"_ZNK11ap_int_baseILi5ELb0ELb1EEpsEv", metadata !120, i32 1921, metadata !358, i1 false, i1 false, i32 0, i32 0, null, i32 256, i1 false, null, null, i32 0, metadata !132, i32 1921} ; [ DW_TAG_subprogram ]
!358 = metadata !{i32 786453, i32 0, metadata !"", i32 0, i32 0, i64 0, i64 0, i64 0, i32 0, null, metadata !359, i32 0, i32 0} ; [ DW_TAG_subroutine_type ]
!359 = metadata !{metadata !119, metadata !286}
!360 = metadata !{i32 786478, i32 0, metadata !119, metadata !"operator!", metadata !"operator!", metadata !"_ZNK11ap_int_baseILi5ELb0ELb1EEntEv", metadata !120, i32 1927, metadata !288, i1 false, i1 false, i32 0, i32 0, null, i32 256, i1 false, null, null, i32 0, metadata !132, i32 1927} ; [ DW_TAG_subprogram ]
!361 = metadata !{i32 786478, i32 0, metadata !119, metadata !"operator-", metadata !"operator-", metadata !"_ZNK11ap_int_baseILi5ELb0ELb1EEngEv", metadata !120, i32 1932, metadata !362, i1 false, i1 false, i32 0, i32 0, null, i32 256, i1 false, null, null, i32 0, metadata !132, i32 1932} ; [ DW_TAG_subprogram ]
!362 = metadata !{i32 786453, i32 0, metadata !"", i32 0, i32 0, i64 0, i64 0, i64 0, i32 0, null, metadata !363, i32 0, i32 0} ; [ DW_TAG_subroutine_type ]
!363 = metadata !{metadata !364, metadata !286}
!364 = metadata !{i32 786434, null, metadata !"ap_int_base<6, true, true>", metadata !120, i32 651, i32 0, i32 0, i32 0, i32 4, null, null, i32 0} ; [ DW_TAG_class_type ]
!365 = metadata !{i32 786478, i32 0, metadata !119, metadata !"range", metadata !"range", metadata !"_ZN11ap_int_baseILi5ELb0ELb1EE5rangeEii", metadata !120, i32 2062, metadata !366, i1 false, i1 false, i32 0, i32 0, null, i32 256, i1 false, null, null, i32 0, metadata !132, i32 2062} ; [ DW_TAG_subprogram ]
!366 = metadata !{i32 786453, i32 0, metadata !"", i32 0, i32 0, i64 0, i64 0, i64 0, i32 0, null, metadata !367, i32 0, i32 0} ; [ DW_TAG_subroutine_type ]
!367 = metadata !{metadata !368, metadata !147, metadata !141, metadata !141}
!368 = metadata !{i32 786434, null, metadata !"ap_range_ref<5, false>", metadata !120, i32 925, i32 0, i32 0, i32 0, i32 4, null, null, i32 0} ; [ DW_TAG_class_type ]
!369 = metadata !{i32 786478, i32 0, metadata !119, metadata !"operator()", metadata !"operator()", metadata !"_ZN11ap_int_baseILi5ELb0ELb1EEclEii", metadata !120, i32 2068, metadata !366, i1 false, i1 false, i32 0, i32 0, null, i32 256, i1 false, null, null, i32 0, metadata !132, i32 2068} ; [ DW_TAG_subprogram ]
!370 = metadata !{i32 786478, i32 0, metadata !119, metadata !"range", metadata !"range", metadata !"_ZNK11ap_int_baseILi5ELb0ELb1EE5rangeEii", metadata !120, i32 2074, metadata !371, i1 false, i1 false, i32 0, i32 0, null, i32 256, i1 false, null, null, i32 0, metadata !132, i32 2074} ; [ DW_TAG_subprogram ]
!371 = metadata !{i32 786453, i32 0, metadata !"", i32 0, i32 0, i64 0, i64 0, i64 0, i32 0, null, metadata !372, i32 0, i32 0} ; [ DW_TAG_subroutine_type ]
!372 = metadata !{metadata !368, metadata !286, metadata !141, metadata !141}
!373 = metadata !{i32 786478, i32 0, metadata !119, metadata !"operator()", metadata !"operator()", metadata !"_ZNK11ap_int_baseILi5ELb0ELb1EEclEii", metadata !120, i32 2080, metadata !371, i1 false, i1 false, i32 0, i32 0, null, i32 256, i1 false, null, null, i32 0, metadata !132, i32 2080} ; [ DW_TAG_subprogram ]
!374 = metadata !{i32 786478, i32 0, metadata !119, metadata !"operator[]", metadata !"operator[]", metadata !"_ZN11ap_int_baseILi5ELb0ELb1EEixEi", metadata !120, i32 2099, metadata !375, i1 false, i1 false, i32 0, i32 0, null, i32 256, i1 false, null, null, i32 0, metadata !132, i32 2099} ; [ DW_TAG_subprogram ]
!375 = metadata !{i32 786453, i32 0, metadata !"", i32 0, i32 0, i64 0, i64 0, i64 0, i32 0, null, metadata !376, i32 0, i32 0} ; [ DW_TAG_subroutine_type ]
!376 = metadata !{metadata !377, metadata !147, metadata !141}
!377 = metadata !{i32 786434, null, metadata !"ap_bit_ref<5, false>", metadata !120, i32 1249, i64 128, i64 64, i32 0, i32 0, null, metadata !378, i32 0, null, metadata !414} ; [ DW_TAG_class_type ]
!378 = metadata !{metadata !379, metadata !380, metadata !381, metadata !387, metadata !391, metadata !395, metadata !396, metadata !400, metadata !403, metadata !404, metadata !407, metadata !408, metadata !411}
!379 = metadata !{i32 786445, metadata !377, metadata !"d_bv", metadata !120, i32 1250, i64 64, i64 64, i64 0, i32 0, metadata !243} ; [ DW_TAG_member ]
!380 = metadata !{i32 786445, metadata !377, metadata !"d_index", metadata !120, i32 1251, i64 32, i64 32, i64 64, i32 0, metadata !141} ; [ DW_TAG_member ]
!381 = metadata !{i32 786478, i32 0, metadata !377, metadata !"ap_bit_ref", metadata !"ap_bit_ref", metadata !"", metadata !120, i32 1254, metadata !382, i1 false, i1 false, i32 0, i32 0, null, i32 256, i1 false, null, null, i32 0, metadata !132, i32 1254} ; [ DW_TAG_subprogram ]
!382 = metadata !{i32 786453, i32 0, metadata !"", i32 0, i32 0, i64 0, i64 0, i64 0, i32 0, null, metadata !383, i32 0, i32 0} ; [ DW_TAG_subroutine_type ]
!383 = metadata !{null, metadata !384, metadata !385}
!384 = metadata !{i32 786447, i32 0, metadata !"", i32 0, i32 0, i64 64, i64 64, i64 0, i32 64, metadata !377} ; [ DW_TAG_pointer_type ]
!385 = metadata !{i32 786448, null, null, null, i32 0, i64 0, i64 0, i64 0, i32 0, metadata !386} ; [ DW_TAG_reference_type ]
!386 = metadata !{i32 786470, null, metadata !"", null, i32 0, i64 0, i64 0, i64 0, i32 0, metadata !377} ; [ DW_TAG_const_type ]
!387 = metadata !{i32 786478, i32 0, metadata !377, metadata !"ap_bit_ref", metadata !"ap_bit_ref", metadata !"", metadata !120, i32 1257, metadata !388, i1 false, i1 false, i32 0, i32 0, null, i32 256, i1 false, null, null, i32 0, metadata !132, i32 1257} ; [ DW_TAG_subprogram ]
!388 = metadata !{i32 786453, i32 0, metadata !"", i32 0, i32 0, i64 0, i64 0, i64 0, i32 0, null, metadata !389, i32 0, i32 0} ; [ DW_TAG_subroutine_type ]
!389 = metadata !{null, metadata !384, metadata !390, metadata !141}
!390 = metadata !{i32 786447, null, metadata !"", null, i32 0, i64 64, i64 64, i64 0, i32 0, metadata !119} ; [ DW_TAG_pointer_type ]
!391 = metadata !{i32 786478, i32 0, metadata !377, metadata !"operator _Bool", metadata !"operator _Bool", metadata !"_ZNK10ap_bit_refILi5ELb0EEcvbEv", metadata !120, i32 1259, metadata !392, i1 false, i1 false, i32 0, i32 0, null, i32 256, i1 false, null, null, i32 0, metadata !132, i32 1259} ; [ DW_TAG_subprogram ]
!392 = metadata !{i32 786453, i32 0, metadata !"", i32 0, i32 0, i64 0, i64 0, i64 0, i32 0, null, metadata !393, i32 0, i32 0} ; [ DW_TAG_subroutine_type ]
!393 = metadata !{metadata !143, metadata !394}
!394 = metadata !{i32 786447, i32 0, metadata !"", i32 0, i32 0, i64 64, i64 64, i64 0, i32 64, metadata !386} ; [ DW_TAG_pointer_type ]
!395 = metadata !{i32 786478, i32 0, metadata !377, metadata !"to_bool", metadata !"to_bool", metadata !"_ZNK10ap_bit_refILi5ELb0EE7to_boolEv", metadata !120, i32 1260, metadata !392, i1 false, i1 false, i32 0, i32 0, null, i32 256, i1 false, null, null, i32 0, metadata !132, i32 1260} ; [ DW_TAG_subprogram ]
!396 = metadata !{i32 786478, i32 0, metadata !377, metadata !"operator=", metadata !"operator=", metadata !"_ZN10ap_bit_refILi5ELb0EEaSEy", metadata !120, i32 1262, metadata !397, i1 false, i1 false, i32 0, i32 0, null, i32 256, i1 false, null, null, i32 0, metadata !132, i32 1262} ; [ DW_TAG_subprogram ]
!397 = metadata !{i32 786453, i32 0, metadata !"", i32 0, i32 0, i64 0, i64 0, i64 0, i32 0, null, metadata !398, i32 0, i32 0} ; [ DW_TAG_subroutine_type ]
!398 = metadata !{metadata !399, metadata !384, metadata !206}
!399 = metadata !{i32 786448, null, null, null, i32 0, i64 0, i64 0, i64 0, i32 0, metadata !377} ; [ DW_TAG_reference_type ]
!400 = metadata !{i32 786478, i32 0, metadata !377, metadata !"operator=", metadata !"operator=", metadata !"_ZN10ap_bit_refILi5ELb0EEaSERKS0_", metadata !120, i32 1282, metadata !401, i1 false, i1 false, i32 0, i32 0, null, i32 256, i1 false, null, null, i32 0, metadata !132, i32 1282} ; [ DW_TAG_subprogram ]
!401 = metadata !{i32 786453, i32 0, metadata !"", i32 0, i32 0, i64 0, i64 0, i64 0, i32 0, null, metadata !402, i32 0, i32 0} ; [ DW_TAG_subroutine_type ]
!402 = metadata !{metadata !399, metadata !384, metadata !385}
!403 = metadata !{i32 786478, i32 0, metadata !377, metadata !"get", metadata !"get", metadata !"_ZNK10ap_bit_refILi5ELb0EE3getEv", metadata !120, i32 1390, metadata !392, i1 false, i1 false, i32 0, i32 0, null, i32 256, i1 false, null, null, i32 0, metadata !132, i32 1390} ; [ DW_TAG_subprogram ]
!404 = metadata !{i32 786478, i32 0, metadata !377, metadata !"get", metadata !"get", metadata !"_ZN10ap_bit_refILi5ELb0EE3getEv", metadata !120, i32 1394, metadata !405, i1 false, i1 false, i32 0, i32 0, null, i32 256, i1 false, null, null, i32 0, metadata !132, i32 1394} ; [ DW_TAG_subprogram ]
!405 = metadata !{i32 786453, i32 0, metadata !"", i32 0, i32 0, i64 0, i64 0, i64 0, i32 0, null, metadata !406, i32 0, i32 0} ; [ DW_TAG_subroutine_type ]
!406 = metadata !{metadata !143, metadata !384}
!407 = metadata !{i32 786478, i32 0, metadata !377, metadata !"operator~", metadata !"operator~", metadata !"_ZNK10ap_bit_refILi5ELb0EEcoEv", metadata !120, i32 1403, metadata !392, i1 false, i1 false, i32 0, i32 0, null, i32 256, i1 false, null, null, i32 0, metadata !132, i32 1403} ; [ DW_TAG_subprogram ]
!408 = metadata !{i32 786478, i32 0, metadata !377, metadata !"length", metadata !"length", metadata !"_ZNK10ap_bit_refILi5ELb0EE6lengthEv", metadata !120, i32 1408, metadata !409, i1 false, i1 false, i32 0, i32 0, null, i32 256, i1 false, null, null, i32 0, metadata !132, i32 1408} ; [ DW_TAG_subprogram ]
!409 = metadata !{i32 786453, i32 0, metadata !"", i32 0, i32 0, i64 0, i64 0, i64 0, i32 0, null, metadata !410, i32 0, i32 0} ; [ DW_TAG_subroutine_type ]
!410 = metadata !{metadata !141, metadata !394}
!411 = metadata !{i32 786478, i32 0, metadata !377, metadata !"~ap_bit_ref", metadata !"~ap_bit_ref", metadata !"", metadata !120, i32 1249, metadata !412, i1 false, i1 false, i32 0, i32 0, null, i32 320, i1 false, null, null, i32 0, metadata !132, i32 1249} ; [ DW_TAG_subprogram ]
!412 = metadata !{i32 786453, i32 0, metadata !"", i32 0, i32 0, i64 0, i64 0, i64 0, i32 0, null, metadata !413, i32 0, i32 0} ; [ DW_TAG_subroutine_type ]
!413 = metadata !{null, metadata !384}
!414 = metadata !{metadata !415, metadata !142}
!415 = metadata !{i32 786480, null, metadata !"_AP_W", metadata !141, i64 5, null, i32 0, i32 0} ; [ DW_TAG_template_value_parameter ]
!416 = metadata !{i32 786478, i32 0, metadata !119, metadata !"operator[]", metadata !"operator[]", metadata !"_ZNK11ap_int_baseILi5ELb0ELb1EEixEi", metadata !120, i32 2113, metadata !337, i1 false, i1 false, i32 0, i32 0, null, i32 256, i1 false, null, null, i32 0, metadata !132, i32 2113} ; [ DW_TAG_subprogram ]
!417 = metadata !{i32 786478, i32 0, metadata !119, metadata !"bit", metadata !"bit", metadata !"_ZN11ap_int_baseILi5ELb0ELb1EE3bitEi", metadata !120, i32 2127, metadata !375, i1 false, i1 false, i32 0, i32 0, null, i32 256, i1 false, null, null, i32 0, metadata !132, i32 2127} ; [ DW_TAG_subprogram ]
!418 = metadata !{i32 786478, i32 0, metadata !119, metadata !"bit", metadata !"bit", metadata !"_ZNK11ap_int_baseILi5ELb0ELb1EE3bitEi", metadata !120, i32 2141, metadata !337, i1 false, i1 false, i32 0, i32 0, null, i32 256, i1 false, null, null, i32 0, metadata !132, i32 2141} ; [ DW_TAG_subprogram ]
!419 = metadata !{i32 786478, i32 0, metadata !119, metadata !"and_reduce", metadata !"and_reduce", metadata !"_ZN11ap_int_baseILi5ELb0ELb1EE10and_reduceEv", metadata !120, i32 2321, metadata !420, i1 false, i1 false, i32 0, i32 0, null, i32 256, i1 false, null, null, i32 0, metadata !132, i32 2321} ; [ DW_TAG_subprogram ]
!420 = metadata !{i32 786453, i32 0, metadata !"", i32 0, i32 0, i64 0, i64 0, i64 0, i32 0, null, metadata !421, i32 0, i32 0} ; [ DW_TAG_subroutine_type ]
!421 = metadata !{metadata !143, metadata !147}
!422 = metadata !{i32 786478, i32 0, metadata !119, metadata !"nand_reduce", metadata !"nand_reduce", metadata !"_ZN11ap_int_baseILi5ELb0ELb1EE11nand_reduceEv", metadata !120, i32 2324, metadata !420, i1 false, i1 false, i32 0, i32 0, null, i32 256, i1 false, null, null, i32 0, metadata !132, i32 2324} ; [ DW_TAG_subprogram ]
!423 = metadata !{i32 786478, i32 0, metadata !119, metadata !"or_reduce", metadata !"or_reduce", metadata !"_ZN11ap_int_baseILi5ELb0ELb1EE9or_reduceEv", metadata !120, i32 2327, metadata !420, i1 false, i1 false, i32 0, i32 0, null, i32 256, i1 false, null, null, i32 0, metadata !132, i32 2327} ; [ DW_TAG_subprogram ]
!424 = metadata !{i32 786478, i32 0, metadata !119, metadata !"nor_reduce", metadata !"nor_reduce", metadata !"_ZN11ap_int_baseILi5ELb0ELb1EE10nor_reduceEv", metadata !120, i32 2330, metadata !420, i1 false, i1 false, i32 0, i32 0, null, i32 256, i1 false, null, null, i32 0, metadata !132, i32 2330} ; [ DW_TAG_subprogram ]
!425 = metadata !{i32 786478, i32 0, metadata !119, metadata !"xor_reduce", metadata !"xor_reduce", metadata !"_ZN11ap_int_baseILi5ELb0ELb1EE10xor_reduceEv", metadata !120, i32 2333, metadata !420, i1 false, i1 false, i32 0, i32 0, null, i32 256, i1 false, null, null, i32 0, metadata !132, i32 2333} ; [ DW_TAG_subprogram ]
!426 = metadata !{i32 786478, i32 0, metadata !119, metadata !"xnor_reduce", metadata !"xnor_reduce", metadata !"_ZN11ap_int_baseILi5ELb0ELb1EE11xnor_reduceEv", metadata !120, i32 2336, metadata !420, i1 false, i1 false, i32 0, i32 0, null, i32 256, i1 false, null, null, i32 0, metadata !132, i32 2336} ; [ DW_TAG_subprogram ]
!427 = metadata !{i32 786478, i32 0, metadata !119, metadata !"and_reduce", metadata !"and_reduce", metadata !"_ZNK11ap_int_baseILi5ELb0ELb1EE10and_reduceEv", metadata !120, i32 2340, metadata !288, i1 false, i1 false, i32 0, i32 0, null, i32 256, i1 false, null, null, i32 0, metadata !132, i32 2340} ; [ DW_TAG_subprogram ]
!428 = metadata !{i32 786478, i32 0, metadata !119, metadata !"nand_reduce", metadata !"nand_reduce", metadata !"_ZNK11ap_int_baseILi5ELb0ELb1EE11nand_reduceEv", metadata !120, i32 2343, metadata !288, i1 false, i1 false, i32 0, i32 0, null, i32 256, i1 false, null, null, i32 0, metadata !132, i32 2343} ; [ DW_TAG_subprogram ]
!429 = metadata !{i32 786478, i32 0, metadata !119, metadata !"or_reduce", metadata !"or_reduce", metadata !"_ZNK11ap_int_baseILi5ELb0ELb1EE9or_reduceEv", metadata !120, i32 2346, metadata !288, i1 false, i1 false, i32 0, i32 0, null, i32 256, i1 false, null, null, i32 0, metadata !132, i32 2346} ; [ DW_TAG_subprogram ]
!430 = metadata !{i32 786478, i32 0, metadata !119, metadata !"nor_reduce", metadata !"nor_reduce", metadata !"_ZNK11ap_int_baseILi5ELb0ELb1EE10nor_reduceEv", metadata !120, i32 2349, metadata !288, i1 false, i1 false, i32 0, i32 0, null, i32 256, i1 false, null, null, i32 0, metadata !132, i32 2349} ; [ DW_TAG_subprogram ]
!431 = metadata !{i32 786478, i32 0, metadata !119, metadata !"xor_reduce", metadata !"xor_reduce", metadata !"_ZNK11ap_int_baseILi5ELb0ELb1EE10xor_reduceEv", metadata !120, i32 2352, metadata !288, i1 false, i1 false, i32 0, i32 0, null, i32 256, i1 false, null, null, i32 0, metadata !132, i32 2352} ; [ DW_TAG_subprogram ]
!432 = metadata !{i32 786478, i32 0, metadata !119, metadata !"xnor_reduce", metadata !"xnor_reduce", metadata !"_ZNK11ap_int_baseILi5ELb0ELb1EE11xnor_reduceEv", metadata !120, i32 2355, metadata !288, i1 false, i1 false, i32 0, i32 0, null, i32 256, i1 false, null, null, i32 0, metadata !132, i32 2355} ; [ DW_TAG_subprogram ]
!433 = metadata !{i32 786478, i32 0, metadata !119, metadata !"to_string", metadata !"to_string", metadata !"_ZNK11ap_int_baseILi5ELb0ELb1EE9to_stringEPci8BaseModeb", metadata !120, i32 2362, metadata !434, i1 false, i1 false, i32 0, i32 0, null, i32 256, i1 false, null, null, i32 0, metadata !132, i32 2362} ; [ DW_TAG_subprogram ]
!434 = metadata !{i32 786453, i32 0, metadata !"", i32 0, i32 0, i64 0, i64 0, i64 0, i32 0, null, metadata !435, i32 0, i32 0} ; [ DW_TAG_subroutine_type ]
!435 = metadata !{null, metadata !286, metadata !436, metadata !141, metadata !437, metadata !143}
!436 = metadata !{i32 786447, null, metadata !"", null, i32 0, i64 64, i64 64, i64 0, i32 0, metadata !225} ; [ DW_TAG_pointer_type ]
!437 = metadata !{i32 786436, null, metadata !"BaseMode", metadata !120, i32 603, i64 5, i64 8, i32 0, i32 0, null, metadata !438, i32 0, i32 0} ; [ DW_TAG_enumeration_type ]
!438 = metadata !{metadata !439, metadata !440, metadata !441, metadata !442}
!439 = metadata !{i32 786472, metadata !"SC_BIN", i64 2} ; [ DW_TAG_enumerator ]
!440 = metadata !{i32 786472, metadata !"SC_OCT", i64 8} ; [ DW_TAG_enumerator ]
!441 = metadata !{i32 786472, metadata !"SC_DEC", i64 10} ; [ DW_TAG_enumerator ]
!442 = metadata !{i32 786472, metadata !"SC_HEX", i64 16} ; [ DW_TAG_enumerator ]
!443 = metadata !{i32 786478, i32 0, metadata !119, metadata !"to_string", metadata !"to_string", metadata !"_ZNK11ap_int_baseILi5ELb0ELb1EE9to_stringE8BaseModeb", metadata !120, i32 2389, metadata !444, i1 false, i1 false, i32 0, i32 0, null, i32 256, i1 false, null, null, i32 0, metadata !132, i32 2389} ; [ DW_TAG_subprogram ]
!444 = metadata !{i32 786453, i32 0, metadata !"", i32 0, i32 0, i64 0, i64 0, i64 0, i32 0, null, metadata !445, i32 0, i32 0} ; [ DW_TAG_subroutine_type ]
!445 = metadata !{metadata !436, metadata !286, metadata !437, metadata !143}
!446 = metadata !{i32 786478, i32 0, metadata !119, metadata !"to_string", metadata !"to_string", metadata !"_ZNK11ap_int_baseILi5ELb0ELb1EE9to_stringEab", metadata !120, i32 2393, metadata !447, i1 false, i1 false, i32 0, i32 0, null, i32 256, i1 false, null, null, i32 0, metadata !132, i32 2393} ; [ DW_TAG_subprogram ]
!447 = metadata !{i32 786453, i32 0, metadata !"", i32 0, i32 0, i64 0, i64 0, i64 0, i32 0, null, metadata !448, i32 0, i32 0} ; [ DW_TAG_subroutine_type ]
!448 = metadata !{metadata !436, metadata !286, metadata !168, metadata !143}
!449 = metadata !{i32 786478, i32 0, metadata !119, metadata !"ap_int_base", metadata !"ap_int_base", metadata !"", metadata !120, i32 1453, metadata !149, i1 false, i1 false, i32 0, i32 0, null, i32 320, i1 false, null, null, i32 0, metadata !132, i32 1453} ; [ DW_TAG_subprogram ]
!450 = metadata !{metadata !415, metadata !142, metadata !451}
!451 = metadata !{i32 786480, null, metadata !"_AP_C", metadata !143, i64 1, null, i32 0, i32 0} ; [ DW_TAG_template_value_parameter ]
!452 = metadata !{i32 786478, i32 0, metadata !116, metadata !"ap_uint", metadata !"ap_uint", metadata !"", metadata !112, i32 186, metadata !453, i1 false, i1 false, i32 0, i32 0, null, i32 256, i1 false, null, null, i32 0, metadata !132, i32 186} ; [ DW_TAG_subprogram ]
!453 = metadata !{i32 786453, i32 0, metadata !"", i32 0, i32 0, i64 0, i64 0, i64 0, i32 0, null, metadata !454, i32 0, i32 0} ; [ DW_TAG_subroutine_type ]
!454 = metadata !{null, metadata !455}
!455 = metadata !{i32 786447, i32 0, metadata !"", i32 0, i32 0, i64 64, i64 64, i64 0, i32 64, metadata !116} ; [ DW_TAG_pointer_type ]
!456 = metadata !{i32 786478, i32 0, metadata !116, metadata !"ap_uint<5>", metadata !"ap_uint<5>", metadata !"", metadata !112, i32 188, metadata !457, i1 false, i1 false, i32 0, i32 0, null, i32 256, i1 false, null, metadata !461, i32 0, metadata !132, i32 188} ; [ DW_TAG_subprogram ]
!457 = metadata !{i32 786453, i32 0, metadata !"", i32 0, i32 0, i64 0, i64 0, i64 0, i32 0, null, metadata !458, i32 0, i32 0} ; [ DW_TAG_subroutine_type ]
!458 = metadata !{null, metadata !455, metadata !459}
!459 = metadata !{i32 786448, null, null, null, i32 0, i64 0, i64 0, i64 0, i32 0, metadata !460} ; [ DW_TAG_reference_type ]
!460 = metadata !{i32 786470, null, metadata !"", null, i32 0, i64 0, i64 0, i64 0, i32 0, metadata !116} ; [ DW_TAG_const_type ]
!461 = metadata !{metadata !154}
!462 = metadata !{i32 786478, i32 0, metadata !116, metadata !"ap_uint<5>", metadata !"ap_uint<5>", metadata !"", metadata !112, i32 194, metadata !463, i1 false, i1 false, i32 0, i32 0, null, i32 256, i1 false, null, metadata !461, i32 0, metadata !132, i32 194} ; [ DW_TAG_subprogram ]
!463 = metadata !{i32 786453, i32 0, metadata !"", i32 0, i32 0, i64 0, i64 0, i64 0, i32 0, null, metadata !464, i32 0, i32 0} ; [ DW_TAG_subroutine_type ]
!464 = metadata !{null, metadata !455, metadata !465}
!465 = metadata !{i32 786448, null, null, null, i32 0, i64 0, i64 0, i64 0, i32 0, metadata !466} ; [ DW_TAG_reference_type ]
!466 = metadata !{i32 786470, null, metadata !"", null, i32 0, i64 0, i64 0, i64 0, i32 0, metadata !467} ; [ DW_TAG_const_type ]
!467 = metadata !{i32 786485, null, metadata !"", null, i32 0, i64 0, i64 0, i64 0, i32 0, metadata !116} ; [ DW_TAG_volatile_type ]
!468 = metadata !{i32 786478, i32 0, metadata !116, metadata !"ap_uint<5, false>", metadata !"ap_uint<5, false>", metadata !"", metadata !112, i32 229, metadata !469, i1 false, i1 false, i32 0, i32 0, null, i32 256, i1 false, null, metadata !153, i32 0, metadata !132, i32 229} ; [ DW_TAG_subprogram ]
!469 = metadata !{i32 786453, i32 0, metadata !"", i32 0, i32 0, i64 0, i64 0, i64 0, i32 0, null, metadata !470, i32 0, i32 0} ; [ DW_TAG_subroutine_type ]
!470 = metadata !{null, metadata !455, metadata !151}
!471 = metadata !{i32 786478, i32 0, metadata !116, metadata !"ap_uint", metadata !"ap_uint", metadata !"", metadata !112, i32 248, metadata !472, i1 false, i1 false, i32 0, i32 0, null, i32 256, i1 false, null, null, i32 0, metadata !132, i32 248} ; [ DW_TAG_subprogram ]
!472 = metadata !{i32 786453, i32 0, metadata !"", i32 0, i32 0, i64 0, i64 0, i64 0, i32 0, null, metadata !473, i32 0, i32 0} ; [ DW_TAG_subroutine_type ]
!473 = metadata !{null, metadata !455, metadata !143}
!474 = metadata !{i32 786478, i32 0, metadata !116, metadata !"ap_uint", metadata !"ap_uint", metadata !"", metadata !112, i32 249, metadata !475, i1 false, i1 false, i32 0, i32 0, null, i32 256, i1 false, null, null, i32 0, metadata !132, i32 249} ; [ DW_TAG_subprogram ]
!475 = metadata !{i32 786453, i32 0, metadata !"", i32 0, i32 0, i64 0, i64 0, i64 0, i32 0, null, metadata !476, i32 0, i32 0} ; [ DW_TAG_subroutine_type ]
!476 = metadata !{null, metadata !455, metadata !168}
!477 = metadata !{i32 786478, i32 0, metadata !116, metadata !"ap_uint", metadata !"ap_uint", metadata !"", metadata !112, i32 250, metadata !478, i1 false, i1 false, i32 0, i32 0, null, i32 256, i1 false, null, null, i32 0, metadata !132, i32 250} ; [ DW_TAG_subprogram ]
!478 = metadata !{i32 786453, i32 0, metadata !"", i32 0, i32 0, i64 0, i64 0, i64 0, i32 0, null, metadata !479, i32 0, i32 0} ; [ DW_TAG_subroutine_type ]
!479 = metadata !{null, metadata !455, metadata !172}
!480 = metadata !{i32 786478, i32 0, metadata !116, metadata !"ap_uint", metadata !"ap_uint", metadata !"", metadata !112, i32 251, metadata !481, i1 false, i1 false, i32 0, i32 0, null, i32 256, i1 false, null, null, i32 0, metadata !132, i32 251} ; [ DW_TAG_subprogram ]
!481 = metadata !{i32 786453, i32 0, metadata !"", i32 0, i32 0, i64 0, i64 0, i64 0, i32 0, null, metadata !482, i32 0, i32 0} ; [ DW_TAG_subroutine_type ]
!482 = metadata !{null, metadata !455, metadata !176}
!483 = metadata !{i32 786478, i32 0, metadata !116, metadata !"ap_uint", metadata !"ap_uint", metadata !"", metadata !112, i32 252, metadata !484, i1 false, i1 false, i32 0, i32 0, null, i32 256, i1 false, null, null, i32 0, metadata !132, i32 252} ; [ DW_TAG_subprogram ]
!484 = metadata !{i32 786453, i32 0, metadata !"", i32 0, i32 0, i64 0, i64 0, i64 0, i32 0, null, metadata !485, i32 0, i32 0} ; [ DW_TAG_subroutine_type ]
!485 = metadata !{null, metadata !455, metadata !180}
!486 = metadata !{i32 786478, i32 0, metadata !116, metadata !"ap_uint", metadata !"ap_uint", metadata !"", metadata !112, i32 253, metadata !487, i1 false, i1 false, i32 0, i32 0, null, i32 256, i1 false, null, null, i32 0, metadata !132, i32 253} ; [ DW_TAG_subprogram ]
!487 = metadata !{i32 786453, i32 0, metadata !"", i32 0, i32 0, i64 0, i64 0, i64 0, i32 0, null, metadata !488, i32 0, i32 0} ; [ DW_TAG_subroutine_type ]
!488 = metadata !{null, metadata !455, metadata !141}
!489 = metadata !{i32 786478, i32 0, metadata !116, metadata !"ap_uint", metadata !"ap_uint", metadata !"", metadata !112, i32 254, metadata !490, i1 false, i1 false, i32 0, i32 0, null, i32 256, i1 false, null, null, i32 0, metadata !132, i32 254} ; [ DW_TAG_subprogram ]
!490 = metadata !{i32 786453, i32 0, metadata !"", i32 0, i32 0, i64 0, i64 0, i64 0, i32 0, null, metadata !491, i32 0, i32 0} ; [ DW_TAG_subroutine_type ]
!491 = metadata !{null, metadata !455, metadata !187}
!492 = metadata !{i32 786478, i32 0, metadata !116, metadata !"ap_uint", metadata !"ap_uint", metadata !"", metadata !112, i32 255, metadata !493, i1 false, i1 false, i32 0, i32 0, null, i32 256, i1 false, null, null, i32 0, metadata !132, i32 255} ; [ DW_TAG_subprogram ]
!493 = metadata !{i32 786453, i32 0, metadata !"", i32 0, i32 0, i64 0, i64 0, i64 0, i32 0, null, metadata !494, i32 0, i32 0} ; [ DW_TAG_subroutine_type ]
!494 = metadata !{null, metadata !455, metadata !191}
!495 = metadata !{i32 786478, i32 0, metadata !116, metadata !"ap_uint", metadata !"ap_uint", metadata !"", metadata !112, i32 256, metadata !496, i1 false, i1 false, i32 0, i32 0, null, i32 256, i1 false, null, null, i32 0, metadata !132, i32 256} ; [ DW_TAG_subprogram ]
!496 = metadata !{i32 786453, i32 0, metadata !"", i32 0, i32 0, i64 0, i64 0, i64 0, i32 0, null, metadata !497, i32 0, i32 0} ; [ DW_TAG_subroutine_type ]
!497 = metadata !{null, metadata !455, metadata !195}
!498 = metadata !{i32 786478, i32 0, metadata !116, metadata !"ap_uint", metadata !"ap_uint", metadata !"", metadata !112, i32 257, metadata !499, i1 false, i1 false, i32 0, i32 0, null, i32 256, i1 false, null, null, i32 0, metadata !132, i32 257} ; [ DW_TAG_subprogram ]
!499 = metadata !{i32 786453, i32 0, metadata !"", i32 0, i32 0, i64 0, i64 0, i64 0, i32 0, null, metadata !500, i32 0, i32 0} ; [ DW_TAG_subroutine_type ]
!500 = metadata !{null, metadata !455, metadata !206}
!501 = metadata !{i32 786478, i32 0, metadata !116, metadata !"ap_uint", metadata !"ap_uint", metadata !"", metadata !112, i32 258, metadata !502, i1 false, i1 false, i32 0, i32 0, null, i32 256, i1 false, null, null, i32 0, metadata !132, i32 258} ; [ DW_TAG_subprogram ]
!502 = metadata !{i32 786453, i32 0, metadata !"", i32 0, i32 0, i64 0, i64 0, i64 0, i32 0, null, metadata !503, i32 0, i32 0} ; [ DW_TAG_subroutine_type ]
!503 = metadata !{null, metadata !455, metadata !201}
!504 = metadata !{i32 786478, i32 0, metadata !116, metadata !"ap_uint", metadata !"ap_uint", metadata !"", metadata !112, i32 259, metadata !505, i1 false, i1 false, i32 0, i32 0, null, i32 256, i1 false, null, null, i32 0, metadata !132, i32 259} ; [ DW_TAG_subprogram ]
!505 = metadata !{i32 786453, i32 0, metadata !"", i32 0, i32 0, i64 0, i64 0, i64 0, i32 0, null, metadata !506, i32 0, i32 0} ; [ DW_TAG_subroutine_type ]
!506 = metadata !{null, metadata !455, metadata !210}
!507 = metadata !{i32 786478, i32 0, metadata !116, metadata !"ap_uint", metadata !"ap_uint", metadata !"", metadata !112, i32 260, metadata !508, i1 false, i1 false, i32 0, i32 0, null, i32 256, i1 false, null, null, i32 0, metadata !132, i32 260} ; [ DW_TAG_subprogram ]
!508 = metadata !{i32 786453, i32 0, metadata !"", i32 0, i32 0, i64 0, i64 0, i64 0, i32 0, null, metadata !509, i32 0, i32 0} ; [ DW_TAG_subroutine_type ]
!509 = metadata !{null, metadata !455, metadata !215}
!510 = metadata !{i32 786478, i32 0, metadata !116, metadata !"ap_uint", metadata !"ap_uint", metadata !"", metadata !112, i32 261, metadata !511, i1 false, i1 false, i32 0, i32 0, null, i32 256, i1 false, null, null, i32 0, metadata !132, i32 261} ; [ DW_TAG_subprogram ]
!511 = metadata !{i32 786453, i32 0, metadata !"", i32 0, i32 0, i64 0, i64 0, i64 0, i32 0, null, metadata !512, i32 0, i32 0} ; [ DW_TAG_subroutine_type ]
!512 = metadata !{null, metadata !455, metadata !219}
!513 = metadata !{i32 786478, i32 0, metadata !116, metadata !"ap_uint", metadata !"ap_uint", metadata !"", metadata !112, i32 263, metadata !514, i1 false, i1 false, i32 0, i32 0, null, i32 256, i1 false, null, null, i32 0, metadata !132, i32 263} ; [ DW_TAG_subprogram ]
!514 = metadata !{i32 786453, i32 0, metadata !"", i32 0, i32 0, i64 0, i64 0, i64 0, i32 0, null, metadata !515, i32 0, i32 0} ; [ DW_TAG_subroutine_type ]
!515 = metadata !{null, metadata !455, metadata !223}
!516 = metadata !{i32 786478, i32 0, metadata !116, metadata !"ap_uint", metadata !"ap_uint", metadata !"", metadata !112, i32 264, metadata !517, i1 false, i1 false, i32 0, i32 0, null, i32 256, i1 false, null, null, i32 0, metadata !132, i32 264} ; [ DW_TAG_subprogram ]
!517 = metadata !{i32 786453, i32 0, metadata !"", i32 0, i32 0, i64 0, i64 0, i64 0, i32 0, null, metadata !518, i32 0, i32 0} ; [ DW_TAG_subroutine_type ]
!518 = metadata !{null, metadata !455, metadata !223, metadata !168}
!519 = metadata !{i32 786478, i32 0, metadata !116, metadata !"operator=", metadata !"operator=", metadata !"_ZNV7ap_uintILi5EEaSERKS0_", metadata !112, i32 267, metadata !520, i1 false, i1 false, i32 0, i32 0, null, i32 256, i1 false, null, null, i32 0, metadata !132, i32 267} ; [ DW_TAG_subprogram ]
!520 = metadata !{i32 786453, i32 0, metadata !"", i32 0, i32 0, i64 0, i64 0, i64 0, i32 0, null, metadata !521, i32 0, i32 0} ; [ DW_TAG_subroutine_type ]
!521 = metadata !{null, metadata !522, metadata !459}
!522 = metadata !{i32 786447, i32 0, metadata !"", i32 0, i32 0, i64 64, i64 64, i64 0, i32 64, metadata !467} ; [ DW_TAG_pointer_type ]
!523 = metadata !{i32 786478, i32 0, metadata !116, metadata !"operator=", metadata !"operator=", metadata !"_ZNV7ap_uintILi5EEaSERVKS0_", metadata !112, i32 271, metadata !524, i1 false, i1 false, i32 0, i32 0, null, i32 256, i1 false, null, null, i32 0, metadata !132, i32 271} ; [ DW_TAG_subprogram ]
!524 = metadata !{i32 786453, i32 0, metadata !"", i32 0, i32 0, i64 0, i64 0, i64 0, i32 0, null, metadata !525, i32 0, i32 0} ; [ DW_TAG_subroutine_type ]
!525 = metadata !{null, metadata !522, metadata !465}
!526 = metadata !{i32 786478, i32 0, metadata !116, metadata !"operator=", metadata !"operator=", metadata !"_ZN7ap_uintILi5EEaSERVKS0_", metadata !112, i32 275, metadata !527, i1 false, i1 false, i32 0, i32 0, null, i32 256, i1 false, null, null, i32 0, metadata !132, i32 275} ; [ DW_TAG_subprogram ]
!527 = metadata !{i32 786453, i32 0, metadata !"", i32 0, i32 0, i64 0, i64 0, i64 0, i32 0, null, metadata !528, i32 0, i32 0} ; [ DW_TAG_subroutine_type ]
!528 = metadata !{metadata !115, metadata !455, metadata !465}
!529 = metadata !{i32 786478, i32 0, metadata !116, metadata !"operator=", metadata !"operator=", metadata !"_ZN7ap_uintILi5EEaSERKS0_", metadata !112, i32 280, metadata !113, i1 false, i1 false, i32 0, i32 0, null, i32 256, i1 false, null, null, i32 0, metadata !132, i32 280} ; [ DW_TAG_subprogram ]
!530 = metadata !{i32 786478, i32 0, metadata !116, metadata !"ap_uint", metadata !"ap_uint", metadata !"", metadata !112, i32 183, metadata !457, i1 false, i1 false, i32 0, i32 0, null, i32 320, i1 false, null, null, i32 0, metadata !132, i32 183} ; [ DW_TAG_subprogram ]
!531 = metadata !{i32 786478, i32 0, metadata !116, metadata !"~ap_uint", metadata !"~ap_uint", metadata !"", metadata !112, i32 183, metadata !453, i1 false, i1 false, i32 0, i32 0, null, i32 320, i1 false, null, null, i32 0, metadata !132, i32 183} ; [ DW_TAG_subprogram ]
!532 = metadata !{metadata !415}
!533 = metadata !{i32 786447, null, metadata !"", null, i32 0, i64 0, i64 0, i64 0, i32 0, metadata !534} ; [ DW_TAG_pointer_type ]
!534 = metadata !{i32 786438, null, metadata !"ap_uint<5>", metadata !112, i32 183, i64 5, i64 8, i32 0, i32 0, null, metadata !535, i32 0, null, metadata !532} ; [ DW_TAG_class_field_type ]
!535 = metadata !{metadata !536}
!536 = metadata !{i32 786438, null, metadata !"ap_int_base<5, false, true>", metadata !120, i32 1453, i64 5, i64 8, i32 0, i32 0, null, metadata !537, i32 0, null, metadata !450} ; [ DW_TAG_class_field_type ]
!537 = metadata !{metadata !538}
!538 = metadata !{i32 786438, null, metadata !"ssdm_int<5 + 1024 * 0, false>", metadata !124, i32 7, i64 5, i64 8, i32 0, i32 0, null, metadata !539, i32 0, null, metadata !139} ; [ DW_TAG_class_field_type ]
!539 = metadata !{metadata !126}
!540 = metadata !{i32 280, i32 84, metadata !111, metadata !541}
!541 = metadata !{i32 83, i32 2, metadata !542, null}
!542 = metadata !{i32 786443, metadata !543, i32 42, i32 17, metadata !544, i32 0} ; [ DW_TAG_lexical_block ]
!543 = metadata !{i32 786478, i32 0, metadata !544, metadata !"rc_receiver", metadata !"rc_receiver", metadata !"_Z11rc_receiverjjP8ap_fixedILi16ELi1EL9ap_q_mode5EL9ap_o_mode3ELi0EE7ap_uintILi5EE", metadata !544, i32 37, metadata !545, i1 false, i1 true, i32 0, i32 0, null, i32 256, i1 false, null, null, null, metadata !132, i32 42} ; [ DW_TAG_subprogram ]
!544 = metadata !{i32 786473, metadata !"rc_receiver.cpp", metadata !"/home/brennan/Documents/pynq-copter/pynqcopter/ip/rc_receiver", null} ; [ DW_TAG_file_type ]
!545 = metadata !{i32 786453, i32 0, metadata !"", i32 0, i32 0, i64 0, i64 0, i64 0, i32 0, null, metadata !546, i32 0, i32 0} ; [ DW_TAG_subroutine_type ]
!546 = metadata !{null, metadata !187, metadata !187, metadata !547, metadata !1220}
!547 = metadata !{i32 786447, null, metadata !"", null, i32 0, i64 64, i64 64, i64 0, i32 0, metadata !548} ; [ DW_TAG_pointer_type ]
!548 = metadata !{i32 786454, null, metadata !"F_t", metadata !544, i32 48, i64 0, i64 0, i64 0, i32 0, metadata !549} ; [ DW_TAG_typedef ]
!549 = metadata !{i32 786434, null, metadata !"ap_fixed<16, 1, 5, 3, 0>", metadata !112, i32 292, i64 16, i64 16, i32 0, i32 0, null, metadata !550, i32 0, null, metadata !1219} ; [ DW_TAG_class_type ]
!550 = metadata !{metadata !551, metadata !861, metadata !865, metadata !1151, metadata !1154, metadata !1157, metadata !1160, metadata !1163, metadata !1166, metadata !1169, metadata !1172, metadata !1175, metadata !1178, metadata !1181, metadata !1184, metadata !1187, metadata !1190, metadata !1193, metadata !1196, metadata !1199, metadata !1205, metadata !1211, metadata !1215, metadata !1218}
!551 = metadata !{i32 786460, metadata !549, null, metadata !112, i32 0, i64 0, i64 0, i64 0, i32 0, metadata !552} ; [ DW_TAG_inheritance ]
!552 = metadata !{i32 786434, null, metadata !"ap_fixed_base<16, 1, true, 5, 3, 0>", metadata !200, i32 512, i64 16, i64 16, i32 0, i32 0, null, metadata !553, i32 0, null, metadata !855} ; [ DW_TAG_class_type ]
!553 = metadata !{metadata !554, metadata !566, metadata !570, metadata !573, metadata !576, metadata !604, metadata !610, metadata !613, metadata !616, metadata !619, metadata !622, metadata !625, metadata !628, metadata !631, metadata !634, metadata !637, metadata !640, metadata !643, metadata !646, metadata !649, metadata !652, metadata !656, metadata !659, metadata !662, metadata !665, metadata !668, metadata !671, metadata !674, metadata !677, metadata !680, metadata !684, metadata !687, metadata !691, metadata !694, metadata !697, metadata !700, metadata !704, metadata !707, metadata !710, metadata !713, metadata !716, metadata !719, metadata !722, metadata !725, metadata !726, metadata !727, metadata !728, metadata !731, metadata !734, metadata !737, metadata !740, metadata !743, metadata !746, metadata !747, metadata !748, metadata !751, metadata !754, metadata !757, metadata !760, metadata !761, metadata !764, metadata !767, metadata !768, metadata !771, metadata !772, metadata !775, metadata !779, metadata !780, metadata !781, metadata !784, metadata !787, metadata !790, metadata !791, metadata !792, metadata !795, metadata !798, metadata !799, metadata !800, metadata !803, metadata !804, metadata !805, metadata !806, metadata !807, metadata !808, metadata !812, metadata !815, metadata !816, metadata !817, metadata !820, metadata !823, metadata !827, metadata !828, metadata !831, metadata !832, metadata !835, metadata !838, metadata !839, metadata !840, metadata !841, metadata !842, metadata !845, metadata !848, metadata !849, metadata !852}
!554 = metadata !{i32 786460, metadata !552, null, metadata !200, i32 0, i64 0, i64 0, i64 0, i32 0, metadata !555} ; [ DW_TAG_inheritance ]
!555 = metadata !{i32 786434, null, metadata !"ssdm_int<16 + 1024 * 0, true>", metadata !124, i32 18, i64 16, i64 16, i32 0, i32 0, null, metadata !556, i32 0, null, metadata !563} ; [ DW_TAG_class_type ]
!556 = metadata !{metadata !557, metadata !559}
!557 = metadata !{i32 786445, metadata !555, metadata !"V", metadata !124, i32 18, i64 16, i64 16, i64 0, i32 0, metadata !558} ; [ DW_TAG_member ]
!558 = metadata !{i32 786468, null, metadata !"int16", null, i32 0, i64 16, i64 16, i64 0, i32 0, i32 5} ; [ DW_TAG_base_type ]
!559 = metadata !{i32 786478, i32 0, metadata !555, metadata !"ssdm_int", metadata !"ssdm_int", metadata !"", metadata !124, i32 18, metadata !560, i1 false, i1 false, i32 0, i32 0, null, i32 256, i1 false, null, null, i32 0, metadata !132, i32 18} ; [ DW_TAG_subprogram ]
!560 = metadata !{i32 786453, i32 0, metadata !"", i32 0, i32 0, i64 0, i64 0, i64 0, i32 0, null, metadata !561, i32 0, i32 0} ; [ DW_TAG_subroutine_type ]
!561 = metadata !{null, metadata !562}
!562 = metadata !{i32 786447, i32 0, metadata !"", i32 0, i32 0, i64 64, i64 64, i64 0, i32 64, metadata !555} ; [ DW_TAG_pointer_type ]
!563 = metadata !{metadata !564, metadata !565}
!564 = metadata !{i32 786480, null, metadata !"_AP_N", metadata !141, i64 16, null, i32 0, i32 0} ; [ DW_TAG_template_value_parameter ]
!565 = metadata !{i32 786480, null, metadata !"_AP_S", metadata !143, i64 1, null, i32 0, i32 0} ; [ DW_TAG_template_value_parameter ]
!566 = metadata !{i32 786478, i32 0, metadata !552, metadata !"overflow_adjust", metadata !"overflow_adjust", metadata !"_ZN13ap_fixed_baseILi16ELi1ELb1EL9ap_q_mode5EL9ap_o_mode3ELi0EE15overflow_adjustEbbbb", metadata !200, i32 522, metadata !567, i1 false, i1 false, i32 0, i32 0, null, i32 256, i1 false, null, null, i32 0, metadata !132, i32 522} ; [ DW_TAG_subprogram ]
!567 = metadata !{i32 786453, i32 0, metadata !"", i32 0, i32 0, i64 0, i64 0, i64 0, i32 0, null, metadata !568, i32 0, i32 0} ; [ DW_TAG_subroutine_type ]
!568 = metadata !{null, metadata !569, metadata !143, metadata !143, metadata !143, metadata !143}
!569 = metadata !{i32 786447, i32 0, metadata !"", i32 0, i32 0, i64 64, i64 64, i64 0, i32 64, metadata !552} ; [ DW_TAG_pointer_type ]
!570 = metadata !{i32 786478, i32 0, metadata !552, metadata !"quantization_adjust", metadata !"quantization_adjust", metadata !"_ZN13ap_fixed_baseILi16ELi1ELb1EL9ap_q_mode5EL9ap_o_mode3ELi0EE19quantization_adjustEbbb", metadata !200, i32 595, metadata !571, i1 false, i1 false, i32 0, i32 0, null, i32 256, i1 false, null, null, i32 0, metadata !132, i32 595} ; [ DW_TAG_subprogram ]
!571 = metadata !{i32 786453, i32 0, metadata !"", i32 0, i32 0, i64 0, i64 0, i64 0, i32 0, null, metadata !572, i32 0, i32 0} ; [ DW_TAG_subroutine_type ]
!572 = metadata !{metadata !143, metadata !569, metadata !143, metadata !143, metadata !143}
!573 = metadata !{i32 786478, i32 0, metadata !552, metadata !"ap_fixed_base", metadata !"ap_fixed_base", metadata !"", metadata !200, i32 653, metadata !574, i1 false, i1 false, i32 0, i32 0, null, i32 256, i1 false, null, null, i32 0, metadata !132, i32 653} ; [ DW_TAG_subprogram ]
!574 = metadata !{i32 786453, i32 0, metadata !"", i32 0, i32 0, i64 0, i64 0, i64 0, i32 0, null, metadata !575, i32 0, i32 0} ; [ DW_TAG_subroutine_type ]
!575 = metadata !{null, metadata !569}
!576 = metadata !{i32 786478, i32 0, metadata !552, metadata !"ap_fixed_base<16, 1, true, 5, 3, 0>", metadata !"ap_fixed_base<16, 1, true, 5, 3, 0>", metadata !"", metadata !200, i32 663, metadata !577, i1 false, i1 false, i32 0, i32 0, null, i32 256, i1 false, null, metadata !581, i32 0, metadata !132, i32 663} ; [ DW_TAG_subprogram ]
!577 = metadata !{i32 786453, i32 0, metadata !"", i32 0, i32 0, i64 0, i64 0, i64 0, i32 0, null, metadata !578, i32 0, i32 0} ; [ DW_TAG_subroutine_type ]
!578 = metadata !{null, metadata !569, metadata !579}
!579 = metadata !{i32 786448, null, null, null, i32 0, i64 0, i64 0, i64 0, i32 0, metadata !580} ; [ DW_TAG_reference_type ]
!580 = metadata !{i32 786470, null, metadata !"", null, i32 0, i64 0, i64 0, i64 0, i32 0, metadata !552} ; [ DW_TAG_const_type ]
!581 = metadata !{metadata !582, metadata !583, metadata !584, metadata !585, metadata !595, metadata !603}
!582 = metadata !{i32 786480, null, metadata !"_AP_W2", metadata !141, i64 16, null, i32 0, i32 0} ; [ DW_TAG_template_value_parameter ]
!583 = metadata !{i32 786480, null, metadata !"_AP_I2", metadata !141, i64 1, null, i32 0, i32 0} ; [ DW_TAG_template_value_parameter ]
!584 = metadata !{i32 786480, null, metadata !"_AP_S2", metadata !143, i64 1, null, i32 0, i32 0} ; [ DW_TAG_template_value_parameter ]
!585 = metadata !{i32 786480, null, metadata !"_AP_Q2", metadata !586, i64 5, null, i32 0, i32 0} ; [ DW_TAG_template_value_parameter ]
!586 = metadata !{i32 786436, null, metadata !"ap_q_mode", metadata !120, i32 658, i64 3, i64 4, i32 0, i32 0, null, metadata !587, i32 0, i32 0} ; [ DW_TAG_enumeration_type ]
!587 = metadata !{metadata !588, metadata !589, metadata !590, metadata !591, metadata !592, metadata !593, metadata !594}
!588 = metadata !{i32 786472, metadata !"SC_RND", i64 0} ; [ DW_TAG_enumerator ]
!589 = metadata !{i32 786472, metadata !"SC_RND_ZERO", i64 1} ; [ DW_TAG_enumerator ]
!590 = metadata !{i32 786472, metadata !"SC_RND_MIN_INF", i64 2} ; [ DW_TAG_enumerator ]
!591 = metadata !{i32 786472, metadata !"SC_RND_INF", i64 3} ; [ DW_TAG_enumerator ]
!592 = metadata !{i32 786472, metadata !"SC_RND_CONV", i64 4} ; [ DW_TAG_enumerator ]
!593 = metadata !{i32 786472, metadata !"SC_TRN", i64 5} ; [ DW_TAG_enumerator ]
!594 = metadata !{i32 786472, metadata !"SC_TRN_ZERO", i64 6} ; [ DW_TAG_enumerator ]
!595 = metadata !{i32 786480, null, metadata !"_AP_O2", metadata !596, i64 3, null, i32 0, i32 0} ; [ DW_TAG_template_value_parameter ]
!596 = metadata !{i32 786436, null, metadata !"ap_o_mode", metadata !120, i32 668, i64 3, i64 4, i32 0, i32 0, null, metadata !597, i32 0, i32 0} ; [ DW_TAG_enumeration_type ]
!597 = metadata !{metadata !598, metadata !599, metadata !600, metadata !601, metadata !602}
!598 = metadata !{i32 786472, metadata !"SC_SAT", i64 0} ; [ DW_TAG_enumerator ]
!599 = metadata !{i32 786472, metadata !"SC_SAT_ZERO", i64 1} ; [ DW_TAG_enumerator ]
!600 = metadata !{i32 786472, metadata !"SC_SAT_SYM", i64 2} ; [ DW_TAG_enumerator ]
!601 = metadata !{i32 786472, metadata !"SC_WRAP", i64 3} ; [ DW_TAG_enumerator ]
!602 = metadata !{i32 786472, metadata !"SC_WRAP_SM", i64 4} ; [ DW_TAG_enumerator ]
!603 = metadata !{i32 786480, null, metadata !"_AP_N2", metadata !141, i64 0, null, i32 0, i32 0} ; [ DW_TAG_template_value_parameter ]
!604 = metadata !{i32 786478, i32 0, metadata !552, metadata !"ap_fixed_base<16, 1, true, 5, 3, 0>", metadata !"ap_fixed_base<16, 1, true, 5, 3, 0>", metadata !"", metadata !200, i32 777, metadata !605, i1 false, i1 false, i32 0, i32 0, null, i32 256, i1 false, null, metadata !581, i32 0, metadata !132, i32 777} ; [ DW_TAG_subprogram ]
!605 = metadata !{i32 786453, i32 0, metadata !"", i32 0, i32 0, i64 0, i64 0, i64 0, i32 0, null, metadata !606, i32 0, i32 0} ; [ DW_TAG_subroutine_type ]
!606 = metadata !{null, metadata !569, metadata !607}
!607 = metadata !{i32 786448, null, null, null, i32 0, i64 0, i64 0, i64 0, i32 0, metadata !608} ; [ DW_TAG_reference_type ]
!608 = metadata !{i32 786470, null, metadata !"", null, i32 0, i64 0, i64 0, i64 0, i32 0, metadata !609} ; [ DW_TAG_const_type ]
!609 = metadata !{i32 786485, null, metadata !"", null, i32 0, i64 0, i64 0, i64 0, i32 0, metadata !552} ; [ DW_TAG_volatile_type ]
!610 = metadata !{i32 786478, i32 0, metadata !552, metadata !"ap_fixed_base", metadata !"ap_fixed_base", metadata !"", metadata !200, i32 789, metadata !611, i1 false, i1 false, i32 0, i32 0, null, i32 256, i1 false, null, null, i32 0, metadata !132, i32 789} ; [ DW_TAG_subprogram ]
!611 = metadata !{i32 786453, i32 0, metadata !"", i32 0, i32 0, i64 0, i64 0, i64 0, i32 0, null, metadata !612, i32 0, i32 0} ; [ DW_TAG_subroutine_type ]
!612 = metadata !{null, metadata !569, metadata !143}
!613 = metadata !{i32 786478, i32 0, metadata !552, metadata !"ap_fixed_base", metadata !"ap_fixed_base", metadata !"", metadata !200, i32 790, metadata !614, i1 false, i1 false, i32 0, i32 0, null, i32 256, i1 false, null, null, i32 0, metadata !132, i32 790} ; [ DW_TAG_subprogram ]
!614 = metadata !{i32 786453, i32 0, metadata !"", i32 0, i32 0, i64 0, i64 0, i64 0, i32 0, null, metadata !615, i32 0, i32 0} ; [ DW_TAG_subroutine_type ]
!615 = metadata !{null, metadata !569, metadata !225}
!616 = metadata !{i32 786478, i32 0, metadata !552, metadata !"ap_fixed_base", metadata !"ap_fixed_base", metadata !"", metadata !200, i32 791, metadata !617, i1 false, i1 false, i32 0, i32 0, null, i32 256, i1 false, null, null, i32 0, metadata !132, i32 791} ; [ DW_TAG_subprogram ]
!617 = metadata !{i32 786453, i32 0, metadata !"", i32 0, i32 0, i64 0, i64 0, i64 0, i32 0, null, metadata !618, i32 0, i32 0} ; [ DW_TAG_subroutine_type ]
!618 = metadata !{null, metadata !569, metadata !168}
!619 = metadata !{i32 786478, i32 0, metadata !552, metadata !"ap_fixed_base", metadata !"ap_fixed_base", metadata !"", metadata !200, i32 792, metadata !620, i1 false, i1 false, i32 0, i32 0, null, i32 256, i1 false, null, null, i32 0, metadata !132, i32 792} ; [ DW_TAG_subprogram ]
!620 = metadata !{i32 786453, i32 0, metadata !"", i32 0, i32 0, i64 0, i64 0, i64 0, i32 0, null, metadata !621, i32 0, i32 0} ; [ DW_TAG_subroutine_type ]
!621 = metadata !{null, metadata !569, metadata !172}
!622 = metadata !{i32 786478, i32 0, metadata !552, metadata !"ap_fixed_base", metadata !"ap_fixed_base", metadata !"", metadata !200, i32 793, metadata !623, i1 false, i1 false, i32 0, i32 0, null, i32 256, i1 false, null, null, i32 0, metadata !132, i32 793} ; [ DW_TAG_subprogram ]
!623 = metadata !{i32 786453, i32 0, metadata !"", i32 0, i32 0, i64 0, i64 0, i64 0, i32 0, null, metadata !624, i32 0, i32 0} ; [ DW_TAG_subroutine_type ]
!624 = metadata !{null, metadata !569, metadata !176}
!625 = metadata !{i32 786478, i32 0, metadata !552, metadata !"ap_fixed_base", metadata !"ap_fixed_base", metadata !"", metadata !200, i32 794, metadata !626, i1 false, i1 false, i32 0, i32 0, null, i32 256, i1 false, null, null, i32 0, metadata !132, i32 794} ; [ DW_TAG_subprogram ]
!626 = metadata !{i32 786453, i32 0, metadata !"", i32 0, i32 0, i64 0, i64 0, i64 0, i32 0, null, metadata !627, i32 0, i32 0} ; [ DW_TAG_subroutine_type ]
!627 = metadata !{null, metadata !569, metadata !180}
!628 = metadata !{i32 786478, i32 0, metadata !552, metadata !"ap_fixed_base", metadata !"ap_fixed_base", metadata !"", metadata !200, i32 795, metadata !629, i1 false, i1 false, i32 0, i32 0, null, i32 256, i1 false, null, null, i32 0, metadata !132, i32 795} ; [ DW_TAG_subprogram ]
!629 = metadata !{i32 786453, i32 0, metadata !"", i32 0, i32 0, i64 0, i64 0, i64 0, i32 0, null, metadata !630, i32 0, i32 0} ; [ DW_TAG_subroutine_type ]
!630 = metadata !{null, metadata !569, metadata !141}
!631 = metadata !{i32 786478, i32 0, metadata !552, metadata !"ap_fixed_base", metadata !"ap_fixed_base", metadata !"", metadata !200, i32 796, metadata !632, i1 false, i1 false, i32 0, i32 0, null, i32 256, i1 false, null, null, i32 0, metadata !132, i32 796} ; [ DW_TAG_subprogram ]
!632 = metadata !{i32 786453, i32 0, metadata !"", i32 0, i32 0, i64 0, i64 0, i64 0, i32 0, null, metadata !633, i32 0, i32 0} ; [ DW_TAG_subroutine_type ]
!633 = metadata !{null, metadata !569, metadata !187}
!634 = metadata !{i32 786478, i32 0, metadata !552, metadata !"ap_fixed_base", metadata !"ap_fixed_base", metadata !"", metadata !200, i32 798, metadata !635, i1 false, i1 false, i32 0, i32 0, null, i32 256, i1 false, null, null, i32 0, metadata !132, i32 798} ; [ DW_TAG_subprogram ]
!635 = metadata !{i32 786453, i32 0, metadata !"", i32 0, i32 0, i64 0, i64 0, i64 0, i32 0, null, metadata !636, i32 0, i32 0} ; [ DW_TAG_subroutine_type ]
!636 = metadata !{null, metadata !569, metadata !191}
!637 = metadata !{i32 786478, i32 0, metadata !552, metadata !"ap_fixed_base", metadata !"ap_fixed_base", metadata !"", metadata !200, i32 799, metadata !638, i1 false, i1 false, i32 0, i32 0, null, i32 256, i1 false, null, null, i32 0, metadata !132, i32 799} ; [ DW_TAG_subprogram ]
!638 = metadata !{i32 786453, i32 0, metadata !"", i32 0, i32 0, i64 0, i64 0, i64 0, i32 0, null, metadata !639, i32 0, i32 0} ; [ DW_TAG_subroutine_type ]
!639 = metadata !{null, metadata !569, metadata !195}
!640 = metadata !{i32 786478, i32 0, metadata !552, metadata !"ap_fixed_base", metadata !"ap_fixed_base", metadata !"", metadata !200, i32 804, metadata !641, i1 false, i1 false, i32 0, i32 0, null, i32 256, i1 false, null, null, i32 0, metadata !132, i32 804} ; [ DW_TAG_subprogram ]
!641 = metadata !{i32 786453, i32 0, metadata !"", i32 0, i32 0, i64 0, i64 0, i64 0, i32 0, null, metadata !642, i32 0, i32 0} ; [ DW_TAG_subroutine_type ]
!642 = metadata !{null, metadata !569, metadata !199}
!643 = metadata !{i32 786478, i32 0, metadata !552, metadata !"ap_fixed_base", metadata !"ap_fixed_base", metadata !"", metadata !200, i32 805, metadata !644, i1 false, i1 false, i32 0, i32 0, null, i32 256, i1 false, null, null, i32 0, metadata !132, i32 805} ; [ DW_TAG_subprogram ]
!644 = metadata !{i32 786453, i32 0, metadata !"", i32 0, i32 0, i64 0, i64 0, i64 0, i32 0, null, metadata !645, i32 0, i32 0} ; [ DW_TAG_subroutine_type ]
!645 = metadata !{null, metadata !569, metadata !205}
!646 = metadata !{i32 786478, i32 0, metadata !552, metadata !"ap_fixed_base", metadata !"ap_fixed_base", metadata !"", metadata !200, i32 806, metadata !647, i1 false, i1 false, i32 0, i32 0, null, i32 256, i1 false, null, null, i32 0, metadata !132, i32 806} ; [ DW_TAG_subprogram ]
!647 = metadata !{i32 786453, i32 0, metadata !"", i32 0, i32 0, i64 0, i64 0, i64 0, i32 0, null, metadata !648, i32 0, i32 0} ; [ DW_TAG_subroutine_type ]
!648 = metadata !{null, metadata !569, metadata !223}
!649 = metadata !{i32 786478, i32 0, metadata !552, metadata !"ap_fixed_base", metadata !"ap_fixed_base", metadata !"", metadata !200, i32 813, metadata !650, i1 false, i1 false, i32 0, i32 0, null, i32 256, i1 false, null, null, i32 0, metadata !132, i32 813} ; [ DW_TAG_subprogram ]
!650 = metadata !{i32 786453, i32 0, metadata !"", i32 0, i32 0, i64 0, i64 0, i64 0, i32 0, null, metadata !651, i32 0, i32 0} ; [ DW_TAG_subroutine_type ]
!651 = metadata !{null, metadata !569, metadata !223, metadata !168}
!652 = metadata !{i32 786478, i32 0, metadata !552, metadata !"doubleToRawBits", metadata !"doubleToRawBits", metadata !"_ZNK13ap_fixed_baseILi16ELi1ELb1EL9ap_q_mode5EL9ap_o_mode3ELi0EE15doubleToRawBitsEd", metadata !200, i32 849, metadata !653, i1 false, i1 false, i32 0, i32 0, null, i32 256, i1 false, null, null, i32 0, metadata !132, i32 849} ; [ DW_TAG_subprogram ]
!653 = metadata !{i32 786453, i32 0, metadata !"", i32 0, i32 0, i64 0, i64 0, i64 0, i32 0, null, metadata !654, i32 0, i32 0} ; [ DW_TAG_subroutine_type ]
!654 = metadata !{metadata !206, metadata !655, metadata !219}
!655 = metadata !{i32 786447, i32 0, metadata !"", i32 0, i32 0, i64 64, i64 64, i64 0, i32 64, metadata !580} ; [ DW_TAG_pointer_type ]
!656 = metadata !{i32 786478, i32 0, metadata !552, metadata !"floatToRawBits", metadata !"floatToRawBits", metadata !"_ZNK13ap_fixed_baseILi16ELi1ELb1EL9ap_q_mode5EL9ap_o_mode3ELi0EE14floatToRawBitsEf", metadata !200, i32 857, metadata !657, i1 false, i1 false, i32 0, i32 0, null, i32 256, i1 false, null, null, i32 0, metadata !132, i32 857} ; [ DW_TAG_subprogram ]
!657 = metadata !{i32 786453, i32 0, metadata !"", i32 0, i32 0, i64 0, i64 0, i64 0, i32 0, null, metadata !658, i32 0, i32 0} ; [ DW_TAG_subroutine_type ]
!658 = metadata !{metadata !187, metadata !655, metadata !215}
!659 = metadata !{i32 786478, i32 0, metadata !552, metadata !"halfToRawBits", metadata !"halfToRawBits", metadata !"_ZNK13ap_fixed_baseILi16ELi1ELb1EL9ap_q_mode5EL9ap_o_mode3ELi0EE13halfToRawBitsEDh", metadata !200, i32 865, metadata !660, i1 false, i1 false, i32 0, i32 0, null, i32 256, i1 false, null, null, i32 0, metadata !132, i32 865} ; [ DW_TAG_subprogram ]
!660 = metadata !{i32 786453, i32 0, metadata !"", i32 0, i32 0, i64 0, i64 0, i64 0, i32 0, null, metadata !661, i32 0, i32 0} ; [ DW_TAG_subroutine_type ]
!661 = metadata !{metadata !180, metadata !655, metadata !210}
!662 = metadata !{i32 786478, i32 0, metadata !552, metadata !"rawBitsToDouble", metadata !"rawBitsToDouble", metadata !"_ZNK13ap_fixed_baseILi16ELi1ELb1EL9ap_q_mode5EL9ap_o_mode3ELi0EE15rawBitsToDoubleEy", metadata !200, i32 874, metadata !663, i1 false, i1 false, i32 0, i32 0, null, i32 256, i1 false, null, null, i32 0, metadata !132, i32 874} ; [ DW_TAG_subprogram ]
!663 = metadata !{i32 786453, i32 0, metadata !"", i32 0, i32 0, i64 0, i64 0, i64 0, i32 0, null, metadata !664, i32 0, i32 0} ; [ DW_TAG_subroutine_type ]
!664 = metadata !{metadata !219, metadata !655, metadata !206}
!665 = metadata !{i32 786478, i32 0, metadata !552, metadata !"rawBitsToFloat", metadata !"rawBitsToFloat", metadata !"_ZNK13ap_fixed_baseILi16ELi1ELb1EL9ap_q_mode5EL9ap_o_mode3ELi0EE14rawBitsToFloatEj", metadata !200, i32 883, metadata !666, i1 false, i1 false, i32 0, i32 0, null, i32 256, i1 false, null, null, i32 0, metadata !132, i32 883} ; [ DW_TAG_subprogram ]
!666 = metadata !{i32 786453, i32 0, metadata !"", i32 0, i32 0, i64 0, i64 0, i64 0, i32 0, null, metadata !667, i32 0, i32 0} ; [ DW_TAG_subroutine_type ]
!667 = metadata !{metadata !215, metadata !655, metadata !187}
!668 = metadata !{i32 786478, i32 0, metadata !552, metadata !"rawBitsToHalf", metadata !"rawBitsToHalf", metadata !"_ZNK13ap_fixed_baseILi16ELi1ELb1EL9ap_q_mode5EL9ap_o_mode3ELi0EE13rawBitsToHalfEt", metadata !200, i32 892, metadata !669, i1 false, i1 false, i32 0, i32 0, null, i32 256, i1 false, null, null, i32 0, metadata !132, i32 892} ; [ DW_TAG_subprogram ]
!669 = metadata !{i32 786453, i32 0, metadata !"", i32 0, i32 0, i64 0, i64 0, i64 0, i32 0, null, metadata !670, i32 0, i32 0} ; [ DW_TAG_subroutine_type ]
!670 = metadata !{metadata !210, metadata !655, metadata !180}
!671 = metadata !{i32 786478, i32 0, metadata !552, metadata !"ap_fixed_base", metadata !"ap_fixed_base", metadata !"", metadata !200, i32 901, metadata !672, i1 false, i1 false, i32 0, i32 0, null, i32 256, i1 false, null, null, i32 0, metadata !132, i32 901} ; [ DW_TAG_subprogram ]
!672 = metadata !{i32 786453, i32 0, metadata !"", i32 0, i32 0, i64 0, i64 0, i64 0, i32 0, null, metadata !673, i32 0, i32 0} ; [ DW_TAG_subroutine_type ]
!673 = metadata !{null, metadata !569, metadata !219}
!674 = metadata !{i32 786478, i32 0, metadata !552, metadata !"ap_fixed_base", metadata !"ap_fixed_base", metadata !"", metadata !200, i32 1014, metadata !675, i1 false, i1 false, i32 0, i32 0, null, i32 256, i1 false, null, null, i32 0, metadata !132, i32 1014} ; [ DW_TAG_subprogram ]
!675 = metadata !{i32 786453, i32 0, metadata !"", i32 0, i32 0, i64 0, i64 0, i64 0, i32 0, null, metadata !676, i32 0, i32 0} ; [ DW_TAG_subroutine_type ]
!676 = metadata !{null, metadata !569, metadata !215}
!677 = metadata !{i32 786478, i32 0, metadata !552, metadata !"ap_fixed_base", metadata !"ap_fixed_base", metadata !"", metadata !200, i32 1018, metadata !678, i1 false, i1 false, i32 0, i32 0, null, i32 256, i1 false, null, null, i32 0, metadata !132, i32 1018} ; [ DW_TAG_subprogram ]
!678 = metadata !{i32 786453, i32 0, metadata !"", i32 0, i32 0, i64 0, i64 0, i64 0, i32 0, null, metadata !679, i32 0, i32 0} ; [ DW_TAG_subroutine_type ]
!679 = metadata !{null, metadata !569, metadata !210}
!680 = metadata !{i32 786478, i32 0, metadata !552, metadata !"operator=", metadata !"operator=", metadata !"_ZN13ap_fixed_baseILi16ELi1ELb1EL9ap_q_mode5EL9ap_o_mode3ELi0EEaSERKS2_", metadata !200, i32 1022, metadata !681, i1 false, i1 false, i32 0, i32 0, null, i32 256, i1 false, null, null, i32 0, metadata !132, i32 1022} ; [ DW_TAG_subprogram ]
!681 = metadata !{i32 786453, i32 0, metadata !"", i32 0, i32 0, i64 0, i64 0, i64 0, i32 0, null, metadata !682, i32 0, i32 0} ; [ DW_TAG_subroutine_type ]
!682 = metadata !{metadata !683, metadata !569, metadata !579}
!683 = metadata !{i32 786448, null, null, null, i32 0, i64 0, i64 0, i64 0, i32 0, metadata !552} ; [ DW_TAG_reference_type ]
!684 = metadata !{i32 786478, i32 0, metadata !552, metadata !"operator=", metadata !"operator=", metadata !"_ZN13ap_fixed_baseILi16ELi1ELb1EL9ap_q_mode5EL9ap_o_mode3ELi0EEaSERVKS2_", metadata !200, i32 1029, metadata !685, i1 false, i1 false, i32 0, i32 0, null, i32 256, i1 false, null, null, i32 0, metadata !132, i32 1029} ; [ DW_TAG_subprogram ]
!685 = metadata !{i32 786453, i32 0, metadata !"", i32 0, i32 0, i64 0, i64 0, i64 0, i32 0, null, metadata !686, i32 0, i32 0} ; [ DW_TAG_subroutine_type ]
!686 = metadata !{metadata !683, metadata !569, metadata !607}
!687 = metadata !{i32 786478, i32 0, metadata !552, metadata !"operator=", metadata !"operator=", metadata !"_ZNV13ap_fixed_baseILi16ELi1ELb1EL9ap_q_mode5EL9ap_o_mode3ELi0EEaSERKS2_", metadata !200, i32 1036, metadata !688, i1 false, i1 false, i32 0, i32 0, null, i32 256, i1 false, null, null, i32 0, metadata !132, i32 1036} ; [ DW_TAG_subprogram ]
!688 = metadata !{i32 786453, i32 0, metadata !"", i32 0, i32 0, i64 0, i64 0, i64 0, i32 0, null, metadata !689, i32 0, i32 0} ; [ DW_TAG_subroutine_type ]
!689 = metadata !{null, metadata !690, metadata !579}
!690 = metadata !{i32 786447, i32 0, metadata !"", i32 0, i32 0, i64 64, i64 64, i64 0, i32 64, metadata !609} ; [ DW_TAG_pointer_type ]
!691 = metadata !{i32 786478, i32 0, metadata !552, metadata !"operator=", metadata !"operator=", metadata !"_ZNV13ap_fixed_baseILi16ELi1ELb1EL9ap_q_mode5EL9ap_o_mode3ELi0EEaSERVKS2_", metadata !200, i32 1042, metadata !692, i1 false, i1 false, i32 0, i32 0, null, i32 256, i1 false, null, null, i32 0, metadata !132, i32 1042} ; [ DW_TAG_subprogram ]
!692 = metadata !{i32 786453, i32 0, metadata !"", i32 0, i32 0, i64 0, i64 0, i64 0, i32 0, null, metadata !693, i32 0, i32 0} ; [ DW_TAG_subroutine_type ]
!693 = metadata !{null, metadata !690, metadata !607}
!694 = metadata !{i32 786478, i32 0, metadata !552, metadata !"setBits", metadata !"setBits", metadata !"_ZN13ap_fixed_baseILi16ELi1ELb1EL9ap_q_mode5EL9ap_o_mode3ELi0EE7setBitsEy", metadata !200, i32 1051, metadata !695, i1 false, i1 false, i32 0, i32 0, null, i32 256, i1 false, null, null, i32 0, metadata !132, i32 1051} ; [ DW_TAG_subprogram ]
!695 = metadata !{i32 786453, i32 0, metadata !"", i32 0, i32 0, i64 0, i64 0, i64 0, i32 0, null, metadata !696, i32 0, i32 0} ; [ DW_TAG_subroutine_type ]
!696 = metadata !{metadata !683, metadata !569, metadata !206}
!697 = metadata !{i32 786478, i32 0, metadata !552, metadata !"bitsToFixed", metadata !"bitsToFixed", metadata !"_ZN13ap_fixed_baseILi16ELi1ELb1EL9ap_q_mode5EL9ap_o_mode3ELi0EE11bitsToFixedEy", metadata !200, i32 1057, metadata !698, i1 false, i1 false, i32 0, i32 0, null, i32 256, i1 false, null, null, i32 0, metadata !132, i32 1057} ; [ DW_TAG_subprogram ]
!698 = metadata !{i32 786453, i32 0, metadata !"", i32 0, i32 0, i64 0, i64 0, i64 0, i32 0, null, metadata !699, i32 0, i32 0} ; [ DW_TAG_subroutine_type ]
!699 = metadata !{metadata !552, metadata !206}
!700 = metadata !{i32 786478, i32 0, metadata !552, metadata !"to_ap_int_base", metadata !"to_ap_int_base", metadata !"_ZNK13ap_fixed_baseILi16ELi1ELb1EL9ap_q_mode5EL9ap_o_mode3ELi0EE14to_ap_int_baseEb", metadata !200, i32 1066, metadata !701, i1 false, i1 false, i32 0, i32 0, null, i32 256, i1 false, null, null, i32 0, metadata !132, i32 1066} ; [ DW_TAG_subprogram ]
!701 = metadata !{i32 786453, i32 0, metadata !"", i32 0, i32 0, i64 0, i64 0, i64 0, i32 0, null, metadata !702, i32 0, i32 0} ; [ DW_TAG_subroutine_type ]
!702 = metadata !{metadata !703, metadata !655, metadata !143}
!703 = metadata !{i32 786434, null, metadata !"ap_int_base<1, true, true>", metadata !120, i32 651, i32 0, i32 0, i32 0, i32 4, null, null, i32 0} ; [ DW_TAG_class_type ]
!704 = metadata !{i32 786478, i32 0, metadata !552, metadata !"to_int", metadata !"to_int", metadata !"_ZNK13ap_fixed_baseILi16ELi1ELb1EL9ap_q_mode5EL9ap_o_mode3ELi0EE6to_intEv", metadata !200, i32 1101, metadata !705, i1 false, i1 false, i32 0, i32 0, null, i32 256, i1 false, null, null, i32 0, metadata !132, i32 1101} ; [ DW_TAG_subprogram ]
!705 = metadata !{i32 786453, i32 0, metadata !"", i32 0, i32 0, i64 0, i64 0, i64 0, i32 0, null, metadata !706, i32 0, i32 0} ; [ DW_TAG_subroutine_type ]
!706 = metadata !{metadata !141, metadata !655}
!707 = metadata !{i32 786478, i32 0, metadata !552, metadata !"to_uint", metadata !"to_uint", metadata !"_ZNK13ap_fixed_baseILi16ELi1ELb1EL9ap_q_mode5EL9ap_o_mode3ELi0EE7to_uintEv", metadata !200, i32 1104, metadata !708, i1 false, i1 false, i32 0, i32 0, null, i32 256, i1 false, null, null, i32 0, metadata !132, i32 1104} ; [ DW_TAG_subprogram ]
!708 = metadata !{i32 786453, i32 0, metadata !"", i32 0, i32 0, i64 0, i64 0, i64 0, i32 0, null, metadata !709, i32 0, i32 0} ; [ DW_TAG_subroutine_type ]
!709 = metadata !{metadata !187, metadata !655}
!710 = metadata !{i32 786478, i32 0, metadata !552, metadata !"to_int64", metadata !"to_int64", metadata !"_ZNK13ap_fixed_baseILi16ELi1ELb1EL9ap_q_mode5EL9ap_o_mode3ELi0EE8to_int64Ev", metadata !200, i32 1107, metadata !711, i1 false, i1 false, i32 0, i32 0, null, i32 256, i1 false, null, null, i32 0, metadata !132, i32 1107} ; [ DW_TAG_subprogram ]
!711 = metadata !{i32 786453, i32 0, metadata !"", i32 0, i32 0, i64 0, i64 0, i64 0, i32 0, null, metadata !712, i32 0, i32 0} ; [ DW_TAG_subroutine_type ]
!712 = metadata !{metadata !199, metadata !655}
!713 = metadata !{i32 786478, i32 0, metadata !552, metadata !"to_uint64", metadata !"to_uint64", metadata !"_ZNK13ap_fixed_baseILi16ELi1ELb1EL9ap_q_mode5EL9ap_o_mode3ELi0EE9to_uint64Ev", metadata !200, i32 1110, metadata !714, i1 false, i1 false, i32 0, i32 0, null, i32 256, i1 false, null, null, i32 0, metadata !132, i32 1110} ; [ DW_TAG_subprogram ]
!714 = metadata !{i32 786453, i32 0, metadata !"", i32 0, i32 0, i64 0, i64 0, i64 0, i32 0, null, metadata !715, i32 0, i32 0} ; [ DW_TAG_subroutine_type ]
!715 = metadata !{metadata !205, metadata !655}
!716 = metadata !{i32 786478, i32 0, metadata !552, metadata !"to_double", metadata !"to_double", metadata !"_ZNK13ap_fixed_baseILi16ELi1ELb1EL9ap_q_mode5EL9ap_o_mode3ELi0EE9to_doubleEv", metadata !200, i32 1113, metadata !717, i1 false, i1 false, i32 0, i32 0, null, i32 256, i1 false, null, null, i32 0, metadata !132, i32 1113} ; [ DW_TAG_subprogram ]
!717 = metadata !{i32 786453, i32 0, metadata !"", i32 0, i32 0, i64 0, i64 0, i64 0, i32 0, null, metadata !718, i32 0, i32 0} ; [ DW_TAG_subroutine_type ]
!718 = metadata !{metadata !219, metadata !655}
!719 = metadata !{i32 786478, i32 0, metadata !552, metadata !"to_float", metadata !"to_float", metadata !"_ZNK13ap_fixed_baseILi16ELi1ELb1EL9ap_q_mode5EL9ap_o_mode3ELi0EE8to_floatEv", metadata !200, i32 1166, metadata !720, i1 false, i1 false, i32 0, i32 0, null, i32 256, i1 false, null, null, i32 0, metadata !132, i32 1166} ; [ DW_TAG_subprogram ]
!720 = metadata !{i32 786453, i32 0, metadata !"", i32 0, i32 0, i64 0, i64 0, i64 0, i32 0, null, metadata !721, i32 0, i32 0} ; [ DW_TAG_subroutine_type ]
!721 = metadata !{metadata !215, metadata !655}
!722 = metadata !{i32 786478, i32 0, metadata !552, metadata !"to_half", metadata !"to_half", metadata !"_ZNK13ap_fixed_baseILi16ELi1ELb1EL9ap_q_mode5EL9ap_o_mode3ELi0EE7to_halfEv", metadata !200, i32 1204, metadata !723, i1 false, i1 false, i32 0, i32 0, null, i32 256, i1 false, null, null, i32 0, metadata !132, i32 1204} ; [ DW_TAG_subprogram ]
!723 = metadata !{i32 786453, i32 0, metadata !"", i32 0, i32 0, i64 0, i64 0, i64 0, i32 0, null, metadata !724, i32 0, i32 0} ; [ DW_TAG_subroutine_type ]
!724 = metadata !{metadata !210, metadata !655}
!725 = metadata !{i32 786478, i32 0, metadata !552, metadata !"operator double", metadata !"operator double", metadata !"_ZNK13ap_fixed_baseILi16ELi1ELb1EL9ap_q_mode5EL9ap_o_mode3ELi0EEcvdEv", metadata !200, i32 1254, metadata !717, i1 false, i1 false, i32 0, i32 0, null, i32 256, i1 false, null, null, i32 0, metadata !132, i32 1254} ; [ DW_TAG_subprogram ]
!726 = metadata !{i32 786478, i32 0, metadata !552, metadata !"operator float", metadata !"operator float", metadata !"_ZNK13ap_fixed_baseILi16ELi1ELb1EL9ap_q_mode5EL9ap_o_mode3ELi0EEcvfEv", metadata !200, i32 1258, metadata !720, i1 false, i1 false, i32 0, i32 0, null, i32 256, i1 false, null, null, i32 0, metadata !132, i32 1258} ; [ DW_TAG_subprogram ]
!727 = metadata !{i32 786478, i32 0, metadata !552, metadata !"operator half", metadata !"operator half", metadata !"_ZNK13ap_fixed_baseILi16ELi1ELb1EL9ap_q_mode5EL9ap_o_mode3ELi0EEcvDhEv", metadata !200, i32 1261, metadata !723, i1 false, i1 false, i32 0, i32 0, null, i32 256, i1 false, null, null, i32 0, metadata !132, i32 1261} ; [ DW_TAG_subprogram ]
!728 = metadata !{i32 786478, i32 0, metadata !552, metadata !"operator _Bool", metadata !"operator _Bool", metadata !"_ZNK13ap_fixed_baseILi16ELi1ELb1EL9ap_q_mode5EL9ap_o_mode3ELi0EEcvbEv", metadata !200, i32 1265, metadata !729, i1 false, i1 false, i32 0, i32 0, null, i32 256, i1 false, null, null, i32 0, metadata !132, i32 1265} ; [ DW_TAG_subprogram ]
!729 = metadata !{i32 786453, i32 0, metadata !"", i32 0, i32 0, i64 0, i64 0, i64 0, i32 0, null, metadata !730, i32 0, i32 0} ; [ DW_TAG_subroutine_type ]
!730 = metadata !{metadata !143, metadata !655}
!731 = metadata !{i32 786478, i32 0, metadata !552, metadata !"operator char", metadata !"operator char", metadata !"_ZNK13ap_fixed_baseILi16ELi1ELb1EL9ap_q_mode5EL9ap_o_mode3ELi0EEcvcEv", metadata !200, i32 1269, metadata !732, i1 false, i1 false, i32 0, i32 0, null, i32 256, i1 false, null, null, i32 0, metadata !132, i32 1269} ; [ DW_TAG_subprogram ]
!732 = metadata !{i32 786453, i32 0, metadata !"", i32 0, i32 0, i64 0, i64 0, i64 0, i32 0, null, metadata !733, i32 0, i32 0} ; [ DW_TAG_subroutine_type ]
!733 = metadata !{metadata !225, metadata !655}
!734 = metadata !{i32 786478, i32 0, metadata !552, metadata !"operator signed char", metadata !"operator signed char", metadata !"_ZNK13ap_fixed_baseILi16ELi1ELb1EL9ap_q_mode5EL9ap_o_mode3ELi0EEcvaEv", metadata !200, i32 1273, metadata !735, i1 false, i1 false, i32 0, i32 0, null, i32 256, i1 false, null, null, i32 0, metadata !132, i32 1273} ; [ DW_TAG_subprogram ]
!735 = metadata !{i32 786453, i32 0, metadata !"", i32 0, i32 0, i64 0, i64 0, i64 0, i32 0, null, metadata !736, i32 0, i32 0} ; [ DW_TAG_subroutine_type ]
!736 = metadata !{metadata !168, metadata !655}
!737 = metadata !{i32 786478, i32 0, metadata !552, metadata !"operator unsigned char", metadata !"operator unsigned char", metadata !"_ZNK13ap_fixed_baseILi16ELi1ELb1EL9ap_q_mode5EL9ap_o_mode3ELi0EEcvhEv", metadata !200, i32 1277, metadata !738, i1 false, i1 false, i32 0, i32 0, null, i32 256, i1 false, null, null, i32 0, metadata !132, i32 1277} ; [ DW_TAG_subprogram ]
!738 = metadata !{i32 786453, i32 0, metadata !"", i32 0, i32 0, i64 0, i64 0, i64 0, i32 0, null, metadata !739, i32 0, i32 0} ; [ DW_TAG_subroutine_type ]
!739 = metadata !{metadata !172, metadata !655}
!740 = metadata !{i32 786478, i32 0, metadata !552, metadata !"operator short", metadata !"operator short", metadata !"_ZNK13ap_fixed_baseILi16ELi1ELb1EL9ap_q_mode5EL9ap_o_mode3ELi0EEcvsEv", metadata !200, i32 1281, metadata !741, i1 false, i1 false, i32 0, i32 0, null, i32 256, i1 false, null, null, i32 0, metadata !132, i32 1281} ; [ DW_TAG_subprogram ]
!741 = metadata !{i32 786453, i32 0, metadata !"", i32 0, i32 0, i64 0, i64 0, i64 0, i32 0, null, metadata !742, i32 0, i32 0} ; [ DW_TAG_subroutine_type ]
!742 = metadata !{metadata !176, metadata !655}
!743 = metadata !{i32 786478, i32 0, metadata !552, metadata !"operator unsigned short", metadata !"operator unsigned short", metadata !"_ZNK13ap_fixed_baseILi16ELi1ELb1EL9ap_q_mode5EL9ap_o_mode3ELi0EEcvtEv", metadata !200, i32 1285, metadata !744, i1 false, i1 false, i32 0, i32 0, null, i32 256, i1 false, null, null, i32 0, metadata !132, i32 1285} ; [ DW_TAG_subprogram ]
!744 = metadata !{i32 786453, i32 0, metadata !"", i32 0, i32 0, i64 0, i64 0, i64 0, i32 0, null, metadata !745, i32 0, i32 0} ; [ DW_TAG_subroutine_type ]
!745 = metadata !{metadata !180, metadata !655}
!746 = metadata !{i32 786478, i32 0, metadata !552, metadata !"operator int", metadata !"operator int", metadata !"_ZNK13ap_fixed_baseILi16ELi1ELb1EL9ap_q_mode5EL9ap_o_mode3ELi0EEcviEv", metadata !200, i32 1290, metadata !705, i1 false, i1 false, i32 0, i32 0, null, i32 256, i1 false, null, null, i32 0, metadata !132, i32 1290} ; [ DW_TAG_subprogram ]
!747 = metadata !{i32 786478, i32 0, metadata !552, metadata !"operator unsigned int", metadata !"operator unsigned int", metadata !"_ZNK13ap_fixed_baseILi16ELi1ELb1EL9ap_q_mode5EL9ap_o_mode3ELi0EEcvjEv", metadata !200, i32 1294, metadata !708, i1 false, i1 false, i32 0, i32 0, null, i32 256, i1 false, null, null, i32 0, metadata !132, i32 1294} ; [ DW_TAG_subprogram ]
!748 = metadata !{i32 786478, i32 0, metadata !552, metadata !"operator long", metadata !"operator long", metadata !"_ZNK13ap_fixed_baseILi16ELi1ELb1EL9ap_q_mode5EL9ap_o_mode3ELi0EEcvlEv", metadata !200, i32 1299, metadata !749, i1 false, i1 false, i32 0, i32 0, null, i32 256, i1 false, null, null, i32 0, metadata !132, i32 1299} ; [ DW_TAG_subprogram ]
!749 = metadata !{i32 786453, i32 0, metadata !"", i32 0, i32 0, i64 0, i64 0, i64 0, i32 0, null, metadata !750, i32 0, i32 0} ; [ DW_TAG_subroutine_type ]
!750 = metadata !{metadata !191, metadata !655}
!751 = metadata !{i32 786478, i32 0, metadata !552, metadata !"operator unsigned long", metadata !"operator unsigned long", metadata !"_ZNK13ap_fixed_baseILi16ELi1ELb1EL9ap_q_mode5EL9ap_o_mode3ELi0EEcvmEv", metadata !200, i32 1303, metadata !752, i1 false, i1 false, i32 0, i32 0, null, i32 256, i1 false, null, null, i32 0, metadata !132, i32 1303} ; [ DW_TAG_subprogram ]
!752 = metadata !{i32 786453, i32 0, metadata !"", i32 0, i32 0, i64 0, i64 0, i64 0, i32 0, null, metadata !753, i32 0, i32 0} ; [ DW_TAG_subroutine_type ]
!753 = metadata !{metadata !195, metadata !655}
!754 = metadata !{i32 786478, i32 0, metadata !552, metadata !"operator unsigned long long", metadata !"operator unsigned long long", metadata !"_ZNK13ap_fixed_baseILi16ELi1ELb1EL9ap_q_mode5EL9ap_o_mode3ELi0EEcvyEv", metadata !200, i32 1316, metadata !755, i1 false, i1 false, i32 0, i32 0, null, i32 256, i1 false, null, null, i32 0, metadata !132, i32 1316} ; [ DW_TAG_subprogram ]
!755 = metadata !{i32 786453, i32 0, metadata !"", i32 0, i32 0, i64 0, i64 0, i64 0, i32 0, null, metadata !756, i32 0, i32 0} ; [ DW_TAG_subroutine_type ]
!756 = metadata !{metadata !206, metadata !655}
!757 = metadata !{i32 786478, i32 0, metadata !552, metadata !"operator long long", metadata !"operator long long", metadata !"_ZNK13ap_fixed_baseILi16ELi1ELb1EL9ap_q_mode5EL9ap_o_mode3ELi0EEcvxEv", metadata !200, i32 1320, metadata !758, i1 false, i1 false, i32 0, i32 0, null, i32 256, i1 false, null, null, i32 0, metadata !132, i32 1320} ; [ DW_TAG_subprogram ]
!758 = metadata !{i32 786453, i32 0, metadata !"", i32 0, i32 0, i64 0, i64 0, i64 0, i32 0, null, metadata !759, i32 0, i32 0} ; [ DW_TAG_subroutine_type ]
!759 = metadata !{metadata !201, metadata !655}
!760 = metadata !{i32 786478, i32 0, metadata !552, metadata !"length", metadata !"length", metadata !"_ZNK13ap_fixed_baseILi16ELi1ELb1EL9ap_q_mode5EL9ap_o_mode3ELi0EE6lengthEv", metadata !200, i32 1324, metadata !705, i1 false, i1 false, i32 0, i32 0, null, i32 256, i1 false, null, null, i32 0, metadata !132, i32 1324} ; [ DW_TAG_subprogram ]
!761 = metadata !{i32 786478, i32 0, metadata !552, metadata !"countLeadingZeros", metadata !"countLeadingZeros", metadata !"_ZN13ap_fixed_baseILi16ELi1ELb1EL9ap_q_mode5EL9ap_o_mode3ELi0EE17countLeadingZerosEv", metadata !200, i32 1328, metadata !762, i1 false, i1 false, i32 0, i32 0, null, i32 256, i1 false, null, null, i32 0, metadata !132, i32 1328} ; [ DW_TAG_subprogram ]
!762 = metadata !{i32 786453, i32 0, metadata !"", i32 0, i32 0, i64 0, i64 0, i64 0, i32 0, null, metadata !763, i32 0, i32 0} ; [ DW_TAG_subroutine_type ]
!763 = metadata !{metadata !141, metadata !569}
!764 = metadata !{i32 786478, i32 0, metadata !552, metadata !"operator++", metadata !"operator++", metadata !"_ZN13ap_fixed_baseILi16ELi1ELb1EL9ap_q_mode5EL9ap_o_mode3ELi0EEppEv", metadata !200, i32 1429, metadata !765, i1 false, i1 false, i32 0, i32 0, null, i32 256, i1 false, null, null, i32 0, metadata !132, i32 1429} ; [ DW_TAG_subprogram ]
!765 = metadata !{i32 786453, i32 0, metadata !"", i32 0, i32 0, i64 0, i64 0, i64 0, i32 0, null, metadata !766, i32 0, i32 0} ; [ DW_TAG_subroutine_type ]
!766 = metadata !{metadata !683, metadata !569}
!767 = metadata !{i32 786478, i32 0, metadata !552, metadata !"operator--", metadata !"operator--", metadata !"_ZN13ap_fixed_baseILi16ELi1ELb1EL9ap_q_mode5EL9ap_o_mode3ELi0EEmmEv", metadata !200, i32 1433, metadata !765, i1 false, i1 false, i32 0, i32 0, null, i32 256, i1 false, null, null, i32 0, metadata !132, i32 1433} ; [ DW_TAG_subprogram ]
!768 = metadata !{i32 786478, i32 0, metadata !552, metadata !"operator++", metadata !"operator++", metadata !"_ZN13ap_fixed_baseILi16ELi1ELb1EL9ap_q_mode5EL9ap_o_mode3ELi0EEppEi", metadata !200, i32 1441, metadata !769, i1 false, i1 false, i32 0, i32 0, null, i32 256, i1 false, null, null, i32 0, metadata !132, i32 1441} ; [ DW_TAG_subprogram ]
!769 = metadata !{i32 786453, i32 0, metadata !"", i32 0, i32 0, i64 0, i64 0, i64 0, i32 0, null, metadata !770, i32 0, i32 0} ; [ DW_TAG_subroutine_type ]
!770 = metadata !{metadata !580, metadata !569, metadata !141}
!771 = metadata !{i32 786478, i32 0, metadata !552, metadata !"operator--", metadata !"operator--", metadata !"_ZN13ap_fixed_baseILi16ELi1ELb1EL9ap_q_mode5EL9ap_o_mode3ELi0EEmmEi", metadata !200, i32 1447, metadata !769, i1 false, i1 false, i32 0, i32 0, null, i32 256, i1 false, null, null, i32 0, metadata !132, i32 1447} ; [ DW_TAG_subprogram ]
!772 = metadata !{i32 786478, i32 0, metadata !552, metadata !"operator+", metadata !"operator+", metadata !"_ZN13ap_fixed_baseILi16ELi1ELb1EL9ap_q_mode5EL9ap_o_mode3ELi0EEpsEv", metadata !200, i32 1455, metadata !773, i1 false, i1 false, i32 0, i32 0, null, i32 256, i1 false, null, null, i32 0, metadata !132, i32 1455} ; [ DW_TAG_subprogram ]
!773 = metadata !{i32 786453, i32 0, metadata !"", i32 0, i32 0, i64 0, i64 0, i64 0, i32 0, null, metadata !774, i32 0, i32 0} ; [ DW_TAG_subroutine_type ]
!774 = metadata !{metadata !552, metadata !569}
!775 = metadata !{i32 786478, i32 0, metadata !552, metadata !"operator-", metadata !"operator-", metadata !"_ZNK13ap_fixed_baseILi16ELi1ELb1EL9ap_q_mode5EL9ap_o_mode3ELi0EEngEv", metadata !200, i32 1459, metadata !776, i1 false, i1 false, i32 0, i32 0, null, i32 256, i1 false, null, null, i32 0, metadata !132, i32 1459} ; [ DW_TAG_subprogram ]
!776 = metadata !{i32 786453, i32 0, metadata !"", i32 0, i32 0, i64 0, i64 0, i64 0, i32 0, null, metadata !777, i32 0, i32 0} ; [ DW_TAG_subroutine_type ]
!777 = metadata !{metadata !778, metadata !655}
!778 = metadata !{i32 786434, null, metadata !"ap_fixed_base<17, 2, true, 5, 3, 0>", metadata !200, i32 512, i32 0, i32 0, i32 0, i32 4, null, null, i32 0} ; [ DW_TAG_class_type ]
!779 = metadata !{i32 786478, i32 0, metadata !552, metadata !"getNeg", metadata !"getNeg", metadata !"_ZN13ap_fixed_baseILi16ELi1ELb1EL9ap_q_mode5EL9ap_o_mode3ELi0EE6getNegEv", metadata !200, i32 1465, metadata !773, i1 false, i1 false, i32 0, i32 0, null, i32 256, i1 false, null, null, i32 0, metadata !132, i32 1465} ; [ DW_TAG_subprogram ]
!780 = metadata !{i32 786478, i32 0, metadata !552, metadata !"operator!", metadata !"operator!", metadata !"_ZNK13ap_fixed_baseILi16ELi1ELb1EL9ap_q_mode5EL9ap_o_mode3ELi0EEntEv", metadata !200, i32 1473, metadata !729, i1 false, i1 false, i32 0, i32 0, null, i32 256, i1 false, null, null, i32 0, metadata !132, i32 1473} ; [ DW_TAG_subprogram ]
!781 = metadata !{i32 786478, i32 0, metadata !552, metadata !"operator~", metadata !"operator~", metadata !"_ZNK13ap_fixed_baseILi16ELi1ELb1EL9ap_q_mode5EL9ap_o_mode3ELi0EEcoEv", metadata !200, i32 1479, metadata !782, i1 false, i1 false, i32 0, i32 0, null, i32 256, i1 false, null, null, i32 0, metadata !132, i32 1479} ; [ DW_TAG_subprogram ]
!782 = metadata !{i32 786453, i32 0, metadata !"", i32 0, i32 0, i64 0, i64 0, i64 0, i32 0, null, metadata !783, i32 0, i32 0} ; [ DW_TAG_subroutine_type ]
!783 = metadata !{metadata !552, metadata !655}
!784 = metadata !{i32 786478, i32 0, metadata !552, metadata !"operator<<", metadata !"operator<<", metadata !"_ZNK13ap_fixed_baseILi16ELi1ELb1EL9ap_q_mode5EL9ap_o_mode3ELi0EElsEi", metadata !200, i32 1502, metadata !785, i1 false, i1 false, i32 0, i32 0, null, i32 256, i1 false, null, null, i32 0, metadata !132, i32 1502} ; [ DW_TAG_subprogram ]
!785 = metadata !{i32 786453, i32 0, metadata !"", i32 0, i32 0, i64 0, i64 0, i64 0, i32 0, null, metadata !786, i32 0, i32 0} ; [ DW_TAG_subroutine_type ]
!786 = metadata !{metadata !552, metadata !655, metadata !141}
!787 = metadata !{i32 786478, i32 0, metadata !552, metadata !"operator<<", metadata !"operator<<", metadata !"_ZNK13ap_fixed_baseILi16ELi1ELb1EL9ap_q_mode5EL9ap_o_mode3ELi0EElsEj", metadata !200, i32 1561, metadata !788, i1 false, i1 false, i32 0, i32 0, null, i32 256, i1 false, null, null, i32 0, metadata !132, i32 1561} ; [ DW_TAG_subprogram ]
!788 = metadata !{i32 786453, i32 0, metadata !"", i32 0, i32 0, i64 0, i64 0, i64 0, i32 0, null, metadata !789, i32 0, i32 0} ; [ DW_TAG_subroutine_type ]
!789 = metadata !{metadata !552, metadata !655, metadata !187}
!790 = metadata !{i32 786478, i32 0, metadata !552, metadata !"operator>>", metadata !"operator>>", metadata !"_ZNK13ap_fixed_baseILi16ELi1ELb1EL9ap_q_mode5EL9ap_o_mode3ELi0EErsEi", metadata !200, i32 1605, metadata !785, i1 false, i1 false, i32 0, i32 0, null, i32 256, i1 false, null, null, i32 0, metadata !132, i32 1605} ; [ DW_TAG_subprogram ]
!791 = metadata !{i32 786478, i32 0, metadata !552, metadata !"operator>>", metadata !"operator>>", metadata !"_ZNK13ap_fixed_baseILi16ELi1ELb1EL9ap_q_mode5EL9ap_o_mode3ELi0EErsEj", metadata !200, i32 1663, metadata !788, i1 false, i1 false, i32 0, i32 0, null, i32 256, i1 false, null, null, i32 0, metadata !132, i32 1663} ; [ DW_TAG_subprogram ]
!792 = metadata !{i32 786478, i32 0, metadata !552, metadata !"operator<<=", metadata !"operator<<=", metadata !"_ZN13ap_fixed_baseILi16ELi1ELb1EL9ap_q_mode5EL9ap_o_mode3ELi0EElSEi", metadata !200, i32 1715, metadata !793, i1 false, i1 false, i32 0, i32 0, null, i32 256, i1 false, null, null, i32 0, metadata !132, i32 1715} ; [ DW_TAG_subprogram ]
!793 = metadata !{i32 786453, i32 0, metadata !"", i32 0, i32 0, i64 0, i64 0, i64 0, i32 0, null, metadata !794, i32 0, i32 0} ; [ DW_TAG_subroutine_type ]
!794 = metadata !{metadata !683, metadata !569, metadata !141}
!795 = metadata !{i32 786478, i32 0, metadata !552, metadata !"operator<<=", metadata !"operator<<=", metadata !"_ZN13ap_fixed_baseILi16ELi1ELb1EL9ap_q_mode5EL9ap_o_mode3ELi0EElSEj", metadata !200, i32 1778, metadata !796, i1 false, i1 false, i32 0, i32 0, null, i32 256, i1 false, null, null, i32 0, metadata !132, i32 1778} ; [ DW_TAG_subprogram ]
!796 = metadata !{i32 786453, i32 0, metadata !"", i32 0, i32 0, i64 0, i64 0, i64 0, i32 0, null, metadata !797, i32 0, i32 0} ; [ DW_TAG_subroutine_type ]
!797 = metadata !{metadata !683, metadata !569, metadata !187}
!798 = metadata !{i32 786478, i32 0, metadata !552, metadata !"operator>>=", metadata !"operator>>=", metadata !"_ZN13ap_fixed_baseILi16ELi1ELb1EL9ap_q_mode5EL9ap_o_mode3ELi0EErSEi", metadata !200, i32 1825, metadata !793, i1 false, i1 false, i32 0, i32 0, null, i32 256, i1 false, null, null, i32 0, metadata !132, i32 1825} ; [ DW_TAG_subprogram ]
!799 = metadata !{i32 786478, i32 0, metadata !552, metadata !"operator>>=", metadata !"operator>>=", metadata !"_ZN13ap_fixed_baseILi16ELi1ELb1EL9ap_q_mode5EL9ap_o_mode3ELi0EErSEj", metadata !200, i32 1887, metadata !796, i1 false, i1 false, i32 0, i32 0, null, i32 256, i1 false, null, null, i32 0, metadata !132, i32 1887} ; [ DW_TAG_subprogram ]
!800 = metadata !{i32 786478, i32 0, metadata !552, metadata !"operator==", metadata !"operator==", metadata !"_ZNK13ap_fixed_baseILi16ELi1ELb1EL9ap_q_mode5EL9ap_o_mode3ELi0EEeqEd", metadata !200, i32 1965, metadata !801, i1 false, i1 false, i32 0, i32 0, null, i32 256, i1 false, null, null, i32 0, metadata !132, i32 1965} ; [ DW_TAG_subprogram ]
!801 = metadata !{i32 786453, i32 0, metadata !"", i32 0, i32 0, i64 0, i64 0, i64 0, i32 0, null, metadata !802, i32 0, i32 0} ; [ DW_TAG_subroutine_type ]
!802 = metadata !{metadata !143, metadata !655, metadata !219}
!803 = metadata !{i32 786478, i32 0, metadata !552, metadata !"operator!=", metadata !"operator!=", metadata !"_ZNK13ap_fixed_baseILi16ELi1ELb1EL9ap_q_mode5EL9ap_o_mode3ELi0EEneEd", metadata !200, i32 1966, metadata !801, i1 false, i1 false, i32 0, i32 0, null, i32 256, i1 false, null, null, i32 0, metadata !132, i32 1966} ; [ DW_TAG_subprogram ]
!804 = metadata !{i32 786478, i32 0, metadata !552, metadata !"operator>", metadata !"operator>", metadata !"_ZNK13ap_fixed_baseILi16ELi1ELb1EL9ap_q_mode5EL9ap_o_mode3ELi0EEgtEd", metadata !200, i32 1967, metadata !801, i1 false, i1 false, i32 0, i32 0, null, i32 256, i1 false, null, null, i32 0, metadata !132, i32 1967} ; [ DW_TAG_subprogram ]
!805 = metadata !{i32 786478, i32 0, metadata !552, metadata !"operator>=", metadata !"operator>=", metadata !"_ZNK13ap_fixed_baseILi16ELi1ELb1EL9ap_q_mode5EL9ap_o_mode3ELi0EEgeEd", metadata !200, i32 1968, metadata !801, i1 false, i1 false, i32 0, i32 0, null, i32 256, i1 false, null, null, i32 0, metadata !132, i32 1968} ; [ DW_TAG_subprogram ]
!806 = metadata !{i32 786478, i32 0, metadata !552, metadata !"operator<", metadata !"operator<", metadata !"_ZNK13ap_fixed_baseILi16ELi1ELb1EL9ap_q_mode5EL9ap_o_mode3ELi0EEltEd", metadata !200, i32 1969, metadata !801, i1 false, i1 false, i32 0, i32 0, null, i32 256, i1 false, null, null, i32 0, metadata !132, i32 1969} ; [ DW_TAG_subprogram ]
!807 = metadata !{i32 786478, i32 0, metadata !552, metadata !"operator<=", metadata !"operator<=", metadata !"_ZNK13ap_fixed_baseILi16ELi1ELb1EL9ap_q_mode5EL9ap_o_mode3ELi0EEleEd", metadata !200, i32 1970, metadata !801, i1 false, i1 false, i32 0, i32 0, null, i32 256, i1 false, null, null, i32 0, metadata !132, i32 1970} ; [ DW_TAG_subprogram ]
!808 = metadata !{i32 786478, i32 0, metadata !552, metadata !"operator[]", metadata !"operator[]", metadata !"_ZN13ap_fixed_baseILi16ELi1ELb1EL9ap_q_mode5EL9ap_o_mode3ELi0EEixEj", metadata !200, i32 1973, metadata !809, i1 false, i1 false, i32 0, i32 0, null, i32 256, i1 false, null, null, i32 0, metadata !132, i32 1973} ; [ DW_TAG_subprogram ]
!809 = metadata !{i32 786453, i32 0, metadata !"", i32 0, i32 0, i64 0, i64 0, i64 0, i32 0, null, metadata !810, i32 0, i32 0} ; [ DW_TAG_subroutine_type ]
!810 = metadata !{metadata !811, metadata !569, metadata !187}
!811 = metadata !{i32 786434, null, metadata !"af_bit_ref<16, 1, true, 5, 3, 0>", metadata !200, i32 93, i32 0, i32 0, i32 0, i32 4, null, null, i32 0} ; [ DW_TAG_class_type ]
!812 = metadata !{i32 786478, i32 0, metadata !552, metadata !"operator[]", metadata !"operator[]", metadata !"_ZNK13ap_fixed_baseILi16ELi1ELb1EL9ap_q_mode5EL9ap_o_mode3ELi0EEixEj", metadata !200, i32 1985, metadata !813, i1 false, i1 false, i32 0, i32 0, null, i32 256, i1 false, null, null, i32 0, metadata !132, i32 1985} ; [ DW_TAG_subprogram ]
!813 = metadata !{i32 786453, i32 0, metadata !"", i32 0, i32 0, i64 0, i64 0, i64 0, i32 0, null, metadata !814, i32 0, i32 0} ; [ DW_TAG_subroutine_type ]
!814 = metadata !{metadata !143, metadata !655, metadata !187}
!815 = metadata !{i32 786478, i32 0, metadata !552, metadata !"bit", metadata !"bit", metadata !"_ZN13ap_fixed_baseILi16ELi1ELb1EL9ap_q_mode5EL9ap_o_mode3ELi0EE3bitEj", metadata !200, i32 1990, metadata !809, i1 false, i1 false, i32 0, i32 0, null, i32 256, i1 false, null, null, i32 0, metadata !132, i32 1990} ; [ DW_TAG_subprogram ]
!816 = metadata !{i32 786478, i32 0, metadata !552, metadata !"bit", metadata !"bit", metadata !"_ZNK13ap_fixed_baseILi16ELi1ELb1EL9ap_q_mode5EL9ap_o_mode3ELi0EE3bitEj", metadata !200, i32 2003, metadata !813, i1 false, i1 false, i32 0, i32 0, null, i32 256, i1 false, null, null, i32 0, metadata !132, i32 2003} ; [ DW_TAG_subprogram ]
!817 = metadata !{i32 786478, i32 0, metadata !552, metadata !"get_bit", metadata !"get_bit", metadata !"_ZNK13ap_fixed_baseILi16ELi1ELb1EL9ap_q_mode5EL9ap_o_mode3ELi0EE7get_bitEi", metadata !200, i32 2015, metadata !818, i1 false, i1 false, i32 0, i32 0, null, i32 256, i1 false, null, null, i32 0, metadata !132, i32 2015} ; [ DW_TAG_subprogram ]
!818 = metadata !{i32 786453, i32 0, metadata !"", i32 0, i32 0, i64 0, i64 0, i64 0, i32 0, null, metadata !819, i32 0, i32 0} ; [ DW_TAG_subroutine_type ]
!819 = metadata !{metadata !143, metadata !655, metadata !141}
!820 = metadata !{i32 786478, i32 0, metadata !552, metadata !"get_bit", metadata !"get_bit", metadata !"_ZN13ap_fixed_baseILi16ELi1ELb1EL9ap_q_mode5EL9ap_o_mode3ELi0EE7get_bitEi", metadata !200, i32 2021, metadata !821, i1 false, i1 false, i32 0, i32 0, null, i32 256, i1 false, null, null, i32 0, metadata !132, i32 2021} ; [ DW_TAG_subprogram ]
!821 = metadata !{i32 786453, i32 0, metadata !"", i32 0, i32 0, i64 0, i64 0, i64 0, i32 0, null, metadata !822, i32 0, i32 0} ; [ DW_TAG_subroutine_type ]
!822 = metadata !{metadata !811, metadata !569, metadata !141}
!823 = metadata !{i32 786478, i32 0, metadata !552, metadata !"range", metadata !"range", metadata !"_ZN13ap_fixed_baseILi16ELi1ELb1EL9ap_q_mode5EL9ap_o_mode3ELi0EE5rangeEii", metadata !200, i32 2036, metadata !824, i1 false, i1 false, i32 0, i32 0, null, i32 256, i1 false, null, null, i32 0, metadata !132, i32 2036} ; [ DW_TAG_subprogram ]
!824 = metadata !{i32 786453, i32 0, metadata !"", i32 0, i32 0, i64 0, i64 0, i64 0, i32 0, null, metadata !825, i32 0, i32 0} ; [ DW_TAG_subroutine_type ]
!825 = metadata !{metadata !826, metadata !569, metadata !141, metadata !141}
!826 = metadata !{i32 786434, null, metadata !"af_range_ref<16, 1, true, 5, 3, 0>", metadata !200, i32 238, i32 0, i32 0, i32 0, i32 4, null, null, i32 0} ; [ DW_TAG_class_type ]
!827 = metadata !{i32 786478, i32 0, metadata !552, metadata !"operator()", metadata !"operator()", metadata !"_ZN13ap_fixed_baseILi16ELi1ELb1EL9ap_q_mode5EL9ap_o_mode3ELi0EEclEii", metadata !200, i32 2042, metadata !824, i1 false, i1 false, i32 0, i32 0, null, i32 256, i1 false, null, null, i32 0, metadata !132, i32 2042} ; [ DW_TAG_subprogram ]
!828 = metadata !{i32 786478, i32 0, metadata !552, metadata !"range", metadata !"range", metadata !"_ZNK13ap_fixed_baseILi16ELi1ELb1EL9ap_q_mode5EL9ap_o_mode3ELi0EE5rangeEii", metadata !200, i32 2048, metadata !829, i1 false, i1 false, i32 0, i32 0, null, i32 256, i1 false, null, null, i32 0, metadata !132, i32 2048} ; [ DW_TAG_subprogram ]
!829 = metadata !{i32 786453, i32 0, metadata !"", i32 0, i32 0, i64 0, i64 0, i64 0, i32 0, null, metadata !830, i32 0, i32 0} ; [ DW_TAG_subroutine_type ]
!830 = metadata !{metadata !826, metadata !655, metadata !141, metadata !141}
!831 = metadata !{i32 786478, i32 0, metadata !552, metadata !"operator()", metadata !"operator()", metadata !"_ZNK13ap_fixed_baseILi16ELi1ELb1EL9ap_q_mode5EL9ap_o_mode3ELi0EEclEii", metadata !200, i32 2097, metadata !829, i1 false, i1 false, i32 0, i32 0, null, i32 256, i1 false, null, null, i32 0, metadata !132, i32 2097} ; [ DW_TAG_subprogram ]
!832 = metadata !{i32 786478, i32 0, metadata !552, metadata !"range", metadata !"range", metadata !"_ZN13ap_fixed_baseILi16ELi1ELb1EL9ap_q_mode5EL9ap_o_mode3ELi0EE5rangeEv", metadata !200, i32 2102, metadata !833, i1 false, i1 false, i32 0, i32 0, null, i32 256, i1 false, null, null, i32 0, metadata !132, i32 2102} ; [ DW_TAG_subprogram ]
!833 = metadata !{i32 786453, i32 0, metadata !"", i32 0, i32 0, i64 0, i64 0, i64 0, i32 0, null, metadata !834, i32 0, i32 0} ; [ DW_TAG_subroutine_type ]
!834 = metadata !{metadata !826, metadata !569}
!835 = metadata !{i32 786478, i32 0, metadata !552, metadata !"range", metadata !"range", metadata !"_ZNK13ap_fixed_baseILi16ELi1ELb1EL9ap_q_mode5EL9ap_o_mode3ELi0EE5rangeEv", metadata !200, i32 2107, metadata !836, i1 false, i1 false, i32 0, i32 0, null, i32 256, i1 false, null, null, i32 0, metadata !132, i32 2107} ; [ DW_TAG_subprogram ]
!836 = metadata !{i32 786453, i32 0, metadata !"", i32 0, i32 0, i64 0, i64 0, i64 0, i32 0, null, metadata !837, i32 0, i32 0} ; [ DW_TAG_subroutine_type ]
!837 = metadata !{metadata !826, metadata !655}
!838 = metadata !{i32 786478, i32 0, metadata !552, metadata !"is_zero", metadata !"is_zero", metadata !"_ZNK13ap_fixed_baseILi16ELi1ELb1EL9ap_q_mode5EL9ap_o_mode3ELi0EE7is_zeroEv", metadata !200, i32 2111, metadata !729, i1 false, i1 false, i32 0, i32 0, null, i32 256, i1 false, null, null, i32 0, metadata !132, i32 2111} ; [ DW_TAG_subprogram ]
!839 = metadata !{i32 786478, i32 0, metadata !552, metadata !"is_neg", metadata !"is_neg", metadata !"_ZNK13ap_fixed_baseILi16ELi1ELb1EL9ap_q_mode5EL9ap_o_mode3ELi0EE6is_negEv", metadata !200, i32 2115, metadata !729, i1 false, i1 false, i32 0, i32 0, null, i32 256, i1 false, null, null, i32 0, metadata !132, i32 2115} ; [ DW_TAG_subprogram ]
!840 = metadata !{i32 786478, i32 0, metadata !552, metadata !"wl", metadata !"wl", metadata !"_ZNK13ap_fixed_baseILi16ELi1ELb1EL9ap_q_mode5EL9ap_o_mode3ELi0EE2wlEv", metadata !200, i32 2121, metadata !705, i1 false, i1 false, i32 0, i32 0, null, i32 256, i1 false, null, null, i32 0, metadata !132, i32 2121} ; [ DW_TAG_subprogram ]
!841 = metadata !{i32 786478, i32 0, metadata !552, metadata !"iwl", metadata !"iwl", metadata !"_ZNK13ap_fixed_baseILi16ELi1ELb1EL9ap_q_mode5EL9ap_o_mode3ELi0EE3iwlEv", metadata !200, i32 2125, metadata !705, i1 false, i1 false, i32 0, i32 0, null, i32 256, i1 false, null, null, i32 0, metadata !132, i32 2125} ; [ DW_TAG_subprogram ]
!842 = metadata !{i32 786478, i32 0, metadata !552, metadata !"q_mode", metadata !"q_mode", metadata !"_ZNK13ap_fixed_baseILi16ELi1ELb1EL9ap_q_mode5EL9ap_o_mode3ELi0EE6q_modeEv", metadata !200, i32 2129, metadata !843, i1 false, i1 false, i32 0, i32 0, null, i32 256, i1 false, null, null, i32 0, metadata !132, i32 2129} ; [ DW_TAG_subprogram ]
!843 = metadata !{i32 786453, i32 0, metadata !"", i32 0, i32 0, i64 0, i64 0, i64 0, i32 0, null, metadata !844, i32 0, i32 0} ; [ DW_TAG_subroutine_type ]
!844 = metadata !{metadata !586, metadata !655}
!845 = metadata !{i32 786478, i32 0, metadata !552, metadata !"o_mode", metadata !"o_mode", metadata !"_ZNK13ap_fixed_baseILi16ELi1ELb1EL9ap_q_mode5EL9ap_o_mode3ELi0EE6o_modeEv", metadata !200, i32 2133, metadata !846, i1 false, i1 false, i32 0, i32 0, null, i32 256, i1 false, null, null, i32 0, metadata !132, i32 2133} ; [ DW_TAG_subprogram ]
!846 = metadata !{i32 786453, i32 0, metadata !"", i32 0, i32 0, i64 0, i64 0, i64 0, i32 0, null, metadata !847, i32 0, i32 0} ; [ DW_TAG_subroutine_type ]
!847 = metadata !{metadata !596, metadata !655}
!848 = metadata !{i32 786478, i32 0, metadata !552, metadata !"n_bits", metadata !"n_bits", metadata !"_ZNK13ap_fixed_baseILi16ELi1ELb1EL9ap_q_mode5EL9ap_o_mode3ELi0EE6n_bitsEv", metadata !200, i32 2137, metadata !705, i1 false, i1 false, i32 0, i32 0, null, i32 256, i1 false, null, null, i32 0, metadata !132, i32 2137} ; [ DW_TAG_subprogram ]
!849 = metadata !{i32 786478, i32 0, metadata !552, metadata !"to_string", metadata !"to_string", metadata !"_ZN13ap_fixed_baseILi16ELi1ELb1EL9ap_q_mode5EL9ap_o_mode3ELi0EE9to_stringE8BaseMode", metadata !200, i32 2141, metadata !850, i1 false, i1 false, i32 0, i32 0, null, i32 256, i1 false, null, null, i32 0, metadata !132, i32 2141} ; [ DW_TAG_subprogram ]
!850 = metadata !{i32 786453, i32 0, metadata !"", i32 0, i32 0, i64 0, i64 0, i64 0, i32 0, null, metadata !851, i32 0, i32 0} ; [ DW_TAG_subroutine_type ]
!851 = metadata !{metadata !436, metadata !569, metadata !437}
!852 = metadata !{i32 786478, i32 0, metadata !552, metadata !"to_string", metadata !"to_string", metadata !"_ZN13ap_fixed_baseILi16ELi1ELb1EL9ap_q_mode5EL9ap_o_mode3ELi0EE9to_stringEa", metadata !200, i32 2145, metadata !853, i1 false, i1 false, i32 0, i32 0, null, i32 256, i1 false, null, null, i32 0, metadata !132, i32 2145} ; [ DW_TAG_subprogram ]
!853 = metadata !{i32 786453, i32 0, metadata !"", i32 0, i32 0, i64 0, i64 0, i64 0, i32 0, null, metadata !854, i32 0, i32 0} ; [ DW_TAG_subroutine_type ]
!854 = metadata !{metadata !436, metadata !569, metadata !168}
!855 = metadata !{metadata !856, metadata !857, metadata !565, metadata !858, metadata !859, metadata !860}
!856 = metadata !{i32 786480, null, metadata !"_AP_W", metadata !141, i64 16, null, i32 0, i32 0} ; [ DW_TAG_template_value_parameter ]
!857 = metadata !{i32 786480, null, metadata !"_AP_I", metadata !141, i64 1, null, i32 0, i32 0} ; [ DW_TAG_template_value_parameter ]
!858 = metadata !{i32 786480, null, metadata !"_AP_Q", metadata !586, i64 5, null, i32 0, i32 0} ; [ DW_TAG_template_value_parameter ]
!859 = metadata !{i32 786480, null, metadata !"_AP_O", metadata !596, i64 3, null, i32 0, i32 0} ; [ DW_TAG_template_value_parameter ]
!860 = metadata !{i32 786480, null, metadata !"_AP_N", metadata !141, i64 0, null, i32 0, i32 0} ; [ DW_TAG_template_value_parameter ]
!861 = metadata !{i32 786478, i32 0, metadata !549, metadata !"ap_fixed", metadata !"ap_fixed", metadata !"", metadata !112, i32 295, metadata !862, i1 false, i1 false, i32 0, i32 0, null, i32 256, i1 false, null, null, i32 0, metadata !132, i32 295} ; [ DW_TAG_subprogram ]
!862 = metadata !{i32 786453, i32 0, metadata !"", i32 0, i32 0, i64 0, i64 0, i64 0, i32 0, null, metadata !863, i32 0, i32 0} ; [ DW_TAG_subroutine_type ]
!863 = metadata !{null, metadata !864}
!864 = metadata !{i32 786447, i32 0, metadata !"", i32 0, i32 0, i64 64, i64 64, i64 0, i32 64, metadata !549} ; [ DW_TAG_pointer_type ]
!865 = metadata !{i32 786478, i32 0, metadata !549, metadata !"ap_fixed<64, 48, false, 5, 3, 0>", metadata !"ap_fixed<64, 48, false, 5, 3, 0>", metadata !"", metadata !112, i32 337, metadata !866, i1 false, i1 false, i32 0, i32 0, null, i32 256, i1 false, null, metadata !1148, i32 0, metadata !132, i32 337} ; [ DW_TAG_subprogram ]
!866 = metadata !{i32 786453, i32 0, metadata !"", i32 0, i32 0, i64 0, i64 0, i64 0, i32 0, null, metadata !867, i32 0, i32 0} ; [ DW_TAG_subroutine_type ]
!867 = metadata !{null, metadata !864, metadata !868}
!868 = metadata !{i32 786448, null, null, null, i32 0, i64 0, i64 0, i64 0, i32 0, metadata !869} ; [ DW_TAG_reference_type ]
!869 = metadata !{i32 786470, null, metadata !"", null, i32 0, i64 0, i64 0, i64 0, i32 0, metadata !870} ; [ DW_TAG_const_type ]
!870 = metadata !{i32 786434, null, metadata !"ap_fixed_base<64, 48, false, 5, 3, 0>", metadata !200, i32 512, i64 64, i64 64, i32 0, i32 0, null, metadata !871, i32 0, null, metadata !1145} ; [ DW_TAG_class_type ]
!871 = metadata !{metadata !872, metadata !883, metadata !887, metadata !890, metadata !893, metadata !896, metadata !899, metadata !902, metadata !905, metadata !908, metadata !911, metadata !914, metadata !917, metadata !920, metadata !923, metadata !926, metadata !929, metadata !932, metadata !935, metadata !939, metadata !942, metadata !945, metadata !948, metadata !951, metadata !954, metadata !957, metadata !960, metadata !963, metadata !967, metadata !973, metadata !977, metadata !980, metadata !983, metadata !986, metadata !990, metadata !993, metadata !996, metadata !999, metadata !1002, metadata !1005, metadata !1008, metadata !1011, metadata !1012, metadata !1013, metadata !1014, metadata !1017, metadata !1020, metadata !1023, metadata !1026, metadata !1029, metadata !1032, metadata !1033, metadata !1034, metadata !1037, metadata !1040, metadata !1043, metadata !1046, metadata !1047, metadata !1050, metadata !1053, metadata !1054, metadata !1057, metadata !1058, metadata !1061, metadata !1065, metadata !1069, metadata !1070, metadata !1073, metadata !1076, metadata !1079, metadata !1080, metadata !1081, metadata !1084, metadata !1087, metadata !1088, metadata !1089, metadata !1092, metadata !1093, metadata !1094, metadata !1095, metadata !1096, metadata !1097, metadata !1101, metadata !1104, metadata !1105, metadata !1106, metadata !1109, metadata !1112, metadata !1116, metadata !1117, metadata !1120, metadata !1121, metadata !1124, metadata !1127, metadata !1128, metadata !1129, metadata !1130, metadata !1131, metadata !1134, metadata !1137, metadata !1138, metadata !1141, metadata !1144}
!872 = metadata !{i32 786460, metadata !870, null, metadata !200, i32 0, i64 0, i64 0, i64 0, i32 0, metadata !873} ; [ DW_TAG_inheritance ]
!873 = metadata !{i32 786434, null, metadata !"ssdm_int<64 + 1024 * 0, false>", metadata !124, i32 68, i64 64, i64 64, i32 0, i32 0, null, metadata !874, i32 0, null, metadata !881} ; [ DW_TAG_class_type ]
!874 = metadata !{metadata !875, metadata !877}
!875 = metadata !{i32 786445, metadata !873, metadata !"V", metadata !124, i32 68, i64 64, i64 64, i64 0, i32 0, metadata !876} ; [ DW_TAG_member ]
!876 = metadata !{i32 786468, null, metadata !"uint64", null, i32 0, i64 64, i64 64, i64 0, i32 0, i32 7} ; [ DW_TAG_base_type ]
!877 = metadata !{i32 786478, i32 0, metadata !873, metadata !"ssdm_int", metadata !"ssdm_int", metadata !"", metadata !124, i32 68, metadata !878, i1 false, i1 false, i32 0, i32 0, null, i32 256, i1 false, null, null, i32 0, metadata !132, i32 68} ; [ DW_TAG_subprogram ]
!878 = metadata !{i32 786453, i32 0, metadata !"", i32 0, i32 0, i64 0, i64 0, i64 0, i32 0, null, metadata !879, i32 0, i32 0} ; [ DW_TAG_subroutine_type ]
!879 = metadata !{null, metadata !880}
!880 = metadata !{i32 786447, i32 0, metadata !"", i32 0, i32 0, i64 64, i64 64, i64 0, i32 64, metadata !873} ; [ DW_TAG_pointer_type ]
!881 = metadata !{metadata !882, metadata !142}
!882 = metadata !{i32 786480, null, metadata !"_AP_N", metadata !141, i64 64, null, i32 0, i32 0} ; [ DW_TAG_template_value_parameter ]
!883 = metadata !{i32 786478, i32 0, metadata !870, metadata !"overflow_adjust", metadata !"overflow_adjust", metadata !"_ZN13ap_fixed_baseILi64ELi48ELb0EL9ap_q_mode5EL9ap_o_mode3ELi0EE15overflow_adjustEbbbb", metadata !200, i32 522, metadata !884, i1 false, i1 false, i32 0, i32 0, null, i32 256, i1 false, null, null, i32 0, metadata !132, i32 522} ; [ DW_TAG_subprogram ]
!884 = metadata !{i32 786453, i32 0, metadata !"", i32 0, i32 0, i64 0, i64 0, i64 0, i32 0, null, metadata !885, i32 0, i32 0} ; [ DW_TAG_subroutine_type ]
!885 = metadata !{null, metadata !886, metadata !143, metadata !143, metadata !143, metadata !143}
!886 = metadata !{i32 786447, i32 0, metadata !"", i32 0, i32 0, i64 64, i64 64, i64 0, i32 64, metadata !870} ; [ DW_TAG_pointer_type ]
!887 = metadata !{i32 786478, i32 0, metadata !870, metadata !"quantization_adjust", metadata !"quantization_adjust", metadata !"_ZN13ap_fixed_baseILi64ELi48ELb0EL9ap_q_mode5EL9ap_o_mode3ELi0EE19quantization_adjustEbbb", metadata !200, i32 595, metadata !888, i1 false, i1 false, i32 0, i32 0, null, i32 256, i1 false, null, null, i32 0, metadata !132, i32 595} ; [ DW_TAG_subprogram ]
!888 = metadata !{i32 786453, i32 0, metadata !"", i32 0, i32 0, i64 0, i64 0, i64 0, i32 0, null, metadata !889, i32 0, i32 0} ; [ DW_TAG_subroutine_type ]
!889 = metadata !{metadata !143, metadata !886, metadata !143, metadata !143, metadata !143}
!890 = metadata !{i32 786478, i32 0, metadata !870, metadata !"ap_fixed_base", metadata !"ap_fixed_base", metadata !"", metadata !200, i32 653, metadata !891, i1 false, i1 false, i32 0, i32 0, null, i32 256, i1 false, null, null, i32 0, metadata !132, i32 653} ; [ DW_TAG_subprogram ]
!891 = metadata !{i32 786453, i32 0, metadata !"", i32 0, i32 0, i64 0, i64 0, i64 0, i32 0, null, metadata !892, i32 0, i32 0} ; [ DW_TAG_subroutine_type ]
!892 = metadata !{null, metadata !886}
!893 = metadata !{i32 786478, i32 0, metadata !870, metadata !"ap_fixed_base", metadata !"ap_fixed_base", metadata !"", metadata !200, i32 789, metadata !894, i1 false, i1 false, i32 0, i32 0, null, i32 256, i1 false, null, null, i32 0, metadata !132, i32 789} ; [ DW_TAG_subprogram ]
!894 = metadata !{i32 786453, i32 0, metadata !"", i32 0, i32 0, i64 0, i64 0, i64 0, i32 0, null, metadata !895, i32 0, i32 0} ; [ DW_TAG_subroutine_type ]
!895 = metadata !{null, metadata !886, metadata !143}
!896 = metadata !{i32 786478, i32 0, metadata !870, metadata !"ap_fixed_base", metadata !"ap_fixed_base", metadata !"", metadata !200, i32 790, metadata !897, i1 false, i1 false, i32 0, i32 0, null, i32 256, i1 false, null, null, i32 0, metadata !132, i32 790} ; [ DW_TAG_subprogram ]
!897 = metadata !{i32 786453, i32 0, metadata !"", i32 0, i32 0, i64 0, i64 0, i64 0, i32 0, null, metadata !898, i32 0, i32 0} ; [ DW_TAG_subroutine_type ]
!898 = metadata !{null, metadata !886, metadata !225}
!899 = metadata !{i32 786478, i32 0, metadata !870, metadata !"ap_fixed_base", metadata !"ap_fixed_base", metadata !"", metadata !200, i32 791, metadata !900, i1 false, i1 false, i32 0, i32 0, null, i32 256, i1 false, null, null, i32 0, metadata !132, i32 791} ; [ DW_TAG_subprogram ]
!900 = metadata !{i32 786453, i32 0, metadata !"", i32 0, i32 0, i64 0, i64 0, i64 0, i32 0, null, metadata !901, i32 0, i32 0} ; [ DW_TAG_subroutine_type ]
!901 = metadata !{null, metadata !886, metadata !168}
!902 = metadata !{i32 786478, i32 0, metadata !870, metadata !"ap_fixed_base", metadata !"ap_fixed_base", metadata !"", metadata !200, i32 792, metadata !903, i1 false, i1 false, i32 0, i32 0, null, i32 256, i1 false, null, null, i32 0, metadata !132, i32 792} ; [ DW_TAG_subprogram ]
!903 = metadata !{i32 786453, i32 0, metadata !"", i32 0, i32 0, i64 0, i64 0, i64 0, i32 0, null, metadata !904, i32 0, i32 0} ; [ DW_TAG_subroutine_type ]
!904 = metadata !{null, metadata !886, metadata !172}
!905 = metadata !{i32 786478, i32 0, metadata !870, metadata !"ap_fixed_base", metadata !"ap_fixed_base", metadata !"", metadata !200, i32 793, metadata !906, i1 false, i1 false, i32 0, i32 0, null, i32 256, i1 false, null, null, i32 0, metadata !132, i32 793} ; [ DW_TAG_subprogram ]
!906 = metadata !{i32 786453, i32 0, metadata !"", i32 0, i32 0, i64 0, i64 0, i64 0, i32 0, null, metadata !907, i32 0, i32 0} ; [ DW_TAG_subroutine_type ]
!907 = metadata !{null, metadata !886, metadata !176}
!908 = metadata !{i32 786478, i32 0, metadata !870, metadata !"ap_fixed_base", metadata !"ap_fixed_base", metadata !"", metadata !200, i32 794, metadata !909, i1 false, i1 false, i32 0, i32 0, null, i32 256, i1 false, null, null, i32 0, metadata !132, i32 794} ; [ DW_TAG_subprogram ]
!909 = metadata !{i32 786453, i32 0, metadata !"", i32 0, i32 0, i64 0, i64 0, i64 0, i32 0, null, metadata !910, i32 0, i32 0} ; [ DW_TAG_subroutine_type ]
!910 = metadata !{null, metadata !886, metadata !180}
!911 = metadata !{i32 786478, i32 0, metadata !870, metadata !"ap_fixed_base", metadata !"ap_fixed_base", metadata !"", metadata !200, i32 795, metadata !912, i1 false, i1 false, i32 0, i32 0, null, i32 256, i1 false, null, null, i32 0, metadata !132, i32 795} ; [ DW_TAG_subprogram ]
!912 = metadata !{i32 786453, i32 0, metadata !"", i32 0, i32 0, i64 0, i64 0, i64 0, i32 0, null, metadata !913, i32 0, i32 0} ; [ DW_TAG_subroutine_type ]
!913 = metadata !{null, metadata !886, metadata !141}
!914 = metadata !{i32 786478, i32 0, metadata !870, metadata !"ap_fixed_base", metadata !"ap_fixed_base", metadata !"", metadata !200, i32 796, metadata !915, i1 false, i1 false, i32 0, i32 0, null, i32 256, i1 false, null, null, i32 0, metadata !132, i32 796} ; [ DW_TAG_subprogram ]
!915 = metadata !{i32 786453, i32 0, metadata !"", i32 0, i32 0, i64 0, i64 0, i64 0, i32 0, null, metadata !916, i32 0, i32 0} ; [ DW_TAG_subroutine_type ]
!916 = metadata !{null, metadata !886, metadata !187}
!917 = metadata !{i32 786478, i32 0, metadata !870, metadata !"ap_fixed_base", metadata !"ap_fixed_base", metadata !"", metadata !200, i32 798, metadata !918, i1 false, i1 false, i32 0, i32 0, null, i32 256, i1 false, null, null, i32 0, metadata !132, i32 798} ; [ DW_TAG_subprogram ]
!918 = metadata !{i32 786453, i32 0, metadata !"", i32 0, i32 0, i64 0, i64 0, i64 0, i32 0, null, metadata !919, i32 0, i32 0} ; [ DW_TAG_subroutine_type ]
!919 = metadata !{null, metadata !886, metadata !191}
!920 = metadata !{i32 786478, i32 0, metadata !870, metadata !"ap_fixed_base", metadata !"ap_fixed_base", metadata !"", metadata !200, i32 799, metadata !921, i1 false, i1 false, i32 0, i32 0, null, i32 256, i1 false, null, null, i32 0, metadata !132, i32 799} ; [ DW_TAG_subprogram ]
!921 = metadata !{i32 786453, i32 0, metadata !"", i32 0, i32 0, i64 0, i64 0, i64 0, i32 0, null, metadata !922, i32 0, i32 0} ; [ DW_TAG_subroutine_type ]
!922 = metadata !{null, metadata !886, metadata !195}
!923 = metadata !{i32 786478, i32 0, metadata !870, metadata !"ap_fixed_base", metadata !"ap_fixed_base", metadata !"", metadata !200, i32 804, metadata !924, i1 false, i1 false, i32 0, i32 0, null, i32 256, i1 false, null, null, i32 0, metadata !132, i32 804} ; [ DW_TAG_subprogram ]
!924 = metadata !{i32 786453, i32 0, metadata !"", i32 0, i32 0, i64 0, i64 0, i64 0, i32 0, null, metadata !925, i32 0, i32 0} ; [ DW_TAG_subroutine_type ]
!925 = metadata !{null, metadata !886, metadata !199}
!926 = metadata !{i32 786478, i32 0, metadata !870, metadata !"ap_fixed_base", metadata !"ap_fixed_base", metadata !"", metadata !200, i32 805, metadata !927, i1 false, i1 false, i32 0, i32 0, null, i32 256, i1 false, null, null, i32 0, metadata !132, i32 805} ; [ DW_TAG_subprogram ]
!927 = metadata !{i32 786453, i32 0, metadata !"", i32 0, i32 0, i64 0, i64 0, i64 0, i32 0, null, metadata !928, i32 0, i32 0} ; [ DW_TAG_subroutine_type ]
!928 = metadata !{null, metadata !886, metadata !205}
!929 = metadata !{i32 786478, i32 0, metadata !870, metadata !"ap_fixed_base", metadata !"ap_fixed_base", metadata !"", metadata !200, i32 806, metadata !930, i1 false, i1 false, i32 0, i32 0, null, i32 256, i1 false, null, null, i32 0, metadata !132, i32 806} ; [ DW_TAG_subprogram ]
!930 = metadata !{i32 786453, i32 0, metadata !"", i32 0, i32 0, i64 0, i64 0, i64 0, i32 0, null, metadata !931, i32 0, i32 0} ; [ DW_TAG_subroutine_type ]
!931 = metadata !{null, metadata !886, metadata !223}
!932 = metadata !{i32 786478, i32 0, metadata !870, metadata !"ap_fixed_base", metadata !"ap_fixed_base", metadata !"", metadata !200, i32 813, metadata !933, i1 false, i1 false, i32 0, i32 0, null, i32 256, i1 false, null, null, i32 0, metadata !132, i32 813} ; [ DW_TAG_subprogram ]
!933 = metadata !{i32 786453, i32 0, metadata !"", i32 0, i32 0, i64 0, i64 0, i64 0, i32 0, null, metadata !934, i32 0, i32 0} ; [ DW_TAG_subroutine_type ]
!934 = metadata !{null, metadata !886, metadata !223, metadata !168}
!935 = metadata !{i32 786478, i32 0, metadata !870, metadata !"doubleToRawBits", metadata !"doubleToRawBits", metadata !"_ZNK13ap_fixed_baseILi64ELi48ELb0EL9ap_q_mode5EL9ap_o_mode3ELi0EE15doubleToRawBitsEd", metadata !200, i32 849, metadata !936, i1 false, i1 false, i32 0, i32 0, null, i32 256, i1 false, null, null, i32 0, metadata !132, i32 849} ; [ DW_TAG_subprogram ]
!936 = metadata !{i32 786453, i32 0, metadata !"", i32 0, i32 0, i64 0, i64 0, i64 0, i32 0, null, metadata !937, i32 0, i32 0} ; [ DW_TAG_subroutine_type ]
!937 = metadata !{metadata !206, metadata !938, metadata !219}
!938 = metadata !{i32 786447, i32 0, metadata !"", i32 0, i32 0, i64 64, i64 64, i64 0, i32 64, metadata !869} ; [ DW_TAG_pointer_type ]
!939 = metadata !{i32 786478, i32 0, metadata !870, metadata !"floatToRawBits", metadata !"floatToRawBits", metadata !"_ZNK13ap_fixed_baseILi64ELi48ELb0EL9ap_q_mode5EL9ap_o_mode3ELi0EE14floatToRawBitsEf", metadata !200, i32 857, metadata !940, i1 false, i1 false, i32 0, i32 0, null, i32 256, i1 false, null, null, i32 0, metadata !132, i32 857} ; [ DW_TAG_subprogram ]
!940 = metadata !{i32 786453, i32 0, metadata !"", i32 0, i32 0, i64 0, i64 0, i64 0, i32 0, null, metadata !941, i32 0, i32 0} ; [ DW_TAG_subroutine_type ]
!941 = metadata !{metadata !187, metadata !938, metadata !215}
!942 = metadata !{i32 786478, i32 0, metadata !870, metadata !"halfToRawBits", metadata !"halfToRawBits", metadata !"_ZNK13ap_fixed_baseILi64ELi48ELb0EL9ap_q_mode5EL9ap_o_mode3ELi0EE13halfToRawBitsEDh", metadata !200, i32 865, metadata !943, i1 false, i1 false, i32 0, i32 0, null, i32 256, i1 false, null, null, i32 0, metadata !132, i32 865} ; [ DW_TAG_subprogram ]
!943 = metadata !{i32 786453, i32 0, metadata !"", i32 0, i32 0, i64 0, i64 0, i64 0, i32 0, null, metadata !944, i32 0, i32 0} ; [ DW_TAG_subroutine_type ]
!944 = metadata !{metadata !180, metadata !938, metadata !210}
!945 = metadata !{i32 786478, i32 0, metadata !870, metadata !"rawBitsToDouble", metadata !"rawBitsToDouble", metadata !"_ZNK13ap_fixed_baseILi64ELi48ELb0EL9ap_q_mode5EL9ap_o_mode3ELi0EE15rawBitsToDoubleEy", metadata !200, i32 874, metadata !946, i1 false, i1 false, i32 0, i32 0, null, i32 256, i1 false, null, null, i32 0, metadata !132, i32 874} ; [ DW_TAG_subprogram ]
!946 = metadata !{i32 786453, i32 0, metadata !"", i32 0, i32 0, i64 0, i64 0, i64 0, i32 0, null, metadata !947, i32 0, i32 0} ; [ DW_TAG_subroutine_type ]
!947 = metadata !{metadata !219, metadata !938, metadata !206}
!948 = metadata !{i32 786478, i32 0, metadata !870, metadata !"rawBitsToFloat", metadata !"rawBitsToFloat", metadata !"_ZNK13ap_fixed_baseILi64ELi48ELb0EL9ap_q_mode5EL9ap_o_mode3ELi0EE14rawBitsToFloatEj", metadata !200, i32 883, metadata !949, i1 false, i1 false, i32 0, i32 0, null, i32 256, i1 false, null, null, i32 0, metadata !132, i32 883} ; [ DW_TAG_subprogram ]
!949 = metadata !{i32 786453, i32 0, metadata !"", i32 0, i32 0, i64 0, i64 0, i64 0, i32 0, null, metadata !950, i32 0, i32 0} ; [ DW_TAG_subroutine_type ]
!950 = metadata !{metadata !215, metadata !938, metadata !187}
!951 = metadata !{i32 786478, i32 0, metadata !870, metadata !"rawBitsToHalf", metadata !"rawBitsToHalf", metadata !"_ZNK13ap_fixed_baseILi64ELi48ELb0EL9ap_q_mode5EL9ap_o_mode3ELi0EE13rawBitsToHalfEt", metadata !200, i32 892, metadata !952, i1 false, i1 false, i32 0, i32 0, null, i32 256, i1 false, null, null, i32 0, metadata !132, i32 892} ; [ DW_TAG_subprogram ]
!952 = metadata !{i32 786453, i32 0, metadata !"", i32 0, i32 0, i64 0, i64 0, i64 0, i32 0, null, metadata !953, i32 0, i32 0} ; [ DW_TAG_subroutine_type ]
!953 = metadata !{metadata !210, metadata !938, metadata !180}
!954 = metadata !{i32 786478, i32 0, metadata !870, metadata !"ap_fixed_base", metadata !"ap_fixed_base", metadata !"", metadata !200, i32 901, metadata !955, i1 false, i1 false, i32 0, i32 0, null, i32 256, i1 false, null, null, i32 0, metadata !132, i32 901} ; [ DW_TAG_subprogram ]
!955 = metadata !{i32 786453, i32 0, metadata !"", i32 0, i32 0, i64 0, i64 0, i64 0, i32 0, null, metadata !956, i32 0, i32 0} ; [ DW_TAG_subroutine_type ]
!956 = metadata !{null, metadata !886, metadata !219}
!957 = metadata !{i32 786478, i32 0, metadata !870, metadata !"ap_fixed_base", metadata !"ap_fixed_base", metadata !"", metadata !200, i32 1014, metadata !958, i1 false, i1 false, i32 0, i32 0, null, i32 256, i1 false, null, null, i32 0, metadata !132, i32 1014} ; [ DW_TAG_subprogram ]
!958 = metadata !{i32 786453, i32 0, metadata !"", i32 0, i32 0, i64 0, i64 0, i64 0, i32 0, null, metadata !959, i32 0, i32 0} ; [ DW_TAG_subroutine_type ]
!959 = metadata !{null, metadata !886, metadata !215}
!960 = metadata !{i32 786478, i32 0, metadata !870, metadata !"ap_fixed_base", metadata !"ap_fixed_base", metadata !"", metadata !200, i32 1018, metadata !961, i1 false, i1 false, i32 0, i32 0, null, i32 256, i1 false, null, null, i32 0, metadata !132, i32 1018} ; [ DW_TAG_subprogram ]
!961 = metadata !{i32 786453, i32 0, metadata !"", i32 0, i32 0, i64 0, i64 0, i64 0, i32 0, null, metadata !962, i32 0, i32 0} ; [ DW_TAG_subroutine_type ]
!962 = metadata !{null, metadata !886, metadata !210}
!963 = metadata !{i32 786478, i32 0, metadata !870, metadata !"operator=", metadata !"operator=", metadata !"_ZN13ap_fixed_baseILi64ELi48ELb0EL9ap_q_mode5EL9ap_o_mode3ELi0EEaSERKS2_", metadata !200, i32 1022, metadata !964, i1 false, i1 false, i32 0, i32 0, null, i32 256, i1 false, null, null, i32 0, metadata !132, i32 1022} ; [ DW_TAG_subprogram ]
!964 = metadata !{i32 786453, i32 0, metadata !"", i32 0, i32 0, i64 0, i64 0, i64 0, i32 0, null, metadata !965, i32 0, i32 0} ; [ DW_TAG_subroutine_type ]
!965 = metadata !{metadata !966, metadata !886, metadata !868}
!966 = metadata !{i32 786448, null, null, null, i32 0, i64 0, i64 0, i64 0, i32 0, metadata !870} ; [ DW_TAG_reference_type ]
!967 = metadata !{i32 786478, i32 0, metadata !870, metadata !"operator=", metadata !"operator=", metadata !"_ZN13ap_fixed_baseILi64ELi48ELb0EL9ap_q_mode5EL9ap_o_mode3ELi0EEaSERVKS2_", metadata !200, i32 1029, metadata !968, i1 false, i1 false, i32 0, i32 0, null, i32 256, i1 false, null, null, i32 0, metadata !132, i32 1029} ; [ DW_TAG_subprogram ]
!968 = metadata !{i32 786453, i32 0, metadata !"", i32 0, i32 0, i64 0, i64 0, i64 0, i32 0, null, metadata !969, i32 0, i32 0} ; [ DW_TAG_subroutine_type ]
!969 = metadata !{metadata !966, metadata !886, metadata !970}
!970 = metadata !{i32 786448, null, null, null, i32 0, i64 0, i64 0, i64 0, i32 0, metadata !971} ; [ DW_TAG_reference_type ]
!971 = metadata !{i32 786470, null, metadata !"", null, i32 0, i64 0, i64 0, i64 0, i32 0, metadata !972} ; [ DW_TAG_const_type ]
!972 = metadata !{i32 786485, null, metadata !"", null, i32 0, i64 0, i64 0, i64 0, i32 0, metadata !870} ; [ DW_TAG_volatile_type ]
!973 = metadata !{i32 786478, i32 0, metadata !870, metadata !"operator=", metadata !"operator=", metadata !"_ZNV13ap_fixed_baseILi64ELi48ELb0EL9ap_q_mode5EL9ap_o_mode3ELi0EEaSERKS2_", metadata !200, i32 1036, metadata !974, i1 false, i1 false, i32 0, i32 0, null, i32 256, i1 false, null, null, i32 0, metadata !132, i32 1036} ; [ DW_TAG_subprogram ]
!974 = metadata !{i32 786453, i32 0, metadata !"", i32 0, i32 0, i64 0, i64 0, i64 0, i32 0, null, metadata !975, i32 0, i32 0} ; [ DW_TAG_subroutine_type ]
!975 = metadata !{null, metadata !976, metadata !868}
!976 = metadata !{i32 786447, i32 0, metadata !"", i32 0, i32 0, i64 64, i64 64, i64 0, i32 64, metadata !972} ; [ DW_TAG_pointer_type ]
!977 = metadata !{i32 786478, i32 0, metadata !870, metadata !"operator=", metadata !"operator=", metadata !"_ZNV13ap_fixed_baseILi64ELi48ELb0EL9ap_q_mode5EL9ap_o_mode3ELi0EEaSERVKS2_", metadata !200, i32 1042, metadata !978, i1 false, i1 false, i32 0, i32 0, null, i32 256, i1 false, null, null, i32 0, metadata !132, i32 1042} ; [ DW_TAG_subprogram ]
!978 = metadata !{i32 786453, i32 0, metadata !"", i32 0, i32 0, i64 0, i64 0, i64 0, i32 0, null, metadata !979, i32 0, i32 0} ; [ DW_TAG_subroutine_type ]
!979 = metadata !{null, metadata !976, metadata !970}
!980 = metadata !{i32 786478, i32 0, metadata !870, metadata !"setBits", metadata !"setBits", metadata !"_ZN13ap_fixed_baseILi64ELi48ELb0EL9ap_q_mode5EL9ap_o_mode3ELi0EE7setBitsEy", metadata !200, i32 1051, metadata !981, i1 false, i1 false, i32 0, i32 0, null, i32 256, i1 false, null, null, i32 0, metadata !132, i32 1051} ; [ DW_TAG_subprogram ]
!981 = metadata !{i32 786453, i32 0, metadata !"", i32 0, i32 0, i64 0, i64 0, i64 0, i32 0, null, metadata !982, i32 0, i32 0} ; [ DW_TAG_subroutine_type ]
!982 = metadata !{metadata !966, metadata !886, metadata !206}
!983 = metadata !{i32 786478, i32 0, metadata !870, metadata !"bitsToFixed", metadata !"bitsToFixed", metadata !"_ZN13ap_fixed_baseILi64ELi48ELb0EL9ap_q_mode5EL9ap_o_mode3ELi0EE11bitsToFixedEy", metadata !200, i32 1057, metadata !984, i1 false, i1 false, i32 0, i32 0, null, i32 256, i1 false, null, null, i32 0, metadata !132, i32 1057} ; [ DW_TAG_subprogram ]
!984 = metadata !{i32 786453, i32 0, metadata !"", i32 0, i32 0, i64 0, i64 0, i64 0, i32 0, null, metadata !985, i32 0, i32 0} ; [ DW_TAG_subroutine_type ]
!985 = metadata !{metadata !870, metadata !206}
!986 = metadata !{i32 786478, i32 0, metadata !870, metadata !"to_ap_int_base", metadata !"to_ap_int_base", metadata !"_ZNK13ap_fixed_baseILi64ELi48ELb0EL9ap_q_mode5EL9ap_o_mode3ELi0EE14to_ap_int_baseEb", metadata !200, i32 1066, metadata !987, i1 false, i1 false, i32 0, i32 0, null, i32 256, i1 false, null, null, i32 0, metadata !132, i32 1066} ; [ DW_TAG_subprogram ]
!987 = metadata !{i32 786453, i32 0, metadata !"", i32 0, i32 0, i64 0, i64 0, i64 0, i32 0, null, metadata !988, i32 0, i32 0} ; [ DW_TAG_subroutine_type ]
!988 = metadata !{metadata !989, metadata !938, metadata !143}
!989 = metadata !{i32 786434, null, metadata !"ap_int_base<48, false, true>", metadata !120, i32 651, i32 0, i32 0, i32 0, i32 4, null, null, i32 0} ; [ DW_TAG_class_type ]
!990 = metadata !{i32 786478, i32 0, metadata !870, metadata !"to_int", metadata !"to_int", metadata !"_ZNK13ap_fixed_baseILi64ELi48ELb0EL9ap_q_mode5EL9ap_o_mode3ELi0EE6to_intEv", metadata !200, i32 1101, metadata !991, i1 false, i1 false, i32 0, i32 0, null, i32 256, i1 false, null, null, i32 0, metadata !132, i32 1101} ; [ DW_TAG_subprogram ]
!991 = metadata !{i32 786453, i32 0, metadata !"", i32 0, i32 0, i64 0, i64 0, i64 0, i32 0, null, metadata !992, i32 0, i32 0} ; [ DW_TAG_subroutine_type ]
!992 = metadata !{metadata !141, metadata !938}
!993 = metadata !{i32 786478, i32 0, metadata !870, metadata !"to_uint", metadata !"to_uint", metadata !"_ZNK13ap_fixed_baseILi64ELi48ELb0EL9ap_q_mode5EL9ap_o_mode3ELi0EE7to_uintEv", metadata !200, i32 1104, metadata !994, i1 false, i1 false, i32 0, i32 0, null, i32 256, i1 false, null, null, i32 0, metadata !132, i32 1104} ; [ DW_TAG_subprogram ]
!994 = metadata !{i32 786453, i32 0, metadata !"", i32 0, i32 0, i64 0, i64 0, i64 0, i32 0, null, metadata !995, i32 0, i32 0} ; [ DW_TAG_subroutine_type ]
!995 = metadata !{metadata !187, metadata !938}
!996 = metadata !{i32 786478, i32 0, metadata !870, metadata !"to_int64", metadata !"to_int64", metadata !"_ZNK13ap_fixed_baseILi64ELi48ELb0EL9ap_q_mode5EL9ap_o_mode3ELi0EE8to_int64Ev", metadata !200, i32 1107, metadata !997, i1 false, i1 false, i32 0, i32 0, null, i32 256, i1 false, null, null, i32 0, metadata !132, i32 1107} ; [ DW_TAG_subprogram ]
!997 = metadata !{i32 786453, i32 0, metadata !"", i32 0, i32 0, i64 0, i64 0, i64 0, i32 0, null, metadata !998, i32 0, i32 0} ; [ DW_TAG_subroutine_type ]
!998 = metadata !{metadata !199, metadata !938}
!999 = metadata !{i32 786478, i32 0, metadata !870, metadata !"to_uint64", metadata !"to_uint64", metadata !"_ZNK13ap_fixed_baseILi64ELi48ELb0EL9ap_q_mode5EL9ap_o_mode3ELi0EE9to_uint64Ev", metadata !200, i32 1110, metadata !1000, i1 false, i1 false, i32 0, i32 0, null, i32 256, i1 false, null, null, i32 0, metadata !132, i32 1110} ; [ DW_TAG_subprogram ]
!1000 = metadata !{i32 786453, i32 0, metadata !"", i32 0, i32 0, i64 0, i64 0, i64 0, i32 0, null, metadata !1001, i32 0, i32 0} ; [ DW_TAG_subroutine_type ]
!1001 = metadata !{metadata !205, metadata !938}
!1002 = metadata !{i32 786478, i32 0, metadata !870, metadata !"to_double", metadata !"to_double", metadata !"_ZNK13ap_fixed_baseILi64ELi48ELb0EL9ap_q_mode5EL9ap_o_mode3ELi0EE9to_doubleEv", metadata !200, i32 1113, metadata !1003, i1 false, i1 false, i32 0, i32 0, null, i32 256, i1 false, null, null, i32 0, metadata !132, i32 1113} ; [ DW_TAG_subprogram ]
!1003 = metadata !{i32 786453, i32 0, metadata !"", i32 0, i32 0, i64 0, i64 0, i64 0, i32 0, null, metadata !1004, i32 0, i32 0} ; [ DW_TAG_subroutine_type ]
!1004 = metadata !{metadata !219, metadata !938}
!1005 = metadata !{i32 786478, i32 0, metadata !870, metadata !"to_float", metadata !"to_float", metadata !"_ZNK13ap_fixed_baseILi64ELi48ELb0EL9ap_q_mode5EL9ap_o_mode3ELi0EE8to_floatEv", metadata !200, i32 1166, metadata !1006, i1 false, i1 false, i32 0, i32 0, null, i32 256, i1 false, null, null, i32 0, metadata !132, i32 1166} ; [ DW_TAG_subprogram ]
!1006 = metadata !{i32 786453, i32 0, metadata !"", i32 0, i32 0, i64 0, i64 0, i64 0, i32 0, null, metadata !1007, i32 0, i32 0} ; [ DW_TAG_subroutine_type ]
!1007 = metadata !{metadata !215, metadata !938}
!1008 = metadata !{i32 786478, i32 0, metadata !870, metadata !"to_half", metadata !"to_half", metadata !"_ZNK13ap_fixed_baseILi64ELi48ELb0EL9ap_q_mode5EL9ap_o_mode3ELi0EE7to_halfEv", metadata !200, i32 1204, metadata !1009, i1 false, i1 false, i32 0, i32 0, null, i32 256, i1 false, null, null, i32 0, metadata !132, i32 1204} ; [ DW_TAG_subprogram ]
!1009 = metadata !{i32 786453, i32 0, metadata !"", i32 0, i32 0, i64 0, i64 0, i64 0, i32 0, null, metadata !1010, i32 0, i32 0} ; [ DW_TAG_subroutine_type ]
!1010 = metadata !{metadata !210, metadata !938}
!1011 = metadata !{i32 786478, i32 0, metadata !870, metadata !"operator double", metadata !"operator double", metadata !"_ZNK13ap_fixed_baseILi64ELi48ELb0EL9ap_q_mode5EL9ap_o_mode3ELi0EEcvdEv", metadata !200, i32 1254, metadata !1003, i1 false, i1 false, i32 0, i32 0, null, i32 256, i1 false, null, null, i32 0, metadata !132, i32 1254} ; [ DW_TAG_subprogram ]
!1012 = metadata !{i32 786478, i32 0, metadata !870, metadata !"operator float", metadata !"operator float", metadata !"_ZNK13ap_fixed_baseILi64ELi48ELb0EL9ap_q_mode5EL9ap_o_mode3ELi0EEcvfEv", metadata !200, i32 1258, metadata !1006, i1 false, i1 false, i32 0, i32 0, null, i32 256, i1 false, null, null, i32 0, metadata !132, i32 1258} ; [ DW_TAG_subprogram ]
!1013 = metadata !{i32 786478, i32 0, metadata !870, metadata !"operator half", metadata !"operator half", metadata !"_ZNK13ap_fixed_baseILi64ELi48ELb0EL9ap_q_mode5EL9ap_o_mode3ELi0EEcvDhEv", metadata !200, i32 1261, metadata !1009, i1 false, i1 false, i32 0, i32 0, null, i32 256, i1 false, null, null, i32 0, metadata !132, i32 1261} ; [ DW_TAG_subprogram ]
!1014 = metadata !{i32 786478, i32 0, metadata !870, metadata !"operator _Bool", metadata !"operator _Bool", metadata !"_ZNK13ap_fixed_baseILi64ELi48ELb0EL9ap_q_mode5EL9ap_o_mode3ELi0EEcvbEv", metadata !200, i32 1265, metadata !1015, i1 false, i1 false, i32 0, i32 0, null, i32 256, i1 false, null, null, i32 0, metadata !132, i32 1265} ; [ DW_TAG_subprogram ]
!1015 = metadata !{i32 786453, i32 0, metadata !"", i32 0, i32 0, i64 0, i64 0, i64 0, i32 0, null, metadata !1016, i32 0, i32 0} ; [ DW_TAG_subroutine_type ]
!1016 = metadata !{metadata !143, metadata !938}
!1017 = metadata !{i32 786478, i32 0, metadata !870, metadata !"operator char", metadata !"operator char", metadata !"_ZNK13ap_fixed_baseILi64ELi48ELb0EL9ap_q_mode5EL9ap_o_mode3ELi0EEcvcEv", metadata !200, i32 1269, metadata !1018, i1 false, i1 false, i32 0, i32 0, null, i32 256, i1 false, null, null, i32 0, metadata !132, i32 1269} ; [ DW_TAG_subprogram ]
!1018 = metadata !{i32 786453, i32 0, metadata !"", i32 0, i32 0, i64 0, i64 0, i64 0, i32 0, null, metadata !1019, i32 0, i32 0} ; [ DW_TAG_subroutine_type ]
!1019 = metadata !{metadata !225, metadata !938}
!1020 = metadata !{i32 786478, i32 0, metadata !870, metadata !"operator signed char", metadata !"operator signed char", metadata !"_ZNK13ap_fixed_baseILi64ELi48ELb0EL9ap_q_mode5EL9ap_o_mode3ELi0EEcvaEv", metadata !200, i32 1273, metadata !1021, i1 false, i1 false, i32 0, i32 0, null, i32 256, i1 false, null, null, i32 0, metadata !132, i32 1273} ; [ DW_TAG_subprogram ]
!1021 = metadata !{i32 786453, i32 0, metadata !"", i32 0, i32 0, i64 0, i64 0, i64 0, i32 0, null, metadata !1022, i32 0, i32 0} ; [ DW_TAG_subroutine_type ]
!1022 = metadata !{metadata !168, metadata !938}
!1023 = metadata !{i32 786478, i32 0, metadata !870, metadata !"operator unsigned char", metadata !"operator unsigned char", metadata !"_ZNK13ap_fixed_baseILi64ELi48ELb0EL9ap_q_mode5EL9ap_o_mode3ELi0EEcvhEv", metadata !200, i32 1277, metadata !1024, i1 false, i1 false, i32 0, i32 0, null, i32 256, i1 false, null, null, i32 0, metadata !132, i32 1277} ; [ DW_TAG_subprogram ]
!1024 = metadata !{i32 786453, i32 0, metadata !"", i32 0, i32 0, i64 0, i64 0, i64 0, i32 0, null, metadata !1025, i32 0, i32 0} ; [ DW_TAG_subroutine_type ]
!1025 = metadata !{metadata !172, metadata !938}
!1026 = metadata !{i32 786478, i32 0, metadata !870, metadata !"operator short", metadata !"operator short", metadata !"_ZNK13ap_fixed_baseILi64ELi48ELb0EL9ap_q_mode5EL9ap_o_mode3ELi0EEcvsEv", metadata !200, i32 1281, metadata !1027, i1 false, i1 false, i32 0, i32 0, null, i32 256, i1 false, null, null, i32 0, metadata !132, i32 1281} ; [ DW_TAG_subprogram ]
!1027 = metadata !{i32 786453, i32 0, metadata !"", i32 0, i32 0, i64 0, i64 0, i64 0, i32 0, null, metadata !1028, i32 0, i32 0} ; [ DW_TAG_subroutine_type ]
!1028 = metadata !{metadata !176, metadata !938}
!1029 = metadata !{i32 786478, i32 0, metadata !870, metadata !"operator unsigned short", metadata !"operator unsigned short", metadata !"_ZNK13ap_fixed_baseILi64ELi48ELb0EL9ap_q_mode5EL9ap_o_mode3ELi0EEcvtEv", metadata !200, i32 1285, metadata !1030, i1 false, i1 false, i32 0, i32 0, null, i32 256, i1 false, null, null, i32 0, metadata !132, i32 1285} ; [ DW_TAG_subprogram ]
!1030 = metadata !{i32 786453, i32 0, metadata !"", i32 0, i32 0, i64 0, i64 0, i64 0, i32 0, null, metadata !1031, i32 0, i32 0} ; [ DW_TAG_subroutine_type ]
!1031 = metadata !{metadata !180, metadata !938}
!1032 = metadata !{i32 786478, i32 0, metadata !870, metadata !"operator int", metadata !"operator int", metadata !"_ZNK13ap_fixed_baseILi64ELi48ELb0EL9ap_q_mode5EL9ap_o_mode3ELi0EEcviEv", metadata !200, i32 1290, metadata !991, i1 false, i1 false, i32 0, i32 0, null, i32 256, i1 false, null, null, i32 0, metadata !132, i32 1290} ; [ DW_TAG_subprogram ]
!1033 = metadata !{i32 786478, i32 0, metadata !870, metadata !"operator unsigned int", metadata !"operator unsigned int", metadata !"_ZNK13ap_fixed_baseILi64ELi48ELb0EL9ap_q_mode5EL9ap_o_mode3ELi0EEcvjEv", metadata !200, i32 1294, metadata !994, i1 false, i1 false, i32 0, i32 0, null, i32 256, i1 false, null, null, i32 0, metadata !132, i32 1294} ; [ DW_TAG_subprogram ]
!1034 = metadata !{i32 786478, i32 0, metadata !870, metadata !"operator long", metadata !"operator long", metadata !"_ZNK13ap_fixed_baseILi64ELi48ELb0EL9ap_q_mode5EL9ap_o_mode3ELi0EEcvlEv", metadata !200, i32 1299, metadata !1035, i1 false, i1 false, i32 0, i32 0, null, i32 256, i1 false, null, null, i32 0, metadata !132, i32 1299} ; [ DW_TAG_subprogram ]
!1035 = metadata !{i32 786453, i32 0, metadata !"", i32 0, i32 0, i64 0, i64 0, i64 0, i32 0, null, metadata !1036, i32 0, i32 0} ; [ DW_TAG_subroutine_type ]
!1036 = metadata !{metadata !191, metadata !938}
!1037 = metadata !{i32 786478, i32 0, metadata !870, metadata !"operator unsigned long", metadata !"operator unsigned long", metadata !"_ZNK13ap_fixed_baseILi64ELi48ELb0EL9ap_q_mode5EL9ap_o_mode3ELi0EEcvmEv", metadata !200, i32 1303, metadata !1038, i1 false, i1 false, i32 0, i32 0, null, i32 256, i1 false, null, null, i32 0, metadata !132, i32 1303} ; [ DW_TAG_subprogram ]
!1038 = metadata !{i32 786453, i32 0, metadata !"", i32 0, i32 0, i64 0, i64 0, i64 0, i32 0, null, metadata !1039, i32 0, i32 0} ; [ DW_TAG_subroutine_type ]
!1039 = metadata !{metadata !195, metadata !938}
!1040 = metadata !{i32 786478, i32 0, metadata !870, metadata !"operator unsigned long long", metadata !"operator unsigned long long", metadata !"_ZNK13ap_fixed_baseILi64ELi48ELb0EL9ap_q_mode5EL9ap_o_mode3ELi0EEcvyEv", metadata !200, i32 1316, metadata !1041, i1 false, i1 false, i32 0, i32 0, null, i32 256, i1 false, null, null, i32 0, metadata !132, i32 1316} ; [ DW_TAG_subprogram ]
!1041 = metadata !{i32 786453, i32 0, metadata !"", i32 0, i32 0, i64 0, i64 0, i64 0, i32 0, null, metadata !1042, i32 0, i32 0} ; [ DW_TAG_subroutine_type ]
!1042 = metadata !{metadata !206, metadata !938}
!1043 = metadata !{i32 786478, i32 0, metadata !870, metadata !"operator long long", metadata !"operator long long", metadata !"_ZNK13ap_fixed_baseILi64ELi48ELb0EL9ap_q_mode5EL9ap_o_mode3ELi0EEcvxEv", metadata !200, i32 1320, metadata !1044, i1 false, i1 false, i32 0, i32 0, null, i32 256, i1 false, null, null, i32 0, metadata !132, i32 1320} ; [ DW_TAG_subprogram ]
!1044 = metadata !{i32 786453, i32 0, metadata !"", i32 0, i32 0, i64 0, i64 0, i64 0, i32 0, null, metadata !1045, i32 0, i32 0} ; [ DW_TAG_subroutine_type ]
!1045 = metadata !{metadata !201, metadata !938}
!1046 = metadata !{i32 786478, i32 0, metadata !870, metadata !"length", metadata !"length", metadata !"_ZNK13ap_fixed_baseILi64ELi48ELb0EL9ap_q_mode5EL9ap_o_mode3ELi0EE6lengthEv", metadata !200, i32 1324, metadata !991, i1 false, i1 false, i32 0, i32 0, null, i32 256, i1 false, null, null, i32 0, metadata !132, i32 1324} ; [ DW_TAG_subprogram ]
!1047 = metadata !{i32 786478, i32 0, metadata !870, metadata !"countLeadingZeros", metadata !"countLeadingZeros", metadata !"_ZN13ap_fixed_baseILi64ELi48ELb0EL9ap_q_mode5EL9ap_o_mode3ELi0EE17countLeadingZerosEv", metadata !200, i32 1328, metadata !1048, i1 false, i1 false, i32 0, i32 0, null, i32 256, i1 false, null, null, i32 0, metadata !132, i32 1328} ; [ DW_TAG_subprogram ]
!1048 = metadata !{i32 786453, i32 0, metadata !"", i32 0, i32 0, i64 0, i64 0, i64 0, i32 0, null, metadata !1049, i32 0, i32 0} ; [ DW_TAG_subroutine_type ]
!1049 = metadata !{metadata !141, metadata !886}
!1050 = metadata !{i32 786478, i32 0, metadata !870, metadata !"operator++", metadata !"operator++", metadata !"_ZN13ap_fixed_baseILi64ELi48ELb0EL9ap_q_mode5EL9ap_o_mode3ELi0EEppEv", metadata !200, i32 1429, metadata !1051, i1 false, i1 false, i32 0, i32 0, null, i32 256, i1 false, null, null, i32 0, metadata !132, i32 1429} ; [ DW_TAG_subprogram ]
!1051 = metadata !{i32 786453, i32 0, metadata !"", i32 0, i32 0, i64 0, i64 0, i64 0, i32 0, null, metadata !1052, i32 0, i32 0} ; [ DW_TAG_subroutine_type ]
!1052 = metadata !{metadata !966, metadata !886}
!1053 = metadata !{i32 786478, i32 0, metadata !870, metadata !"operator--", metadata !"operator--", metadata !"_ZN13ap_fixed_baseILi64ELi48ELb0EL9ap_q_mode5EL9ap_o_mode3ELi0EEmmEv", metadata !200, i32 1433, metadata !1051, i1 false, i1 false, i32 0, i32 0, null, i32 256, i1 false, null, null, i32 0, metadata !132, i32 1433} ; [ DW_TAG_subprogram ]
!1054 = metadata !{i32 786478, i32 0, metadata !870, metadata !"operator++", metadata !"operator++", metadata !"_ZN13ap_fixed_baseILi64ELi48ELb0EL9ap_q_mode5EL9ap_o_mode3ELi0EEppEi", metadata !200, i32 1441, metadata !1055, i1 false, i1 false, i32 0, i32 0, null, i32 256, i1 false, null, null, i32 0, metadata !132, i32 1441} ; [ DW_TAG_subprogram ]
!1055 = metadata !{i32 786453, i32 0, metadata !"", i32 0, i32 0, i64 0, i64 0, i64 0, i32 0, null, metadata !1056, i32 0, i32 0} ; [ DW_TAG_subroutine_type ]
!1056 = metadata !{metadata !869, metadata !886, metadata !141}
!1057 = metadata !{i32 786478, i32 0, metadata !870, metadata !"operator--", metadata !"operator--", metadata !"_ZN13ap_fixed_baseILi64ELi48ELb0EL9ap_q_mode5EL9ap_o_mode3ELi0EEmmEi", metadata !200, i32 1447, metadata !1055, i1 false, i1 false, i32 0, i32 0, null, i32 256, i1 false, null, null, i32 0, metadata !132, i32 1447} ; [ DW_TAG_subprogram ]
!1058 = metadata !{i32 786478, i32 0, metadata !870, metadata !"operator+", metadata !"operator+", metadata !"_ZN13ap_fixed_baseILi64ELi48ELb0EL9ap_q_mode5EL9ap_o_mode3ELi0EEpsEv", metadata !200, i32 1455, metadata !1059, i1 false, i1 false, i32 0, i32 0, null, i32 256, i1 false, null, null, i32 0, metadata !132, i32 1455} ; [ DW_TAG_subprogram ]
!1059 = metadata !{i32 786453, i32 0, metadata !"", i32 0, i32 0, i64 0, i64 0, i64 0, i32 0, null, metadata !1060, i32 0, i32 0} ; [ DW_TAG_subroutine_type ]
!1060 = metadata !{metadata !870, metadata !886}
!1061 = metadata !{i32 786478, i32 0, metadata !870, metadata !"operator-", metadata !"operator-", metadata !"_ZNK13ap_fixed_baseILi64ELi48ELb0EL9ap_q_mode5EL9ap_o_mode3ELi0EEngEv", metadata !200, i32 1459, metadata !1062, i1 false, i1 false, i32 0, i32 0, null, i32 256, i1 false, null, null, i32 0, metadata !132, i32 1459} ; [ DW_TAG_subprogram ]
!1062 = metadata !{i32 786453, i32 0, metadata !"", i32 0, i32 0, i64 0, i64 0, i64 0, i32 0, null, metadata !1063, i32 0, i32 0} ; [ DW_TAG_subroutine_type ]
!1063 = metadata !{metadata !1064, metadata !938}
!1064 = metadata !{i32 786434, null, metadata !"ap_fixed_base<65, 49, true, 5, 3, 0>", metadata !200, i32 512, i32 0, i32 0, i32 0, i32 4, null, null, i32 0} ; [ DW_TAG_class_type ]
!1065 = metadata !{i32 786478, i32 0, metadata !870, metadata !"getNeg", metadata !"getNeg", metadata !"_ZN13ap_fixed_baseILi64ELi48ELb0EL9ap_q_mode5EL9ap_o_mode3ELi0EE6getNegEv", metadata !200, i32 1465, metadata !1066, i1 false, i1 false, i32 0, i32 0, null, i32 256, i1 false, null, null, i32 0, metadata !132, i32 1465} ; [ DW_TAG_subprogram ]
!1066 = metadata !{i32 786453, i32 0, metadata !"", i32 0, i32 0, i64 0, i64 0, i64 0, i32 0, null, metadata !1067, i32 0, i32 0} ; [ DW_TAG_subroutine_type ]
!1067 = metadata !{metadata !1068, metadata !886}
!1068 = metadata !{i32 786434, null, metadata !"ap_fixed_base<64, 48, true, 5, 3, 0>", metadata !200, i32 512, i32 0, i32 0, i32 0, i32 4, null, null, i32 0} ; [ DW_TAG_class_type ]
!1069 = metadata !{i32 786478, i32 0, metadata !870, metadata !"operator!", metadata !"operator!", metadata !"_ZNK13ap_fixed_baseILi64ELi48ELb0EL9ap_q_mode5EL9ap_o_mode3ELi0EEntEv", metadata !200, i32 1473, metadata !1015, i1 false, i1 false, i32 0, i32 0, null, i32 256, i1 false, null, null, i32 0, metadata !132, i32 1473} ; [ DW_TAG_subprogram ]
!1070 = metadata !{i32 786478, i32 0, metadata !870, metadata !"operator~", metadata !"operator~", metadata !"_ZNK13ap_fixed_baseILi64ELi48ELb0EL9ap_q_mode5EL9ap_o_mode3ELi0EEcoEv", metadata !200, i32 1479, metadata !1071, i1 false, i1 false, i32 0, i32 0, null, i32 256, i1 false, null, null, i32 0, metadata !132, i32 1479} ; [ DW_TAG_subprogram ]
!1071 = metadata !{i32 786453, i32 0, metadata !"", i32 0, i32 0, i64 0, i64 0, i64 0, i32 0, null, metadata !1072, i32 0, i32 0} ; [ DW_TAG_subroutine_type ]
!1072 = metadata !{metadata !870, metadata !938}
!1073 = metadata !{i32 786478, i32 0, metadata !870, metadata !"operator<<", metadata !"operator<<", metadata !"_ZNK13ap_fixed_baseILi64ELi48ELb0EL9ap_q_mode5EL9ap_o_mode3ELi0EElsEi", metadata !200, i32 1502, metadata !1074, i1 false, i1 false, i32 0, i32 0, null, i32 256, i1 false, null, null, i32 0, metadata !132, i32 1502} ; [ DW_TAG_subprogram ]
!1074 = metadata !{i32 786453, i32 0, metadata !"", i32 0, i32 0, i64 0, i64 0, i64 0, i32 0, null, metadata !1075, i32 0, i32 0} ; [ DW_TAG_subroutine_type ]
!1075 = metadata !{metadata !870, metadata !938, metadata !141}
!1076 = metadata !{i32 786478, i32 0, metadata !870, metadata !"operator<<", metadata !"operator<<", metadata !"_ZNK13ap_fixed_baseILi64ELi48ELb0EL9ap_q_mode5EL9ap_o_mode3ELi0EElsEj", metadata !200, i32 1561, metadata !1077, i1 false, i1 false, i32 0, i32 0, null, i32 256, i1 false, null, null, i32 0, metadata !132, i32 1561} ; [ DW_TAG_subprogram ]
!1077 = metadata !{i32 786453, i32 0, metadata !"", i32 0, i32 0, i64 0, i64 0, i64 0, i32 0, null, metadata !1078, i32 0, i32 0} ; [ DW_TAG_subroutine_type ]
!1078 = metadata !{metadata !870, metadata !938, metadata !187}
!1079 = metadata !{i32 786478, i32 0, metadata !870, metadata !"operator>>", metadata !"operator>>", metadata !"_ZNK13ap_fixed_baseILi64ELi48ELb0EL9ap_q_mode5EL9ap_o_mode3ELi0EErsEi", metadata !200, i32 1605, metadata !1074, i1 false, i1 false, i32 0, i32 0, null, i32 256, i1 false, null, null, i32 0, metadata !132, i32 1605} ; [ DW_TAG_subprogram ]
!1080 = metadata !{i32 786478, i32 0, metadata !870, metadata !"operator>>", metadata !"operator>>", metadata !"_ZNK13ap_fixed_baseILi64ELi48ELb0EL9ap_q_mode5EL9ap_o_mode3ELi0EErsEj", metadata !200, i32 1663, metadata !1077, i1 false, i1 false, i32 0, i32 0, null, i32 256, i1 false, null, null, i32 0, metadata !132, i32 1663} ; [ DW_TAG_subprogram ]
!1081 = metadata !{i32 786478, i32 0, metadata !870, metadata !"operator<<=", metadata !"operator<<=", metadata !"_ZN13ap_fixed_baseILi64ELi48ELb0EL9ap_q_mode5EL9ap_o_mode3ELi0EElSEi", metadata !200, i32 1715, metadata !1082, i1 false, i1 false, i32 0, i32 0, null, i32 256, i1 false, null, null, i32 0, metadata !132, i32 1715} ; [ DW_TAG_subprogram ]
!1082 = metadata !{i32 786453, i32 0, metadata !"", i32 0, i32 0, i64 0, i64 0, i64 0, i32 0, null, metadata !1083, i32 0, i32 0} ; [ DW_TAG_subroutine_type ]
!1083 = metadata !{metadata !966, metadata !886, metadata !141}
!1084 = metadata !{i32 786478, i32 0, metadata !870, metadata !"operator<<=", metadata !"operator<<=", metadata !"_ZN13ap_fixed_baseILi64ELi48ELb0EL9ap_q_mode5EL9ap_o_mode3ELi0EElSEj", metadata !200, i32 1778, metadata !1085, i1 false, i1 false, i32 0, i32 0, null, i32 256, i1 false, null, null, i32 0, metadata !132, i32 1778} ; [ DW_TAG_subprogram ]
!1085 = metadata !{i32 786453, i32 0, metadata !"", i32 0, i32 0, i64 0, i64 0, i64 0, i32 0, null, metadata !1086, i32 0, i32 0} ; [ DW_TAG_subroutine_type ]
!1086 = metadata !{metadata !966, metadata !886, metadata !187}
!1087 = metadata !{i32 786478, i32 0, metadata !870, metadata !"operator>>=", metadata !"operator>>=", metadata !"_ZN13ap_fixed_baseILi64ELi48ELb0EL9ap_q_mode5EL9ap_o_mode3ELi0EErSEi", metadata !200, i32 1825, metadata !1082, i1 false, i1 false, i32 0, i32 0, null, i32 256, i1 false, null, null, i32 0, metadata !132, i32 1825} ; [ DW_TAG_subprogram ]
!1088 = metadata !{i32 786478, i32 0, metadata !870, metadata !"operator>>=", metadata !"operator>>=", metadata !"_ZN13ap_fixed_baseILi64ELi48ELb0EL9ap_q_mode5EL9ap_o_mode3ELi0EErSEj", metadata !200, i32 1887, metadata !1085, i1 false, i1 false, i32 0, i32 0, null, i32 256, i1 false, null, null, i32 0, metadata !132, i32 1887} ; [ DW_TAG_subprogram ]
!1089 = metadata !{i32 786478, i32 0, metadata !870, metadata !"operator==", metadata !"operator==", metadata !"_ZNK13ap_fixed_baseILi64ELi48ELb0EL9ap_q_mode5EL9ap_o_mode3ELi0EEeqEd", metadata !200, i32 1965, metadata !1090, i1 false, i1 false, i32 0, i32 0, null, i32 256, i1 false, null, null, i32 0, metadata !132, i32 1965} ; [ DW_TAG_subprogram ]
!1090 = metadata !{i32 786453, i32 0, metadata !"", i32 0, i32 0, i64 0, i64 0, i64 0, i32 0, null, metadata !1091, i32 0, i32 0} ; [ DW_TAG_subroutine_type ]
!1091 = metadata !{metadata !143, metadata !938, metadata !219}
!1092 = metadata !{i32 786478, i32 0, metadata !870, metadata !"operator!=", metadata !"operator!=", metadata !"_ZNK13ap_fixed_baseILi64ELi48ELb0EL9ap_q_mode5EL9ap_o_mode3ELi0EEneEd", metadata !200, i32 1966, metadata !1090, i1 false, i1 false, i32 0, i32 0, null, i32 256, i1 false, null, null, i32 0, metadata !132, i32 1966} ; [ DW_TAG_subprogram ]
!1093 = metadata !{i32 786478, i32 0, metadata !870, metadata !"operator>", metadata !"operator>", metadata !"_ZNK13ap_fixed_baseILi64ELi48ELb0EL9ap_q_mode5EL9ap_o_mode3ELi0EEgtEd", metadata !200, i32 1967, metadata !1090, i1 false, i1 false, i32 0, i32 0, null, i32 256, i1 false, null, null, i32 0, metadata !132, i32 1967} ; [ DW_TAG_subprogram ]
!1094 = metadata !{i32 786478, i32 0, metadata !870, metadata !"operator>=", metadata !"operator>=", metadata !"_ZNK13ap_fixed_baseILi64ELi48ELb0EL9ap_q_mode5EL9ap_o_mode3ELi0EEgeEd", metadata !200, i32 1968, metadata !1090, i1 false, i1 false, i32 0, i32 0, null, i32 256, i1 false, null, null, i32 0, metadata !132, i32 1968} ; [ DW_TAG_subprogram ]
!1095 = metadata !{i32 786478, i32 0, metadata !870, metadata !"operator<", metadata !"operator<", metadata !"_ZNK13ap_fixed_baseILi64ELi48ELb0EL9ap_q_mode5EL9ap_o_mode3ELi0EEltEd", metadata !200, i32 1969, metadata !1090, i1 false, i1 false, i32 0, i32 0, null, i32 256, i1 false, null, null, i32 0, metadata !132, i32 1969} ; [ DW_TAG_subprogram ]
!1096 = metadata !{i32 786478, i32 0, metadata !870, metadata !"operator<=", metadata !"operator<=", metadata !"_ZNK13ap_fixed_baseILi64ELi48ELb0EL9ap_q_mode5EL9ap_o_mode3ELi0EEleEd", metadata !200, i32 1970, metadata !1090, i1 false, i1 false, i32 0, i32 0, null, i32 256, i1 false, null, null, i32 0, metadata !132, i32 1970} ; [ DW_TAG_subprogram ]
!1097 = metadata !{i32 786478, i32 0, metadata !870, metadata !"operator[]", metadata !"operator[]", metadata !"_ZN13ap_fixed_baseILi64ELi48ELb0EL9ap_q_mode5EL9ap_o_mode3ELi0EEixEj", metadata !200, i32 1973, metadata !1098, i1 false, i1 false, i32 0, i32 0, null, i32 256, i1 false, null, null, i32 0, metadata !132, i32 1973} ; [ DW_TAG_subprogram ]
!1098 = metadata !{i32 786453, i32 0, metadata !"", i32 0, i32 0, i64 0, i64 0, i64 0, i32 0, null, metadata !1099, i32 0, i32 0} ; [ DW_TAG_subroutine_type ]
!1099 = metadata !{metadata !1100, metadata !886, metadata !187}
!1100 = metadata !{i32 786434, null, metadata !"af_bit_ref<64, 48, false, 5, 3, 0>", metadata !200, i32 93, i32 0, i32 0, i32 0, i32 4, null, null, i32 0} ; [ DW_TAG_class_type ]
!1101 = metadata !{i32 786478, i32 0, metadata !870, metadata !"operator[]", metadata !"operator[]", metadata !"_ZNK13ap_fixed_baseILi64ELi48ELb0EL9ap_q_mode5EL9ap_o_mode3ELi0EEixEj", metadata !200, i32 1985, metadata !1102, i1 false, i1 false, i32 0, i32 0, null, i32 256, i1 false, null, null, i32 0, metadata !132, i32 1985} ; [ DW_TAG_subprogram ]
!1102 = metadata !{i32 786453, i32 0, metadata !"", i32 0, i32 0, i64 0, i64 0, i64 0, i32 0, null, metadata !1103, i32 0, i32 0} ; [ DW_TAG_subroutine_type ]
!1103 = metadata !{metadata !143, metadata !938, metadata !187}
!1104 = metadata !{i32 786478, i32 0, metadata !870, metadata !"bit", metadata !"bit", metadata !"_ZN13ap_fixed_baseILi64ELi48ELb0EL9ap_q_mode5EL9ap_o_mode3ELi0EE3bitEj", metadata !200, i32 1990, metadata !1098, i1 false, i1 false, i32 0, i32 0, null, i32 256, i1 false, null, null, i32 0, metadata !132, i32 1990} ; [ DW_TAG_subprogram ]
!1105 = metadata !{i32 786478, i32 0, metadata !870, metadata !"bit", metadata !"bit", metadata !"_ZNK13ap_fixed_baseILi64ELi48ELb0EL9ap_q_mode5EL9ap_o_mode3ELi0EE3bitEj", metadata !200, i32 2003, metadata !1102, i1 false, i1 false, i32 0, i32 0, null, i32 256, i1 false, null, null, i32 0, metadata !132, i32 2003} ; [ DW_TAG_subprogram ]
!1106 = metadata !{i32 786478, i32 0, metadata !870, metadata !"get_bit", metadata !"get_bit", metadata !"_ZNK13ap_fixed_baseILi64ELi48ELb0EL9ap_q_mode5EL9ap_o_mode3ELi0EE7get_bitEi", metadata !200, i32 2015, metadata !1107, i1 false, i1 false, i32 0, i32 0, null, i32 256, i1 false, null, null, i32 0, metadata !132, i32 2015} ; [ DW_TAG_subprogram ]
!1107 = metadata !{i32 786453, i32 0, metadata !"", i32 0, i32 0, i64 0, i64 0, i64 0, i32 0, null, metadata !1108, i32 0, i32 0} ; [ DW_TAG_subroutine_type ]
!1108 = metadata !{metadata !143, metadata !938, metadata !141}
!1109 = metadata !{i32 786478, i32 0, metadata !870, metadata !"get_bit", metadata !"get_bit", metadata !"_ZN13ap_fixed_baseILi64ELi48ELb0EL9ap_q_mode5EL9ap_o_mode3ELi0EE7get_bitEi", metadata !200, i32 2021, metadata !1110, i1 false, i1 false, i32 0, i32 0, null, i32 256, i1 false, null, null, i32 0, metadata !132, i32 2021} ; [ DW_TAG_subprogram ]
!1110 = metadata !{i32 786453, i32 0, metadata !"", i32 0, i32 0, i64 0, i64 0, i64 0, i32 0, null, metadata !1111, i32 0, i32 0} ; [ DW_TAG_subroutine_type ]
!1111 = metadata !{metadata !1100, metadata !886, metadata !141}
!1112 = metadata !{i32 786478, i32 0, metadata !870, metadata !"range", metadata !"range", metadata !"_ZN13ap_fixed_baseILi64ELi48ELb0EL9ap_q_mode5EL9ap_o_mode3ELi0EE5rangeEii", metadata !200, i32 2036, metadata !1113, i1 false, i1 false, i32 0, i32 0, null, i32 256, i1 false, null, null, i32 0, metadata !132, i32 2036} ; [ DW_TAG_subprogram ]
!1113 = metadata !{i32 786453, i32 0, metadata !"", i32 0, i32 0, i64 0, i64 0, i64 0, i32 0, null, metadata !1114, i32 0, i32 0} ; [ DW_TAG_subroutine_type ]
!1114 = metadata !{metadata !1115, metadata !886, metadata !141, metadata !141}
!1115 = metadata !{i32 786434, null, metadata !"af_range_ref<64, 48, false, 5, 3, 0>", metadata !200, i32 238, i32 0, i32 0, i32 0, i32 4, null, null, i32 0} ; [ DW_TAG_class_type ]
!1116 = metadata !{i32 786478, i32 0, metadata !870, metadata !"operator()", metadata !"operator()", metadata !"_ZN13ap_fixed_baseILi64ELi48ELb0EL9ap_q_mode5EL9ap_o_mode3ELi0EEclEii", metadata !200, i32 2042, metadata !1113, i1 false, i1 false, i32 0, i32 0, null, i32 256, i1 false, null, null, i32 0, metadata !132, i32 2042} ; [ DW_TAG_subprogram ]
!1117 = metadata !{i32 786478, i32 0, metadata !870, metadata !"range", metadata !"range", metadata !"_ZNK13ap_fixed_baseILi64ELi48ELb0EL9ap_q_mode5EL9ap_o_mode3ELi0EE5rangeEii", metadata !200, i32 2048, metadata !1118, i1 false, i1 false, i32 0, i32 0, null, i32 256, i1 false, null, null, i32 0, metadata !132, i32 2048} ; [ DW_TAG_subprogram ]
!1118 = metadata !{i32 786453, i32 0, metadata !"", i32 0, i32 0, i64 0, i64 0, i64 0, i32 0, null, metadata !1119, i32 0, i32 0} ; [ DW_TAG_subroutine_type ]
!1119 = metadata !{metadata !1115, metadata !938, metadata !141, metadata !141}
!1120 = metadata !{i32 786478, i32 0, metadata !870, metadata !"operator()", metadata !"operator()", metadata !"_ZNK13ap_fixed_baseILi64ELi48ELb0EL9ap_q_mode5EL9ap_o_mode3ELi0EEclEii", metadata !200, i32 2097, metadata !1118, i1 false, i1 false, i32 0, i32 0, null, i32 256, i1 false, null, null, i32 0, metadata !132, i32 2097} ; [ DW_TAG_subprogram ]
!1121 = metadata !{i32 786478, i32 0, metadata !870, metadata !"range", metadata !"range", metadata !"_ZN13ap_fixed_baseILi64ELi48ELb0EL9ap_q_mode5EL9ap_o_mode3ELi0EE5rangeEv", metadata !200, i32 2102, metadata !1122, i1 false, i1 false, i32 0, i32 0, null, i32 256, i1 false, null, null, i32 0, metadata !132, i32 2102} ; [ DW_TAG_subprogram ]
!1122 = metadata !{i32 786453, i32 0, metadata !"", i32 0, i32 0, i64 0, i64 0, i64 0, i32 0, null, metadata !1123, i32 0, i32 0} ; [ DW_TAG_subroutine_type ]
!1123 = metadata !{metadata !1115, metadata !886}
!1124 = metadata !{i32 786478, i32 0, metadata !870, metadata !"range", metadata !"range", metadata !"_ZNK13ap_fixed_baseILi64ELi48ELb0EL9ap_q_mode5EL9ap_o_mode3ELi0EE5rangeEv", metadata !200, i32 2107, metadata !1125, i1 false, i1 false, i32 0, i32 0, null, i32 256, i1 false, null, null, i32 0, metadata !132, i32 2107} ; [ DW_TAG_subprogram ]
!1125 = metadata !{i32 786453, i32 0, metadata !"", i32 0, i32 0, i64 0, i64 0, i64 0, i32 0, null, metadata !1126, i32 0, i32 0} ; [ DW_TAG_subroutine_type ]
!1126 = metadata !{metadata !1115, metadata !938}
!1127 = metadata !{i32 786478, i32 0, metadata !870, metadata !"is_zero", metadata !"is_zero", metadata !"_ZNK13ap_fixed_baseILi64ELi48ELb0EL9ap_q_mode5EL9ap_o_mode3ELi0EE7is_zeroEv", metadata !200, i32 2111, metadata !1015, i1 false, i1 false, i32 0, i32 0, null, i32 256, i1 false, null, null, i32 0, metadata !132, i32 2111} ; [ DW_TAG_subprogram ]
!1128 = metadata !{i32 786478, i32 0, metadata !870, metadata !"is_neg", metadata !"is_neg", metadata !"_ZNK13ap_fixed_baseILi64ELi48ELb0EL9ap_q_mode5EL9ap_o_mode3ELi0EE6is_negEv", metadata !200, i32 2115, metadata !1015, i1 false, i1 false, i32 0, i32 0, null, i32 256, i1 false, null, null, i32 0, metadata !132, i32 2115} ; [ DW_TAG_subprogram ]
!1129 = metadata !{i32 786478, i32 0, metadata !870, metadata !"wl", metadata !"wl", metadata !"_ZNK13ap_fixed_baseILi64ELi48ELb0EL9ap_q_mode5EL9ap_o_mode3ELi0EE2wlEv", metadata !200, i32 2121, metadata !991, i1 false, i1 false, i32 0, i32 0, null, i32 256, i1 false, null, null, i32 0, metadata !132, i32 2121} ; [ DW_TAG_subprogram ]
!1130 = metadata !{i32 786478, i32 0, metadata !870, metadata !"iwl", metadata !"iwl", metadata !"_ZNK13ap_fixed_baseILi64ELi48ELb0EL9ap_q_mode5EL9ap_o_mode3ELi0EE3iwlEv", metadata !200, i32 2125, metadata !991, i1 false, i1 false, i32 0, i32 0, null, i32 256, i1 false, null, null, i32 0, metadata !132, i32 2125} ; [ DW_TAG_subprogram ]
!1131 = metadata !{i32 786478, i32 0, metadata !870, metadata !"q_mode", metadata !"q_mode", metadata !"_ZNK13ap_fixed_baseILi64ELi48ELb0EL9ap_q_mode5EL9ap_o_mode3ELi0EE6q_modeEv", metadata !200, i32 2129, metadata !1132, i1 false, i1 false, i32 0, i32 0, null, i32 256, i1 false, null, null, i32 0, metadata !132, i32 2129} ; [ DW_TAG_subprogram ]
!1132 = metadata !{i32 786453, i32 0, metadata !"", i32 0, i32 0, i64 0, i64 0, i64 0, i32 0, null, metadata !1133, i32 0, i32 0} ; [ DW_TAG_subroutine_type ]
!1133 = metadata !{metadata !586, metadata !938}
!1134 = metadata !{i32 786478, i32 0, metadata !870, metadata !"o_mode", metadata !"o_mode", metadata !"_ZNK13ap_fixed_baseILi64ELi48ELb0EL9ap_q_mode5EL9ap_o_mode3ELi0EE6o_modeEv", metadata !200, i32 2133, metadata !1135, i1 false, i1 false, i32 0, i32 0, null, i32 256, i1 false, null, null, i32 0, metadata !132, i32 2133} ; [ DW_TAG_subprogram ]
!1135 = metadata !{i32 786453, i32 0, metadata !"", i32 0, i32 0, i64 0, i64 0, i64 0, i32 0, null, metadata !1136, i32 0, i32 0} ; [ DW_TAG_subroutine_type ]
!1136 = metadata !{metadata !596, metadata !938}
!1137 = metadata !{i32 786478, i32 0, metadata !870, metadata !"n_bits", metadata !"n_bits", metadata !"_ZNK13ap_fixed_baseILi64ELi48ELb0EL9ap_q_mode5EL9ap_o_mode3ELi0EE6n_bitsEv", metadata !200, i32 2137, metadata !991, i1 false, i1 false, i32 0, i32 0, null, i32 256, i1 false, null, null, i32 0, metadata !132, i32 2137} ; [ DW_TAG_subprogram ]
!1138 = metadata !{i32 786478, i32 0, metadata !870, metadata !"to_string", metadata !"to_string", metadata !"_ZN13ap_fixed_baseILi64ELi48ELb0EL9ap_q_mode5EL9ap_o_mode3ELi0EE9to_stringE8BaseMode", metadata !200, i32 2141, metadata !1139, i1 false, i1 false, i32 0, i32 0, null, i32 256, i1 false, null, null, i32 0, metadata !132, i32 2141} ; [ DW_TAG_subprogram ]
!1139 = metadata !{i32 786453, i32 0, metadata !"", i32 0, i32 0, i64 0, i64 0, i64 0, i32 0, null, metadata !1140, i32 0, i32 0} ; [ DW_TAG_subroutine_type ]
!1140 = metadata !{metadata !436, metadata !886, metadata !437}
!1141 = metadata !{i32 786478, i32 0, metadata !870, metadata !"to_string", metadata !"to_string", metadata !"_ZN13ap_fixed_baseILi64ELi48ELb0EL9ap_q_mode5EL9ap_o_mode3ELi0EE9to_stringEa", metadata !200, i32 2145, metadata !1142, i1 false, i1 false, i32 0, i32 0, null, i32 256, i1 false, null, null, i32 0, metadata !132, i32 2145} ; [ DW_TAG_subprogram ]
!1142 = metadata !{i32 786453, i32 0, metadata !"", i32 0, i32 0, i64 0, i64 0, i64 0, i32 0, null, metadata !1143, i32 0, i32 0} ; [ DW_TAG_subroutine_type ]
!1143 = metadata !{metadata !436, metadata !886, metadata !168}
!1144 = metadata !{i32 786478, i32 0, metadata !870, metadata !"~ap_fixed_base", metadata !"~ap_fixed_base", metadata !"", metadata !200, i32 512, metadata !891, i1 false, i1 false, i32 0, i32 0, null, i32 320, i1 false, null, null, i32 0, metadata !132, i32 512} ; [ DW_TAG_subprogram ]
!1145 = metadata !{metadata !1146, metadata !1147, metadata !142, metadata !858, metadata !859, metadata !860}
!1146 = metadata !{i32 786480, null, metadata !"_AP_W", metadata !141, i64 64, null, i32 0, i32 0} ; [ DW_TAG_template_value_parameter ]
!1147 = metadata !{i32 786480, null, metadata !"_AP_I", metadata !141, i64 48, null, i32 0, i32 0} ; [ DW_TAG_template_value_parameter ]
!1148 = metadata !{metadata !1149, metadata !1150, metadata !155, metadata !585, metadata !595, metadata !603}
!1149 = metadata !{i32 786480, null, metadata !"_AP_W2", metadata !141, i64 64, null, i32 0, i32 0} ; [ DW_TAG_template_value_parameter ]
!1150 = metadata !{i32 786480, null, metadata !"_AP_I2", metadata !141, i64 48, null, i32 0, i32 0} ; [ DW_TAG_template_value_parameter ]
!1151 = metadata !{i32 786478, i32 0, metadata !549, metadata !"ap_fixed", metadata !"ap_fixed", metadata !"", metadata !112, i32 367, metadata !1152, i1 false, i1 false, i32 0, i32 0, null, i32 256, i1 false, null, null, i32 0, metadata !132, i32 367} ; [ DW_TAG_subprogram ]
!1152 = metadata !{i32 786453, i32 0, metadata !"", i32 0, i32 0, i64 0, i64 0, i64 0, i32 0, null, metadata !1153, i32 0, i32 0} ; [ DW_TAG_subroutine_type ]
!1153 = metadata !{null, metadata !864, metadata !143}
!1154 = metadata !{i32 786478, i32 0, metadata !549, metadata !"ap_fixed", metadata !"ap_fixed", metadata !"", metadata !112, i32 368, metadata !1155, i1 false, i1 false, i32 0, i32 0, null, i32 256, i1 false, null, null, i32 0, metadata !132, i32 368} ; [ DW_TAG_subprogram ]
!1155 = metadata !{i32 786453, i32 0, metadata !"", i32 0, i32 0, i64 0, i64 0, i64 0, i32 0, null, metadata !1156, i32 0, i32 0} ; [ DW_TAG_subroutine_type ]
!1156 = metadata !{null, metadata !864, metadata !168}
!1157 = metadata !{i32 786478, i32 0, metadata !549, metadata !"ap_fixed", metadata !"ap_fixed", metadata !"", metadata !112, i32 369, metadata !1158, i1 false, i1 false, i32 0, i32 0, null, i32 256, i1 false, null, null, i32 0, metadata !132, i32 369} ; [ DW_TAG_subprogram ]
!1158 = metadata !{i32 786453, i32 0, metadata !"", i32 0, i32 0, i64 0, i64 0, i64 0, i32 0, null, metadata !1159, i32 0, i32 0} ; [ DW_TAG_subroutine_type ]
!1159 = metadata !{null, metadata !864, metadata !172}
!1160 = metadata !{i32 786478, i32 0, metadata !549, metadata !"ap_fixed", metadata !"ap_fixed", metadata !"", metadata !112, i32 370, metadata !1161, i1 false, i1 false, i32 0, i32 0, null, i32 256, i1 false, null, null, i32 0, metadata !132, i32 370} ; [ DW_TAG_subprogram ]
!1161 = metadata !{i32 786453, i32 0, metadata !"", i32 0, i32 0, i64 0, i64 0, i64 0, i32 0, null, metadata !1162, i32 0, i32 0} ; [ DW_TAG_subroutine_type ]
!1162 = metadata !{null, metadata !864, metadata !176}
!1163 = metadata !{i32 786478, i32 0, metadata !549, metadata !"ap_fixed", metadata !"ap_fixed", metadata !"", metadata !112, i32 371, metadata !1164, i1 false, i1 false, i32 0, i32 0, null, i32 256, i1 false, null, null, i32 0, metadata !132, i32 371} ; [ DW_TAG_subprogram ]
!1164 = metadata !{i32 786453, i32 0, metadata !"", i32 0, i32 0, i64 0, i64 0, i64 0, i32 0, null, metadata !1165, i32 0, i32 0} ; [ DW_TAG_subroutine_type ]
!1165 = metadata !{null, metadata !864, metadata !180}
!1166 = metadata !{i32 786478, i32 0, metadata !549, metadata !"ap_fixed", metadata !"ap_fixed", metadata !"", metadata !112, i32 372, metadata !1167, i1 false, i1 false, i32 0, i32 0, null, i32 256, i1 false, null, null, i32 0, metadata !132, i32 372} ; [ DW_TAG_subprogram ]
!1167 = metadata !{i32 786453, i32 0, metadata !"", i32 0, i32 0, i64 0, i64 0, i64 0, i32 0, null, metadata !1168, i32 0, i32 0} ; [ DW_TAG_subroutine_type ]
!1168 = metadata !{null, metadata !864, metadata !141}
!1169 = metadata !{i32 786478, i32 0, metadata !549, metadata !"ap_fixed", metadata !"ap_fixed", metadata !"", metadata !112, i32 373, metadata !1170, i1 false, i1 false, i32 0, i32 0, null, i32 256, i1 false, null, null, i32 0, metadata !132, i32 373} ; [ DW_TAG_subprogram ]
!1170 = metadata !{i32 786453, i32 0, metadata !"", i32 0, i32 0, i64 0, i64 0, i64 0, i32 0, null, metadata !1171, i32 0, i32 0} ; [ DW_TAG_subroutine_type ]
!1171 = metadata !{null, metadata !864, metadata !187}
!1172 = metadata !{i32 786478, i32 0, metadata !549, metadata !"ap_fixed", metadata !"ap_fixed", metadata !"", metadata !112, i32 374, metadata !1173, i1 false, i1 false, i32 0, i32 0, null, i32 256, i1 false, null, null, i32 0, metadata !132, i32 374} ; [ DW_TAG_subprogram ]
!1173 = metadata !{i32 786453, i32 0, metadata !"", i32 0, i32 0, i64 0, i64 0, i64 0, i32 0, null, metadata !1174, i32 0, i32 0} ; [ DW_TAG_subroutine_type ]
!1174 = metadata !{null, metadata !864, metadata !191}
!1175 = metadata !{i32 786478, i32 0, metadata !549, metadata !"ap_fixed", metadata !"ap_fixed", metadata !"", metadata !112, i32 375, metadata !1176, i1 false, i1 false, i32 0, i32 0, null, i32 256, i1 false, null, null, i32 0, metadata !132, i32 375} ; [ DW_TAG_subprogram ]
!1176 = metadata !{i32 786453, i32 0, metadata !"", i32 0, i32 0, i64 0, i64 0, i64 0, i32 0, null, metadata !1177, i32 0, i32 0} ; [ DW_TAG_subroutine_type ]
!1177 = metadata !{null, metadata !864, metadata !195}
!1178 = metadata !{i32 786478, i32 0, metadata !549, metadata !"ap_fixed", metadata !"ap_fixed", metadata !"", metadata !112, i32 376, metadata !1179, i1 false, i1 false, i32 0, i32 0, null, i32 256, i1 false, null, null, i32 0, metadata !132, i32 376} ; [ DW_TAG_subprogram ]
!1179 = metadata !{i32 786453, i32 0, metadata !"", i32 0, i32 0, i64 0, i64 0, i64 0, i32 0, null, metadata !1180, i32 0, i32 0} ; [ DW_TAG_subroutine_type ]
!1180 = metadata !{null, metadata !864, metadata !206}
!1181 = metadata !{i32 786478, i32 0, metadata !549, metadata !"ap_fixed", metadata !"ap_fixed", metadata !"", metadata !112, i32 377, metadata !1182, i1 false, i1 false, i32 0, i32 0, null, i32 256, i1 false, null, null, i32 0, metadata !132, i32 377} ; [ DW_TAG_subprogram ]
!1182 = metadata !{i32 786453, i32 0, metadata !"", i32 0, i32 0, i64 0, i64 0, i64 0, i32 0, null, metadata !1183, i32 0, i32 0} ; [ DW_TAG_subroutine_type ]
!1183 = metadata !{null, metadata !864, metadata !201}
!1184 = metadata !{i32 786478, i32 0, metadata !549, metadata !"ap_fixed", metadata !"ap_fixed", metadata !"", metadata !112, i32 378, metadata !1185, i1 false, i1 false, i32 0, i32 0, null, i32 256, i1 false, null, null, i32 0, metadata !132, i32 378} ; [ DW_TAG_subprogram ]
!1185 = metadata !{i32 786453, i32 0, metadata !"", i32 0, i32 0, i64 0, i64 0, i64 0, i32 0, null, metadata !1186, i32 0, i32 0} ; [ DW_TAG_subroutine_type ]
!1186 = metadata !{null, metadata !864, metadata !210}
!1187 = metadata !{i32 786478, i32 0, metadata !549, metadata !"ap_fixed", metadata !"ap_fixed", metadata !"", metadata !112, i32 379, metadata !1188, i1 false, i1 false, i32 0, i32 0, null, i32 256, i1 false, null, null, i32 0, metadata !132, i32 379} ; [ DW_TAG_subprogram ]
!1188 = metadata !{i32 786453, i32 0, metadata !"", i32 0, i32 0, i64 0, i64 0, i64 0, i32 0, null, metadata !1189, i32 0, i32 0} ; [ DW_TAG_subroutine_type ]
!1189 = metadata !{null, metadata !864, metadata !215}
!1190 = metadata !{i32 786478, i32 0, metadata !549, metadata !"ap_fixed", metadata !"ap_fixed", metadata !"", metadata !112, i32 380, metadata !1191, i1 false, i1 false, i32 0, i32 0, null, i32 256, i1 false, null, null, i32 0, metadata !132, i32 380} ; [ DW_TAG_subprogram ]
!1191 = metadata !{i32 786453, i32 0, metadata !"", i32 0, i32 0, i64 0, i64 0, i64 0, i32 0, null, metadata !1192, i32 0, i32 0} ; [ DW_TAG_subroutine_type ]
!1192 = metadata !{null, metadata !864, metadata !219}
!1193 = metadata !{i32 786478, i32 0, metadata !549, metadata !"ap_fixed", metadata !"ap_fixed", metadata !"", metadata !112, i32 382, metadata !1194, i1 false, i1 false, i32 0, i32 0, null, i32 256, i1 false, null, null, i32 0, metadata !132, i32 382} ; [ DW_TAG_subprogram ]
!1194 = metadata !{i32 786453, i32 0, metadata !"", i32 0, i32 0, i64 0, i64 0, i64 0, i32 0, null, metadata !1195, i32 0, i32 0} ; [ DW_TAG_subroutine_type ]
!1195 = metadata !{null, metadata !864, metadata !223}
!1196 = metadata !{i32 786478, i32 0, metadata !549, metadata !"ap_fixed", metadata !"ap_fixed", metadata !"", metadata !112, i32 383, metadata !1197, i1 false, i1 false, i32 0, i32 0, null, i32 256, i1 false, null, null, i32 0, metadata !132, i32 383} ; [ DW_TAG_subprogram ]
!1197 = metadata !{i32 786453, i32 0, metadata !"", i32 0, i32 0, i64 0, i64 0, i64 0, i32 0, null, metadata !1198, i32 0, i32 0} ; [ DW_TAG_subroutine_type ]
!1198 = metadata !{null, metadata !864, metadata !223, metadata !168}
!1199 = metadata !{i32 786478, i32 0, metadata !549, metadata !"operator=", metadata !"operator=", metadata !"_ZN8ap_fixedILi16ELi1EL9ap_q_mode5EL9ap_o_mode3ELi0EEaSERKS2_", metadata !112, i32 386, metadata !1200, i1 false, i1 false, i32 0, i32 0, null, i32 256, i1 false, null, null, i32 0, metadata !132, i32 386} ; [ DW_TAG_subprogram ]
!1200 = metadata !{i32 786453, i32 0, metadata !"", i32 0, i32 0, i64 0, i64 0, i64 0, i32 0, null, metadata !1201, i32 0, i32 0} ; [ DW_TAG_subroutine_type ]
!1201 = metadata !{metadata !1202, metadata !864, metadata !1203}
!1202 = metadata !{i32 786448, null, null, null, i32 0, i64 0, i64 0, i64 0, i32 0, metadata !549} ; [ DW_TAG_reference_type ]
!1203 = metadata !{i32 786448, null, null, null, i32 0, i64 0, i64 0, i64 0, i32 0, metadata !1204} ; [ DW_TAG_reference_type ]
!1204 = metadata !{i32 786470, null, metadata !"", null, i32 0, i64 0, i64 0, i64 0, i32 0, metadata !549} ; [ DW_TAG_const_type ]
!1205 = metadata !{i32 786478, i32 0, metadata !549, metadata !"operator=", metadata !"operator=", metadata !"_ZN8ap_fixedILi16ELi1EL9ap_q_mode5EL9ap_o_mode3ELi0EEaSERVKS2_", metadata !112, i32 392, metadata !1206, i1 false, i1 false, i32 0, i32 0, null, i32 256, i1 false, null, null, i32 0, metadata !132, i32 392} ; [ DW_TAG_subprogram ]
!1206 = metadata !{i32 786453, i32 0, metadata !"", i32 0, i32 0, i64 0, i64 0, i64 0, i32 0, null, metadata !1207, i32 0, i32 0} ; [ DW_TAG_subroutine_type ]
!1207 = metadata !{metadata !1202, metadata !864, metadata !1208}
!1208 = metadata !{i32 786448, null, null, null, i32 0, i64 0, i64 0, i64 0, i32 0, metadata !1209} ; [ DW_TAG_reference_type ]
!1209 = metadata !{i32 786470, null, metadata !"", null, i32 0, i64 0, i64 0, i64 0, i32 0, metadata !1210} ; [ DW_TAG_const_type ]
!1210 = metadata !{i32 786485, null, metadata !"", null, i32 0, i64 0, i64 0, i64 0, i32 0, metadata !549} ; [ DW_TAG_volatile_type ]
!1211 = metadata !{i32 786478, i32 0, metadata !549, metadata !"operator=", metadata !"operator=", metadata !"_ZNV8ap_fixedILi16ELi1EL9ap_q_mode5EL9ap_o_mode3ELi0EEaSERKS2_", metadata !112, i32 397, metadata !1212, i1 false, i1 false, i32 0, i32 0, null, i32 256, i1 false, null, null, i32 0, metadata !132, i32 397} ; [ DW_TAG_subprogram ]
!1212 = metadata !{i32 786453, i32 0, metadata !"", i32 0, i32 0, i64 0, i64 0, i64 0, i32 0, null, metadata !1213, i32 0, i32 0} ; [ DW_TAG_subroutine_type ]
!1213 = metadata !{null, metadata !1214, metadata !1203}
!1214 = metadata !{i32 786447, i32 0, metadata !"", i32 0, i32 0, i64 64, i64 64, i64 0, i32 64, metadata !1210} ; [ DW_TAG_pointer_type ]
!1215 = metadata !{i32 786478, i32 0, metadata !549, metadata !"operator=", metadata !"operator=", metadata !"_ZNV8ap_fixedILi16ELi1EL9ap_q_mode5EL9ap_o_mode3ELi0EEaSERVKS2_", metadata !112, i32 402, metadata !1216, i1 false, i1 false, i32 0, i32 0, null, i32 256, i1 false, null, null, i32 0, metadata !132, i32 402} ; [ DW_TAG_subprogram ]
!1216 = metadata !{i32 786453, i32 0, metadata !"", i32 0, i32 0, i64 0, i64 0, i64 0, i32 0, null, metadata !1217, i32 0, i32 0} ; [ DW_TAG_subroutine_type ]
!1217 = metadata !{null, metadata !1214, metadata !1208}
!1218 = metadata !{i32 786478, i32 0, metadata !549, metadata !"~ap_fixed", metadata !"~ap_fixed", metadata !"", metadata !112, i32 292, metadata !862, i1 false, i1 false, i32 0, i32 0, null, i32 320, i1 false, null, null, i32 0, metadata !132, i32 292} ; [ DW_TAG_subprogram ]
!1219 = metadata !{metadata !856, metadata !857, metadata !858, metadata !859, metadata !860}
!1220 = metadata !{i32 786454, null, metadata !"C_t", metadata !544, i32 44, i64 0, i64 0, i64 0, i32 0, metadata !116} ; [ DW_TAG_typedef ]
!1221 = metadata !{i32 786689, metadata !543, metadata !"max_high", metadata !544, i32 33554471, metadata !187, i32 0, i32 0} ; [ DW_TAG_arg_variable ]
!1222 = metadata !{i32 39, i32 17, metadata !543, null}
!1223 = metadata !{i32 786689, metadata !543, metadata !"min_high", metadata !544, i32 16777254, metadata !187, i32 0, i32 0} ; [ DW_TAG_arg_variable ]
!1224 = metadata !{i32 38, i32 17, metadata !543, null}
!1225 = metadata !{i32 790531, metadata !1226, metadata !"mixer_out.V", null, i32 40, metadata !1227, i32 0, i32 0} ; [ DW_TAG_arg_variable_field ]
!1226 = metadata !{i32 786689, metadata !543, metadata !"mixer_out", metadata !544, i32 50331688, metadata !547, i32 0, i32 0} ; [ DW_TAG_arg_variable ]
!1227 = metadata !{i32 786433, null, metadata !"", null, i32 0, i64 65536, i64 16, i32 0, i32 0, metadata !1228, metadata !1234, i32 0, i32 0} ; [ DW_TAG_array_type ]
!1228 = metadata !{i32 786438, null, metadata !"ap_fixed<16, 1, 5, 3, 0>", metadata !112, i32 292, i64 16, i64 16, i32 0, i32 0, null, metadata !1229, i32 0, null, metadata !1219} ; [ DW_TAG_class_field_type ]
!1229 = metadata !{metadata !1230}
!1230 = metadata !{i32 786438, null, metadata !"ap_fixed_base<16, 1, true, 5, 3, 0>", metadata !200, i32 512, i64 16, i64 16, i32 0, i32 0, null, metadata !1231, i32 0, null, metadata !855} ; [ DW_TAG_class_field_type ]
!1231 = metadata !{metadata !1232}
!1232 = metadata !{i32 786438, null, metadata !"ssdm_int<16 + 1024 * 0, true>", metadata !124, i32 18, i64 16, i64 16, i32 0, i32 0, null, metadata !1233, i32 0, null, metadata !563} ; [ DW_TAG_class_field_type ]
!1233 = metadata !{metadata !557}
!1234 = metadata !{metadata !1235}
!1235 = metadata !{i32 786465, i64 0, i64 4095}   ; [ DW_TAG_subrange_type ]
!1236 = metadata !{i32 40, i32 8, metadata !543, null}
!1237 = metadata !{i32 45, i32 1, metadata !542, null}
!1238 = metadata !{i32 46, i32 1, metadata !542, null}
!1239 = metadata !{i32 47, i32 1, metadata !542, null}
!1240 = metadata !{i32 51, i32 1, metadata !542, null}
!1241 = metadata !{i32 52, i32 1, metadata !542, null}
!1242 = metadata !{i32 1259, i32 147, metadata !1243, metadata !1246}
!1243 = metadata !{i32 786443, metadata !1244, i32 1259, i32 74, metadata !120, i32 32} ; [ DW_TAG_lexical_block ]
!1244 = metadata !{i32 786443, metadata !1245, i32 1259, i32 64, metadata !120, i32 31} ; [ DW_TAG_lexical_block ]
!1245 = metadata !{i32 786478, i32 0, null, metadata !"operator _Bool", metadata !"operator _Bool", metadata !"_ZNK10ap_bit_refILi5ELb0EEcvbEv", metadata !120, i32 1259, metadata !392, i1 false, i1 true, i32 0, i32 0, null, i32 256, i1 false, null, null, metadata !391, metadata !132, i32 1259} ; [ DW_TAG_subprogram ]
!1246 = metadata !{i32 69, i32 7, metadata !1247, null}
!1247 = metadata !{i32 786443, metadata !1248, i32 63, i32 28, metadata !544, i32 2} ; [ DW_TAG_lexical_block ]
!1248 = metadata !{i32 786443, metadata !542, i32 63, i32 2, metadata !544, i32 1} ; [ DW_TAG_lexical_block ]
!1249 = metadata !{i32 786688, metadata !1243, metadata !"__Val2__", metadata !120, i32 1259, metadata !127, i32 0, i32 0} ; [ DW_TAG_auto_variable ]
!1250 = metadata !{i32 1259, i32 147, metadata !1243, metadata !1251}
!1251 = metadata !{i32 65, i32 6, metadata !1247, null}
!1252 = metadata !{i32 1259, i32 149, metadata !1243, metadata !1251}
!1253 = metadata !{i32 69, i32 21, metadata !1247, null}
!1254 = metadata !{i32 66, i32 4, metadata !1255, null}
!1255 = metadata !{i32 786443, metadata !1247, i32 65, i32 19, metadata !544, i32 3} ; [ DW_TAG_lexical_block ]
!1256 = metadata !{i32 1259, i32 149, metadata !1243, metadata !1246}
!1257 = metadata !{i32 786688, metadata !1258, metadata !"__Val2__", metadata !120, i32 1404, metadata !127, i32 0, i32 0} ; [ DW_TAG_auto_variable ]
!1258 = metadata !{i32 786443, metadata !1259, i32 1404, i32 17, metadata !120, i32 30} ; [ DW_TAG_lexical_block ]
!1259 = metadata !{i32 786443, metadata !1260, i32 1403, i32 65, metadata !120, i32 29} ; [ DW_TAG_lexical_block ]
!1260 = metadata !{i32 786478, i32 0, null, metadata !"operator~", metadata !"operator~", metadata !"_ZNK10ap_bit_refILi5ELb0EEcoEv", metadata !120, i32 1403, metadata !392, i1 false, i1 true, i32 0, i32 0, null, i32 256, i1 false, null, null, metadata !407, metadata !132, i32 1403} ; [ DW_TAG_subprogram ]
!1261 = metadata !{i32 1404, i32 90, metadata !1258, metadata !1253}
!1262 = metadata !{i32 80, i32 3, metadata !1263, null}
!1263 = metadata !{i32 786443, metadata !542, i32 79, i32 19, metadata !544, i32 5} ; [ DW_TAG_lexical_block ]
!1264 = metadata !{i32 80, i32 27, metadata !1263, null}
!1265 = metadata !{i32 786689, metadata !1266, metadata !"v", metadata !112, i32 33554928, metadata !187, i32 0, i32 0} ; [ DW_TAG_arg_variable ]
!1266 = metadata !{i32 786478, i32 0, null, metadata !"ap_ufixed", metadata !"ap_ufixed", metadata !"_ZN9ap_ufixedILi48ELi32EL9ap_q_mode5EL9ap_o_mode3ELi0EEC1Ej", metadata !112, i32 496, metadata !1267, i1 false, i1 true, i32 0, i32 0, null, i32 256, i1 false, null, null, metadata !3509, metadata !132, i32 496} ; [ DW_TAG_subprogram ]
!1267 = metadata !{i32 786453, i32 0, metadata !"", i32 0, i32 0, i64 0, i64 0, i64 0, i32 0, null, metadata !1268, i32 0, i32 0} ; [ DW_TAG_subroutine_type ]
!1268 = metadata !{null, metadata !1269, metadata !187}
!1269 = metadata !{i32 786447, i32 0, metadata !"", i32 0, i32 0, i64 64, i64 64, i64 0, i32 64, metadata !1270} ; [ DW_TAG_pointer_type ]
!1270 = metadata !{i32 786434, null, metadata !"ap_ufixed<48, 32, 5, 3, 0>", metadata !112, i32 413, i64 64, i64 64, i32 0, i32 0, null, metadata !1271, i32 0, null, metadata !3557} ; [ DW_TAG_class_type ]
!1271 = metadata !{metadata !1272, metadata !3488, metadata !3491, metadata !3494, metadata !3497, metadata !3500, metadata !3503, metadata !3506, metadata !3509, metadata !3510, metadata !3513, metadata !3516, metadata !3519, metadata !3522, metadata !3525, metadata !3528, metadata !3531, metadata !3534, metadata !3537, metadata !3543, metadata !3549, metadata !3553, metadata !3556}
!1272 = metadata !{i32 786460, metadata !1270, null, metadata !112, i32 0, i64 0, i64 0, i64 0, i32 0, metadata !1273} ; [ DW_TAG_inheritance ]
!1273 = metadata !{i32 786434, null, metadata !"ap_fixed_base<48, 32, false, 5, 3, 0>", metadata !200, i32 512, i64 64, i64 64, i32 0, i32 0, null, metadata !1274, i32 0, null, metadata !3486} ; [ DW_TAG_class_type ]
!1274 = metadata !{metadata !1275, metadata !1291, metadata !1295, metadata !1298, metadata !1301, metadata !3216, metadata !3223, metadata !3226, metadata !3232, metadata !3235, metadata !3238, metadata !3241, metadata !3244, metadata !3247, metadata !3250, metadata !3253, metadata !3256, metadata !3259, metadata !3262, metadata !3265, metadata !3268, metadata !3271, metadata !3274, metadata !3278, metadata !3281, metadata !3284, metadata !3287, metadata !3290, metadata !3293, metadata !3296, metadata !3299, metadata !3302, metadata !3306, metadata !3309, metadata !3313, metadata !3316, metadata !3319, metadata !3322, metadata !3325, metadata !3328, metadata !3331, metadata !3334, metadata !3337, metadata !3340, metadata !3343, metadata !3346, metadata !3347, metadata !3348, metadata !3349, metadata !3352, metadata !3355, metadata !3358, metadata !3361, metadata !3364, metadata !3367, metadata !3368, metadata !3369, metadata !3372, metadata !3375, metadata !3378, metadata !3381, metadata !3382, metadata !3385, metadata !3391, metadata !3394, metadata !3395, metadata !3398, metadata !3399, metadata !3402, metadata !3406, metadata !3410, metadata !3411, metadata !3414, metadata !3417, metadata !3420, metadata !3421, metadata !3422, metadata !3425, metadata !3428, metadata !3429, metadata !3430, metadata !3433, metadata !3434, metadata !3435, metadata !3436, metadata !3437, metadata !3438, metadata !3442, metadata !3445, metadata !3446, metadata !3447, metadata !3450, metadata !3453, metadata !3457, metadata !3458, metadata !3461, metadata !3462, metadata !3465, metadata !3468, metadata !3469, metadata !3470, metadata !3471, metadata !3472, metadata !3475, metadata !3478, metadata !3479, metadata !3482, metadata !3485}
!1275 = metadata !{i32 786460, metadata !1273, null, metadata !200, i32 0, i64 0, i64 0, i64 0, i32 0, metadata !1276} ; [ DW_TAG_inheritance ]
!1276 = metadata !{i32 786434, null, metadata !"ssdm_int<48 + 1024 * 0, false>", metadata !124, i32 50, i64 64, i64 64, i32 0, i32 0, null, metadata !1277, i32 0, null, metadata !1289} ; [ DW_TAG_class_type ]
!1277 = metadata !{metadata !1278, metadata !1280, metadata !1284}
!1278 = metadata !{i32 786445, metadata !1276, metadata !"V", metadata !124, i32 50, i64 48, i64 64, i64 0, i32 0, metadata !1279} ; [ DW_TAG_member ]
!1279 = metadata !{i32 786468, null, metadata !"uint48", null, i32 0, i64 48, i64 64, i64 0, i32 0, i32 7} ; [ DW_TAG_base_type ]
!1280 = metadata !{i32 786478, i32 0, metadata !1276, metadata !"ssdm_int", metadata !"ssdm_int", metadata !"", metadata !124, i32 50, metadata !1281, i1 false, i1 false, i32 0, i32 0, null, i32 256, i1 false, null, null, i32 0, metadata !132, i32 50} ; [ DW_TAG_subprogram ]
!1281 = metadata !{i32 786453, i32 0, metadata !"", i32 0, i32 0, i64 0, i64 0, i64 0, i32 0, null, metadata !1282, i32 0, i32 0} ; [ DW_TAG_subroutine_type ]
!1282 = metadata !{null, metadata !1283}
!1283 = metadata !{i32 786447, i32 0, metadata !"", i32 0, i32 0, i64 64, i64 64, i64 0, i32 64, metadata !1276} ; [ DW_TAG_pointer_type ]
!1284 = metadata !{i32 786478, i32 0, metadata !1276, metadata !"ssdm_int", metadata !"ssdm_int", metadata !"", metadata !124, i32 50, metadata !1285, i1 false, i1 false, i32 0, i32 0, null, i32 320, i1 false, null, null, i32 0, metadata !132, i32 50} ; [ DW_TAG_subprogram ]
!1285 = metadata !{i32 786453, i32 0, metadata !"", i32 0, i32 0, i64 0, i64 0, i64 0, i32 0, null, metadata !1286, i32 0, i32 0} ; [ DW_TAG_subroutine_type ]
!1286 = metadata !{null, metadata !1283, metadata !1287}
!1287 = metadata !{i32 786448, null, null, null, i32 0, i64 0, i64 0, i64 0, i32 0, metadata !1288} ; [ DW_TAG_reference_type ]
!1288 = metadata !{i32 786470, null, metadata !"", null, i32 0, i64 0, i64 0, i64 0, i32 0, metadata !1276} ; [ DW_TAG_const_type ]
!1289 = metadata !{metadata !1290, metadata !142}
!1290 = metadata !{i32 786480, null, metadata !"_AP_N", metadata !141, i64 48, null, i32 0, i32 0} ; [ DW_TAG_template_value_parameter ]
!1291 = metadata !{i32 786478, i32 0, metadata !1273, metadata !"overflow_adjust", metadata !"overflow_adjust", metadata !"_ZN13ap_fixed_baseILi48ELi32ELb0EL9ap_q_mode5EL9ap_o_mode3ELi0EE15overflow_adjustEbbbb", metadata !200, i32 522, metadata !1292, i1 false, i1 false, i32 0, i32 0, null, i32 256, i1 false, null, null, i32 0, metadata !132, i32 522} ; [ DW_TAG_subprogram ]
!1292 = metadata !{i32 786453, i32 0, metadata !"", i32 0, i32 0, i64 0, i64 0, i64 0, i32 0, null, metadata !1293, i32 0, i32 0} ; [ DW_TAG_subroutine_type ]
!1293 = metadata !{null, metadata !1294, metadata !143, metadata !143, metadata !143, metadata !143}
!1294 = metadata !{i32 786447, i32 0, metadata !"", i32 0, i32 0, i64 64, i64 64, i64 0, i32 64, metadata !1273} ; [ DW_TAG_pointer_type ]
!1295 = metadata !{i32 786478, i32 0, metadata !1273, metadata !"quantization_adjust", metadata !"quantization_adjust", metadata !"_ZN13ap_fixed_baseILi48ELi32ELb0EL9ap_q_mode5EL9ap_o_mode3ELi0EE19quantization_adjustEbbb", metadata !200, i32 595, metadata !1296, i1 false, i1 false, i32 0, i32 0, null, i32 256, i1 false, null, null, i32 0, metadata !132, i32 595} ; [ DW_TAG_subprogram ]
!1296 = metadata !{i32 786453, i32 0, metadata !"", i32 0, i32 0, i64 0, i64 0, i64 0, i32 0, null, metadata !1297, i32 0, i32 0} ; [ DW_TAG_subroutine_type ]
!1297 = metadata !{metadata !143, metadata !1294, metadata !143, metadata !143, metadata !143}
!1298 = metadata !{i32 786478, i32 0, metadata !1273, metadata !"ap_fixed_base", metadata !"ap_fixed_base", metadata !"", metadata !200, i32 653, metadata !1299, i1 false, i1 false, i32 0, i32 0, null, i32 256, i1 false, null, null, i32 0, metadata !132, i32 653} ; [ DW_TAG_subprogram ]
!1299 = metadata !{i32 786453, i32 0, metadata !"", i32 0, i32 0, i64 0, i64 0, i64 0, i32 0, null, metadata !1300, i32 0, i32 0} ; [ DW_TAG_subroutine_type ]
!1300 = metadata !{null, metadata !1294}
!1301 = metadata !{i32 786478, i32 0, metadata !1273, metadata !"ap_fixed_base<32, 32, false, 5, 3, 0>", metadata !"ap_fixed_base<32, 32, false, 5, 3, 0>", metadata !"", metadata !200, i32 663, metadata !1302, i1 false, i1 false, i32 0, i32 0, null, i32 256, i1 false, null, metadata !3214, i32 0, metadata !132, i32 663} ; [ DW_TAG_subprogram ]
!1302 = metadata !{i32 786453, i32 0, metadata !"", i32 0, i32 0, i64 0, i64 0, i64 0, i32 0, null, metadata !1303, i32 0, i32 0} ; [ DW_TAG_subroutine_type ]
!1303 = metadata !{null, metadata !1294, metadata !1304}
