; ModuleID = '/home/brennan/Documents/pynq-copter/pynqcopter/ip/mixer/mixer/mixer/.autopilot/db/a.o.bc'
target datalayout = "e-p:64:64:64-i1:8:8-i8:8:8-i16:16:16-i32:32:32-i64:64:64-f32:32:32-f64:64:64-v64:64:64-v128:128:128-a0:0:64-s0:64:64-f80:128:128-n8:16:32:64-S128"
target triple = "x86_64-unknown-linux-gnu"

%"struct.std::piecewise_construct_t" = type {}
%struct.ap_fixed = type { %struct.ap_fixed_base }
%struct.ap_fixed_base = type { %struct.ssdm_int }
%struct.ssdm_int = type { i19 }
%class.ssdm_global_array_mixerpp0cppaplinecpp = type {}
%struct.ap_fixed_base.9 = type { %struct.ssdm_int.10 }
%struct.ssdm_int.10 = type { i32 }
%struct.ap_int_base = type { %"class.std::locale::id" }
%"class.std::locale::id" = type { i64 }
%struct.ap_int_base.12 = type { %struct.ssdm_int.13 }
%struct.ssdm_int.13 = type { i12 }
%struct.ap_int_base.14 = type { %struct.ssdm_int.15 }
%struct.ssdm_int.15 = type { i11 }
%struct.ap_int_base.16 = type { %struct.ssdm_int.17 }
%struct.ssdm_int.17 = type { i33 }
%struct.ap_int_base.18 = type { %struct.ssdm_int.19 }
%struct.ssdm_int.19 = type { i54 }
%struct.ap_int_base.20 = type { %struct.ssdm_int.21 }
%struct.ssdm_int.21 = type { i55 }
%struct.ap_int_base.22 = type { %struct.ssdm_int.23 }
%struct.ssdm_int.23 = type { i1 }
%struct.ap_fixed.0 = type { %struct.ap_fixed_base.1 }
%struct.ap_fixed_base.1 = type { %struct.ssdm_int.2 }
%struct.ssdm_int.2 = type { i16 }
%struct.ap_fixed_base.3 = type { %struct.ssdm_int.4 }
%struct.ssdm_int.4 = type { i57 }
%struct.ap_fixed_base.5 = type { %struct.ssdm_int.6 }
%struct.ssdm_int.6 = type { i56 }
%struct.ap_fixed_base.7 = type { %struct.ssdm_int.8 }
%struct.ssdm_int.8 = type { i38 }
%struct.ap_fixed_base.9.26 = type { %struct.ssdm_int.10.25 }
%struct.ssdm_int.10.25 = type { i39 }
%struct.ap_fixed_base.11 = type { %struct.ssdm_int.12 }
%struct.ssdm_int.12 = type { i40 }
%struct.ap_int_base.28 = type { %struct.ssdm_int.8 }
%struct.ap_fixed_base.22 = type { %struct.ssdm_int.21 }
%union.anon.30 = type { i64 }

@_ZStL8__ioinit = internal global %"struct.std::piecewise_construct_t" zeroinitializer, align 1 ; [#uses=2 type=%"struct.std::piecewise_construct_t"*]
@_ZL5MIX_C = internal global [6 x [3 x %struct.ap_fixed]] zeroinitializer, align 16 ; [#uses=19 type=[6 x [3 x %struct.ap_fixed]]*]
@_ZL21ssdm_global_array_ins = internal global %"struct.std::piecewise_construct_t" zeroinitializer, align 1 ; [#uses=1 type=%"struct.std::piecewise_construct_t"*]
@.str = private unnamed_addr constant [1 x i8] zeroinitializer, align 1 ; [#uses=1 type=[1 x i8]*]
@_ZZN13ap_fixed_baseILi19ELi4ELb1EL9ap_q_mode5EL9ap_o_mode3ELi0EEC1EdE10AllOnesInt = linkonce_odr global i32 -1, align 4 ; [#uses=1 type=i32*]
@llvm.global_ctors = appending global [2 x { i32, void ()* }] [{ i32, void ()* } { i32 65535, void ()* @_GLOBAL__I_a }, { i32, void ()* } { i32 65535, void ()* @_GLOBAL__I_a11 }] ; [#uses=0 type=[2 x { i32, void ()* }]*]
@_ZStL8__ioinit3 = internal global %"struct.std::piecewise_construct_t" zeroinitializer, align 1 ; [#uses=2 type=%"struct.std::piecewise_construct_t"*]
@_ZL5MIX_C4 = internal global [6 x [3 x %struct.ap_fixed]] zeroinitializer, align 16 ; [#uses=22 type=[6 x [3 x %struct.ap_fixed]]*]
@.str5 = private unnamed_addr constant [10 x i8] c"s_axilite\00", align 1 ; [#uses=1 type=[10 x i8]*]
@.str2 = private unnamed_addr constant [1 x i8] zeroinitializer, align 1 ; [#uses=1 type=[1 x i8]*]
@.str3 = private unnamed_addr constant [6 x i8] c"m_axi\00", align 1 ; [#uses=1 type=[6 x i8]*]
@.str4 = private unnamed_addr constant [12 x i8] c"hls_label_0\00", align 1 ; [#uses=1 type=[12 x i8]*]
@_ZL21ssdm_global_array_ins6 = internal global %class.ssdm_global_array_mixerpp0cppaplinecpp zeroinitializer, align 1 ; [#uses=1 type=%class.ssdm_global_array_mixerpp0cppaplinecpp*]
@_ZZN13ap_fixed_baseILi19ELi4ELb1EL9ap_q_mode5EL9ap_o_mode3ELi0EEC1ILi57ELi27ELb1ELS0_5ELS1_3ELi0EEERKS_IXT_EXT0_EXT1_EXT2_EXT3_EXT4_EEE10AllOnesInt = linkonce_odr global i32 -1, align 4 ; [#uses=1 type=i32*]
@_ZZN13ap_fixed_baseILi16ELi1ELb1EL9ap_q_mode5EL9ap_o_mode3ELi0EEC1EdE10AllOnesInt = linkonce_odr global i32 -1, align 4 ; [#uses=1 type=i32*]

; [#uses=1]
define internal void @__cxx_global_var_init() nounwind section ".text.startup" {
  call void @_ZNSt8ios_base4InitC1Ev(%"struct.std::piecewise_construct_t"* @_ZStL8__ioinit)
  %1 = call i32 @atexit(void ()* @__dtor__ZStL8__ioinit) ; [#uses=0 type=i32]
  ret void
}

; [#uses=2]
declare void @_ZNSt8ios_base4InitC1Ev(%"struct.std::piecewise_construct_t"*)

; [#uses=2]
declare void @_ZNSt8ios_base4InitD1Ev(%"struct.std::piecewise_construct_t"*) nounwind

; [#uses=1]
define internal void @__dtor__ZStL8__ioinit() nounwind section ".text.startup" {
  call void @_ZNSt8ios_base4InitD1Ev(%"struct.std::piecewise_construct_t"* @_ZStL8__ioinit)
  ret void
}

; [#uses=2]
declare i32 @atexit(void ()*) nounwind

; [#uses=1]
define internal void @__cxx_global_var_init1() nounwind section ".text.startup" {
  call void @_ZN8ap_fixedILi19ELi4EL9ap_q_mode5EL9ap_o_mode3ELi0EEC1Ed(%struct.ap_fixed* getelementptr inbounds ([6 x [3 x %struct.ap_fixed]]* @_ZL5MIX_C, i64 0, i64 0, i64 0), double 5.000000e-01)
  call void @_ZN8ap_fixedILi19ELi4EL9ap_q_mode5EL9ap_o_mode3ELi0EEC1Ed(%struct.ap_fixed* getelementptr inbounds ([6 x [3 x %struct.ap_fixed]]* @_ZL5MIX_C, i64 0, i64 0, i64 1), double 0xBFE279A745904047)
  call void @_ZN8ap_fixedILi19ELi4EL9ap_q_mode5EL9ap_o_mode3ELi0EEC1Ei(%struct.ap_fixed* getelementptr inbounds ([6 x [3 x %struct.ap_fixed]]* @_ZL5MIX_C, i64 0, i64 0, i64 2), i32 -1)
  call void @_ZN8ap_fixedILi19ELi4EL9ap_q_mode5EL9ap_o_mode3ELi0EEC1Ei(%struct.ap_fixed* getelementptr inbounds ([6 x [3 x %struct.ap_fixed]]* @_ZL5MIX_C, i64 0, i64 1, i64 0), i32 1)
  call void @_ZN8ap_fixedILi19ELi4EL9ap_q_mode5EL9ap_o_mode3ELi0EEC1Ei(%struct.ap_fixed* getelementptr inbounds ([6 x [3 x %struct.ap_fixed]]* @_ZL5MIX_C, i64 0, i64 1, i64 1), i32 0)
  call void @_ZN8ap_fixedILi19ELi4EL9ap_q_mode5EL9ap_o_mode3ELi0EEC1Ei(%struct.ap_fixed* getelementptr inbounds ([6 x [3 x %struct.ap_fixed]]* @_ZL5MIX_C, i64 0, i64 1, i64 2), i32 1)
  call void @_ZN8ap_fixedILi19ELi4EL9ap_q_mode5EL9ap_o_mode3ELi0EEC1Ed(%struct.ap_fixed* getelementptr inbounds ([6 x [3 x %struct.ap_fixed]]* @_ZL5MIX_C, i64 0, i64 2, i64 0), double 5.000000e-01)
  call void @_ZN8ap_fixedILi19ELi4EL9ap_q_mode5EL9ap_o_mode3ELi0EEC1Ed(%struct.ap_fixed* getelementptr inbounds ([6 x [3 x %struct.ap_fixed]]* @_ZL5MIX_C, i64 0, i64 2, i64 1), double 0x3FE279A745904047)
  call void @_ZN8ap_fixedILi19ELi4EL9ap_q_mode5EL9ap_o_mode3ELi0EEC1Ei(%struct.ap_fixed* getelementptr inbounds ([6 x [3 x %struct.ap_fixed]]* @_ZL5MIX_C, i64 0, i64 2, i64 2), i32 -1)
  call void @_ZN8ap_fixedILi19ELi4EL9ap_q_mode5EL9ap_o_mode3ELi0EEC1Ed(%struct.ap_fixed* getelementptr inbounds ([6 x [3 x %struct.ap_fixed]]* @_ZL5MIX_C, i64 0, i64 3, i64 0), double -5.000000e-01)
  call void @_ZN8ap_fixedILi19ELi4EL9ap_q_mode5EL9ap_o_mode3ELi0EEC1Ed(%struct.ap_fixed* getelementptr inbounds ([6 x [3 x %struct.ap_fixed]]* @_ZL5MIX_C, i64 0, i64 3, i64 1), double 0xBFE279A745904047)
  call void @_ZN8ap_fixedILi19ELi4EL9ap_q_mode5EL9ap_o_mode3ELi0EEC1Ei(%struct.ap_fixed* getelementptr inbounds ([6 x [3 x %struct.ap_fixed]]* @_ZL5MIX_C, i64 0, i64 3, i64 2), i32 1)
  call void @_ZN8ap_fixedILi19ELi4EL9ap_q_mode5EL9ap_o_mode3ELi0EEC1Ei(%struct.ap_fixed* getelementptr inbounds ([6 x [3 x %struct.ap_fixed]]* @_ZL5MIX_C, i64 0, i64 4, i64 0), i32 -1)
  call void @_ZN8ap_fixedILi19ELi4EL9ap_q_mode5EL9ap_o_mode3ELi0EEC1Ei(%struct.ap_fixed* getelementptr inbounds ([6 x [3 x %struct.ap_fixed]]* @_ZL5MIX_C, i64 0, i64 4, i64 1), i32 0)
  call void @_ZN8ap_fixedILi19ELi4EL9ap_q_mode5EL9ap_o_mode3ELi0EEC1Ei(%struct.ap_fixed* getelementptr inbounds ([6 x [3 x %struct.ap_fixed]]* @_ZL5MIX_C, i64 0, i64 4, i64 2), i32 -1)
  call void @_ZN8ap_fixedILi19ELi4EL9ap_q_mode5EL9ap_o_mode3ELi0EEC1Ed(%struct.ap_fixed* getelementptr inbounds ([6 x [3 x %struct.ap_fixed]]* @_ZL5MIX_C, i64 0, i64 5, i64 0), double -5.000000e-01)
  call void @_ZN8ap_fixedILi19ELi4EL9ap_q_mode5EL9ap_o_mode3ELi0EEC1Ed(%struct.ap_fixed* getelementptr inbounds ([6 x [3 x %struct.ap_fixed]]* @_ZL5MIX_C, i64 0, i64 5, i64 1), double 0x3FE279A745904047)
  call void @_ZN8ap_fixedILi19ELi4EL9ap_q_mode5EL9ap_o_mode3ELi0EEC1Ei(%struct.ap_fixed* getelementptr inbounds ([6 x [3 x %struct.ap_fixed]]* @_ZL5MIX_C, i64 0, i64 5, i64 2), i32 1)
  ret void
}

; [#uses=19]
define internal void @_ZN8ap_fixedILi19ELi4EL9ap_q_mode5EL9ap_o_mode3ELi0EEC1Ed(%struct.ap_fixed* %this, double %v) unnamed_addr nounwind uwtable inlinehint alwaysinline align 2 {
  %1 = alloca %struct.ap_fixed*, align 8          ; [#uses=2 type=%struct.ap_fixed**]
  %2 = alloca double, align 8                     ; [#uses=2 type=double*]
  store %struct.ap_fixed* %this, %struct.ap_fixed** %1, align 8
  call void @llvm.dbg.declare(metadata !{%struct.ap_fixed** %1}, metadata !14764), !dbg !14766 ; [debug line = 380:41] [debug variable = this]
  store double %v, double* %2, align 8
  call void @llvm.dbg.declare(metadata !{double* %2}, metadata !14767), !dbg !14768 ; [debug line = 380:57] [debug variable = v]
  %3 = load %struct.ap_fixed** %1                 ; [#uses=1 type=%struct.ap_fixed*]
  %4 = load double* %2, align 8, !dbg !14769      ; [#uses=1 type=double] [debug line = 380:69]
  call void @_ZN8ap_fixedILi19ELi4EL9ap_q_mode5EL9ap_o_mode3ELi0EEC2Ed(%struct.ap_fixed* %3, double %4), !dbg !14769 ; [debug line = 380:69]
  ret void, !dbg !14769                           ; [debug line = 380:69]
}

; [#uses=22]
define internal void @_ZN8ap_fixedILi19ELi4EL9ap_q_mode5EL9ap_o_mode3ELi0EEC1Ei(%struct.ap_fixed* %this, i32 %v) unnamed_addr nounwind uwtable inlinehint alwaysinline align 2 {
  %1 = alloca %struct.ap_fixed*, align 8          ; [#uses=2 type=%struct.ap_fixed**]
  %2 = alloca i32, align 4                        ; [#uses=2 type=i32*]
  store %struct.ap_fixed* %this, %struct.ap_fixed** %1, align 8
  call void @llvm.dbg.declare(metadata !{%struct.ap_fixed** %1}, metadata !14770), !dbg !14771 ; [debug line = 372:41] [debug variable = this]
  store i32 %v, i32* %2, align 4
  call void @llvm.dbg.declare(metadata !{i32* %2}, metadata !14772), !dbg !14773 ; [debug line = 372:54] [debug variable = v]
  %3 = load %struct.ap_fixed** %1                 ; [#uses=1 type=%struct.ap_fixed*]
  %4 = load i32* %2, align 4, !dbg !14774         ; [#uses=1 type=i32] [debug line = 372:66]
  call void @_ZN8ap_fixedILi19ELi4EL9ap_q_mode5EL9ap_o_mode3ELi0EEC2Ei(%struct.ap_fixed* %3, i32 %4), !dbg !14774 ; [debug line = 372:66]
  ret void, !dbg !14774                           ; [debug line = 372:66]
}

; [#uses=1]
define internal void @__cxx_global_var_init2() nounwind section ".text.startup" {
  call void @_ZN37ssdm_global_array_mainpp0cppaplinecppC1Ev(%"struct.std::piecewise_construct_t"* @_ZL21ssdm_global_array_ins)
  ret void
}

; [#uses=1]
define internal void @_ZN37ssdm_global_array_mainpp0cppaplinecppC1Ev(%"struct.std::piecewise_construct_t"* %this) unnamed_addr nounwind uwtable inlinehint alwaysinline align 2 {
  %1 = alloca %"struct.std::piecewise_construct_t"*, align 8 ; [#uses=2 type=%"struct.std::piecewise_construct_t"**]
  store %"struct.std::piecewise_construct_t"* %this, %"struct.std::piecewise_construct_t"** %1, align 8
  call void @llvm.dbg.declare(metadata !{%"struct.std::piecewise_construct_t"** %1}, metadata !14775), !dbg !14777 ; [debug line = 100:42] [debug variable = this]
  %2 = load %"struct.std::piecewise_construct_t"** %1 ; [#uses=1 type=%"struct.std::piecewise_construct_t"*]
  call void @_ZN37ssdm_global_array_mainpp0cppaplinecppC2Ev(%"struct.std::piecewise_construct_t"* %2), !dbg !14778 ; [debug line = 102:3]
  ret void, !dbg !14778                           ; [debug line = 102:3]
}

; [#uses=337]
declare void @llvm.dbg.declare(metadata, metadata) nounwind readnone

; [#uses=1]
define internal void @_ZN8ap_fixedILi19ELi4EL9ap_q_mode5EL9ap_o_mode3ELi0EEC2Ei(%struct.ap_fixed* %this, i32 %v) unnamed_addr nounwind uwtable inlinehint alwaysinline align 2 {
  %1 = alloca %struct.ap_fixed*, align 8          ; [#uses=2 type=%struct.ap_fixed**]
  %2 = alloca i32, align 4                        ; [#uses=2 type=i32*]
  store %struct.ap_fixed* %this, %struct.ap_fixed** %1, align 8
  call void @llvm.dbg.declare(metadata !{%struct.ap_fixed** %1}, metadata !14779), !dbg !14780 ; [debug line = 372:41] [debug variable = this]
  store i32 %v, i32* %2, align 4
  call void @llvm.dbg.declare(metadata !{i32* %2}, metadata !14781), !dbg !14782 ; [debug line = 372:54] [debug variable = v]
  %3 = load %struct.ap_fixed** %1                 ; [#uses=1 type=%struct.ap_fixed*]
  %4 = bitcast %struct.ap_fixed* %3 to %struct.ap_fixed_base*, !dbg !14783 ; [#uses=1 type=%struct.ap_fixed_base*] [debug line = 372:65]
  %5 = load i32* %2, align 4, !dbg !14783         ; [#uses=1 type=i32] [debug line = 372:65]
  call void @_ZN13ap_fixed_baseILi19ELi4ELb1EL9ap_q_mode5EL9ap_o_mode3ELi0EEC2Ei(%struct.ap_fixed_base* %4, i32 %5), !dbg !14783 ; [debug line = 372:65]
  ret void, !dbg !14784                           ; [debug line = 372:66]
}

; [#uses=1]
define internal void @_ZN13ap_fixed_baseILi19ELi4ELb1EL9ap_q_mode5EL9ap_o_mode3ELi0EEC2Ei(%struct.ap_fixed_base* %this, i32 %b) unnamed_addr nounwind uwtable inlinehint alwaysinline align 2 {
  %1 = alloca %struct.ap_fixed_base*, align 8     ; [#uses=2 type=%struct.ap_fixed_base**]
  %2 = alloca i32, align 4                        ; [#uses=2 type=i32*]
  %3 = alloca %struct.ap_fixed_base, align 4      ; [#uses=2 type=%struct.ap_fixed_base*]
  %4 = alloca %struct.ap_fixed_base.9, align 4    ; [#uses=2 type=%struct.ap_fixed_base.9*]
  store %struct.ap_fixed_base* %this, %struct.ap_fixed_base** %1, align 8
  call void @llvm.dbg.declare(metadata !{%struct.ap_fixed_base** %1}, metadata !14786), !dbg !14788 ; [debug line = 795:43] [debug variable = this]
  store i32 %b, i32* %2, align 4
  call void @llvm.dbg.declare(metadata !{i32* %2}, metadata !14789), !dbg !14790 ; [debug line = 795:69] [debug variable = b]
  %5 = load %struct.ap_fixed_base** %1            ; [#uses=2 type=%struct.ap_fixed_base*]
  %6 = bitcast %struct.ap_fixed_base* %5 to %struct.ssdm_int*, !dbg !14791 ; [#uses=1 type=%struct.ssdm_int*] [debug line = 795:73]
  call void @_ZN8ssdm_intILi19ELb1EEC2Ev(%struct.ssdm_int* %6), !dbg !14791 ; [debug line = 795:73]
  %7 = load i32* %2, align 4, !dbg !14792         ; [#uses=1 type=i32] [debug line = 795:75]
  call void @_ZN13ap_fixed_baseILi32ELi32ELb1EL9ap_q_mode5EL9ap_o_mode3ELi0EEC1Ei(%struct.ap_fixed_base.9* %4, i32 %7), !dbg !14792 ; [debug line = 795:75]
  call void @_ZN13ap_fixed_baseILi19ELi4ELb1EL9ap_q_mode5EL9ap_o_mode3ELi0EEC1ILi32ELi32ELb1ELS0_5ELS1_3ELi0EEERKS_IXT_EXT0_EXT1_EXT2_EXT3_EXT4_EE(%struct.ap_fixed_base* %3, %struct.ap_fixed_base.9* %4), !dbg !14792 ; [debug line = 795:75]
  %8 = call %struct.ap_fixed_base* @_ZN13ap_fixed_baseILi19ELi4ELb1EL9ap_q_mode5EL9ap_o_mode3ELi0EEaSERKS2_(%struct.ap_fixed_base* %5, %struct.ap_fixed_base* %3), !dbg !14792 ; [#uses=0 type=%struct.ap_fixed_base*] [debug line = 795:75]
  ret void, !dbg !14794                           ; [debug line = 795:116]
}

; [#uses=6]
define internal void @_ZN8ssdm_intILi19ELb1EEC2Ev(%struct.ssdm_int* %this) unnamed_addr nounwind uwtable inlinehint alwaysinline align 2 {
  %1 = alloca %struct.ssdm_int*, align 8          ; [#uses=2 type=%struct.ssdm_int**]
  store %struct.ssdm_int* %this, %struct.ssdm_int** %1, align 8
  call void @llvm.dbg.declare(metadata !{%struct.ssdm_int** %1}, metadata !14795), !dbg !14797 ; [debug line = 21:137] [debug variable = this]
  %2 = load %struct.ssdm_int** %1                 ; [#uses=0 type=%struct.ssdm_int*]
  ret void, !dbg !14798                           ; [debug line = 21:171]
}

; [#uses=1]
define internal %struct.ap_fixed_base* @_ZN13ap_fixed_baseILi19ELi4ELb1EL9ap_q_mode5EL9ap_o_mode3ELi0EEaSERKS2_(%struct.ap_fixed_base* %this, %struct.ap_fixed_base* %op) nounwind uwtable inlinehint alwaysinline align 2 {
  %1 = alloca %struct.ap_fixed_base*, align 8     ; [#uses=2 type=%struct.ap_fixed_base**]
  %2 = alloca %struct.ap_fixed_base*, align 8     ; [#uses=2 type=%struct.ap_fixed_base**]
  store %struct.ap_fixed_base* %this, %struct.ap_fixed_base** %1, align 8
  call void @llvm.dbg.declare(metadata !{%struct.ap_fixed_base** %1}, metadata !14800), !dbg !14801 ; [debug line = 1022:58] [debug variable = this]
  store %struct.ap_fixed_base* %op, %struct.ap_fixed_base** %2, align 8
  call void @llvm.dbg.declare(metadata !{%struct.ap_fixed_base** %2}, metadata !14802), !dbg !14803 ; [debug line = 1023:63] [debug variable = op]
  %3 = load %struct.ap_fixed_base** %1            ; [#uses=2 type=%struct.ap_fixed_base*]
  %4 = load %struct.ap_fixed_base** %2, align 8, !dbg !14804 ; [#uses=1 type=%struct.ap_fixed_base*] [debug line = 1025:9]
  %5 = bitcast %struct.ap_fixed_base* %4 to %struct.ssdm_int*, !dbg !14804 ; [#uses=1 type=%struct.ssdm_int*] [debug line = 1025:9]
  %6 = getelementptr inbounds %struct.ssdm_int* %5, i32 0, i32 0, !dbg !14804 ; [#uses=1 type=i19*] [debug line = 1025:9]
  %7 = load i19* %6, align 4, !dbg !14804         ; [#uses=1 type=i19] [debug line = 1025:9]
  %8 = bitcast %struct.ap_fixed_base* %3 to %struct.ssdm_int*, !dbg !14804 ; [#uses=1 type=%struct.ssdm_int*] [debug line = 1025:9]
  %9 = getelementptr inbounds %struct.ssdm_int* %8, i32 0, i32 0, !dbg !14804 ; [#uses=1 type=i19*] [debug line = 1025:9]
  store i19 %7, i19* %9, align 4, !dbg !14804     ; [debug line = 1025:9]
  ret %struct.ap_fixed_base* %3, !dbg !14806      ; [debug line = 1026:9]
}

; [#uses=1]
define internal void @_ZN13ap_fixed_baseILi19ELi4ELb1EL9ap_q_mode5EL9ap_o_mode3ELi0EEC1ILi32ELi32ELb1ELS0_5ELS1_3ELi0EEERKS_IXT_EXT0_EXT1_EXT2_EXT3_EXT4_EE(%struct.ap_fixed_base* %this, %struct.ap_fixed_base.9* %op) unnamed_addr nounwind uwtable align 2 {
  %1 = alloca %struct.ap_fixed_base*, align 8     ; [#uses=2 type=%struct.ap_fixed_base**]
  %2 = alloca %struct.ap_fixed_base.9*, align 8   ; [#uses=2 type=%struct.ap_fixed_base.9**]
  store %struct.ap_fixed_base* %this, %struct.ap_fixed_base** %1, align 8
  call void @llvm.dbg.declare(metadata !{%struct.ap_fixed_base** %1}, metadata !14807), !dbg !14808 ; [debug line = 663:13] [debug variable = this]
  store %struct.ap_fixed_base.9* %op, %struct.ap_fixed_base.9** %2, align 8
  call void @llvm.dbg.declare(metadata !{%struct.ap_fixed_base.9** %2}, metadata !14809), !dbg !14810 ; [debug line = 663:93] [debug variable = op]
  %3 = load %struct.ap_fixed_base** %1            ; [#uses=1 type=%struct.ap_fixed_base*]
  %4 = load %struct.ap_fixed_base.9** %2, !dbg !14811 ; [#uses=1 type=%struct.ap_fixed_base.9*] [debug line = 773:5]
  call void @_ZN13ap_fixed_baseILi19ELi4ELb1EL9ap_q_mode5EL9ap_o_mode3ELi0EEC2ILi32ELi32ELb1ELS0_5ELS1_3ELi0EEERKS_IXT_EXT0_EXT1_EXT2_EXT3_EXT4_EE(%struct.ap_fixed_base* %3, %struct.ap_fixed_base.9* %4), !dbg !14811 ; [debug line = 773:5]
  ret void, !dbg !14811                           ; [debug line = 773:5]
}

; [#uses=2]
define internal void @_ZN13ap_fixed_baseILi32ELi32ELb1EL9ap_q_mode5EL9ap_o_mode3ELi0EEC1Ei(%struct.ap_fixed_base.9* %this, i32 %i_op) unnamed_addr nounwind uwtable inlinehint alwaysinline align 2 {
  %1 = alloca %struct.ap_fixed_base.9*, align 8   ; [#uses=2 type=%struct.ap_fixed_base.9**]
  %2 = alloca i32, align 4                        ; [#uses=2 type=i32*]
  store %struct.ap_fixed_base.9* %this, %struct.ap_fixed_base.9** %1, align 8
  call void @llvm.dbg.declare(metadata !{%struct.ap_fixed_base.9** %1}, metadata !14812), !dbg !14814 ; [debug line = 2232:92] [debug variable = this]
  store i32 %i_op, i32* %2, align 4
  call void @llvm.dbg.declare(metadata !{i32* %2}, metadata !14815), !dbg !14816 ; [debug line = 2232:117] [debug variable = i_op]
  %3 = load %struct.ap_fixed_base.9** %1          ; [#uses=1 type=%struct.ap_fixed_base.9*]
  %4 = load i32* %2, align 4, !dbg !14817         ; [#uses=1 type=i32] [debug line = 2232:141]
  call void @_ZN13ap_fixed_baseILi32ELi32ELb1EL9ap_q_mode5EL9ap_o_mode3ELi0EEC2Ei(%struct.ap_fixed_base.9* %3, i32 %4), !dbg !14817 ; [debug line = 2232:141]
  ret void, !dbg !14817                           ; [debug line = 2232:141]
}

; [#uses=1]
define internal void @_ZN13ap_fixed_baseILi32ELi32ELb1EL9ap_q_mode5EL9ap_o_mode3ELi0EEC2Ei(%struct.ap_fixed_base.9* %this, i32 %i_op) unnamed_addr nounwind uwtable inlinehint alwaysinline align 2 {
  %1 = alloca %struct.ap_fixed_base.9*, align 8   ; [#uses=2 type=%struct.ap_fixed_base.9**]
  %2 = alloca i32, align 4                        ; [#uses=2 type=i32*]
  store %struct.ap_fixed_base.9* %this, %struct.ap_fixed_base.9** %1, align 8
  call void @llvm.dbg.declare(metadata !{%struct.ap_fixed_base.9** %1}, metadata !14818), !dbg !14819 ; [debug line = 2232:92] [debug variable = this]
  store i32 %i_op, i32* %2, align 4
  call void @llvm.dbg.declare(metadata !{i32* %2}, metadata !14820), !dbg !14821 ; [debug line = 2232:117] [debug variable = i_op]
  %3 = load %struct.ap_fixed_base.9** %1          ; [#uses=2 type=%struct.ap_fixed_base.9*]
  %4 = bitcast %struct.ap_fixed_base.9* %3 to %struct.ssdm_int.10*, !dbg !14822 ; [#uses=1 type=%struct.ssdm_int.10*] [debug line = 2232:123]
  call void @_ZN8ssdm_intILi32ELb1EEC2Ev(%struct.ssdm_int.10* %4), !dbg !14822 ; [debug line = 2232:123]
  %5 = load i32* %2, align 4, !dbg !14823         ; [#uses=1 type=i32] [debug line = 2232:125]
  %6 = bitcast %struct.ap_fixed_base.9* %3 to %struct.ssdm_int.10*, !dbg !14823 ; [#uses=1 type=%struct.ssdm_int.10*] [debug line = 2232:125]
  %7 = getelementptr inbounds %struct.ssdm_int.10* %6, i32 0, i32 0, !dbg !14823 ; [#uses=1 type=i32*] [debug line = 2232:125]
  store i32 %5, i32* %7, align 4, !dbg !14823     ; [debug line = 2232:125]
  ret void, !dbg !14825                           ; [debug line = 2232:141]
}

; [#uses=2]
define internal void @_ZN8ssdm_intILi32ELb1EEC2Ev(%struct.ssdm_int.10* %this) unnamed_addr nounwind uwtable inlinehint alwaysinline align 2 {
  %1 = alloca %struct.ssdm_int.10*, align 8       ; [#uses=2 type=%struct.ssdm_int.10**]
  store %struct.ssdm_int.10* %this, %struct.ssdm_int.10** %1, align 8
  call void @llvm.dbg.declare(metadata !{%struct.ssdm_int.10** %1}, metadata !14826), !dbg !14828 ; [debug line = 34:137] [debug variable = this]
  %2 = load %struct.ssdm_int.10** %1              ; [#uses=0 type=%struct.ssdm_int.10*]
  ret void, !dbg !14829                           ; [debug line = 34:171]
}

; [#uses=1]
define internal void @_ZN13ap_fixed_baseILi19ELi4ELb1EL9ap_q_mode5EL9ap_o_mode3ELi0EEC2ILi32ELi32ELb1ELS0_5ELS1_3ELi0EEERKS_IXT_EXT0_EXT1_EXT2_EXT3_EXT4_EE(%struct.ap_fixed_base* %this, %struct.ap_fixed_base.9* %op) unnamed_addr nounwind uwtable align 2 {
  %1 = alloca %struct.ap_fixed_base*, align 8     ; [#uses=2 type=%struct.ap_fixed_base**]
  %2 = alloca %struct.ap_fixed_base.9*, align 8   ; [#uses=3 type=%struct.ap_fixed_base.9**]
  %carry = alloca i1, align 1                     ; [#uses=1 type=i1*]
  %sh_amt = alloca i32, align 4                   ; [#uses=3 type=i32*]
  %signbit = alloca i1, align 1                   ; [#uses=2 type=i1*]
  %__Result__ = alloca i32, align 4               ; [#uses=4 type=i32*]
  %__Val2__ = alloca i32, align 4                 ; [#uses=3 type=i32*]
  %isneg = alloca i1, align 1                     ; [#uses=1 type=i1*]
  store %struct.ap_fixed_base* %this, %struct.ap_fixed_base** %1, align 8
  call void @llvm.dbg.declare(metadata !{%struct.ap_fixed_base** %1}, metadata !14831), !dbg !14832 ; [debug line = 663:13] [debug variable = this]
  store %struct.ap_fixed_base.9* %op, %struct.ap_fixed_base.9** %2, align 8
  call void @llvm.dbg.declare(metadata !{%struct.ap_fixed_base.9** %2}, metadata !14833), !dbg !14834 ; [debug line = 663:93] [debug variable = op]
  %3 = load %struct.ap_fixed_base** %1            ; [#uses=5 type=%struct.ap_fixed_base*]
  %4 = bitcast %struct.ap_fixed_base* %3 to %struct.ssdm_int*, !dbg !14835 ; [#uses=1 type=%struct.ssdm_int*] [debug line = 663:97]
  call void @_ZN8ssdm_intILi19ELb1EEC2Ev(%struct.ssdm_int* %4), !dbg !14835 ; [debug line = 663:97]
  call void (...)* @_ssdm_InlineSelf(i32 0, i8* getelementptr inbounds ([1 x i8]* @.str, i32 0, i32 0)) nounwind, !dbg !14836 ; [debug line = 665:1]
  call void @llvm.dbg.declare(metadata !{i1* %carry}, metadata !14838), !dbg !14839 ; [debug line = 669:14] [debug variable = carry]
  store i1 false, i1* %carry, align 1, !dbg !14840 ; [debug line = 669:27]
  call void @llvm.dbg.declare(metadata !{i32* %sh_amt}, metadata !14841), !dbg !14842 ; [debug line = 674:18] [debug variable = sh_amt]
  store i32 15, i32* %sh_amt, align 4, !dbg !14843 ; [debug line = 674:65]
  call void @llvm.dbg.declare(metadata !{i1* %signbit}, metadata !14844), !dbg !14845 ; [debug line = 675:14] [debug variable = signbit]
  call void @llvm.dbg.declare(metadata !{i32* %__Result__}, metadata !14846), !dbg !14848 ; [debug line = 675:120] [debug variable = __Result__]
  store i32 0, i32* %__Result__, align 4, !dbg !14849 ; [debug line = 675:134]
  call void @llvm.dbg.declare(metadata !{i32* %__Val2__}, metadata !14850), !dbg !14851 ; [debug line = 675:229] [debug variable = __Val2__]
  %5 = load %struct.ap_fixed_base.9** %2, align 8, !dbg !14852 ; [#uses=1 type=%struct.ap_fixed_base.9*] [debug line = 675:0]
  %6 = bitcast %struct.ap_fixed_base.9* %5 to %struct.ssdm_int.10*, !dbg !14852 ; [#uses=1 type=%struct.ssdm_int.10*] [debug line = 675:0]
  %7 = getelementptr inbounds %struct.ssdm_int.10* %6, i32 0, i32 0, !dbg !14852 ; [#uses=1 type=i32*] [debug line = 675:0]
  %8 = load i32* %7, align 4, !dbg !14852         ; [#uses=1 type=i32] [debug line = 675:0]
  store i32 %8, i32* %__Val2__, align 4, !dbg !14852 ; [debug line = 675:0]
  %9 = bitcast i32* %__Result__ to i8*, !dbg !14852 ; [#uses=0 type=i8*] [debug line = 675:0]
  %10 = bitcast i32* %__Val2__ to i8*, !dbg !14852 ; [#uses=0 type=i8*] [debug line = 675:0]
  %11 = load i32* %__Val2__, !dbg !14852          ; [#uses=1 type=i32] [debug line = 675:0]
  %12 = call i32 @llvm.part.select.i32(i32 %11, i32 31, i32 31), !dbg !14852 ; [#uses=1 type=i32] [debug line = 675:0]
  store i32 %12, i32* %__Result__, !dbg !14852    ; [debug line = 675:0]
  %13 = load i32* %__Result__, align 4, !dbg !14852 ; [#uses=1 type=i32] [debug line = 675:0]
  %14 = and i32 %13, 1, !dbg !14852               ; [#uses=1 type=i32] [debug line = 675:0]
  %15 = icmp ne i32 %14, 0, !dbg !14852           ; [#uses=1 type=i1] [debug line = 675:0]
  store i1 %15, i1* %signbit, align 1, !dbg !14852 ; [debug line = 675:0]
  call void @llvm.dbg.declare(metadata !{i1* %isneg}, metadata !14853), !dbg !14854 ; [debug line = 677:14] [debug variable = isneg]
  %16 = load i1* %signbit, align 1, !dbg !14855   ; [#uses=1 type=i1] [debug line = 677:39]
  br i1 %16, label %17, label %18, !dbg !14855    ; [debug line = 677:39]

; <label>:17                                      ; preds = %0
  br label %18

; <label>:18                                      ; preds = %17, %0
  %19 = phi i1 [ false, %0 ], [ true, %17 ]       ; [#uses=1 type=i1]
  store i1 %19, i1* %isneg, align 1
  %20 = load %struct.ap_fixed_base.9** %2, align 8, !dbg !14856 ; [#uses=1 type=%struct.ap_fixed_base.9*] [debug line = 701:13]
  %21 = bitcast %struct.ap_fixed_base.9* %20 to %struct.ssdm_int.10*, !dbg !14856 ; [#uses=1 type=%struct.ssdm_int.10*] [debug line = 701:13]
  %22 = getelementptr inbounds %struct.ssdm_int.10* %21, i32 0, i32 0, !dbg !14856 ; [#uses=1 type=i32*] [debug line = 701:13]
  %23 = load i32* %22, align 4, !dbg !14856       ; [#uses=1 type=i32] [debug line = 701:13]
  %24 = trunc i32 %23 to i19, !dbg !14856         ; [#uses=1 type=i19] [debug line = 701:13]
  %25 = bitcast %struct.ap_fixed_base* %3 to %struct.ssdm_int*, !dbg !14856 ; [#uses=1 type=%struct.ssdm_int*] [debug line = 701:13]
  %26 = getelementptr inbounds %struct.ssdm_int* %25, i32 0, i32 0, !dbg !14856 ; [#uses=1 type=i19*] [debug line = 701:13]
  store i19 %24, i19* %26, align 4, !dbg !14856   ; [debug line = 701:13]
  %27 = load i32* %sh_amt, align 4, !dbg !14858   ; [#uses=1 type=i32] [debug line = 702:13]
  %28 = icmp ult i32 %27, 19, !dbg !14858         ; [#uses=1 type=i1] [debug line = 702:13]
  br i1 %28, label %29, label %39, !dbg !14858    ; [debug line = 702:13]

; <label>:29                                      ; preds = %18
  %30 = bitcast %struct.ap_fixed_base* %3 to %struct.ssdm_int*, !dbg !14859 ; [#uses=1 type=%struct.ssdm_int*] [debug line = 703:17]
  %31 = getelementptr inbounds %struct.ssdm_int* %30, i32 0, i32 0, !dbg !14859 ; [#uses=1 type=i19*] [debug line = 703:17]
  %32 = load i19* %31, align 4, !dbg !14859       ; [#uses=1 type=i19] [debug line = 703:17]
  %33 = sext i19 %32 to i32, !dbg !14859          ; [#uses=1 type=i32] [debug line = 703:17]
  %34 = load i32* %sh_amt, align 4, !dbg !14859   ; [#uses=1 type=i32] [debug line = 703:17]
  %35 = shl i32 %33, %34, !dbg !14859             ; [#uses=1 type=i32] [debug line = 703:17]
  %36 = trunc i32 %35 to i19, !dbg !14859         ; [#uses=1 type=i19] [debug line = 703:17]
  %37 = bitcast %struct.ap_fixed_base* %3 to %struct.ssdm_int*, !dbg !14859 ; [#uses=1 type=%struct.ssdm_int*] [debug line = 703:17]
  %38 = getelementptr inbounds %struct.ssdm_int* %37, i32 0, i32 0, !dbg !14859 ; [#uses=1 type=i19*] [debug line = 703:17]
  store i19 %36, i19* %38, align 4, !dbg !14859   ; [debug line = 703:17]
  br label %42, !dbg !14859                       ; [debug line = 703:17]

; <label>:39                                      ; preds = %18
  %40 = bitcast %struct.ap_fixed_base* %3 to %struct.ssdm_int*, !dbg !14860 ; [#uses=1 type=%struct.ssdm_int*] [debug line = 705:17]
  %41 = getelementptr inbounds %struct.ssdm_int* %40, i32 0, i32 0, !dbg !14860 ; [#uses=1 type=i19*] [debug line = 705:17]
  store i19 0, i19* %41, align 4, !dbg !14860     ; [debug line = 705:17]
  br label %42

; <label>:42                                      ; preds = %39, %29
  ret void, !dbg !14861                           ; [debug line = 773:5]
}

; [#uses=13]
declare void @_ssdm_InlineSelf(...) nounwind

; [#uses=2]
declare i32 @llvm.part.select.i32(i32, i32, i32) nounwind readnone

; [#uses=1]
define internal void @_ZN8ap_fixedILi19ELi4EL9ap_q_mode5EL9ap_o_mode3ELi0EEC2Ed(%struct.ap_fixed* %this, double %v) unnamed_addr nounwind uwtable inlinehint alwaysinline align 2 {
  %1 = alloca %struct.ap_fixed*, align 8          ; [#uses=2 type=%struct.ap_fixed**]
  %2 = alloca double, align 8                     ; [#uses=2 type=double*]
  store %struct.ap_fixed* %this, %struct.ap_fixed** %1, align 8
  call void @llvm.dbg.declare(metadata !{%struct.ap_fixed** %1}, metadata !14862), !dbg !14863 ; [debug line = 380:41] [debug variable = this]
  store double %v, double* %2, align 8
  call void @llvm.dbg.declare(metadata !{double* %2}, metadata !14864), !dbg !14865 ; [debug line = 380:57] [debug variable = v]
  %3 = load %struct.ap_fixed** %1                 ; [#uses=1 type=%struct.ap_fixed*]
  %4 = bitcast %struct.ap_fixed* %3 to %struct.ap_fixed_base*, !dbg !14866 ; [#uses=1 type=%struct.ap_fixed_base*] [debug line = 380:68]
  %5 = load double* %2, align 8, !dbg !14866      ; [#uses=1 type=double] [debug line = 380:68]
  call void @_ZN13ap_fixed_baseILi19ELi4ELb1EL9ap_q_mode5EL9ap_o_mode3ELi0EEC2Ed(%struct.ap_fixed_base* %4, double %5), !dbg !14866 ; [debug line = 380:68]
  ret void, !dbg !14867                           ; [debug line = 380:69]
}

; [#uses=1]
define internal void @_ZN13ap_fixed_baseILi19ELi4ELb1EL9ap_q_mode5EL9ap_o_mode3ELi0EEC2Ed(%struct.ap_fixed_base* %this, double %d) unnamed_addr nounwind uwtable align 2 {
  %1 = alloca %struct.ap_fixed_base*, align 8     ; [#uses=2 type=%struct.ap_fixed_base**]
  %2 = alloca double, align 8                     ; [#uses=2 type=double*]
  %ireg = alloca %struct.ap_int_base, align 8     ; [#uses=6 type=%struct.ap_int_base*]
  %isneg = alloca i1, align 1                     ; [#uses=3 type=i1*]
  %__Result__ = alloca i64, align 8               ; [#uses=4 type=i64*]
  %__Val2__ = alloca i64, align 8                 ; [#uses=3 type=i64*]
  %exp = alloca %struct.ap_int_base.12, align 2   ; [#uses=3 type=%struct.ap_int_base.12*]
  %exp_tmp = alloca %struct.ap_int_base.14, align 2 ; [#uses=3 type=%struct.ap_int_base.14*]
  %__Result__1 = alloca i64, align 8              ; [#uses=4 type=i64*]
  %__Val2__2 = alloca i64, align 8                ; [#uses=3 type=i64*]
  %3 = alloca %struct.ap_int_base.16, align 8     ; [#uses=2 type=%struct.ap_int_base.16*]
  %man = alloca %struct.ap_int_base.18, align 8   ; [#uses=9 type=%struct.ap_int_base.18*]
  %__Result__3 = alloca i64, align 8              ; [#uses=4 type=i64*]
  %__Val2__4 = alloca i64, align 8                ; [#uses=3 type=i64*]
  %__Result__5 = alloca i54, align 8              ; [#uses=4 type=i54*]
  %__Val2__6 = alloca i54, align 8                ; [#uses=3 type=i54*]
  %__Repl2__ = alloca i32, align 4                ; [#uses=3 type=i32*]
  %4 = alloca %struct.ap_int_base.20, align 8     ; [#uses=2 type=%struct.ap_int_base.20*]
  %_AP_W2 = alloca i32, align 4                   ; [#uses=2 type=i32*]
  %_AP_I2 = alloca i32, align 4                   ; [#uses=2 type=i32*]
  %_AP_F = alloca i32, align 4                    ; [#uses=7 type=i32*]
  %F2 = alloca i32, align 4                       ; [#uses=7 type=i32*]
  %_AP_S2 = alloca i1, align 1                    ; [#uses=1 type=i1*]
  %QUAN_INC = alloca i1, align 1                  ; [#uses=1 type=i1*]
  %carry = alloca i1, align 1                     ; [#uses=1 type=i1*]
  %sh_amt = alloca i32, align 4                   ; [#uses=5 type=i32*]
  store %struct.ap_fixed_base* %this, %struct.ap_fixed_base** %1, align 8
  call void @llvm.dbg.declare(metadata !{%struct.ap_fixed_base** %1}, metadata !14869), !dbg !14870 ; [debug line = 901:13] [debug variable = this]
  store double %d, double* %2, align 8
  call void @llvm.dbg.declare(metadata !{double* %2}, metadata !14871), !dbg !14872 ; [debug line = 901:34] [debug variable = d]
  %5 = load %struct.ap_fixed_base** %1            ; [#uses=11 type=%struct.ap_fixed_base*]
  %6 = bitcast %struct.ap_fixed_base* %5 to %struct.ssdm_int*, !dbg !14873 ; [#uses=1 type=%struct.ssdm_int*] [debug line = 901:37]
  call void @_ZN8ssdm_intILi19ELb1EEC2Ev(%struct.ssdm_int* %6), !dbg !14873 ; [debug line = 901:37]
  call void (...)* @_ssdm_InlineSelf(i32 0, i8* getelementptr inbounds ([1 x i8]* @.str, i32 0, i32 0)) nounwind, !dbg !14874 ; [debug line = 903:1]
  call void @llvm.dbg.declare(metadata !{%struct.ap_int_base* %ireg}, metadata !14876), !dbg !14877 ; [debug line = 905:31] [debug variable = ireg]
  call void @_ZN11ap_int_baseILi64ELb0ELb1EEC1Ev(%struct.ap_int_base* %ireg), !dbg !14878 ; [debug line = 905:35]
  %7 = load double* %2, align 8, !dbg !14879      ; [#uses=1 type=double] [debug line = 906:18]
  %8 = call i64 @_ZNK13ap_fixed_baseILi19ELi4ELb1EL9ap_q_mode5EL9ap_o_mode3ELi0EE15doubleToRawBitsEd(%struct.ap_fixed_base* %5, double %7), !dbg !14879 ; [#uses=1 type=i64] [debug line = 906:18]
  %9 = bitcast %struct.ap_int_base* %ireg to %"class.std::locale::id"*, !dbg !14879 ; [#uses=1 type=%"class.std::locale::id"*] [debug line = 906:18]
  %10 = getelementptr inbounds %"class.std::locale::id"* %9, i32 0, i32 0, !dbg !14879 ; [#uses=1 type=i64*] [debug line = 906:18]
  store i64 %8, i64* %10, align 8, !dbg !14879    ; [debug line = 906:18]
  call void @llvm.dbg.declare(metadata !{i1* %isneg}, metadata !14880), !dbg !14881 ; [debug line = 907:14] [debug variable = isneg]
  call void @llvm.dbg.declare(metadata !{i64* %__Result__}, metadata !14882), !dbg !14884 ; [debug line = 907:44] [debug variable = __Result__]
  store i64 0, i64* %__Result__, align 8, !dbg !14885 ; [debug line = 907:58]
  call void @llvm.dbg.declare(metadata !{i64* %__Val2__}, metadata !14886), !dbg !14887 ; [debug line = 907:79] [debug variable = __Val2__]
  %11 = bitcast %struct.ap_int_base* %ireg to %"class.std::locale::id"*, !dbg !14888 ; [#uses=1 type=%"class.std::locale::id"*] [debug line = 907:96]
  %12 = getelementptr inbounds %"class.std::locale::id"* %11, i32 0, i32 0, !dbg !14888 ; [#uses=1 type=i64*] [debug line = 907:96]
  %13 = load i64* %12, align 8, !dbg !14888       ; [#uses=1 type=i64] [debug line = 907:96]
  store i64 %13, i64* %__Val2__, align 8, !dbg !14888 ; [debug line = 907:96]
  %14 = bitcast i64* %__Result__ to i8*, !dbg !14889 ; [#uses=0 type=i8*] [debug line = 907:98]
  %15 = bitcast i64* %__Val2__ to i8*, !dbg !14889 ; [#uses=0 type=i8*] [debug line = 907:98]
  %16 = load i64* %__Val2__, !dbg !14889          ; [#uses=1 type=i64] [debug line = 907:98]
  %17 = call i64 @llvm.part.select.i64(i64 %16, i32 63, i32 63), !dbg !14889 ; [#uses=1 type=i64] [debug line = 907:98]
  store i64 %17, i64* %__Result__, !dbg !14889    ; [debug line = 907:98]
  %18 = load i64* %__Result__, align 8, !dbg !14889 ; [#uses=1 type=i64] [debug line = 907:98]
  %19 = and i64 %18, 1, !dbg !14889               ; [#uses=1 type=i64] [debug line = 907:98]
  %20 = icmp ne i64 %19, 0, !dbg !14889           ; [#uses=1 type=i1] [debug line = 907:98]
  store i1 %20, i1* %isneg, align 1, !dbg !14890  ; [debug line = 907:199]
  call void @llvm.dbg.declare(metadata !{%struct.ap_int_base.12* %exp}, metadata !14891), !dbg !14892 ; [debug line = 909:35] [debug variable = exp]
  call void @_ZN11ap_int_baseILi12ELb1ELb1EEC1Ev(%struct.ap_int_base.12* %exp), !dbg !14893 ; [debug line = 909:38]
  call void @llvm.dbg.declare(metadata !{%struct.ap_int_base.14* %exp_tmp}, metadata !14894), !dbg !14895 ; [debug line = 910:32] [debug variable = exp_tmp]
  call void @_ZN11ap_int_baseILi11ELb0ELb1EEC1Ev(%struct.ap_int_base.14* %exp_tmp), !dbg !14896 ; [debug line = 910:39]
  call void @llvm.dbg.declare(metadata !{i64* %__Result__1}, metadata !14897), !dbg !14899 ; [debug line = 911:43] [debug variable = __Result__]
  store i64 0, i64* %__Result__1, align 8, !dbg !14900 ; [debug line = 911:57]
  call void @llvm.dbg.declare(metadata !{i64* %__Val2__2}, metadata !14901), !dbg !14902 ; [debug line = 911:78] [debug variable = __Val2__]
  %21 = bitcast %struct.ap_int_base* %ireg to %"class.std::locale::id"*, !dbg !14903 ; [#uses=1 type=%"class.std::locale::id"*] [debug line = 911:95]
  %22 = getelementptr inbounds %"class.std::locale::id"* %21, i32 0, i32 0, !dbg !14903 ; [#uses=1 type=i64*] [debug line = 911:95]
  %23 = load i64* %22, align 8, !dbg !14903       ; [#uses=1 type=i64] [debug line = 911:95]
  store i64 %23, i64* %__Val2__2, align 8, !dbg !14903 ; [debug line = 911:95]
  %24 = bitcast i64* %__Result__1 to i8*, !dbg !14904 ; [#uses=0 type=i8*] [debug line = 911:97]
  %25 = bitcast i64* %__Val2__2 to i8*, !dbg !14904 ; [#uses=0 type=i8*] [debug line = 911:97]
  %26 = load i64* %__Val2__2, !dbg !14904         ; [#uses=1 type=i64] [debug line = 911:97]
  %27 = call i64 @llvm.part.select.i64(i64 %26, i32 52, i32 62), !dbg !14904 ; [#uses=1 type=i64] [debug line = 911:97]
  store i64 %27, i64* %__Result__1, !dbg !14904   ; [debug line = 911:97]
  %28 = load i64* %__Result__1, align 8, !dbg !14904 ; [#uses=1 type=i64] [debug line = 911:97]
  %29 = trunc i64 %28 to i11, !dbg !14905         ; [#uses=1 type=i11] [debug line = 911:194]
  %30 = bitcast %struct.ap_int_base.14* %exp_tmp to %struct.ssdm_int.15*, !dbg !14905 ; [#uses=1 type=%struct.ssdm_int.15*] [debug line = 911:194]
  %31 = getelementptr inbounds %struct.ssdm_int.15* %30, i32 0, i32 0, !dbg !14905 ; [#uses=1 type=i11*] [debug line = 911:194]
  store i11 %29, i11* %31, align 2, !dbg !14905   ; [debug line = 911:194]
  call void @_ZmiILi11ELb0EEN11ap_int_baseIXT_EXT0_EXleT_Li64EEE5RTypeIXLi32EEXLb1EEE5minusERKS1_i(%struct.ap_int_base.16* sret %3, %struct.ap_int_base.14* %exp_tmp, i32 1023), !dbg !14906 ; [debug line = 913:15]
  %32 = call %struct.ap_int_base.12* @_ZN11ap_int_baseILi12ELb1ELb1EEaSILi33ELb1EEERS0_RKS_IXT_EXT0_EXleT_Li64EEE(%struct.ap_int_base.12* %exp, %struct.ap_int_base.16* %3), !dbg !14906 ; [#uses=0 type=%struct.ap_int_base.12*] [debug line = 913:15]
  call void @llvm.dbg.declare(metadata !{%struct.ap_int_base.18* %man}, metadata !14907), !dbg !14908 ; [debug line = 914:35] [debug variable = man]
  call void @_ZN11ap_int_baseILi54ELb1ELb1EEC1Ev(%struct.ap_int_base.18* %man), !dbg !14909 ; [debug line = 914:38]
  call void @llvm.dbg.declare(metadata !{i64* %__Result__3}, metadata !14910), !dbg !14912 ; [debug line = 915:39] [debug variable = __Result__]
  store i64 0, i64* %__Result__3, align 8, !dbg !14913 ; [debug line = 915:53]
  call void @llvm.dbg.declare(metadata !{i64* %__Val2__4}, metadata !14914), !dbg !14915 ; [debug line = 915:74] [debug variable = __Val2__]
  %33 = bitcast %struct.ap_int_base* %ireg to %"class.std::locale::id"*, !dbg !14916 ; [#uses=1 type=%"class.std::locale::id"*] [debug line = 915:91]
  %34 = getelementptr inbounds %"class.std::locale::id"* %33, i32 0, i32 0, !dbg !14916 ; [#uses=1 type=i64*] [debug line = 915:91]
  %35 = load i64* %34, align 8, !dbg !14916       ; [#uses=1 type=i64] [debug line = 915:91]
  store i64 %35, i64* %__Val2__4, align 8, !dbg !14916 ; [debug line = 915:91]
  %36 = bitcast i64* %__Result__3 to i8*, !dbg !14917 ; [#uses=0 type=i8*] [debug line = 915:93]
  %37 = bitcast i64* %__Val2__4 to i8*, !dbg !14917 ; [#uses=0 type=i8*] [debug line = 915:93]
  %38 = load i64* %__Val2__4, !dbg !14917         ; [#uses=1 type=i64] [debug line = 915:93]
  %39 = call i64 @llvm.part.select.i64(i64 %38, i32 0, i32 51), !dbg !14917 ; [#uses=1 type=i64] [debug line = 915:93]
  store i64 %39, i64* %__Result__3, !dbg !14917   ; [debug line = 915:93]
  %40 = load i64* %__Result__3, align 8, !dbg !14917 ; [#uses=1 type=i64] [debug line = 915:93]
  %41 = trunc i64 %40 to i54, !dbg !14918         ; [#uses=1 type=i54] [debug line = 915:185]
  %42 = bitcast %struct.ap_int_base.18* %man to %struct.ssdm_int.19*, !dbg !14918 ; [#uses=1 type=%struct.ssdm_int.19*] [debug line = 915:185]
  %43 = getelementptr inbounds %struct.ssdm_int.19* %42, i32 0, i32 0, !dbg !14918 ; [#uses=1 type=i54*] [debug line = 915:185]
  store i54 %41, i54* %43, align 8, !dbg !14918   ; [debug line = 915:185]
  call void @llvm.dbg.declare(metadata !{i54* %__Result__5}, metadata !14919), !dbg !14921 ; [debug line = 919:38] [debug variable = __Result__]
  store i54 0, i54* %__Result__5, align 8, !dbg !14922 ; [debug line = 919:52]
  call void @llvm.dbg.declare(metadata !{i54* %__Val2__6}, metadata !14923), !dbg !14924 ; [debug line = 919:72] [debug variable = __Val2__]
  %44 = bitcast %struct.ap_int_base.18* %man to %struct.ssdm_int.19*, !dbg !14925 ; [#uses=1 type=%struct.ssdm_int.19*] [debug line = 919:88]
  %45 = getelementptr inbounds %struct.ssdm_int.19* %44, i32 0, i32 0, !dbg !14925 ; [#uses=1 type=i54*] [debug line = 919:88]
  %46 = load i54* %45, align 8, !dbg !14925       ; [#uses=1 type=i54] [debug line = 919:88]
  store i54 %46, i54* %__Val2__6, align 8, !dbg !14925 ; [debug line = 919:88]
  call void @llvm.dbg.declare(metadata !{i32* %__Repl2__}, metadata !14926), !dbg !14927 ; [debug line = 919:104] [debug variable = __Repl2__]
  store i32 1, i32* %__Repl2__, align 4, !dbg !14928 ; [debug line = 919:119]
  %47 = bitcast i54* %__Result__5 to i8*, !dbg !14929 ; [#uses=0 type=i8*] [debug line = 919:121]
  %48 = bitcast i54* %__Val2__6 to i8*, !dbg !14929 ; [#uses=0 type=i8*] [debug line = 919:121]
  %49 = bitcast i32* %__Repl2__ to i8*, !dbg !14929 ; [#uses=0 type=i8*] [debug line = 919:121]
  %50 = load i54* %__Val2__6, !dbg !14929         ; [#uses=1 type=i54] [debug line = 919:121]
  %51 = load i32* %__Repl2__, !dbg !14929         ; [#uses=1 type=i32] [debug line = 919:121]
  %52 = call i54 @llvm.part.set.i54.i32(i54 %50, i32 %51, i32 52, i32 52), !dbg !14929 ; [#uses=1 type=i54] [debug line = 919:121]
  store i54 %52, i54* %__Result__5, !dbg !14929   ; [debug line = 919:121]
  %53 = load i54* %__Result__5, align 8, !dbg !14929 ; [#uses=1 type=i54] [debug line = 919:121]
  %54 = bitcast %struct.ap_int_base.18* %man to %struct.ssdm_int.19*, !dbg !14930 ; [#uses=1 type=%struct.ssdm_int.19*] [debug line = 919:228]
  %55 = getelementptr inbounds %struct.ssdm_int.19* %54, i32 0, i32 0, !dbg !14930 ; [#uses=1 type=i54*] [debug line = 919:228]
  store i54 %53, i54* %55, align 8, !dbg !14930   ; [debug line = 919:228]
  %56 = load i1* %isneg, align 1, !dbg !14931     ; [#uses=1 type=i1] [debug line = 920:9]
  br i1 %56, label %57, label %59, !dbg !14931    ; [debug line = 920:9]

; <label>:57                                      ; preds = %0
  call void @_ZNK11ap_int_baseILi54ELb1ELb1EEngEv(%struct.ap_int_base.20* sret %4, %struct.ap_int_base.18* %man), !dbg !14932 ; [debug line = 920:25]
  %58 = call %struct.ap_int_base.18* @_ZN11ap_int_baseILi54ELb1ELb1EEaSILi55ELb1EEERS0_RKS_IXT_EXT0_EXleT_Li64EEE(%struct.ap_int_base.18* %man, %struct.ap_int_base.20* %4), !dbg !14932 ; [#uses=0 type=%struct.ap_int_base.18*] [debug line = 920:25]
  br label %59, !dbg !14932                       ; [debug line = 920:25]

; <label>:59                                      ; preds = %57, %0
  %60 = bitcast %struct.ap_int_base* %ireg to %"class.std::locale::id"*, !dbg !14933 ; [#uses=1 type=%"class.std::locale::id"*] [debug line = 921:9]
  %61 = getelementptr inbounds %"class.std::locale::id"* %60, i32 0, i32 0, !dbg !14933 ; [#uses=1 type=i64*] [debug line = 921:9]
  %62 = load i64* %61, align 8, !dbg !14933       ; [#uses=1 type=i64] [debug line = 921:9]
  %63 = and i64 %62, 9223372036854775807, !dbg !14933 ; [#uses=1 type=i64] [debug line = 921:9]
  %64 = icmp eq i64 %63, 0, !dbg !14933           ; [#uses=1 type=i1] [debug line = 921:9]
  br i1 %64, label %65, label %68, !dbg !14933    ; [debug line = 921:9]

; <label>:65                                      ; preds = %59
  %66 = bitcast %struct.ap_fixed_base* %5 to %struct.ssdm_int*, !dbg !14934 ; [#uses=1 type=%struct.ssdm_int*] [debug line = 922:13]
  %67 = getelementptr inbounds %struct.ssdm_int* %66, i32 0, i32 0, !dbg !14934 ; [#uses=1 type=i19*] [debug line = 922:13]
  store i19 0, i19* %67, align 4, !dbg !14934     ; [debug line = 922:13]
  br label %160, !dbg !14936                      ; [debug line = 923:9]

; <label>:68                                      ; preds = %59
  call void @llvm.dbg.declare(metadata !{i32* %_AP_W2}, metadata !14937), !dbg !14939 ; [debug line = 924:17] [debug variable = _AP_W2]
  store i32 54, i32* %_AP_W2, align 4, !dbg !14940 ; [debug line = 924:82]
  call void @llvm.dbg.declare(metadata !{i32* %_AP_I2}, metadata !14941), !dbg !14942 ; [debug line = 924:31] [debug variable = _AP_I2]
  %69 = bitcast %struct.ap_int_base.12* %exp to %struct.ssdm_int.13*, !dbg !14940 ; [#uses=1 type=%struct.ssdm_int.13*] [debug line = 924:82]
  %70 = getelementptr inbounds %struct.ssdm_int.13* %69, i32 0, i32 0, !dbg !14940 ; [#uses=1 type=i12*] [debug line = 924:82]
  %71 = load i12* %70, align 2, !dbg !14940       ; [#uses=1 type=i12] [debug line = 924:82]
  %72 = sext i12 %71 to i32, !dbg !14940          ; [#uses=1 type=i32] [debug line = 924:82]
  %73 = add nsw i32 %72, 2, !dbg !14940           ; [#uses=1 type=i32] [debug line = 924:82]
  store i32 %73, i32* %_AP_I2, align 4, !dbg !14940 ; [debug line = 924:82]
  call void @llvm.dbg.declare(metadata !{i32* %_AP_F}, metadata !14943), !dbg !14944 ; [debug line = 924:47] [debug variable = _AP_F]
  store i32 15, i32* %_AP_F, align 4, !dbg !14940 ; [debug line = 924:82]
  call void @llvm.dbg.declare(metadata !{i32* %F2}, metadata !14945), !dbg !14946 ; [debug line = 924:66] [debug variable = F2]
  %74 = load i32* %_AP_W2, align 4, !dbg !14940   ; [#uses=1 type=i32] [debug line = 924:82]
  %75 = load i32* %_AP_I2, align 4, !dbg !14940   ; [#uses=1 type=i32] [debug line = 924:82]
  %76 = sub nsw i32 %74, %75, !dbg !14940         ; [#uses=1 type=i32] [debug line = 924:82]
  store i32 %76, i32* %F2, align 4, !dbg !14940   ; [debug line = 924:82]
  call void @llvm.dbg.declare(metadata !{i1* %_AP_S2}, metadata !14947), !dbg !14948 ; [debug line = 925:18] [debug variable = _AP_S2]
  store i1 true, i1* %_AP_S2, align 1, !dbg !14949 ; [debug line = 926:92]
  call void @llvm.dbg.declare(metadata !{i1* %QUAN_INC}, metadata !14950), !dbg !14951 ; [debug line = 926:18] [debug variable = QUAN_INC]
  %77 = load i32* %F2, align 4, !dbg !14949       ; [#uses=1 type=i32] [debug line = 926:92]
  %78 = load i32* %_AP_F, align 4, !dbg !14949    ; [#uses=1 type=i32] [debug line = 926:92]
  %79 = icmp sgt i32 %77, %78, !dbg !14949        ; [#uses=1 type=i1] [debug line = 926:92]
  br i1 %79, label %80, label %81, !dbg !14949    ; [debug line = 926:92]

; <label>:80                                      ; preds = %68
  br label %81

; <label>:81                                      ; preds = %80, %68
  %82 = phi i1 [ false, %68 ], [ false, %80 ]     ; [#uses=1 type=i1]
  store i1 %82, i1* %QUAN_INC, align 1
  call void @llvm.dbg.declare(metadata !{i1* %carry}, metadata !14952), !dbg !14953 ; [debug line = 927:18] [debug variable = carry]
  store i1 false, i1* %carry, align 1, !dbg !14954 ; [debug line = 927:31]
  call void @llvm.dbg.declare(metadata !{i32* %sh_amt}, metadata !14955), !dbg !14956 ; [debug line = 929:22] [debug variable = sh_amt]
  %83 = load i32* %F2, align 4, !dbg !14957       ; [#uses=1 type=i32] [debug line = 929:69]
  %84 = load i32* %_AP_F, align 4, !dbg !14957    ; [#uses=1 type=i32] [debug line = 929:69]
  %85 = icmp sgt i32 %83, %84, !dbg !14957        ; [#uses=1 type=i1] [debug line = 929:69]
  br i1 %85, label %86, label %90, !dbg !14957    ; [debug line = 929:69]

; <label>:86                                      ; preds = %81
  %87 = load i32* %F2, align 4, !dbg !14957       ; [#uses=1 type=i32] [debug line = 929:69]
  %88 = load i32* %_AP_F, align 4, !dbg !14957    ; [#uses=1 type=i32] [debug line = 929:69]
  %89 = sub nsw i32 %87, %88, !dbg !14957         ; [#uses=1 type=i32] [debug line = 929:69]
  br label %94, !dbg !14957                       ; [debug line = 929:69]

; <label>:90                                      ; preds = %81
  %91 = load i32* %_AP_F, align 4, !dbg !14957    ; [#uses=1 type=i32] [debug line = 929:69]
  %92 = load i32* %F2, align 4, !dbg !14957       ; [#uses=1 type=i32] [debug line = 929:69]
  %93 = sub nsw i32 %91, %92, !dbg !14957         ; [#uses=1 type=i32] [debug line = 929:69]
  br label %94, !dbg !14957                       ; [debug line = 929:69]

; <label>:94                                      ; preds = %90, %86
  %95 = phi i32 [ %89, %86 ], [ %93, %90 ], !dbg !14957 ; [#uses=1 type=i32] [debug line = 929:69]
  store i32 %95, i32* %sh_amt, align 4, !dbg !14957 ; [debug line = 929:69]
  %96 = load i32* %F2, align 4, !dbg !14958       ; [#uses=1 type=i32] [debug line = 930:13]
  %97 = load i32* %_AP_F, align 4, !dbg !14958    ; [#uses=1 type=i32] [debug line = 930:13]
  %98 = icmp eq i32 %96, %97, !dbg !14958         ; [#uses=1 type=i1] [debug line = 930:13]
  br i1 %98, label %99, label %106, !dbg !14958   ; [debug line = 930:13]

; <label>:99                                      ; preds = %94
  %100 = bitcast %struct.ap_int_base.18* %man to %struct.ssdm_int.19*, !dbg !14959 ; [#uses=1 type=%struct.ssdm_int.19*] [debug line = 931:17]
  %101 = getelementptr inbounds %struct.ssdm_int.19* %100, i32 0, i32 0, !dbg !14959 ; [#uses=1 type=i54*] [debug line = 931:17]
  %102 = load i54* %101, align 8, !dbg !14959     ; [#uses=1 type=i54] [debug line = 931:17]
  %103 = trunc i54 %102 to i19, !dbg !14959       ; [#uses=1 type=i19] [debug line = 931:17]
  %104 = bitcast %struct.ap_fixed_base* %5 to %struct.ssdm_int*, !dbg !14959 ; [#uses=1 type=%struct.ssdm_int*] [debug line = 931:17]
  %105 = getelementptr inbounds %struct.ssdm_int* %104, i32 0, i32 0, !dbg !14959 ; [#uses=1 type=i19*] [debug line = 931:17]
  store i19 %103, i19* %105, align 4, !dbg !14959 ; [debug line = 931:17]
  br label %159, !dbg !14959                      ; [debug line = 931:17]

; <label>:106                                     ; preds = %94
  %107 = load i32* %F2, align 4, !dbg !14960      ; [#uses=1 type=i32] [debug line = 932:18]
  %108 = load i32* %_AP_F, align 4, !dbg !14960   ; [#uses=1 type=i32] [debug line = 932:18]
  %109 = icmp sgt i32 %107, %108, !dbg !14960     ; [#uses=1 type=i1] [debug line = 932:18]
  br i1 %109, label %110, label %135, !dbg !14960 ; [debug line = 932:18]

; <label>:110                                     ; preds = %106
  %111 = load i32* %sh_amt, align 4, !dbg !14961  ; [#uses=1 type=i32] [debug line = 933:17]
  %112 = icmp ult i32 %111, 54, !dbg !14961       ; [#uses=1 type=i1] [debug line = 933:17]
  br i1 %112, label %113, label %123, !dbg !14961 ; [debug line = 933:17]

; <label>:113                                     ; preds = %110
  %114 = bitcast %struct.ap_int_base.18* %man to %struct.ssdm_int.19*, !dbg !14963 ; [#uses=1 type=%struct.ssdm_int.19*] [debug line = 934:20]
  %115 = getelementptr inbounds %struct.ssdm_int.19* %114, i32 0, i32 0, !dbg !14963 ; [#uses=1 type=i54*] [debug line = 934:20]
  %116 = load i54* %115, align 8, !dbg !14963     ; [#uses=1 type=i54] [debug line = 934:20]
  %117 = load i32* %sh_amt, align 4, !dbg !14963  ; [#uses=1 type=i32] [debug line = 934:20]
  %118 = zext i32 %117 to i54, !dbg !14963        ; [#uses=1 type=i54] [debug line = 934:20]
  %119 = ashr i54 %116, %118, !dbg !14963         ; [#uses=1 type=i54] [debug line = 934:20]
  %120 = trunc i54 %119 to i19, !dbg !14963       ; [#uses=1 type=i19] [debug line = 934:20]
  %121 = bitcast %struct.ap_fixed_base* %5 to %struct.ssdm_int*, !dbg !14963 ; [#uses=1 type=%struct.ssdm_int*] [debug line = 934:20]
  %122 = getelementptr inbounds %struct.ssdm_int* %121, i32 0, i32 0, !dbg !14963 ; [#uses=1 type=i19*] [debug line = 934:20]
  store i19 %120, i19* %122, align 4, !dbg !14963 ; [debug line = 934:20]
  br label %134, !dbg !14963                      ; [debug line = 934:20]

; <label>:123                                     ; preds = %110
  %124 = load i1* %isneg, align 1, !dbg !14964    ; [#uses=1 type=i1] [debug line = 937:20]
  br i1 %124, label %125, label %130, !dbg !14964 ; [debug line = 937:20]

; <label>:125                                     ; preds = %123
  %126 = load i32* @_ZZN13ap_fixed_baseILi19ELi4ELb1EL9ap_q_mode5EL9ap_o_mode3ELi0EEC1EdE10AllOnesInt, align 4, !dbg !14966 ; [#uses=1 type=i32] [debug line = 937:31]
  %127 = trunc i32 %126 to i19, !dbg !14966       ; [#uses=1 type=i19] [debug line = 937:31]
  %128 = bitcast %struct.ap_fixed_base* %5 to %struct.ssdm_int*, !dbg !14966 ; [#uses=1 type=%struct.ssdm_int*] [debug line = 937:31]
  %129 = getelementptr inbounds %struct.ssdm_int* %128, i32 0, i32 0, !dbg !14966 ; [#uses=1 type=i19*] [debug line = 937:31]
  store i19 %127, i19* %129, align 4, !dbg !14966 ; [debug line = 937:31]
  br label %133, !dbg !14966                      ; [debug line = 937:31]

; <label>:130                                     ; preds = %123
  %131 = bitcast %struct.ap_fixed_base* %5 to %struct.ssdm_int*, !dbg !14967 ; [#uses=1 type=%struct.ssdm_int*] [debug line = 938:25]
  %132 = getelementptr inbounds %struct.ssdm_int* %131, i32 0, i32 0, !dbg !14967 ; [#uses=1 type=i19*] [debug line = 938:25]
  store i19 0, i19* %132, align 4, !dbg !14967    ; [debug line = 938:25]
  br label %133

; <label>:133                                     ; preds = %130, %125
  br label %134

; <label>:134                                     ; preds = %133, %113
  br label %158, !dbg !14968                      ; [debug line = 949:13]

; <label>:135                                     ; preds = %106
  %136 = bitcast %struct.ap_int_base.18* %man to %struct.ssdm_int.19*, !dbg !14969 ; [#uses=1 type=%struct.ssdm_int.19*] [debug line = 951:17]
  %137 = getelementptr inbounds %struct.ssdm_int.19* %136, i32 0, i32 0, !dbg !14969 ; [#uses=1 type=i54*] [debug line = 951:17]
  %138 = load i54* %137, align 8, !dbg !14969     ; [#uses=1 type=i54] [debug line = 951:17]
  %139 = trunc i54 %138 to i19, !dbg !14969       ; [#uses=1 type=i19] [debug line = 951:17]
  %140 = bitcast %struct.ap_fixed_base* %5 to %struct.ssdm_int*, !dbg !14969 ; [#uses=1 type=%struct.ssdm_int*] [debug line = 951:17]
  %141 = getelementptr inbounds %struct.ssdm_int* %140, i32 0, i32 0, !dbg !14969 ; [#uses=1 type=i19*] [debug line = 951:17]
  store i19 %139, i19* %141, align 4, !dbg !14969 ; [debug line = 951:17]
  %142 = load i32* %sh_amt, align 4, !dbg !14971  ; [#uses=1 type=i32] [debug line = 952:17]
  %143 = icmp ult i32 %142, 19, !dbg !14971       ; [#uses=1 type=i1] [debug line = 952:17]
  br i1 %143, label %144, label %154, !dbg !14971 ; [debug line = 952:17]

; <label>:144                                     ; preds = %135
  %145 = bitcast %struct.ap_fixed_base* %5 to %struct.ssdm_int*, !dbg !14972 ; [#uses=1 type=%struct.ssdm_int*] [debug line = 953:21]
  %146 = getelementptr inbounds %struct.ssdm_int* %145, i32 0, i32 0, !dbg !14972 ; [#uses=1 type=i19*] [debug line = 953:21]
  %147 = load i19* %146, align 4, !dbg !14972     ; [#uses=1 type=i19] [debug line = 953:21]
  %148 = sext i19 %147 to i32, !dbg !14972        ; [#uses=1 type=i32] [debug line = 953:21]
  %149 = load i32* %sh_amt, align 4, !dbg !14972  ; [#uses=1 type=i32] [debug line = 953:21]
  %150 = shl i32 %148, %149, !dbg !14972          ; [#uses=1 type=i32] [debug line = 953:21]
  %151 = trunc i32 %150 to i19, !dbg !14972       ; [#uses=1 type=i19] [debug line = 953:21]
  %152 = bitcast %struct.ap_fixed_base* %5 to %struct.ssdm_int*, !dbg !14972 ; [#uses=1 type=%struct.ssdm_int*] [debug line = 953:21]
  %153 = getelementptr inbounds %struct.ssdm_int* %152, i32 0, i32 0, !dbg !14972 ; [#uses=1 type=i19*] [debug line = 953:21]
  store i19 %151, i19* %153, align 4, !dbg !14972 ; [debug line = 953:21]
  br label %157, !dbg !14972                      ; [debug line = 953:21]

; <label>:154                                     ; preds = %135
  %155 = bitcast %struct.ap_fixed_base* %5 to %struct.ssdm_int*, !dbg !14973 ; [#uses=1 type=%struct.ssdm_int*] [debug line = 955:21]
  %156 = getelementptr inbounds %struct.ssdm_int* %155, i32 0, i32 0, !dbg !14973 ; [#uses=1 type=i19*] [debug line = 955:21]
  store i19 0, i19* %156, align 4, !dbg !14973    ; [debug line = 955:21]
  br label %157

; <label>:157                                     ; preds = %154, %144
  br label %158

; <label>:158                                     ; preds = %157, %134
  br label %159

; <label>:159                                     ; preds = %158, %99
  br label %160

; <label>:160                                     ; preds = %159, %65
  ret void, !dbg !14974                           ; [debug line = 1012:5]
}

; [#uses=2]
define internal void @_ZN11ap_int_baseILi64ELb0ELb1EEC1Ev(%struct.ap_int_base* %this) unnamed_addr nounwind uwtable inlinehint alwaysinline align 2 {
  %1 = alloca %struct.ap_int_base*, align 8       ; [#uses=2 type=%struct.ap_int_base**]
  store %struct.ap_int_base* %this, %struct.ap_int_base** %1, align 8
  call void @llvm.dbg.declare(metadata !{%struct.ap_int_base** %1}, metadata !14975), !dbg !14976 ; [debug line = 1494:41] [debug variable = this]
  %2 = load %struct.ap_int_base** %1              ; [#uses=1 type=%struct.ap_int_base*]
  call void @_ZN11ap_int_baseILi64ELb0ELb1EEC2Ev(%struct.ap_int_base* %2), !dbg !14977 ; [debug line = 1500:3]
  ret void, !dbg !14977                           ; [debug line = 1500:3]
}

; [#uses=1]
define internal i64 @_ZNK13ap_fixed_baseILi19ELi4ELb1EL9ap_q_mode5EL9ap_o_mode3ELi0EE15doubleToRawBitsEd(%struct.ap_fixed_base* %this, double %pf) nounwind uwtable inlinehint alwaysinline align 2 {
  %1 = alloca %struct.ap_fixed_base*, align 8     ; [#uses=2 type=%struct.ap_fixed_base**]
  %2 = alloca double, align 8                     ; [#uses=2 type=double*]
  %LD = alloca %"class.std::locale::id", align 8  ; [#uses=2 type=%"class.std::locale::id"*]
  store %struct.ap_fixed_base* %this, %struct.ap_fixed_base** %1, align 8
  call void @llvm.dbg.declare(metadata !{%struct.ap_fixed_base** %1}, metadata !14978), !dbg !14980 ; [debug line = 849:62] [debug variable = this]
  store double %pf, double* %2, align 8
  call void @llvm.dbg.declare(metadata !{double* %2}, metadata !14981), !dbg !14982 ; [debug line = 849:85] [debug variable = pf]
  %3 = load %struct.ap_fixed_base** %1            ; [#uses=0 type=%struct.ap_fixed_base*]
  call void @llvm.dbg.declare(metadata !{%"class.std::locale::id"* %LD}, metadata !14983), !dbg !14993 ; [debug line = 853:11] [debug variable = LD]
  %4 = load double* %2, align 8, !dbg !14994      ; [#uses=1 type=double] [debug line = 854:9]
  %5 = bitcast %"class.std::locale::id"* %LD to double*, !dbg !14994 ; [#uses=1 type=double*] [debug line = 854:9]
  store double %4, double* %5, align 8, !dbg !14994 ; [debug line = 854:9]
  %6 = bitcast %"class.std::locale::id"* %LD to i64*, !dbg !14995 ; [#uses=1 type=i64*] [debug line = 855:9]
  %7 = load i64* %6, align 8, !dbg !14995         ; [#uses=1 type=i64] [debug line = 855:9]
  ret i64 %7, !dbg !14995                         ; [debug line = 855:9]
}

; [#uses=6]
declare i64 @llvm.part.select.i64(i64, i32, i32) nounwind readnone

; [#uses=2]
define internal void @_ZN11ap_int_baseILi12ELb1ELb1EEC1Ev(%struct.ap_int_base.12* %this) unnamed_addr nounwind uwtable inlinehint alwaysinline align 2 {
  %1 = alloca %struct.ap_int_base.12*, align 8    ; [#uses=2 type=%struct.ap_int_base.12**]
  store %struct.ap_int_base.12* %this, %struct.ap_int_base.12** %1, align 8
  call void @llvm.dbg.declare(metadata !{%struct.ap_int_base.12** %1}, metadata !14996), !dbg !14998 ; [debug line = 1494:41] [debug variable = this]
  %2 = load %struct.ap_int_base.12** %1           ; [#uses=1 type=%struct.ap_int_base.12*]
  call void @_ZN11ap_int_baseILi12ELb1ELb1EEC2Ev(%struct.ap_int_base.12* %2), !dbg !14999 ; [debug line = 1500:3]
  ret void, !dbg !14999                           ; [debug line = 1500:3]
}

; [#uses=2]
define internal void @_ZN11ap_int_baseILi11ELb0ELb1EEC1Ev(%struct.ap_int_base.14* %this) unnamed_addr nounwind uwtable inlinehint alwaysinline align 2 {
  %1 = alloca %struct.ap_int_base.14*, align 8    ; [#uses=2 type=%struct.ap_int_base.14**]
  store %struct.ap_int_base.14* %this, %struct.ap_int_base.14** %1, align 8
  call void @llvm.dbg.declare(metadata !{%struct.ap_int_base.14** %1}, metadata !15000), !dbg !15002 ; [debug line = 1494:41] [debug variable = this]
  %2 = load %struct.ap_int_base.14** %1           ; [#uses=1 type=%struct.ap_int_base.14*]
  call void @_ZN11ap_int_baseILi11ELb0ELb1EEC2Ev(%struct.ap_int_base.14* %2), !dbg !15003 ; [debug line = 1500:3]
  ret void, !dbg !15003                           ; [debug line = 1500:3]
}

; [#uses=2]
define internal %struct.ap_int_base.12* @_ZN11ap_int_baseILi12ELb1ELb1EEaSILi33ELb1EEERS0_RKS_IXT_EXT0_EXleT_Li64EEE(%struct.ap_int_base.12* %this, %struct.ap_int_base.16* %op2) nounwind uwtable inlinehint alwaysinline align 2 {
  %1 = alloca %struct.ap_int_base.12*, align 8    ; [#uses=2 type=%struct.ap_int_base.12**]
  %2 = alloca %struct.ap_int_base.16*, align 8    ; [#uses=2 type=%struct.ap_int_base.16**]
  store %struct.ap_int_base.12* %this, %struct.ap_int_base.12** %1, align 8
  call void @llvm.dbg.declare(metadata !{%struct.ap_int_base.12** %1}, metadata !15004), !dbg !15005 ; [debug line = 1629:54] [debug variable = this]
  store %struct.ap_int_base.16* %op2, %struct.ap_int_base.16** %2, align 8
  call void @llvm.dbg.declare(metadata !{%struct.ap_int_base.16** %2}, metadata !15006), !dbg !15007 ; [debug line = 1629:100] [debug variable = op2]
  %3 = load %struct.ap_int_base.12** %1           ; [#uses=2 type=%struct.ap_int_base.12*]
  %4 = load %struct.ap_int_base.16** %2, align 8, !dbg !15008 ; [#uses=1 type=%struct.ap_int_base.16*] [debug line = 1630:5]
  %5 = bitcast %struct.ap_int_base.16* %4 to %struct.ssdm_int.17*, !dbg !15008 ; [#uses=1 type=%struct.ssdm_int.17*] [debug line = 1630:5]
  %6 = getelementptr inbounds %struct.ssdm_int.17* %5, i32 0, i32 0, !dbg !15008 ; [#uses=1 type=i33*] [debug line = 1630:5]
  %7 = load i33* %6, align 8, !dbg !15008         ; [#uses=1 type=i33] [debug line = 1630:5]
  %8 = trunc i33 %7 to i12, !dbg !15008           ; [#uses=1 type=i12] [debug line = 1630:5]
  %9 = bitcast %struct.ap_int_base.12* %3 to %struct.ssdm_int.13*, !dbg !15008 ; [#uses=1 type=%struct.ssdm_int.13*] [debug line = 1630:5]
  %10 = getelementptr inbounds %struct.ssdm_int.13* %9, i32 0, i32 0, !dbg !15008 ; [#uses=1 type=i12*] [debug line = 1630:5]
  store i12 %8, i12* %10, align 2, !dbg !15008    ; [debug line = 1630:5]
  ret %struct.ap_int_base.12* %3, !dbg !15010     ; [debug line = 1631:5]
}

; [#uses=2]
define internal void @_ZmiILi11ELb0EEN11ap_int_baseIXT_EXT0_EXleT_Li64EEE5RTypeIXLi32EEXLb1EEE5minusERKS1_i(%struct.ap_int_base.16* noalias sret %agg.result, %struct.ap_int_base.14* %op, i32 %i_op) nounwind uwtable inlinehint alwaysinline {
  %1 = alloca %struct.ap_int_base.14*, align 8    ; [#uses=2 type=%struct.ap_int_base.14**]
  %2 = alloca i32, align 4                        ; [#uses=2 type=i32*]
  %3 = alloca %struct.ap_fixed_base.9, align 4    ; [#uses=2 type=%struct.ap_fixed_base.9*]
  store %struct.ap_int_base.14* %op, %struct.ap_int_base.14** %1, align 8
  call void @llvm.dbg.declare(metadata !{%struct.ap_int_base.14** %1}, metadata !15011), !dbg !15012 ; [debug line = 3523:0] [debug variable = op]
  store i32 %i_op, i32* %2, align 4
  call void @llvm.dbg.declare(metadata !{i32* %2}, metadata !15013), !dbg !15012 ; [debug line = 3523:0] [debug variable = i_op]
  %4 = load %struct.ap_int_base.14** %1, align 8, !dbg !15014 ; [#uses=1 type=%struct.ap_int_base.14*] [debug line = 3523:0]
  %5 = load i32* %2, align 4, !dbg !15014         ; [#uses=1 type=i32] [debug line = 3523:0]
  call void @_ZN11ap_int_baseILi32ELb1ELb1EEC1Ei(%struct.ap_fixed_base.9* %3, i32 %5), !dbg !15014 ; [debug line = 3523:0]
  call void @_ZmiILi11ELb0ELi32ELb1EEN11ap_int_baseIXT_EXT0_EXleT_Li64EEE5RTypeIXT1_EXT2_EE5minusERKS1_RKS0_IXT1_EXT2_EXleT1_Li64EEE(%struct.ap_int_base.16* sret %agg.result, %struct.ap_int_base.14* %4, %struct.ap_fixed_base.9* %3), !dbg !15014 ; [debug line = 3523:0]
  ret void, !dbg !15014                           ; [debug line = 3523:0]
}

; [#uses=2]
define internal void @_ZN11ap_int_baseILi54ELb1ELb1EEC1Ev(%struct.ap_int_base.18* %this) unnamed_addr nounwind uwtable inlinehint alwaysinline align 2 {
  %1 = alloca %struct.ap_int_base.18*, align 8    ; [#uses=2 type=%struct.ap_int_base.18**]
  store %struct.ap_int_base.18* %this, %struct.ap_int_base.18** %1, align 8
  call void @llvm.dbg.declare(metadata !{%struct.ap_int_base.18** %1}, metadata !15016), !dbg !15018 ; [debug line = 1494:41] [debug variable = this]
  %2 = load %struct.ap_int_base.18** %1           ; [#uses=1 type=%struct.ap_int_base.18*]
  call void @_ZN11ap_int_baseILi54ELb1ELb1EEC2Ev(%struct.ap_int_base.18* %2), !dbg !15019 ; [debug line = 1500:3]
  ret void, !dbg !15019                           ; [debug line = 1500:3]
}

; [#uses=2]
declare i54 @llvm.part.set.i54.i32(i54, i32, i32, i32) nounwind readnone

; [#uses=2]
define internal %struct.ap_int_base.18* @_ZN11ap_int_baseILi54ELb1ELb1EEaSILi55ELb1EEERS0_RKS_IXT_EXT0_EXleT_Li64EEE(%struct.ap_int_base.18* %this, %struct.ap_int_base.20* %op2) nounwind uwtable inlinehint alwaysinline align 2 {
  %1 = alloca %struct.ap_int_base.18*, align 8    ; [#uses=2 type=%struct.ap_int_base.18**]
  %2 = alloca %struct.ap_int_base.20*, align 8    ; [#uses=2 type=%struct.ap_int_base.20**]
  store %struct.ap_int_base.18* %this, %struct.ap_int_base.18** %1, align 8
  call void @llvm.dbg.declare(metadata !{%struct.ap_int_base.18** %1}, metadata !15020), !dbg !15021 ; [debug line = 1629:54] [debug variable = this]
  store %struct.ap_int_base.20* %op2, %struct.ap_int_base.20** %2, align 8
  call void @llvm.dbg.declare(metadata !{%struct.ap_int_base.20** %2}, metadata !15022), !dbg !15023 ; [debug line = 1629:100] [debug variable = op2]
  %3 = load %struct.ap_int_base.18** %1           ; [#uses=2 type=%struct.ap_int_base.18*]
  %4 = load %struct.ap_int_base.20** %2, align 8, !dbg !15024 ; [#uses=1 type=%struct.ap_int_base.20*] [debug line = 1630:5]
  %5 = bitcast %struct.ap_int_base.20* %4 to %struct.ssdm_int.21*, !dbg !15024 ; [#uses=1 type=%struct.ssdm_int.21*] [debug line = 1630:5]
  %6 = getelementptr inbounds %struct.ssdm_int.21* %5, i32 0, i32 0, !dbg !15024 ; [#uses=1 type=i55*] [debug line = 1630:5]
  %7 = load i55* %6, align 8, !dbg !15024         ; [#uses=1 type=i55] [debug line = 1630:5]
  %8 = trunc i55 %7 to i54, !dbg !15024           ; [#uses=1 type=i54] [debug line = 1630:5]
  %9 = bitcast %struct.ap_int_base.18* %3 to %struct.ssdm_int.19*, !dbg !15024 ; [#uses=1 type=%struct.ssdm_int.19*] [debug line = 1630:5]
  %10 = getelementptr inbounds %struct.ssdm_int.19* %9, i32 0, i32 0, !dbg !15024 ; [#uses=1 type=i54*] [debug line = 1630:5]
  store i54 %8, i54* %10, align 8, !dbg !15024    ; [debug line = 1630:5]
  ret %struct.ap_int_base.18* %3, !dbg !15026     ; [debug line = 1631:5]
}

; [#uses=2]
define internal void @_ZNK11ap_int_baseILi54ELb1ELb1EEngEv(%struct.ap_int_base.20* noalias sret %agg.result, %struct.ap_int_base.18* %this) nounwind uwtable inlinehint alwaysinline align 2 {
  %1 = alloca %struct.ap_int_base.18*, align 8    ; [#uses=2 type=%struct.ap_int_base.18**]
  %2 = alloca %struct.ap_int_base.22, align 1     ; [#uses=2 type=%struct.ap_int_base.22*]
  store %struct.ap_int_base.18* %this, %struct.ap_int_base.18** %1, align 8
  call void @llvm.dbg.declare(metadata !{%struct.ap_int_base.18** %1}, metadata !15027), !dbg !15029 ; [debug line = 1932:3] [debug variable = this]
  %3 = load %struct.ap_int_base.18** %1           ; [#uses=1 type=%struct.ap_int_base.18*]
  call void @_ZN11ap_int_baseILi1ELb0ELb1EEC1Ei(%struct.ap_int_base.22* %2, i32 0), !dbg !15030 ; [debug line = 1933:12]
  call void @_ZmiILi1ELb0ELi54ELb1EEN11ap_int_baseIXT_EXT0_EXleT_Li64EEE5RTypeIXT1_EXT2_EE5minusERKS1_RKS0_IXT1_EXT2_EXleT1_Li64EEE(%struct.ap_int_base.20* sret %agg.result, %struct.ap_int_base.22* %2, %struct.ap_int_base.18* %3), !dbg !15030 ; [debug line = 1933:12]
  ret void, !dbg !15030                           ; [debug line = 1933:12]
}

; [#uses=1]
define internal void @_ZmiILi1ELb0ELi54ELb1EEN11ap_int_baseIXT_EXT0_EXleT_Li64EEE5RTypeIXT1_EXT2_EE5minusERKS1_RKS0_IXT1_EXT2_EXleT1_Li64EEE(%struct.ap_int_base.20* noalias sret %agg.result, %struct.ap_int_base.22* %op, %struct.ap_int_base.18* %op2) nounwind uwtable inlinehint alwaysinline {
  %1 = alloca %struct.ap_int_base.22*, align 8    ; [#uses=2 type=%struct.ap_int_base.22**]
  %2 = alloca %struct.ap_int_base.18*, align 8    ; [#uses=2 type=%struct.ap_int_base.18**]
  %lhs = alloca %struct.ap_int_base.20, align 8   ; [#uses=2 type=%struct.ap_int_base.20*]
  %rhs = alloca %struct.ap_int_base.20, align 8   ; [#uses=2 type=%struct.ap_int_base.20*]
  store %struct.ap_int_base.22* %op, %struct.ap_int_base.22** %1, align 8
  call void @llvm.dbg.declare(metadata !{%struct.ap_int_base.22** %1}, metadata !15032), !dbg !15033 ; [debug line = 3425:213] [debug variable = op]
  store %struct.ap_int_base.18* %op2, %struct.ap_int_base.18** %2, align 8
  call void @llvm.dbg.declare(metadata !{%struct.ap_int_base.18** %2}, metadata !15034), !dbg !15035 ; [debug line = 3425:251] [debug variable = op2]
  call void @llvm.dbg.declare(metadata !{%struct.ap_int_base.20* %lhs}, metadata !15036), !dbg !15038 ; [debug line = 3425:0] [debug variable = lhs]
  %3 = load %struct.ap_int_base.22** %1, align 8, !dbg !15038 ; [#uses=1 type=%struct.ap_int_base.22*] [debug line = 3425:0]
  call void @_ZN11ap_int_baseILi55ELb1ELb1EEC1ILi1ELb0EEERKS_IXT_EXT0_EXleT_Li64EEE(%struct.ap_int_base.20* %lhs, %struct.ap_int_base.22* %3), !dbg !15038 ; [debug line = 3425:0]
  call void @llvm.dbg.declare(metadata !{%struct.ap_int_base.20* %rhs}, metadata !15039), !dbg !15038 ; [debug line = 3425:0] [debug variable = rhs]
  %4 = load %struct.ap_int_base.18** %2, align 8, !dbg !15038 ; [#uses=1 type=%struct.ap_int_base.18*] [debug line = 3425:0]
  call void @_ZN11ap_int_baseILi55ELb1ELb1EEC1ILi54ELb1EEERKS_IXT_EXT0_EXleT_Li64EEE(%struct.ap_int_base.20* %rhs, %struct.ap_int_base.18* %4), !dbg !15038 ; [debug line = 3425:0]
  call void @llvm.dbg.declare(metadata !{%struct.ap_int_base.20* %agg.result}, metadata !15040), !dbg !15038 ; [debug line = 3425:0] [debug variable = r]
  call void @_ZN11ap_int_baseILi55ELb1ELb1EEC1Ev(%struct.ap_int_base.20* %agg.result), !dbg !15038 ; [debug line = 3425:0]
  %5 = bitcast %struct.ap_int_base.20* %lhs to %struct.ssdm_int.21*, !dbg !15038 ; [#uses=1 type=%struct.ssdm_int.21*] [debug line = 3425:0]
  %6 = getelementptr inbounds %struct.ssdm_int.21* %5, i32 0, i32 0, !dbg !15038 ; [#uses=1 type=i55*] [debug line = 3425:0]
  %7 = load i55* %6, align 8, !dbg !15038         ; [#uses=1 type=i55] [debug line = 3425:0]
  %8 = bitcast %struct.ap_int_base.20* %rhs to %struct.ssdm_int.21*, !dbg !15038 ; [#uses=1 type=%struct.ssdm_int.21*] [debug line = 3425:0]
  %9 = getelementptr inbounds %struct.ssdm_int.21* %8, i32 0, i32 0, !dbg !15038 ; [#uses=1 type=i55*] [debug line = 3425:0]
  %10 = load i55* %9, align 8, !dbg !15038        ; [#uses=1 type=i55] [debug line = 3425:0]
  %11 = sub nsw i55 %7, %10, !dbg !15038          ; [#uses=1 type=i55] [debug line = 3425:0]
  %12 = bitcast %struct.ap_int_base.20* %agg.result to %struct.ssdm_int.21*, !dbg !15038 ; [#uses=1 type=%struct.ssdm_int.21*] [debug line = 3425:0]
  %13 = getelementptr inbounds %struct.ssdm_int.21* %12, i32 0, i32 0, !dbg !15038 ; [#uses=1 type=i55*] [debug line = 3425:0]
  store i55 %11, i55* %13, align 8, !dbg !15038   ; [debug line = 3425:0]
  ret void, !dbg !15038                           ; [debug line = 3425:0]
}

; [#uses=1]
define internal void @_ZN11ap_int_baseILi1ELb0ELb1EEC1Ei(%struct.ap_int_base.22* %this, i32 %op) unnamed_addr nounwind uwtable inlinehint alwaysinline align 2 {
  %1 = alloca %struct.ap_int_base.22*, align 8    ; [#uses=2 type=%struct.ap_int_base.22**]
  %2 = alloca i32, align 4                        ; [#uses=2 type=i32*]
  store %struct.ap_int_base.22* %this, %struct.ap_int_base.22** %1, align 8
  call void @llvm.dbg.declare(metadata !{%struct.ap_int_base.22** %1}, metadata !15042), !dbg !15044 ; [debug line = 1521:50] [debug variable = this]
  store i32 %op, i32* %2, align 4
  call void @llvm.dbg.declare(metadata !{i32* %2}, metadata !15045), !dbg !15046 ; [debug line = 1521:66] [debug variable = op]
  %3 = load %struct.ap_int_base.22** %1           ; [#uses=1 type=%struct.ap_int_base.22*]
  %4 = load i32* %2, align 4, !dbg !15047         ; [#uses=1 type=i32] [debug line = 1521:86]
  call void @_ZN11ap_int_baseILi1ELb0ELb1EEC2Ei(%struct.ap_int_base.22* %3, i32 %4), !dbg !15047 ; [debug line = 1521:86]
  ret void, !dbg !15047                           ; [debug line = 1521:86]
}

; [#uses=1]
define internal void @_ZN11ap_int_baseILi1ELb0ELb1EEC2Ei(%struct.ap_int_base.22* %this, i32 %op) unnamed_addr nounwind uwtable inlinehint alwaysinline align 2 {
  %1 = alloca %struct.ap_int_base.22*, align 8    ; [#uses=2 type=%struct.ap_int_base.22**]
  %2 = alloca i32, align 4                        ; [#uses=2 type=i32*]
  store %struct.ap_int_base.22* %this, %struct.ap_int_base.22** %1, align 8
  call void @llvm.dbg.declare(metadata !{%struct.ap_int_base.22** %1}, metadata !15048), !dbg !15049 ; [debug line = 1521:50] [debug variable = this]
  store i32 %op, i32* %2, align 4
  call void @llvm.dbg.declare(metadata !{i32* %2}, metadata !15050), !dbg !15051 ; [debug line = 1521:66] [debug variable = op]
  %3 = load %struct.ap_int_base.22** %1           ; [#uses=2 type=%struct.ap_int_base.22*]
  %4 = bitcast %struct.ap_int_base.22* %3 to %struct.ssdm_int.23*, !dbg !15052 ; [#uses=1 type=%struct.ssdm_int.23*] [debug line = 1521:70]
  call void @_ZN8ssdm_intILi1ELb0EEC2Ev(%struct.ssdm_int.23* %4), !dbg !15052 ; [debug line = 1521:70]
  %5 = load i32* %2, align 4, !dbg !15053         ; [#uses=1 type=i32] [debug line = 1521:72]
  %6 = trunc i32 %5 to i1, !dbg !15053            ; [#uses=1 type=i1] [debug line = 1521:72]
  %7 = bitcast %struct.ap_int_base.22* %3 to %struct.ssdm_int.23*, !dbg !15053 ; [#uses=1 type=%struct.ssdm_int.23*] [debug line = 1521:72]
  %8 = getelementptr inbounds %struct.ssdm_int.23* %7, i32 0, i32 0, !dbg !15053 ; [#uses=1 type=i1*] [debug line = 1521:72]
  store i1 %6, i1* %8, align 1, !dbg !15053       ; [debug line = 1521:72]
  ret void, !dbg !15055                           ; [debug line = 1521:86]
}

; [#uses=1]
define internal void @_ZN8ssdm_intILi1ELb0EEC2Ev(%struct.ssdm_int.23* %this) unnamed_addr nounwind uwtable inlinehint alwaysinline align 2 {
  %1 = alloca %struct.ssdm_int.23*, align 8       ; [#uses=2 type=%struct.ssdm_int.23**]
  store %struct.ssdm_int.23* %this, %struct.ssdm_int.23** %1, align 8
  call void @llvm.dbg.declare(metadata !{%struct.ssdm_int.23** %1}, metadata !15056), !dbg !15058 ; [debug line = 3:0] [debug variable = this]
  %2 = load %struct.ssdm_int.23** %1              ; [#uses=0 type=%struct.ssdm_int.23*]
  ret void, !dbg !15059                           ; [debug line = 3:0]
}

; [#uses=1]
define internal void @_ZN11ap_int_baseILi55ELb1ELb1EEC1ILi1ELb0EEERKS_IXT_EXT0_EXleT_Li64EEE(%struct.ap_int_base.20* %this, %struct.ap_int_base.22* %op) unnamed_addr nounwind uwtable inlinehint alwaysinline align 2 {
  %1 = alloca %struct.ap_int_base.20*, align 8    ; [#uses=2 type=%struct.ap_int_base.20**]
  %2 = alloca %struct.ap_int_base.22*, align 8    ; [#uses=2 type=%struct.ap_int_base.22**]
  store %struct.ap_int_base.20* %this, %struct.ap_int_base.20** %1, align 8
  call void @llvm.dbg.declare(metadata !{%struct.ap_int_base.20** %1}, metadata !15061), !dbg !15063 ; [debug line = 1506:41] [debug variable = this]
  store %struct.ap_int_base.22* %op, %struct.ap_int_base.22** %2, align 8
  call void @llvm.dbg.declare(metadata !{%struct.ap_int_base.22** %2}, metadata !15064), !dbg !15065 ; [debug line = 1506:87] [debug variable = op]
  %3 = load %struct.ap_int_base.20** %1           ; [#uses=1 type=%struct.ap_int_base.20*]
  %4 = load %struct.ap_int_base.22** %2, !dbg !15066 ; [#uses=1 type=%struct.ap_int_base.22*] [debug line = 1506:109]
  call void @_ZN11ap_int_baseILi55ELb1ELb1EEC2ILi1ELb0EEERKS_IXT_EXT0_EXleT_Li64EEE(%struct.ap_int_base.20* %3, %struct.ap_int_base.22* %4), !dbg !15066 ; [debug line = 1506:109]
  ret void, !dbg !15066                           ; [debug line = 1506:109]
}

; [#uses=1]
define internal void @_ZN11ap_int_baseILi55ELb1ELb1EEC1ILi54ELb1EEERKS_IXT_EXT0_EXleT_Li64EEE(%struct.ap_int_base.20* %this, %struct.ap_int_base.18* %op) unnamed_addr nounwind uwtable inlinehint alwaysinline align 2 {
  %1 = alloca %struct.ap_int_base.20*, align 8    ; [#uses=2 type=%struct.ap_int_base.20**]
  %2 = alloca %struct.ap_int_base.18*, align 8    ; [#uses=2 type=%struct.ap_int_base.18**]
  store %struct.ap_int_base.20* %this, %struct.ap_int_base.20** %1, align 8
  call void @llvm.dbg.declare(metadata !{%struct.ap_int_base.20** %1}, metadata !15067), !dbg !15068 ; [debug line = 1506:41] [debug variable = this]
  store %struct.ap_int_base.18* %op, %struct.ap_int_base.18** %2, align 8
  call void @llvm.dbg.declare(metadata !{%struct.ap_int_base.18** %2}, metadata !15069), !dbg !15070 ; [debug line = 1506:87] [debug variable = op]
  %3 = load %struct.ap_int_base.20** %1           ; [#uses=1 type=%struct.ap_int_base.20*]
  %4 = load %struct.ap_int_base.18** %2, !dbg !15071 ; [#uses=1 type=%struct.ap_int_base.18*] [debug line = 1506:109]
  call void @_ZN11ap_int_baseILi55ELb1ELb1EEC2ILi54ELb1EEERKS_IXT_EXT0_EXleT_Li64EEE(%struct.ap_int_base.20* %3, %struct.ap_int_base.18* %4), !dbg !15071 ; [debug line = 1506:109]
  ret void, !dbg !15071                           ; [debug line = 1506:109]
}

; [#uses=1]
define internal void @_ZN11ap_int_baseILi55ELb1ELb1EEC1Ev(%struct.ap_int_base.20* %this) unnamed_addr nounwind uwtable inlinehint alwaysinline align 2 {
  %1 = alloca %struct.ap_int_base.20*, align 8    ; [#uses=2 type=%struct.ap_int_base.20**]
  store %struct.ap_int_base.20* %this, %struct.ap_int_base.20** %1, align 8
  call void @llvm.dbg.declare(metadata !{%struct.ap_int_base.20** %1}, metadata !15072), !dbg !15073 ; [debug line = 1494:41] [debug variable = this]
  %2 = load %struct.ap_int_base.20** %1           ; [#uses=1 type=%struct.ap_int_base.20*]
  call void @_ZN11ap_int_baseILi55ELb1ELb1EEC2Ev(%struct.ap_int_base.20* %2), !dbg !15074 ; [debug line = 1500:3]
  ret void, !dbg !15074                           ; [debug line = 1500:3]
}

; [#uses=1]
define internal void @_ZN11ap_int_baseILi55ELb1ELb1EEC2Ev(%struct.ap_int_base.20* %this) unnamed_addr nounwind uwtable inlinehint alwaysinline align 2 {
  %1 = alloca %struct.ap_int_base.20*, align 8    ; [#uses=2 type=%struct.ap_int_base.20**]
  store %struct.ap_int_base.20* %this, %struct.ap_int_base.20** %1, align 8
  call void @llvm.dbg.declare(metadata !{%struct.ap_int_base.20** %1}, metadata !15075), !dbg !15076 ; [debug line = 1494:41] [debug variable = this]
  %2 = load %struct.ap_int_base.20** %1           ; [#uses=1 type=%struct.ap_int_base.20*]
  %3 = bitcast %struct.ap_int_base.20* %2 to %struct.ssdm_int.21*, !dbg !15077 ; [#uses=1 type=%struct.ssdm_int.21*] [debug line = 1494:55]
  call void @_ZN8ssdm_intILi55ELb1EEC2Ev(%struct.ssdm_int.21* %3), !dbg !15077 ; [debug line = 1494:55]
  ret void, !dbg !15078                           ; [debug line = 1500:3]
}

; [#uses=4]
define internal void @_ZN8ssdm_intILi55ELb1EEC2Ev(%struct.ssdm_int.21* %this) unnamed_addr nounwind uwtable inlinehint alwaysinline align 2 {
  %1 = alloca %struct.ssdm_int.21*, align 8       ; [#uses=2 type=%struct.ssdm_int.21**]
  store %struct.ssdm_int.21* %this, %struct.ssdm_int.21** %1, align 8
  call void @llvm.dbg.declare(metadata !{%struct.ssdm_int.21** %1}, metadata !15080), !dbg !15082 ; [debug line = 57:137] [debug variable = this]
  %2 = load %struct.ssdm_int.21** %1              ; [#uses=0 type=%struct.ssdm_int.21*]
  ret void, !dbg !15083                           ; [debug line = 57:171]
}

; [#uses=1]
define internal void @_ZN11ap_int_baseILi55ELb1ELb1EEC2ILi54ELb1EEERKS_IXT_EXT0_EXleT_Li64EEE(%struct.ap_int_base.20* %this, %struct.ap_int_base.18* %op) unnamed_addr nounwind uwtable inlinehint alwaysinline align 2 {
  %1 = alloca %struct.ap_int_base.20*, align 8    ; [#uses=2 type=%struct.ap_int_base.20**]
  %2 = alloca %struct.ap_int_base.18*, align 8    ; [#uses=2 type=%struct.ap_int_base.18**]
  store %struct.ap_int_base.20* %this, %struct.ap_int_base.20** %1, align 8
  call void @llvm.dbg.declare(metadata !{%struct.ap_int_base.20** %1}, metadata !15085), !dbg !15086 ; [debug line = 1506:41] [debug variable = this]
  store %struct.ap_int_base.18* %op, %struct.ap_int_base.18** %2, align 8
  call void @llvm.dbg.declare(metadata !{%struct.ap_int_base.18** %2}, metadata !15087), !dbg !15088 ; [debug line = 1506:87] [debug variable = op]
  %3 = load %struct.ap_int_base.20** %1           ; [#uses=2 type=%struct.ap_int_base.20*]
  %4 = bitcast %struct.ap_int_base.20* %3 to %struct.ssdm_int.21*, !dbg !15089 ; [#uses=1 type=%struct.ssdm_int.21*] [debug line = 1506:91]
  call void @_ZN8ssdm_intILi55ELb1EEC2Ev(%struct.ssdm_int.21* %4), !dbg !15089 ; [debug line = 1506:91]
  %5 = load %struct.ap_int_base.18** %2, align 8, !dbg !15090 ; [#uses=1 type=%struct.ap_int_base.18*] [debug line = 1506:93]
  %6 = bitcast %struct.ap_int_base.18* %5 to %struct.ssdm_int.19*, !dbg !15090 ; [#uses=1 type=%struct.ssdm_int.19*] [debug line = 1506:93]
  %7 = getelementptr inbounds %struct.ssdm_int.19* %6, i32 0, i32 0, !dbg !15090 ; [#uses=1 type=i54*] [debug line = 1506:93]
  %8 = load i54* %7, align 8, !dbg !15090         ; [#uses=1 type=i54] [debug line = 1506:93]
  %9 = sext i54 %8 to i55, !dbg !15090            ; [#uses=1 type=i55] [debug line = 1506:93]
  %10 = bitcast %struct.ap_int_base.20* %3 to %struct.ssdm_int.21*, !dbg !15090 ; [#uses=1 type=%struct.ssdm_int.21*] [debug line = 1506:93]
  %11 = getelementptr inbounds %struct.ssdm_int.21* %10, i32 0, i32 0, !dbg !15090 ; [#uses=1 type=i55*] [debug line = 1506:93]
  store i55 %9, i55* %11, align 8, !dbg !15090    ; [debug line = 1506:93]
  ret void, !dbg !15092                           ; [debug line = 1506:109]
}

; [#uses=1]
define internal void @_ZN11ap_int_baseILi55ELb1ELb1EEC2ILi1ELb0EEERKS_IXT_EXT0_EXleT_Li64EEE(%struct.ap_int_base.20* %this, %struct.ap_int_base.22* %op) unnamed_addr nounwind uwtable inlinehint alwaysinline align 2 {
  %1 = alloca %struct.ap_int_base.20*, align 8    ; [#uses=2 type=%struct.ap_int_base.20**]
  %2 = alloca %struct.ap_int_base.22*, align 8    ; [#uses=2 type=%struct.ap_int_base.22**]
  store %struct.ap_int_base.20* %this, %struct.ap_int_base.20** %1, align 8
  call void @llvm.dbg.declare(metadata !{%struct.ap_int_base.20** %1}, metadata !15093), !dbg !15094 ; [debug line = 1506:41] [debug variable = this]
  store %struct.ap_int_base.22* %op, %struct.ap_int_base.22** %2, align 8
  call void @llvm.dbg.declare(metadata !{%struct.ap_int_base.22** %2}, metadata !15095), !dbg !15096 ; [debug line = 1506:87] [debug variable = op]
  %3 = load %struct.ap_int_base.20** %1           ; [#uses=2 type=%struct.ap_int_base.20*]
  %4 = bitcast %struct.ap_int_base.20* %3 to %struct.ssdm_int.21*, !dbg !15097 ; [#uses=1 type=%struct.ssdm_int.21*] [debug line = 1506:91]
  call void @_ZN8ssdm_intILi55ELb1EEC2Ev(%struct.ssdm_int.21* %4), !dbg !15097 ; [debug line = 1506:91]
  %5 = load %struct.ap_int_base.22** %2, align 8, !dbg !15098 ; [#uses=1 type=%struct.ap_int_base.22*] [debug line = 1506:93]
  %6 = bitcast %struct.ap_int_base.22* %5 to %struct.ssdm_int.23*, !dbg !15098 ; [#uses=1 type=%struct.ssdm_int.23*] [debug line = 1506:93]
  %7 = getelementptr inbounds %struct.ssdm_int.23* %6, i32 0, i32 0, !dbg !15098 ; [#uses=1 type=i1*] [debug line = 1506:93]
  %8 = load i1* %7, align 1, !dbg !15098          ; [#uses=1 type=i1] [debug line = 1506:93]
  %9 = zext i1 %8 to i55, !dbg !15098             ; [#uses=1 type=i55] [debug line = 1506:93]
  %10 = bitcast %struct.ap_int_base.20* %3 to %struct.ssdm_int.21*, !dbg !15098 ; [#uses=1 type=%struct.ssdm_int.21*] [debug line = 1506:93]
  %11 = getelementptr inbounds %struct.ssdm_int.21* %10, i32 0, i32 0, !dbg !15098 ; [#uses=1 type=i55*] [debug line = 1506:93]
  store i55 %9, i55* %11, align 8, !dbg !15098    ; [debug line = 1506:93]
  ret void, !dbg !15100                           ; [debug line = 1506:109]
}

; [#uses=1]
define internal void @_ZN11ap_int_baseILi54ELb1ELb1EEC2Ev(%struct.ap_int_base.18* %this) unnamed_addr nounwind uwtable inlinehint alwaysinline align 2 {
  %1 = alloca %struct.ap_int_base.18*, align 8    ; [#uses=2 type=%struct.ap_int_base.18**]
  store %struct.ap_int_base.18* %this, %struct.ap_int_base.18** %1, align 8
  call void @llvm.dbg.declare(metadata !{%struct.ap_int_base.18** %1}, metadata !15101), !dbg !15102 ; [debug line = 1494:41] [debug variable = this]
  %2 = load %struct.ap_int_base.18** %1           ; [#uses=1 type=%struct.ap_int_base.18*]
  %3 = bitcast %struct.ap_int_base.18* %2 to %struct.ssdm_int.19*, !dbg !15103 ; [#uses=1 type=%struct.ssdm_int.19*] [debug line = 1494:55]
  call void @_ZN8ssdm_intILi54ELb1EEC2Ev(%struct.ssdm_int.19* %3), !dbg !15103 ; [debug line = 1494:55]
  ret void, !dbg !15104                           ; [debug line = 1500:3]
}

; [#uses=1]
define internal void @_ZN8ssdm_intILi54ELb1EEC2Ev(%struct.ssdm_int.19* %this) unnamed_addr nounwind uwtable inlinehint alwaysinline align 2 {
  %1 = alloca %struct.ssdm_int.19*, align 8       ; [#uses=2 type=%struct.ssdm_int.19**]
  store %struct.ssdm_int.19* %this, %struct.ssdm_int.19** %1, align 8
  call void @llvm.dbg.declare(metadata !{%struct.ssdm_int.19** %1}, metadata !15106), !dbg !15108 ; [debug line = 56:137] [debug variable = this]
  %2 = load %struct.ssdm_int.19** %1              ; [#uses=0 type=%struct.ssdm_int.19*]
  ret void, !dbg !15109                           ; [debug line = 56:171]
}

; [#uses=1]
define internal void @_ZmiILi11ELb0ELi32ELb1EEN11ap_int_baseIXT_EXT0_EXleT_Li64EEE5RTypeIXT1_EXT2_EE5minusERKS1_RKS0_IXT1_EXT2_EXleT1_Li64EEE(%struct.ap_int_base.16* noalias sret %agg.result, %struct.ap_int_base.14* %op, %struct.ap_fixed_base.9* %op2) nounwind uwtable inlinehint alwaysinline {
  %1 = alloca %struct.ap_int_base.14*, align 8    ; [#uses=2 type=%struct.ap_int_base.14**]
  %2 = alloca %struct.ap_fixed_base.9*, align 8   ; [#uses=2 type=%struct.ap_fixed_base.9**]
  %lhs = alloca %struct.ap_int_base.16, align 8   ; [#uses=2 type=%struct.ap_int_base.16*]
  %rhs = alloca %struct.ap_int_base.16, align 8   ; [#uses=2 type=%struct.ap_int_base.16*]
  store %struct.ap_int_base.14* %op, %struct.ap_int_base.14** %1, align 8
  call void @llvm.dbg.declare(metadata !{%struct.ap_int_base.14** %1}, metadata !15111), !dbg !15112 ; [debug line = 3425:213] [debug variable = op]
  store %struct.ap_fixed_base.9* %op2, %struct.ap_fixed_base.9** %2, align 8
  call void @llvm.dbg.declare(metadata !{%struct.ap_fixed_base.9** %2}, metadata !15113), !dbg !15114 ; [debug line = 3425:251] [debug variable = op2]
  call void @llvm.dbg.declare(metadata !{%struct.ap_int_base.16* %lhs}, metadata !15115), !dbg !15117 ; [debug line = 3425:0] [debug variable = lhs]
  %3 = load %struct.ap_int_base.14** %1, align 8, !dbg !15117 ; [#uses=1 type=%struct.ap_int_base.14*] [debug line = 3425:0]
  call void @_ZN11ap_int_baseILi33ELb1ELb1EEC1ILi11ELb0EEERKS_IXT_EXT0_EXleT_Li64EEE(%struct.ap_int_base.16* %lhs, %struct.ap_int_base.14* %3), !dbg !15117 ; [debug line = 3425:0]
  call void @llvm.dbg.declare(metadata !{%struct.ap_int_base.16* %rhs}, metadata !15118), !dbg !15117 ; [debug line = 3425:0] [debug variable = rhs]
  %4 = load %struct.ap_fixed_base.9** %2, align 8, !dbg !15117 ; [#uses=1 type=%struct.ap_fixed_base.9*] [debug line = 3425:0]
  call void @_ZN11ap_int_baseILi33ELb1ELb1EEC1ILi32ELb1EEERKS_IXT_EXT0_EXleT_Li64EEE(%struct.ap_int_base.16* %rhs, %struct.ap_fixed_base.9* %4), !dbg !15117 ; [debug line = 3425:0]
  call void @llvm.dbg.declare(metadata !{%struct.ap_int_base.16* %agg.result}, metadata !15119), !dbg !15117 ; [debug line = 3425:0] [debug variable = r]
  call void @_ZN11ap_int_baseILi33ELb1ELb1EEC1Ev(%struct.ap_int_base.16* %agg.result), !dbg !15117 ; [debug line = 3425:0]
  %5 = bitcast %struct.ap_int_base.16* %lhs to %struct.ssdm_int.17*, !dbg !15117 ; [#uses=1 type=%struct.ssdm_int.17*] [debug line = 3425:0]
  %6 = getelementptr inbounds %struct.ssdm_int.17* %5, i32 0, i32 0, !dbg !15117 ; [#uses=1 type=i33*] [debug line = 3425:0]
  %7 = load i33* %6, align 8, !dbg !15117         ; [#uses=1 type=i33] [debug line = 3425:0]
  %8 = bitcast %struct.ap_int_base.16* %rhs to %struct.ssdm_int.17*, !dbg !15117 ; [#uses=1 type=%struct.ssdm_int.17*] [debug line = 3425:0]
  %9 = getelementptr inbounds %struct.ssdm_int.17* %8, i32 0, i32 0, !dbg !15117 ; [#uses=1 type=i33*] [debug line = 3425:0]
  %10 = load i33* %9, align 8, !dbg !15117        ; [#uses=1 type=i33] [debug line = 3425:0]
  %11 = sub nsw i33 %7, %10, !dbg !15117          ; [#uses=1 type=i33] [debug line = 3425:0]
  %12 = bitcast %struct.ap_int_base.16* %agg.result to %struct.ssdm_int.17*, !dbg !15117 ; [#uses=1 type=%struct.ssdm_int.17*] [debug line = 3425:0]
  %13 = getelementptr inbounds %struct.ssdm_int.17* %12, i32 0, i32 0, !dbg !15117 ; [#uses=1 type=i33*] [debug line = 3425:0]
  store i33 %11, i33* %13, align 8, !dbg !15117   ; [debug line = 3425:0]
  ret void, !dbg !15117                           ; [debug line = 3425:0]
}

; [#uses=1]
define internal void @_ZN11ap_int_baseILi32ELb1ELb1EEC1Ei(%struct.ap_fixed_base.9* %this, i32 %op) unnamed_addr nounwind uwtable inlinehint alwaysinline align 2 {
  %1 = alloca %struct.ap_fixed_base.9*, align 8   ; [#uses=2 type=%struct.ap_fixed_base.9**]
  %2 = alloca i32, align 4                        ; [#uses=2 type=i32*]
  store %struct.ap_fixed_base.9* %this, %struct.ap_fixed_base.9** %1, align 8
  call void @llvm.dbg.declare(metadata !{%struct.ap_fixed_base.9** %1}, metadata !15121), !dbg !15123 ; [debug line = 1521:50] [debug variable = this]
  store i32 %op, i32* %2, align 4
  call void @llvm.dbg.declare(metadata !{i32* %2}, metadata !15124), !dbg !15125 ; [debug line = 1521:66] [debug variable = op]
  %3 = load %struct.ap_fixed_base.9** %1          ; [#uses=1 type=%struct.ap_fixed_base.9*]
  %4 = load i32* %2, align 4, !dbg !15126         ; [#uses=1 type=i32] [debug line = 1521:86]
  call void @_ZN11ap_int_baseILi32ELb1ELb1EEC2Ei(%struct.ap_fixed_base.9* %3, i32 %4), !dbg !15126 ; [debug line = 1521:86]
  ret void, !dbg !15126                           ; [debug line = 1521:86]
}

; [#uses=1]
define internal void @_ZN11ap_int_baseILi32ELb1ELb1EEC2Ei(%struct.ap_fixed_base.9* %this, i32 %op) unnamed_addr nounwind uwtable inlinehint alwaysinline align 2 {
  %1 = alloca %struct.ap_fixed_base.9*, align 8   ; [#uses=2 type=%struct.ap_fixed_base.9**]
  %2 = alloca i32, align 4                        ; [#uses=2 type=i32*]
  store %struct.ap_fixed_base.9* %this, %struct.ap_fixed_base.9** %1, align 8
  call void @llvm.dbg.declare(metadata !{%struct.ap_fixed_base.9** %1}, metadata !15127), !dbg !15128 ; [debug line = 1521:50] [debug variable = this]
  store i32 %op, i32* %2, align 4
  call void @llvm.dbg.declare(metadata !{i32* %2}, metadata !15129), !dbg !15130 ; [debug line = 1521:66] [debug variable = op]
  %3 = load %struct.ap_fixed_base.9** %1          ; [#uses=2 type=%struct.ap_fixed_base.9*]
  %4 = bitcast %struct.ap_fixed_base.9* %3 to %struct.ssdm_int.10*, !dbg !15131 ; [#uses=1 type=%struct.ssdm_int.10*] [debug line = 1521:70]
  call void @_ZN8ssdm_intILi32ELb1EEC2Ev(%struct.ssdm_int.10* %4), !dbg !15131 ; [debug line = 1521:70]
  %5 = load i32* %2, align 4, !dbg !15132         ; [#uses=1 type=i32] [debug line = 1521:72]
  %6 = bitcast %struct.ap_fixed_base.9* %3 to %struct.ssdm_int.10*, !dbg !15132 ; [#uses=1 type=%struct.ssdm_int.10*] [debug line = 1521:72]
  %7 = getelementptr inbounds %struct.ssdm_int.10* %6, i32 0, i32 0, !dbg !15132 ; [#uses=1 type=i32*] [debug line = 1521:72]
  store i32 %5, i32* %7, align 4, !dbg !15132     ; [debug line = 1521:72]
  ret void, !dbg !15134                           ; [debug line = 1521:86]
}

; [#uses=1]
define internal void @_ZN11ap_int_baseILi33ELb1ELb1EEC1ILi11ELb0EEERKS_IXT_EXT0_EXleT_Li64EEE(%struct.ap_int_base.16* %this, %struct.ap_int_base.14* %op) unnamed_addr nounwind uwtable inlinehint alwaysinline align 2 {
  %1 = alloca %struct.ap_int_base.16*, align 8    ; [#uses=2 type=%struct.ap_int_base.16**]
  %2 = alloca %struct.ap_int_base.14*, align 8    ; [#uses=2 type=%struct.ap_int_base.14**]
  store %struct.ap_int_base.16* %this, %struct.ap_int_base.16** %1, align 8
  call void @llvm.dbg.declare(metadata !{%struct.ap_int_base.16** %1}, metadata !15135), !dbg !15136 ; [debug line = 1506:41] [debug variable = this]
  store %struct.ap_int_base.14* %op, %struct.ap_int_base.14** %2, align 8
  call void @llvm.dbg.declare(metadata !{%struct.ap_int_base.14** %2}, metadata !15137), !dbg !15138 ; [debug line = 1506:87] [debug variable = op]
  %3 = load %struct.ap_int_base.16** %1           ; [#uses=1 type=%struct.ap_int_base.16*]
  %4 = load %struct.ap_int_base.14** %2, !dbg !15139 ; [#uses=1 type=%struct.ap_int_base.14*] [debug line = 1506:109]
  call void @_ZN11ap_int_baseILi33ELb1ELb1EEC2ILi11ELb0EEERKS_IXT_EXT0_EXleT_Li64EEE(%struct.ap_int_base.16* %3, %struct.ap_int_base.14* %4), !dbg !15139 ; [debug line = 1506:109]
  ret void, !dbg !15139                           ; [debug line = 1506:109]
}

; [#uses=1]
define internal void @_ZN11ap_int_baseILi33ELb1ELb1EEC1ILi32ELb1EEERKS_IXT_EXT0_EXleT_Li64EEE(%struct.ap_int_base.16* %this, %struct.ap_fixed_base.9* %op) unnamed_addr nounwind uwtable inlinehint alwaysinline align 2 {
  %1 = alloca %struct.ap_int_base.16*, align 8    ; [#uses=2 type=%struct.ap_int_base.16**]
  %2 = alloca %struct.ap_fixed_base.9*, align 8   ; [#uses=2 type=%struct.ap_fixed_base.9**]
  store %struct.ap_int_base.16* %this, %struct.ap_int_base.16** %1, align 8
  call void @llvm.dbg.declare(metadata !{%struct.ap_int_base.16** %1}, metadata !15140), !dbg !15141 ; [debug line = 1506:41] [debug variable = this]
  store %struct.ap_fixed_base.9* %op, %struct.ap_fixed_base.9** %2, align 8
  call void @llvm.dbg.declare(metadata !{%struct.ap_fixed_base.9** %2}, metadata !15142), !dbg !15143 ; [debug line = 1506:87] [debug variable = op]
  %3 = load %struct.ap_int_base.16** %1           ; [#uses=1 type=%struct.ap_int_base.16*]
  %4 = load %struct.ap_fixed_base.9** %2, !dbg !15144 ; [#uses=1 type=%struct.ap_fixed_base.9*] [debug line = 1506:109]
  call void @_ZN11ap_int_baseILi33ELb1ELb1EEC2ILi32ELb1EEERKS_IXT_EXT0_EXleT_Li64EEE(%struct.ap_int_base.16* %3, %struct.ap_fixed_base.9* %4), !dbg !15144 ; [debug line = 1506:109]
  ret void, !dbg !15144                           ; [debug line = 1506:109]
}

; [#uses=1]
define internal void @_ZN11ap_int_baseILi33ELb1ELb1EEC1Ev(%struct.ap_int_base.16* %this) unnamed_addr nounwind uwtable inlinehint alwaysinline align 2 {
  %1 = alloca %struct.ap_int_base.16*, align 8    ; [#uses=2 type=%struct.ap_int_base.16**]
  store %struct.ap_int_base.16* %this, %struct.ap_int_base.16** %1, align 8
  call void @llvm.dbg.declare(metadata !{%struct.ap_int_base.16** %1}, metadata !15145), !dbg !15146 ; [debug line = 1494:41] [debug variable = this]
  %2 = load %struct.ap_int_base.16** %1           ; [#uses=1 type=%struct.ap_int_base.16*]
  call void @_ZN11ap_int_baseILi33ELb1ELb1EEC2Ev(%struct.ap_int_base.16* %2), !dbg !15147 ; [debug line = 1500:3]
  ret void, !dbg !15147                           ; [debug line = 1500:3]
}

; [#uses=1]
define internal void @_ZN11ap_int_baseILi33ELb1ELb1EEC2Ev(%struct.ap_int_base.16* %this) unnamed_addr nounwind uwtable inlinehint alwaysinline align 2 {
  %1 = alloca %struct.ap_int_base.16*, align 8    ; [#uses=2 type=%struct.ap_int_base.16**]
  store %struct.ap_int_base.16* %this, %struct.ap_int_base.16** %1, align 8
  call void @llvm.dbg.declare(metadata !{%struct.ap_int_base.16** %1}, metadata !15148), !dbg !15149 ; [debug line = 1494:41] [debug variable = this]
  %2 = load %struct.ap_int_base.16** %1           ; [#uses=1 type=%struct.ap_int_base.16*]
  %3 = bitcast %struct.ap_int_base.16* %2 to %struct.ssdm_int.17*, !dbg !15150 ; [#uses=1 type=%struct.ssdm_int.17*] [debug line = 1494:55]
  call void @_ZN8ssdm_intILi33ELb1EEC2Ev(%struct.ssdm_int.17* %3), !dbg !15150 ; [debug line = 1494:55]
  ret void, !dbg !15151                           ; [debug line = 1500:3]
}

; [#uses=3]
define internal void @_ZN8ssdm_intILi33ELb1EEC2Ev(%struct.ssdm_int.17* %this) unnamed_addr nounwind uwtable inlinehint alwaysinline align 2 {
  %1 = alloca %struct.ssdm_int.17*, align 8       ; [#uses=2 type=%struct.ssdm_int.17**]
  store %struct.ssdm_int.17* %this, %struct.ssdm_int.17** %1, align 8
  call void @llvm.dbg.declare(metadata !{%struct.ssdm_int.17** %1}, metadata !15153), !dbg !15155 ; [debug line = 35:137] [debug variable = this]
  %2 = load %struct.ssdm_int.17** %1              ; [#uses=0 type=%struct.ssdm_int.17*]
  ret void, !dbg !15156                           ; [debug line = 35:171]
}

; [#uses=1]
define internal void @_ZN11ap_int_baseILi33ELb1ELb1EEC2ILi32ELb1EEERKS_IXT_EXT0_EXleT_Li64EEE(%struct.ap_int_base.16* %this, %struct.ap_fixed_base.9* %op) unnamed_addr nounwind uwtable inlinehint alwaysinline align 2 {
  %1 = alloca %struct.ap_int_base.16*, align 8    ; [#uses=2 type=%struct.ap_int_base.16**]
  %2 = alloca %struct.ap_fixed_base.9*, align 8   ; [#uses=2 type=%struct.ap_fixed_base.9**]
  store %struct.ap_int_base.16* %this, %struct.ap_int_base.16** %1, align 8
  call void @llvm.dbg.declare(metadata !{%struct.ap_int_base.16** %1}, metadata !15158), !dbg !15159 ; [debug line = 1506:41] [debug variable = this]
  store %struct.ap_fixed_base.9* %op, %struct.ap_fixed_base.9** %2, align 8
  call void @llvm.dbg.declare(metadata !{%struct.ap_fixed_base.9** %2}, metadata !15160), !dbg !15161 ; [debug line = 1506:87] [debug variable = op]
  %3 = load %struct.ap_int_base.16** %1           ; [#uses=2 type=%struct.ap_int_base.16*]
  %4 = bitcast %struct.ap_int_base.16* %3 to %struct.ssdm_int.17*, !dbg !15162 ; [#uses=1 type=%struct.ssdm_int.17*] [debug line = 1506:91]
  call void @_ZN8ssdm_intILi33ELb1EEC2Ev(%struct.ssdm_int.17* %4), !dbg !15162 ; [debug line = 1506:91]
  %5 = load %struct.ap_fixed_base.9** %2, align 8, !dbg !15163 ; [#uses=1 type=%struct.ap_fixed_base.9*] [debug line = 1506:93]
  %6 = bitcast %struct.ap_fixed_base.9* %5 to %struct.ssdm_int.10*, !dbg !15163 ; [#uses=1 type=%struct.ssdm_int.10*] [debug line = 1506:93]
  %7 = getelementptr inbounds %struct.ssdm_int.10* %6, i32 0, i32 0, !dbg !15163 ; [#uses=1 type=i32*] [debug line = 1506:93]
  %8 = load i32* %7, align 4, !dbg !15163         ; [#uses=1 type=i32] [debug line = 1506:93]
  %9 = sext i32 %8 to i33, !dbg !15163            ; [#uses=1 type=i33] [debug line = 1506:93]
  %10 = bitcast %struct.ap_int_base.16* %3 to %struct.ssdm_int.17*, !dbg !15163 ; [#uses=1 type=%struct.ssdm_int.17*] [debug line = 1506:93]
  %11 = getelementptr inbounds %struct.ssdm_int.17* %10, i32 0, i32 0, !dbg !15163 ; [#uses=1 type=i33*] [debug line = 1506:93]
  store i33 %9, i33* %11, align 8, !dbg !15163    ; [debug line = 1506:93]
  ret void, !dbg !15165                           ; [debug line = 1506:109]
}

; [#uses=1]
define internal void @_ZN11ap_int_baseILi33ELb1ELb1EEC2ILi11ELb0EEERKS_IXT_EXT0_EXleT_Li64EEE(%struct.ap_int_base.16* %this, %struct.ap_int_base.14* %op) unnamed_addr nounwind uwtable inlinehint alwaysinline align 2 {
  %1 = alloca %struct.ap_int_base.16*, align 8    ; [#uses=2 type=%struct.ap_int_base.16**]
  %2 = alloca %struct.ap_int_base.14*, align 8    ; [#uses=2 type=%struct.ap_int_base.14**]
  store %struct.ap_int_base.16* %this, %struct.ap_int_base.16** %1, align 8
  call void @llvm.dbg.declare(metadata !{%struct.ap_int_base.16** %1}, metadata !15166), !dbg !15167 ; [debug line = 1506:41] [debug variable = this]
  store %struct.ap_int_base.14* %op, %struct.ap_int_base.14** %2, align 8
  call void @llvm.dbg.declare(metadata !{%struct.ap_int_base.14** %2}, metadata !15168), !dbg !15169 ; [debug line = 1506:87] [debug variable = op]
  %3 = load %struct.ap_int_base.16** %1           ; [#uses=2 type=%struct.ap_int_base.16*]
  %4 = bitcast %struct.ap_int_base.16* %3 to %struct.ssdm_int.17*, !dbg !15170 ; [#uses=1 type=%struct.ssdm_int.17*] [debug line = 1506:91]
  call void @_ZN8ssdm_intILi33ELb1EEC2Ev(%struct.ssdm_int.17* %4), !dbg !15170 ; [debug line = 1506:91]
  %5 = load %struct.ap_int_base.14** %2, align 8, !dbg !15171 ; [#uses=1 type=%struct.ap_int_base.14*] [debug line = 1506:93]
  %6 = bitcast %struct.ap_int_base.14* %5 to %struct.ssdm_int.15*, !dbg !15171 ; [#uses=1 type=%struct.ssdm_int.15*] [debug line = 1506:93]
  %7 = getelementptr inbounds %struct.ssdm_int.15* %6, i32 0, i32 0, !dbg !15171 ; [#uses=1 type=i11*] [debug line = 1506:93]
  %8 = load i11* %7, align 2, !dbg !15171         ; [#uses=1 type=i11] [debug line = 1506:93]
  %9 = zext i11 %8 to i33, !dbg !15171            ; [#uses=1 type=i33] [debug line = 1506:93]
  %10 = bitcast %struct.ap_int_base.16* %3 to %struct.ssdm_int.17*, !dbg !15171 ; [#uses=1 type=%struct.ssdm_int.17*] [debug line = 1506:93]
  %11 = getelementptr inbounds %struct.ssdm_int.17* %10, i32 0, i32 0, !dbg !15171 ; [#uses=1 type=i33*] [debug line = 1506:93]
  store i33 %9, i33* %11, align 8, !dbg !15171    ; [debug line = 1506:93]
  ret void, !dbg !15173                           ; [debug line = 1506:109]
}

; [#uses=1]
define internal void @_ZN11ap_int_baseILi11ELb0ELb1EEC2Ev(%struct.ap_int_base.14* %this) unnamed_addr nounwind uwtable inlinehint alwaysinline align 2 {
  %1 = alloca %struct.ap_int_base.14*, align 8    ; [#uses=2 type=%struct.ap_int_base.14**]
  store %struct.ap_int_base.14* %this, %struct.ap_int_base.14** %1, align 8
  call void @llvm.dbg.declare(metadata !{%struct.ap_int_base.14** %1}, metadata !15174), !dbg !15175 ; [debug line = 1494:41] [debug variable = this]
  %2 = load %struct.ap_int_base.14** %1           ; [#uses=1 type=%struct.ap_int_base.14*]
  %3 = bitcast %struct.ap_int_base.14* %2 to %struct.ssdm_int.15*, !dbg !15176 ; [#uses=1 type=%struct.ssdm_int.15*] [debug line = 1494:55]
  call void @_ZN8ssdm_intILi11ELb0EEC2Ev(%struct.ssdm_int.15* %3), !dbg !15176 ; [debug line = 1494:55]
  ret void, !dbg !15177                           ; [debug line = 1500:3]
}

; [#uses=1]
define internal void @_ZN8ssdm_intILi11ELb0EEC2Ev(%struct.ssdm_int.15* %this) unnamed_addr nounwind uwtable inlinehint alwaysinline align 2 {
  %1 = alloca %struct.ssdm_int.15*, align 8       ; [#uses=2 type=%struct.ssdm_int.15**]
  store %struct.ssdm_int.15* %this, %struct.ssdm_int.15** %1, align 8
  call void @llvm.dbg.declare(metadata !{%struct.ssdm_int.15** %1}, metadata !15179), !dbg !15181 ; [debug line = 13:0] [debug variable = this]
  %2 = load %struct.ssdm_int.15** %1              ; [#uses=0 type=%struct.ssdm_int.15*]
  ret void, !dbg !15182                           ; [debug line = 13:0]
}

; [#uses=1]
define internal void @_ZN11ap_int_baseILi12ELb1ELb1EEC2Ev(%struct.ap_int_base.12* %this) unnamed_addr nounwind uwtable inlinehint alwaysinline align 2 {
  %1 = alloca %struct.ap_int_base.12*, align 8    ; [#uses=2 type=%struct.ap_int_base.12**]
  store %struct.ap_int_base.12* %this, %struct.ap_int_base.12** %1, align 8
  call void @llvm.dbg.declare(metadata !{%struct.ap_int_base.12** %1}, metadata !15184), !dbg !15185 ; [debug line = 1494:41] [debug variable = this]
  %2 = load %struct.ap_int_base.12** %1           ; [#uses=1 type=%struct.ap_int_base.12*]
  %3 = bitcast %struct.ap_int_base.12* %2 to %struct.ssdm_int.13*, !dbg !15186 ; [#uses=1 type=%struct.ssdm_int.13*] [debug line = 1494:55]
  call void @_ZN8ssdm_intILi12ELb1EEC2Ev(%struct.ssdm_int.13* %3), !dbg !15186 ; [debug line = 1494:55]
  ret void, !dbg !15187                           ; [debug line = 1500:3]
}

; [#uses=1]
define internal void @_ZN8ssdm_intILi12ELb1EEC2Ev(%struct.ssdm_int.13* %this) unnamed_addr nounwind uwtable inlinehint alwaysinline align 2 {
  %1 = alloca %struct.ssdm_int.13*, align 8       ; [#uses=2 type=%struct.ssdm_int.13**]
  store %struct.ssdm_int.13* %this, %struct.ssdm_int.13** %1, align 8
  call void @llvm.dbg.declare(metadata !{%struct.ssdm_int.13** %1}, metadata !15189), !dbg !15191 ; [debug line = 14:137] [debug variable = this]
  %2 = load %struct.ssdm_int.13** %1              ; [#uses=0 type=%struct.ssdm_int.13*]
  ret void, !dbg !15192                           ; [debug line = 14:171]
}

; [#uses=1]
define internal void @_ZN11ap_int_baseILi64ELb0ELb1EEC2Ev(%struct.ap_int_base* %this) unnamed_addr nounwind uwtable inlinehint alwaysinline align 2 {
  %1 = alloca %struct.ap_int_base*, align 8       ; [#uses=2 type=%struct.ap_int_base**]
  store %struct.ap_int_base* %this, %struct.ap_int_base** %1, align 8
  call void @llvm.dbg.declare(metadata !{%struct.ap_int_base** %1}, metadata !15194), !dbg !15195 ; [debug line = 1494:41] [debug variable = this]
  %2 = load %struct.ap_int_base** %1              ; [#uses=1 type=%struct.ap_int_base*]
  %3 = bitcast %struct.ap_int_base* %2 to %"class.std::locale::id"*, !dbg !15196 ; [#uses=1 type=%"class.std::locale::id"*] [debug line = 1494:55]
  call void @_ZN8ssdm_intILi64ELb0EEC2Ev(%"class.std::locale::id"* %3), !dbg !15196 ; [debug line = 1494:55]
  ret void, !dbg !15197                           ; [debug line = 1500:3]
}

; [#uses=1]
define internal void @_ZN8ssdm_intILi64ELb0EEC2Ev(%"class.std::locale::id"* %this) unnamed_addr nounwind uwtable inlinehint alwaysinline align 2 {
  %1 = alloca %"class.std::locale::id"*, align 8  ; [#uses=2 type=%"class.std::locale::id"**]
  store %"class.std::locale::id"* %this, %"class.std::locale::id"** %1, align 8
  call void @llvm.dbg.declare(metadata !{%"class.std::locale::id"** %1}, metadata !15199), !dbg !15201 ; [debug line = 68:0] [debug variable = this]
  %2 = load %"class.std::locale::id"** %1         ; [#uses=0 type=%"class.std::locale::id"*]
  ret void, !dbg !15202                           ; [debug line = 68:0]
}

; [#uses=1]
define internal void @_ZN37ssdm_global_array_mainpp0cppaplinecppC2Ev(%"struct.std::piecewise_construct_t"* %this) unnamed_addr nounwind uwtable inlinehint alwaysinline align 2 {
  %1 = alloca %"struct.std::piecewise_construct_t"*, align 8 ; [#uses=2 type=%"struct.std::piecewise_construct_t"**]
  store %"struct.std::piecewise_construct_t"* %this, %"struct.std::piecewise_construct_t"** %1, align 8
  call void @llvm.dbg.declare(metadata !{%"struct.std::piecewise_construct_t"** %1}, metadata !15204), !dbg !15205 ; [debug line = 100:42] [debug variable = this]
  %2 = load %"struct.std::piecewise_construct_t"** %1 ; [#uses=0 type=%"struct.std::piecewise_construct_t"*]
  call void (...)* @_ssdm_SpecConstant([3 x %struct.ap_fixed]* getelementptr inbounds ([6 x [3 x %struct.ap_fixed]]* @_ZL5MIX_C, i32 0, i32 0)) nounwind, !dbg !15206 ; [debug line = 101:4]
  ret void, !dbg !15208                           ; [debug line = 102:3]
}

; [#uses=2]
declare void @_ssdm_SpecConstant(...) nounwind

; [#uses=1]
define internal void @_GLOBAL__I_a() nounwind section ".text.startup" {
  call void @__cxx_global_var_init()
  call void @__cxx_global_var_init1()
  call void @__cxx_global_var_init2()
  ret void
}

; [#uses=1]
define internal void @__cxx_global_var_init8() nounwind section ".text.startup" {
  call void @_ZNSt8ios_base4InitC1Ev(%"struct.std::piecewise_construct_t"* @_ZStL8__ioinit3)
  %1 = call i32 @atexit(void ()* @__dtor__ZStL8__ioinit9) ; [#uses=0 type=i32]
  ret void
}

; [#uses=1]
define internal void @__dtor__ZStL8__ioinit9() nounwind section ".text.startup" {
  call void @_ZNSt8ios_base4InitD1Ev(%"struct.std::piecewise_construct_t"* @_ZStL8__ioinit3)
  ret void
}

; [#uses=1]
define internal void @__cxx_global_var_init110() nounwind section ".text.startup" {
  call void @_ZN8ap_fixedILi19ELi4EL9ap_q_mode5EL9ap_o_mode3ELi0EEC1Ed(%struct.ap_fixed* getelementptr inbounds ([6 x [3 x %struct.ap_fixed]]* @_ZL5MIX_C4, i64 0, i64 0, i64 0), double 5.000000e-01)
  call void @_ZN8ap_fixedILi19ELi4EL9ap_q_mode5EL9ap_o_mode3ELi0EEC1Ed(%struct.ap_fixed* getelementptr inbounds ([6 x [3 x %struct.ap_fixed]]* @_ZL5MIX_C4, i64 0, i64 0, i64 1), double 0xBFE279A745904047)
  call void @_ZN8ap_fixedILi19ELi4EL9ap_q_mode5EL9ap_o_mode3ELi0EEC1Ei(%struct.ap_fixed* getelementptr inbounds ([6 x [3 x %struct.ap_fixed]]* @_ZL5MIX_C4, i64 0, i64 0, i64 2), i32 -1)
  call void @_ZN8ap_fixedILi19ELi4EL9ap_q_mode5EL9ap_o_mode3ELi0EEC1Ei(%struct.ap_fixed* getelementptr inbounds ([6 x [3 x %struct.ap_fixed]]* @_ZL5MIX_C4, i64 0, i64 1, i64 0), i32 1)
  call void @_ZN8ap_fixedILi19ELi4EL9ap_q_mode5EL9ap_o_mode3ELi0EEC1Ei(%struct.ap_fixed* getelementptr inbounds ([6 x [3 x %struct.ap_fixed]]* @_ZL5MIX_C4, i64 0, i64 1, i64 1), i32 0)
  call void @_ZN8ap_fixedILi19ELi4EL9ap_q_mode5EL9ap_o_mode3ELi0EEC1Ei(%struct.ap_fixed* getelementptr inbounds ([6 x [3 x %struct.ap_fixed]]* @_ZL5MIX_C4, i64 0, i64 1, i64 2), i32 1)
  call void @_ZN8ap_fixedILi19ELi4EL9ap_q_mode5EL9ap_o_mode3ELi0EEC1Ed(%struct.ap_fixed* getelementptr inbounds ([6 x [3 x %struct.ap_fixed]]* @_ZL5MIX_C4, i64 0, i64 2, i64 0), double 5.000000e-01)
  call void @_ZN8ap_fixedILi19ELi4EL9ap_q_mode5EL9ap_o_mode3ELi0EEC1Ed(%struct.ap_fixed* getelementptr inbounds ([6 x [3 x %struct.ap_fixed]]* @_ZL5MIX_C4, i64 0, i64 2, i64 1), double 0x3FE279A745904047)
  call void @_ZN8ap_fixedILi19ELi4EL9ap_q_mode5EL9ap_o_mode3ELi0EEC1Ei(%struct.ap_fixed* getelementptr inbounds ([6 x [3 x %struct.ap_fixed]]* @_ZL5MIX_C4, i64 0, i64 2, i64 2), i32 -1)
  call void @_ZN8ap_fixedILi19ELi4EL9ap_q_mode5EL9ap_o_mode3ELi0EEC1Ed(%struct.ap_fixed* getelementptr inbounds ([6 x [3 x %struct.ap_fixed]]* @_ZL5MIX_C4, i64 0, i64 3, i64 0), double -5.000000e-01)
  call void @_ZN8ap_fixedILi19ELi4EL9ap_q_mode5EL9ap_o_mode3ELi0EEC1Ed(%struct.ap_fixed* getelementptr inbounds ([6 x [3 x %struct.ap_fixed]]* @_ZL5MIX_C4, i64 0, i64 3, i64 1), double 0xBFE279A745904047)
  call void @_ZN8ap_fixedILi19ELi4EL9ap_q_mode5EL9ap_o_mode3ELi0EEC1Ei(%struct.ap_fixed* getelementptr inbounds ([6 x [3 x %struct.ap_fixed]]* @_ZL5MIX_C4, i64 0, i64 3, i64 2), i32 1)
  call void @_ZN8ap_fixedILi19ELi4EL9ap_q_mode5EL9ap_o_mode3ELi0EEC1Ei(%struct.ap_fixed* getelementptr inbounds ([6 x [3 x %struct.ap_fixed]]* @_ZL5MIX_C4, i64 0, i64 4, i64 0), i32 -1)
  call void @_ZN8ap_fixedILi19ELi4EL9ap_q_mode5EL9ap_o_mode3ELi0EEC1Ei(%struct.ap_fixed* getelementptr inbounds ([6 x [3 x %struct.ap_fixed]]* @_ZL5MIX_C4, i64 0, i64 4, i64 1), i32 0)
  call void @_ZN8ap_fixedILi19ELi4EL9ap_q_mode5EL9ap_o_mode3ELi0EEC1Ei(%struct.ap_fixed* getelementptr inbounds ([6 x [3 x %struct.ap_fixed]]* @_ZL5MIX_C4, i64 0, i64 4, i64 2), i32 -1)
  call void @_ZN8ap_fixedILi19ELi4EL9ap_q_mode5EL9ap_o_mode3ELi0EEC1Ed(%struct.ap_fixed* getelementptr inbounds ([6 x [3 x %struct.ap_fixed]]* @_ZL5MIX_C4, i64 0, i64 5, i64 0), double -5.000000e-01)
  call void @_ZN8ap_fixedILi19ELi4EL9ap_q_mode5EL9ap_o_mode3ELi0EEC1Ed(%struct.ap_fixed* getelementptr inbounds ([6 x [3 x %struct.ap_fixed]]* @_ZL5MIX_C4, i64 0, i64 5, i64 1), double 0x3FE279A745904047)
  call void @_ZN8ap_fixedILi19ELi4EL9ap_q_mode5EL9ap_o_mode3ELi0EEC1Ei(%struct.ap_fixed* getelementptr inbounds ([6 x [3 x %struct.ap_fixed]]* @_ZL5MIX_C4, i64 0, i64 5, i64 2), i32 1)
  ret void
}

; [#uses=0]
define void @_Z5mixerP8ap_fixedILi16ELi1EL9ap_q_mode5EL9ap_o_mode3ELi0EES3_(%struct.ap_fixed.0* %regs_in, %struct.ap_fixed.0* %m) nounwind uwtable {
  %1 = alloca %struct.ap_fixed.0*, align 8        ; [#uses=15 type=%struct.ap_fixed.0**]
  %2 = alloca %struct.ap_fixed.0*, align 8        ; [#uses=4 type=%struct.ap_fixed.0**]
  %r_c = alloca %struct.ap_fixed, align 4         ; [#uses=2 type=%struct.ap_fixed*]
  %3 = alloca %struct.ap_fixed.0, align 2         ; [#uses=5 type=%struct.ap_fixed.0*]
  %4 = alloca %struct.ap_fixed.0, align 2         ; [#uses=2 type=%struct.ap_fixed.0*]
  %5 = alloca %struct.ap_fixed.0, align 2         ; [#uses=2 type=%struct.ap_fixed.0*]
  %p_c = alloca %struct.ap_fixed, align 4         ; [#uses=2 type=%struct.ap_fixed*]
  %6 = alloca %struct.ap_fixed.0, align 2         ; [#uses=5 type=%struct.ap_fixed.0*]
  %7 = alloca %struct.ap_fixed.0, align 2         ; [#uses=2 type=%struct.ap_fixed.0*]
  %8 = alloca %struct.ap_fixed.0, align 2         ; [#uses=2 type=%struct.ap_fixed.0*]
  %y_c = alloca %struct.ap_fixed, align 4         ; [#uses=2 type=%struct.ap_fixed*]
  %9 = alloca %struct.ap_fixed.0, align 2         ; [#uses=5 type=%struct.ap_fixed.0*]
  %10 = alloca %struct.ap_fixed.0, align 2        ; [#uses=2 type=%struct.ap_fixed.0*]
  %11 = alloca %struct.ap_fixed.0, align 2        ; [#uses=2 type=%struct.ap_fixed.0*]
  %t_c = alloca %struct.ap_fixed, align 4         ; [#uses=2 type=%struct.ap_fixed*]
  %12 = alloca %struct.ap_fixed.0, align 2        ; [#uses=5 type=%struct.ap_fixed.0*]
  %13 = alloca %struct.ap_fixed.0, align 2        ; [#uses=2 type=%struct.ap_fixed.0*]
  %14 = alloca %struct.ap_fixed.0, align 2        ; [#uses=2 type=%struct.ap_fixed.0*]
  %scaled_power = alloca %struct.ap_fixed, align 4 ; [#uses=6 type=%struct.ap_fixed*]
  %i = alloca i32, align 4                        ; [#uses=8 type=i32*]
  %15 = alloca %struct.ap_fixed, align 4          ; [#uses=2 type=%struct.ap_fixed*]
  %16 = alloca %struct.ap_fixed_base.3, align 8   ; [#uses=2 type=%struct.ap_fixed_base.3*]
  %17 = alloca %struct.ap_fixed_base.5, align 8   ; [#uses=2 type=%struct.ap_fixed_base.5*]
  %18 = alloca %struct.ap_fixed_base.7, align 8   ; [#uses=2 type=%struct.ap_fixed_base.7*]
  %19 = alloca %struct.ap_fixed_base.7, align 8   ; [#uses=2 type=%struct.ap_fixed_base.7*]
  %20 = alloca %struct.ap_fixed_base.9.26, align 8 ; [#uses=2 type=%struct.ap_fixed_base.9.26*]
  %21 = alloca %struct.ap_fixed_base.7, align 8   ; [#uses=2 type=%struct.ap_fixed_base.7*]
  %22 = alloca %struct.ap_fixed_base.11, align 8  ; [#uses=2 type=%struct.ap_fixed_base.11*]
  %23 = alloca %struct.ap_fixed, align 4          ; [#uses=2 type=%struct.ap_fixed*]
  %24 = alloca %struct.ap_fixed.0, align 2        ; [#uses=2 type=%struct.ap_fixed.0*]
  %25 = alloca %struct.ap_fixed, align 4          ; [#uses=5 type=%struct.ap_fixed*]
  %26 = alloca %struct.ap_fixed, align 4          ; [#uses=2 type=%struct.ap_fixed*]
  %27 = alloca %struct.ap_fixed, align 4          ; [#uses=2 type=%struct.ap_fixed*]
  store %struct.ap_fixed.0* %regs_in, %struct.ap_fixed.0** %1, align 8
  call void @llvm.dbg.declare(metadata !{%struct.ap_fixed.0** %1}, metadata !15209), !dbg !15210 ; [debug line = 76:16] [debug variable = regs_in]
  store %struct.ap_fixed.0* %m, %struct.ap_fixed.0** %2, align 8
  call void @llvm.dbg.declare(metadata !{%struct.ap_fixed.0** %2}, metadata !15211), !dbg !15212 ; [debug line = 76:31] [debug variable = m]
  %28 = load %struct.ap_fixed.0** %1, align 8, !dbg !15213 ; [#uses=1 type=%struct.ap_fixed.0*] [debug line = 76:41]
  call void (...)* @_ssdm_SpecArrayDimSize(%struct.ap_fixed.0* %28, i32 4) nounwind, !dbg !15213 ; [debug line = 76:41]
  %29 = load %struct.ap_fixed.0** %2, align 8, !dbg !15215 ; [#uses=1 type=%struct.ap_fixed.0*] [debug line = 76:75]
  call void (...)* @_ssdm_SpecArrayDimSize(%struct.ap_fixed.0* %29, i32 4096) nounwind, !dbg !15215 ; [debug line = 76:75]
  call void (...)* @_ssdm_op_SpecInterface(i32 0, i8* getelementptr inbounds ([10 x i8]* @.str5, i32 0, i32 0), i32 0, i32 0, i8* getelementptr inbounds ([1 x i8]* @.str2, i32 0, i32 0), i32 0, i32 0, i8* getelementptr inbounds ([1 x i8]* @.str2, i32 0, i32 0), i8* getelementptr inbounds ([1 x i8]* @.str2, i32 0, i32 0), i8* getelementptr inbounds ([1 x i8]* @.str2, i32 0, i32 0), i32 0, i32 0, i32 0, i32 0, i8* getelementptr inbounds ([1 x i8]* @.str2, i32 0, i32 0), i8* getelementptr inbounds ([1 x i8]* @.str2, i32 0, i32 0)) nounwind, !dbg !15216 ; [debug line = 77:1]
  %30 = load %struct.ap_fixed.0** %1, align 8, !dbg !15217 ; [#uses=1 type=%struct.ap_fixed.0*] [debug line = 78:1]
  call void (...)* @_ssdm_op_SpecInterface(%struct.ap_fixed.0* %30, i8* getelementptr inbounds ([10 x i8]* @.str5, i32 0, i32 0), i32 0, i32 0, i8* getelementptr inbounds ([1 x i8]* @.str2, i32 0, i32 0), i32 0, i32 0, i8* getelementptr inbounds ([1 x i8]* @.str2, i32 0, i32 0), i8* getelementptr inbounds ([1 x i8]* @.str2, i32 0, i32 0), i8* getelementptr inbounds ([1 x i8]* @.str2, i32 0, i32 0), i32 0, i32 0, i32 0, i32 0, i8* getelementptr inbounds ([1 x i8]* @.str2, i32 0, i32 0), i8* getelementptr inbounds ([1 x i8]* @.str2, i32 0, i32 0)) nounwind, !dbg !15217 ; [debug line = 78:1]
  %31 = load %struct.ap_fixed.0** %2, align 8, !dbg !15218 ; [#uses=1 type=%struct.ap_fixed.0*] [debug line = 79:1]
  call void (...)* @_ssdm_op_SpecInterface(%struct.ap_fixed.0* %31, i8* getelementptr inbounds ([6 x i8]* @.str3, i32 0, i32 0), i32 0, i32 0, i8* getelementptr inbounds ([1 x i8]* @.str2, i32 0, i32 0), i32 0, i32 0, i8* getelementptr inbounds ([1 x i8]* @.str2, i32 0, i32 0), i8* getelementptr inbounds ([1 x i8]* @.str2, i32 0, i32 0), i8* getelementptr inbounds ([1 x i8]* @.str2, i32 0, i32 0), i32 16, i32 16, i32 16, i32 16, i8* getelementptr inbounds ([1 x i8]* @.str2, i32 0, i32 0), i8* getelementptr inbounds ([1 x i8]* @.str2, i32 0, i32 0)) nounwind, !dbg !15218 ; [debug line = 79:1]
  call void (...)* @_ssdm_op_SpecPipeline(i32 -1, i32 1, i32 1, i32 0, i8* getelementptr inbounds ([1 x i8]* @.str2, i32 0, i32 0)) nounwind, !dbg !15219 ; [debug line = 80:1]
  call void @llvm.dbg.declare(metadata !{%struct.ap_fixed* %r_c}, metadata !15220), !dbg !15221 ; [debug line = 82:9] [debug variable = r_c]
  %32 = load %struct.ap_fixed.0** %1, align 8, !dbg !15222 ; [#uses=1 type=%struct.ap_fixed.0*] [debug line = 82:16]
  %33 = getelementptr inbounds %struct.ap_fixed.0* %32, i64 0, !dbg !15222 ; [#uses=1 type=%struct.ap_fixed.0*] [debug line = 82:16]
  %34 = bitcast %struct.ap_fixed.0* %33 to %struct.ap_fixed_base.1*, !dbg !15222 ; [#uses=1 type=%struct.ap_fixed_base.1*] [debug line = 82:16]
  call void @_ZN8ap_fixedILi16ELi1EL9ap_q_mode5EL9ap_o_mode3ELi0EEC1Ed(%struct.ap_fixed.0* %4, double -9.900000e-01), !dbg !15222 ; [debug line = 82:16]
  %35 = bitcast %struct.ap_fixed.0* %4 to %struct.ap_fixed_base.1*, !dbg !15222 ; [#uses=1 type=%struct.ap_fixed_base.1*] [debug line = 82:16]
  %36 = call zeroext i1 @_ZNK13ap_fixed_baseILi16ELi1ELb1EL9ap_q_mode5EL9ap_o_mode3ELi0EEltILi16ELi1ELb1ELS0_5ELS1_3ELi0EEEbRKS_IXT_EXT0_EXT1_EXT2_EXT3_EXT4_EE(%struct.ap_fixed_base.1* %34, %struct.ap_fixed_base.1* %35), !dbg !15222 ; [#uses=1 type=i1] [debug line = 82:16]
  br i1 %36, label %37, label %38, !dbg !15222    ; [debug line = 82:16]

; <label>:37                                      ; preds = %0
  call void @_ZN8ap_fixedILi16ELi1EL9ap_q_mode5EL9ap_o_mode3ELi0EEC1Ed(%struct.ap_fixed.0* %3, double -9.900000e-01), !dbg !15222 ; [debug line = 82:16]
  br label %58, !dbg !15222                       ; [debug line = 82:16]

; <label>:38                                      ; preds = %0
  %39 = load %struct.ap_fixed.0** %1, align 8, !dbg !15223 ; [#uses=1 type=%struct.ap_fixed.0*] [debug line = 82:48]
  %40 = getelementptr inbounds %struct.ap_fixed.0* %39, i64 0, !dbg !15223 ; [#uses=1 type=%struct.ap_fixed.0*] [debug line = 82:48]
  %41 = bitcast %struct.ap_fixed.0* %40 to %struct.ap_fixed_base.1*, !dbg !15223 ; [#uses=1 type=%struct.ap_fixed_base.1*] [debug line = 82:48]
  call void @_ZN8ap_fixedILi16ELi1EL9ap_q_mode5EL9ap_o_mode3ELi0EEC1Ed(%struct.ap_fixed.0* %5, double 9.900000e-01), !dbg !15223 ; [debug line = 82:48]
  %42 = bitcast %struct.ap_fixed.0* %5 to %struct.ap_fixed_base.1*, !dbg !15223 ; [#uses=1 type=%struct.ap_fixed_base.1*] [debug line = 82:48]
  %43 = call zeroext i1 @_ZNK13ap_fixed_baseILi16ELi1ELb1EL9ap_q_mode5EL9ap_o_mode3ELi0EEgtILi16ELi1ELb1ELS0_5ELS1_3ELi0EEEbRKS_IXT_EXT0_EXT1_EXT2_EXT3_EXT4_EE(%struct.ap_fixed_base.1* %41, %struct.ap_fixed_base.1* %42), !dbg !15223 ; [#uses=1 type=i1] [debug line = 82:48]
  br i1 %43, label %44, label %45, !dbg !15223    ; [debug line = 82:48]

; <label>:44                                      ; preds = %38
  call void @_ZN8ap_fixedILi16ELi1EL9ap_q_mode5EL9ap_o_mode3ELi0EEC1Ed(%struct.ap_fixed.0* %3, double 9.900000e-01), !dbg !15223 ; [debug line = 82:48]
  br label %57, !dbg !15223                       ; [debug line = 82:48]

; <label>:45                                      ; preds = %38
  %46 = load %struct.ap_fixed.0** %1, align 8, !dbg !15223 ; [#uses=1 type=%struct.ap_fixed.0*] [debug line = 82:48]
  %47 = getelementptr inbounds %struct.ap_fixed.0* %46, i64 0, !dbg !15223 ; [#uses=2 type=%struct.ap_fixed.0*] [debug line = 82:48]
  %48 = bitcast %struct.ap_fixed.0* %3 to i8*, !dbg !15223 ; [#uses=0 type=i8*] [debug line = 82:48]
  %49 = bitcast %struct.ap_fixed.0* %47 to i8*, !dbg !15223 ; [#uses=0 type=i8*] [debug line = 82:48]
  %50 = getelementptr inbounds %struct.ap_fixed.0* %3, i32 0, i32 0, !dbg !15223 ; [#uses=1 type=%struct.ap_fixed_base.1*] [debug line = 82:48]
  %51 = getelementptr inbounds %struct.ap_fixed.0* %47, i32 0, i32 0, !dbg !15223 ; [#uses=1 type=%struct.ap_fixed_base.1*] [debug line = 82:48]
  %52 = getelementptr inbounds %struct.ap_fixed_base.1* %50, i32 0, i32 0, !dbg !15223 ; [#uses=1 type=%struct.ssdm_int.2*] [debug line = 82:48]
  %53 = getelementptr inbounds %struct.ap_fixed_base.1* %51, i32 0, i32 0, !dbg !15223 ; [#uses=1 type=%struct.ssdm_int.2*] [debug line = 82:48]
  %54 = getelementptr inbounds %struct.ssdm_int.2* %52, i32 0, i32 0, !dbg !15223 ; [#uses=1 type=i16*] [debug line = 82:48]
  %55 = getelementptr inbounds %struct.ssdm_int.2* %53, i32 0, i32 0, !dbg !15223 ; [#uses=1 type=i16*] [debug line = 82:48]
  %56 = load i16* %55, !dbg !15223                ; [#uses=1 type=i16] [debug line = 82:48]
  store i16 %56, i16* %54, !dbg !15223            ; [debug line = 82:48]
  br label %57, !dbg !15223                       ; [debug line = 82:48]

; <label>:57                                      ; preds = %45, %44
  br label %58, !dbg !15223                       ; [debug line = 82:48]

; <label>:58                                      ; preds = %57, %37
  call void @_ZN8ap_fixedILi19ELi4EL9ap_q_mode5EL9ap_o_mode3ELi0EEC1ILi16ELi1ELS0_5ELS1_3ELi0EEERKS_IXT_EXT0_EXT1_EXT2_EXT3_EE(%struct.ap_fixed* %r_c, %struct.ap_fixed.0* %3), !dbg !15223 ; [debug line = 82:48]
  call void @llvm.dbg.declare(metadata !{%struct.ap_fixed* %p_c}, metadata !15224), !dbg !15225 ; [debug line = 83:9] [debug variable = p_c]
  %59 = load %struct.ap_fixed.0** %1, align 8, !dbg !15226 ; [#uses=1 type=%struct.ap_fixed.0*] [debug line = 83:16]
  %60 = getelementptr inbounds %struct.ap_fixed.0* %59, i64 1, !dbg !15226 ; [#uses=1 type=%struct.ap_fixed.0*] [debug line = 83:16]
  %61 = bitcast %struct.ap_fixed.0* %60 to %struct.ap_fixed_base.1*, !dbg !15226 ; [#uses=1 type=%struct.ap_fixed_base.1*] [debug line = 83:16]
  call void @_ZN8ap_fixedILi16ELi1EL9ap_q_mode5EL9ap_o_mode3ELi0EEC1Ed(%struct.ap_fixed.0* %7, double -9.900000e-01), !dbg !15226 ; [debug line = 83:16]
  %62 = bitcast %struct.ap_fixed.0* %7 to %struct.ap_fixed_base.1*, !dbg !15226 ; [#uses=1 type=%struct.ap_fixed_base.1*] [debug line = 83:16]
  %63 = call zeroext i1 @_ZNK13ap_fixed_baseILi16ELi1ELb1EL9ap_q_mode5EL9ap_o_mode3ELi0EEltILi16ELi1ELb1ELS0_5ELS1_3ELi0EEEbRKS_IXT_EXT0_EXT1_EXT2_EXT3_EXT4_EE(%struct.ap_fixed_base.1* %61, %struct.ap_fixed_base.1* %62), !dbg !15226 ; [#uses=1 type=i1] [debug line = 83:16]
  br i1 %63, label %64, label %65, !dbg !15226    ; [debug line = 83:16]

; <label>:64                                      ; preds = %58
  call void @_ZN8ap_fixedILi16ELi1EL9ap_q_mode5EL9ap_o_mode3ELi0EEC1Ed(%struct.ap_fixed.0* %6, double -9.900000e-01), !dbg !15226 ; [debug line = 83:16]
  br label %85, !dbg !15226                       ; [debug line = 83:16]

; <label>:65                                      ; preds = %58
  %66 = load %struct.ap_fixed.0** %1, align 8, !dbg !15227 ; [#uses=1 type=%struct.ap_fixed.0*] [debug line = 83:48]
  %67 = getelementptr inbounds %struct.ap_fixed.0* %66, i64 1, !dbg !15227 ; [#uses=1 type=%struct.ap_fixed.0*] [debug line = 83:48]
  %68 = bitcast %struct.ap_fixed.0* %67 to %struct.ap_fixed_base.1*, !dbg !15227 ; [#uses=1 type=%struct.ap_fixed_base.1*] [debug line = 83:48]
  call void @_ZN8ap_fixedILi16ELi1EL9ap_q_mode5EL9ap_o_mode3ELi0EEC1Ed(%struct.ap_fixed.0* %8, double 9.900000e-01), !dbg !15227 ; [debug line = 83:48]
  %69 = bitcast %struct.ap_fixed.0* %8 to %struct.ap_fixed_base.1*, !dbg !15227 ; [#uses=1 type=%struct.ap_fixed_base.1*] [debug line = 83:48]
  %70 = call zeroext i1 @_ZNK13ap_fixed_baseILi16ELi1ELb1EL9ap_q_mode5EL9ap_o_mode3ELi0EEgtILi16ELi1ELb1ELS0_5ELS1_3ELi0EEEbRKS_IXT_EXT0_EXT1_EXT2_EXT3_EXT4_EE(%struct.ap_fixed_base.1* %68, %struct.ap_fixed_base.1* %69), !dbg !15227 ; [#uses=1 type=i1] [debug line = 83:48]
  br i1 %70, label %71, label %72, !dbg !15227    ; [debug line = 83:48]

; <label>:71                                      ; preds = %65
  call void @_ZN8ap_fixedILi16ELi1EL9ap_q_mode5EL9ap_o_mode3ELi0EEC1Ed(%struct.ap_fixed.0* %6, double 9.900000e-01), !dbg !15227 ; [debug line = 83:48]
  br label %84, !dbg !15227                       ; [debug line = 83:48]

; <label>:72                                      ; preds = %65
  %73 = load %struct.ap_fixed.0** %1, align 8, !dbg !15227 ; [#uses=1 type=%struct.ap_fixed.0*] [debug line = 83:48]
  %74 = getelementptr inbounds %struct.ap_fixed.0* %73, i64 1, !dbg !15227 ; [#uses=2 type=%struct.ap_fixed.0*] [debug line = 83:48]
  %75 = bitcast %struct.ap_fixed.0* %6 to i8*, !dbg !15227 ; [#uses=0 type=i8*] [debug line = 83:48]
  %76 = bitcast %struct.ap_fixed.0* %74 to i8*, !dbg !15227 ; [#uses=0 type=i8*] [debug line = 83:48]
  %77 = getelementptr inbounds %struct.ap_fixed.0* %6, i32 0, i32 0, !dbg !15227 ; [#uses=1 type=%struct.ap_fixed_base.1*] [debug line = 83:48]
  %78 = getelementptr inbounds %struct.ap_fixed.0* %74, i32 0, i32 0, !dbg !15227 ; [#uses=1 type=%struct.ap_fixed_base.1*] [debug line = 83:48]
  %79 = getelementptr inbounds %struct.ap_fixed_base.1* %77, i32 0, i32 0, !dbg !15227 ; [#uses=1 type=%struct.ssdm_int.2*] [debug line = 83:48]
  %80 = getelementptr inbounds %struct.ap_fixed_base.1* %78, i32 0, i32 0, !dbg !15227 ; [#uses=1 type=%struct.ssdm_int.2*] [debug line = 83:48]
  %81 = getelementptr inbounds %struct.ssdm_int.2* %79, i32 0, i32 0, !dbg !15227 ; [#uses=1 type=i16*] [debug line = 83:48]
  %82 = getelementptr inbounds %struct.ssdm_int.2* %80, i32 0, i32 0, !dbg !15227 ; [#uses=1 type=i16*] [debug line = 83:48]
  %83 = load i16* %82, !dbg !15227                ; [#uses=1 type=i16] [debug line = 83:48]
  store i16 %83, i16* %81, !dbg !15227            ; [debug line = 83:48]
  br label %84, !dbg !15227                       ; [debug line = 83:48]

; <label>:84                                      ; preds = %72, %71
  br label %85, !dbg !15227                       ; [debug line = 83:48]

; <label>:85                                      ; preds = %84, %64
  call void @_ZN8ap_fixedILi19ELi4EL9ap_q_mode5EL9ap_o_mode3ELi0EEC1ILi16ELi1ELS0_5ELS1_3ELi0EEERKS_IXT_EXT0_EXT1_EXT2_EXT3_EE(%struct.ap_fixed* %p_c, %struct.ap_fixed.0* %6), !dbg !15227 ; [debug line = 83:48]
  call void @llvm.dbg.declare(metadata !{%struct.ap_fixed* %y_c}, metadata !15228), !dbg !15229 ; [debug line = 84:9] [debug variable = y_c]
  %86 = load %struct.ap_fixed.0** %1, align 8, !dbg !15230 ; [#uses=1 type=%struct.ap_fixed.0*] [debug line = 84:16]
  %87 = getelementptr inbounds %struct.ap_fixed.0* %86, i64 2, !dbg !15230 ; [#uses=1 type=%struct.ap_fixed.0*] [debug line = 84:16]
  %88 = bitcast %struct.ap_fixed.0* %87 to %struct.ap_fixed_base.1*, !dbg !15230 ; [#uses=1 type=%struct.ap_fixed_base.1*] [debug line = 84:16]
  call void @_ZN8ap_fixedILi16ELi1EL9ap_q_mode5EL9ap_o_mode3ELi0EEC1Ed(%struct.ap_fixed.0* %10, double -9.900000e-01), !dbg !15230 ; [debug line = 84:16]
  %89 = bitcast %struct.ap_fixed.0* %10 to %struct.ap_fixed_base.1*, !dbg !15230 ; [#uses=1 type=%struct.ap_fixed_base.1*] [debug line = 84:16]
  %90 = call zeroext i1 @_ZNK13ap_fixed_baseILi16ELi1ELb1EL9ap_q_mode5EL9ap_o_mode3ELi0EEltILi16ELi1ELb1ELS0_5ELS1_3ELi0EEEbRKS_IXT_EXT0_EXT1_EXT2_EXT3_EXT4_EE(%struct.ap_fixed_base.1* %88, %struct.ap_fixed_base.1* %89), !dbg !15230 ; [#uses=1 type=i1] [debug line = 84:16]
  br i1 %90, label %91, label %92, !dbg !15230    ; [debug line = 84:16]

; <label>:91                                      ; preds = %85
  call void @_ZN8ap_fixedILi16ELi1EL9ap_q_mode5EL9ap_o_mode3ELi0EEC1Ed(%struct.ap_fixed.0* %9, double -9.900000e-01), !dbg !15230 ; [debug line = 84:16]
  br label %112, !dbg !15230                      ; [debug line = 84:16]

; <label>:92                                      ; preds = %85
  %93 = load %struct.ap_fixed.0** %1, align 8, !dbg !15231 ; [#uses=1 type=%struct.ap_fixed.0*] [debug line = 84:48]
  %94 = getelementptr inbounds %struct.ap_fixed.0* %93, i64 2, !dbg !15231 ; [#uses=1 type=%struct.ap_fixed.0*] [debug line = 84:48]
  %95 = bitcast %struct.ap_fixed.0* %94 to %struct.ap_fixed_base.1*, !dbg !15231 ; [#uses=1 type=%struct.ap_fixed_base.1*] [debug line = 84:48]
  call void @_ZN8ap_fixedILi16ELi1EL9ap_q_mode5EL9ap_o_mode3ELi0EEC1Ed(%struct.ap_fixed.0* %11, double 9.900000e-01), !dbg !15231 ; [debug line = 84:48]
  %96 = bitcast %struct.ap_fixed.0* %11 to %struct.ap_fixed_base.1*, !dbg !15231 ; [#uses=1 type=%struct.ap_fixed_base.1*] [debug line = 84:48]
  %97 = call zeroext i1 @_ZNK13ap_fixed_baseILi16ELi1ELb1EL9ap_q_mode5EL9ap_o_mode3ELi0EEgtILi16ELi1ELb1ELS0_5ELS1_3ELi0EEEbRKS_IXT_EXT0_EXT1_EXT2_EXT3_EXT4_EE(%struct.ap_fixed_base.1* %95, %struct.ap_fixed_base.1* %96), !dbg !15231 ; [#uses=1 type=i1] [debug line = 84:48]
  br i1 %97, label %98, label %99, !dbg !15231    ; [debug line = 84:48]

; <label>:98                                      ; preds = %92
  call void @_ZN8ap_fixedILi16ELi1EL9ap_q_mode5EL9ap_o_mode3ELi0EEC1Ed(%struct.ap_fixed.0* %9, double 9.900000e-01), !dbg !15231 ; [debug line = 84:48]
  br label %111, !dbg !15231                      ; [debug line = 84:48]

; <label>:99                                      ; preds = %92
  %100 = load %struct.ap_fixed.0** %1, align 8, !dbg !15231 ; [#uses=1 type=%struct.ap_fixed.0*] [debug line = 84:48]
  %101 = getelementptr inbounds %struct.ap_fixed.0* %100, i64 2, !dbg !15231 ; [#uses=2 type=%struct.ap_fixed.0*] [debug line = 84:48]
  %102 = bitcast %struct.ap_fixed.0* %9 to i8*, !dbg !15231 ; [#uses=0 type=i8*] [debug line = 84:48]
  %103 = bitcast %struct.ap_fixed.0* %101 to i8*, !dbg !15231 ; [#uses=0 type=i8*] [debug line = 84:48]
  %104 = getelementptr inbounds %struct.ap_fixed.0* %9, i32 0, i32 0, !dbg !15231 ; [#uses=1 type=%struct.ap_fixed_base.1*] [debug line = 84:48]
  %105 = getelementptr inbounds %struct.ap_fixed.0* %101, i32 0, i32 0, !dbg !15231 ; [#uses=1 type=%struct.ap_fixed_base.1*] [debug line = 84:48]
  %106 = getelementptr inbounds %struct.ap_fixed_base.1* %104, i32 0, i32 0, !dbg !15231 ; [#uses=1 type=%struct.ssdm_int.2*] [debug line = 84:48]
  %107 = getelementptr inbounds %struct.ap_fixed_base.1* %105, i32 0, i32 0, !dbg !15231 ; [#uses=1 type=%struct.ssdm_int.2*] [debug line = 84:48]
  %108 = getelementptr inbounds %struct.ssdm_int.2* %106, i32 0, i32 0, !dbg !15231 ; [#uses=1 type=i16*] [debug line = 84:48]
  %109 = getelementptr inbounds %struct.ssdm_int.2* %107, i32 0, i32 0, !dbg !15231 ; [#uses=1 type=i16*] [debug line = 84:48]
  %110 = load i16* %109, !dbg !15231              ; [#uses=1 type=i16] [debug line = 84:48]
  store i16 %110, i16* %108, !dbg !15231          ; [debug line = 84:48]
  br label %111, !dbg !15231                      ; [debug line = 84:48]

; <label>:111                                     ; preds = %99, %98
  br label %112, !dbg !15231                      ; [debug line = 84:48]

; <label>:112                                     ; preds = %111, %91
  call void @_ZN8ap_fixedILi19ELi4EL9ap_q_mode5EL9ap_o_mode3ELi0EEC1ILi16ELi1ELS0_5ELS1_3ELi0EEERKS_IXT_EXT0_EXT1_EXT2_EXT3_EE(%struct.ap_fixed* %y_c, %struct.ap_fixed.0* %9), !dbg !15231 ; [debug line = 84:48]
  call void @llvm.dbg.declare(metadata !{%struct.ap_fixed* %t_c}, metadata !15232), !dbg !15233 ; [debug line = 85:9] [debug variable = t_c]
  %113 = load %struct.ap_fixed.0** %1, align 8, !dbg !15234 ; [#uses=1 type=%struct.ap_fixed.0*] [debug line = 85:16]
  %114 = getelementptr inbounds %struct.ap_fixed.0* %113, i64 3, !dbg !15234 ; [#uses=1 type=%struct.ap_fixed.0*] [debug line = 85:16]
  %115 = bitcast %struct.ap_fixed.0* %114 to %struct.ap_fixed_base.1*, !dbg !15234 ; [#uses=1 type=%struct.ap_fixed_base.1*] [debug line = 85:16]
  call void @_ZN8ap_fixedILi16ELi1EL9ap_q_mode5EL9ap_o_mode3ELi0EEC1Ei(%struct.ap_fixed.0* %13, i32 0), !dbg !15234 ; [debug line = 85:16]
  %116 = bitcast %struct.ap_fixed.0* %13 to %struct.ap_fixed_base.1*, !dbg !15234 ; [#uses=1 type=%struct.ap_fixed_base.1*] [debug line = 85:16]
  %117 = call zeroext i1 @_ZNK13ap_fixed_baseILi16ELi1ELb1EL9ap_q_mode5EL9ap_o_mode3ELi0EEltILi16ELi1ELb1ELS0_5ELS1_3ELi0EEEbRKS_IXT_EXT0_EXT1_EXT2_EXT3_EXT4_EE(%struct.ap_fixed_base.1* %115, %struct.ap_fixed_base.1* %116), !dbg !15234 ; [#uses=1 type=i1] [debug line = 85:16]
  br i1 %117, label %118, label %119, !dbg !15234 ; [debug line = 85:16]

; <label>:118                                     ; preds = %112
  call void @_ZN8ap_fixedILi16ELi1EL9ap_q_mode5EL9ap_o_mode3ELi0EEC1Ei(%struct.ap_fixed.0* %12, i32 0), !dbg !15234 ; [debug line = 85:16]
  br label %139, !dbg !15234                      ; [debug line = 85:16]

; <label>:119                                     ; preds = %112
  %120 = load %struct.ap_fixed.0** %1, align 8, !dbg !15235 ; [#uses=1 type=%struct.ap_fixed.0*] [debug line = 85:42]
  %121 = getelementptr inbounds %struct.ap_fixed.0* %120, i64 3, !dbg !15235 ; [#uses=1 type=%struct.ap_fixed.0*] [debug line = 85:42]
  %122 = bitcast %struct.ap_fixed.0* %121 to %struct.ap_fixed_base.1*, !dbg !15235 ; [#uses=1 type=%struct.ap_fixed_base.1*] [debug line = 85:42]
  call void @_ZN8ap_fixedILi16ELi1EL9ap_q_mode5EL9ap_o_mode3ELi0EEC1Ed(%struct.ap_fixed.0* %14, double 9.900000e-01), !dbg !15235 ; [debug line = 85:42]
  %123 = bitcast %struct.ap_fixed.0* %14 to %struct.ap_fixed_base.1*, !dbg !15235 ; [#uses=1 type=%struct.ap_fixed_base.1*] [debug line = 85:42]
  %124 = call zeroext i1 @_ZNK13ap_fixed_baseILi16ELi1ELb1EL9ap_q_mode5EL9ap_o_mode3ELi0EEgtILi16ELi1ELb1ELS0_5ELS1_3ELi0EEEbRKS_IXT_EXT0_EXT1_EXT2_EXT3_EXT4_EE(%struct.ap_fixed_base.1* %122, %struct.ap_fixed_base.1* %123), !dbg !15235 ; [#uses=1 type=i1] [debug line = 85:42]
  br i1 %124, label %125, label %126, !dbg !15235 ; [debug line = 85:42]

; <label>:125                                     ; preds = %119
  call void @_ZN8ap_fixedILi16ELi1EL9ap_q_mode5EL9ap_o_mode3ELi0EEC1Ed(%struct.ap_fixed.0* %12, double 9.900000e-01), !dbg !15235 ; [debug line = 85:42]
  br label %138, !dbg !15235                      ; [debug line = 85:42]

; <label>:126                                     ; preds = %119
  %127 = load %struct.ap_fixed.0** %1, align 8, !dbg !15235 ; [#uses=1 type=%struct.ap_fixed.0*] [debug line = 85:42]
  %128 = getelementptr inbounds %struct.ap_fixed.0* %127, i64 3, !dbg !15235 ; [#uses=2 type=%struct.ap_fixed.0*] [debug line = 85:42]
  %129 = bitcast %struct.ap_fixed.0* %12 to i8*, !dbg !15235 ; [#uses=0 type=i8*] [debug line = 85:42]
  %130 = bitcast %struct.ap_fixed.0* %128 to i8*, !dbg !15235 ; [#uses=0 type=i8*] [debug line = 85:42]
  %131 = getelementptr inbounds %struct.ap_fixed.0* %12, i32 0, i32 0, !dbg !15235 ; [#uses=1 type=%struct.ap_fixed_base.1*] [debug line = 85:42]
  %132 = getelementptr inbounds %struct.ap_fixed.0* %128, i32 0, i32 0, !dbg !15235 ; [#uses=1 type=%struct.ap_fixed_base.1*] [debug line = 85:42]
  %133 = getelementptr inbounds %struct.ap_fixed_base.1* %131, i32 0, i32 0, !dbg !15235 ; [#uses=1 type=%struct.ssdm_int.2*] [debug line = 85:42]
  %134 = getelementptr inbounds %struct.ap_fixed_base.1* %132, i32 0, i32 0, !dbg !15235 ; [#uses=1 type=%struct.ssdm_int.2*] [debug line = 85:42]
  %135 = getelementptr inbounds %struct.ssdm_int.2* %133, i32 0, i32 0, !dbg !15235 ; [#uses=1 type=i16*] [debug line = 85:42]
  %136 = getelementptr inbounds %struct.ssdm_int.2* %134, i32 0, i32 0, !dbg !15235 ; [#uses=1 type=i16*] [debug line = 85:42]
  %137 = load i16* %136, !dbg !15235              ; [#uses=1 type=i16] [debug line = 85:42]
  store i16 %137, i16* %135, !dbg !15235          ; [debug line = 85:42]
  br label %138, !dbg !15235                      ; [debug line = 85:42]

; <label>:138                                     ; preds = %126, %125
  br label %139, !dbg !15235                      ; [debug line = 85:42]

; <label>:139                                     ; preds = %138, %118
  call void @_ZN8ap_fixedILi19ELi4EL9ap_q_mode5EL9ap_o_mode3ELi0EEC1ILi16ELi1ELS0_5ELS1_3ELi0EEERKS_IXT_EXT0_EXT1_EXT2_EXT3_EE(%struct.ap_fixed* %t_c, %struct.ap_fixed.0* %12), !dbg !15235 ; [debug line = 85:42]
  call void @llvm.dbg.declare(metadata !{%struct.ap_fixed* %scaled_power}, metadata !15236), !dbg !15237 ; [debug line = 86:9] [debug variable = scaled_power]
  call void @_ZN8ap_fixedILi19ELi4EL9ap_q_mode5EL9ap_o_mode3ELi0EEC1Ev(%struct.ap_fixed* %scaled_power), !dbg !15238 ; [debug line = 86:21]
  call void @llvm.dbg.declare(metadata !{i32* %i}, metadata !15239), !dbg !15241 ; [debug line = 98:10] [debug variable = i]
  store i32 0, i32* %i, align 4, !dbg !15242      ; [debug line = 98:13]
  br label %140, !dbg !15242                      ; [debug line = 98:13]

; <label>:140                                     ; preds = %192, %139
  %141 = load i32* %i, align 4, !dbg !15242       ; [#uses=1 type=i32] [debug line = 98:13]
  %142 = icmp slt i32 %141, 6, !dbg !15242        ; [#uses=1 type=i1] [debug line = 98:13]
  br i1 %142, label %143, label %195, !dbg !15242 ; [debug line = 98:13]

; <label>:143                                     ; preds = %140
  call void (...)* @_ssdm_RegionBegin(i8* getelementptr inbounds ([12 x i8]* @.str4, i32 0, i32 0)) nounwind, !dbg !15243 ; [debug line = 98:28]
  call void (...)* @_ssdm_Unroll(i32 0, i32 0, i32 0, i8* getelementptr inbounds ([1 x i8]* @.str2, i32 0, i32 0)) nounwind, !dbg !15245 ; [debug line = 99:1]
  %144 = bitcast %struct.ap_fixed* %t_c to %struct.ap_fixed_base*, !dbg !15246 ; [#uses=1 type=%struct.ap_fixed_base*] [debug line = 100:17]
  %145 = bitcast %struct.ap_fixed* %r_c to %struct.ap_fixed_base*, !dbg !15247 ; [#uses=1 type=%struct.ap_fixed_base*] [debug line = 100:22]
  %146 = load i32* %i, align 4, !dbg !15247       ; [#uses=1 type=i32] [debug line = 100:22]
  %147 = sext i32 %146 to i64, !dbg !15247        ; [#uses=1 type=i64] [debug line = 100:22]
  %148 = getelementptr inbounds [6 x [3 x %struct.ap_fixed]]* @_ZL5MIX_C4, i32 0, i64 %147, !dbg !15247 ; [#uses=1 type=[3 x %struct.ap_fixed]*] [debug line = 100:22]
  %149 = getelementptr inbounds [3 x %struct.ap_fixed]* %148, i32 0, i64 0, !dbg !15247 ; [#uses=1 type=%struct.ap_fixed*] [debug line = 100:22]
  %150 = bitcast %struct.ap_fixed* %149 to %struct.ap_fixed_base*, !dbg !15247 ; [#uses=1 type=%struct.ap_fixed_base*] [debug line = 100:22]
  call void @_ZNK13ap_fixed_baseILi19ELi4ELb1EL9ap_q_mode5EL9ap_o_mode3ELi0EEmlILi19ELi4ELb1ELS0_5ELS1_3ELi0EEENS2_5RTypeIXT_EXT0_EXT1_EE4multERKS_IXT_EXT0_EXT1_EXT2_EXT3_EXT4_EE(%struct.ap_fixed_base.7* sret %18, %struct.ap_fixed_base* %145, %struct.ap_fixed_base* %150), !dbg !15247 ; [debug line = 100:22]
  %151 = bitcast %struct.ap_fixed* %p_c to %struct.ap_fixed_base*, !dbg !15248 ; [#uses=1 type=%struct.ap_fixed_base*] [debug line = 100:38]
  %152 = load i32* %i, align 4, !dbg !15248       ; [#uses=1 type=i32] [debug line = 100:38]
  %153 = sext i32 %152 to i64, !dbg !15248        ; [#uses=1 type=i64] [debug line = 100:38]
  %154 = getelementptr inbounds [6 x [3 x %struct.ap_fixed]]* @_ZL5MIX_C4, i32 0, i64 %153, !dbg !15248 ; [#uses=1 type=[3 x %struct.ap_fixed]*] [debug line = 100:38]
  %155 = getelementptr inbounds [3 x %struct.ap_fixed]* %154, i32 0, i64 1, !dbg !15248 ; [#uses=1 type=%struct.ap_fixed*] [debug line = 100:38]
  %156 = bitcast %struct.ap_fixed* %155 to %struct.ap_fixed_base*, !dbg !15248 ; [#uses=1 type=%struct.ap_fixed_base*] [debug line = 100:38]
  call void @_ZNK13ap_fixed_baseILi19ELi4ELb1EL9ap_q_mode5EL9ap_o_mode3ELi0EEmlILi19ELi4ELb1ELS0_5ELS1_3ELi0EEENS2_5RTypeIXT_EXT0_EXT1_EE4multERKS_IXT_EXT0_EXT1_EXT2_EXT3_EXT4_EE(%struct.ap_fixed_base.7* sret %19, %struct.ap_fixed_base* %151, %struct.ap_fixed_base* %156), !dbg !15248 ; [debug line = 100:38]
  call void @_ZNK13ap_fixed_baseILi38ELi8ELb1EL9ap_q_mode5EL9ap_o_mode3ELi0EEplILi38ELi8ELb1ELS0_5ELS1_3ELi0EEENS2_5RTypeIXT_EXT0_EXT1_EE4plusERKS_IXT_EXT0_EXT1_EXT2_EXT3_EXT4_EE(%struct.ap_fixed_base.9.26* sret %20, %struct.ap_fixed_base.7* %18, %struct.ap_fixed_base.7* %19), !dbg !15248 ; [debug line = 100:38]
  %157 = bitcast %struct.ap_fixed* %y_c to %struct.ap_fixed_base*, !dbg !15249 ; [#uses=1 type=%struct.ap_fixed_base*] [debug line = 100:54]
  %158 = load i32* %i, align 4, !dbg !15249       ; [#uses=1 type=i32] [debug line = 100:54]
  %159 = sext i32 %158 to i64, !dbg !15249        ; [#uses=1 type=i64] [debug line = 100:54]
  %160 = getelementptr inbounds [6 x [3 x %struct.ap_fixed]]* @_ZL5MIX_C4, i32 0, i64 %159, !dbg !15249 ; [#uses=1 type=[3 x %struct.ap_fixed]*] [debug line = 100:54]
  %161 = getelementptr inbounds [3 x %struct.ap_fixed]* %160, i32 0, i64 2, !dbg !15249 ; [#uses=1 type=%struct.ap_fixed*] [debug line = 100:54]
  %162 = bitcast %struct.ap_fixed* %161 to %struct.ap_fixed_base*, !dbg !15249 ; [#uses=1 type=%struct.ap_fixed_base*] [debug line = 100:54]
  call void @_ZNK13ap_fixed_baseILi19ELi4ELb1EL9ap_q_mode5EL9ap_o_mode3ELi0EEmlILi19ELi4ELb1ELS0_5ELS1_3ELi0EEENS2_5RTypeIXT_EXT0_EXT1_EE4multERKS_IXT_EXT0_EXT1_EXT2_EXT3_EXT4_EE(%struct.ap_fixed_base.7* sret %21, %struct.ap_fixed_base* %157, %struct.ap_fixed_base* %162), !dbg !15249 ; [debug line = 100:54]
  call void @_ZNK13ap_fixed_baseILi39ELi9ELb1EL9ap_q_mode5EL9ap_o_mode3ELi0EEplILi38ELi8ELb1ELS0_5ELS1_3ELi0EEENS2_5RTypeIXT_EXT0_EXT1_EE4plusERKS_IXT_EXT0_EXT1_EXT2_EXT3_EXT4_EE(%struct.ap_fixed_base.11* sret %22, %struct.ap_fixed_base.9.26* %20, %struct.ap_fixed_base.7* %21), !dbg !15249 ; [debug line = 100:54]
  call void @_ZN8ap_fixedILi19ELi4EL9ap_q_mode5EL9ap_o_mode3ELi0EEC1Ed(%struct.ap_fixed* %23, double 3.000000e+00), !dbg !15249 ; [debug line = 100:54]
  %163 = bitcast %struct.ap_fixed* %23 to %struct.ap_fixed_base*, !dbg !15249 ; [#uses=1 type=%struct.ap_fixed_base*] [debug line = 100:54]
  call void @_ZNK13ap_fixed_baseILi40ELi10ELb1EL9ap_q_mode5EL9ap_o_mode3ELi0EEdvILi19ELi4ELb1ELS0_5ELS1_3ELi0EEENS2_5RTypeIXT_EXT0_EXT1_EE3divERKS_IXT_EXT0_EXT1_EXT2_EXT3_EXT4_EE(%struct.ap_fixed_base.5* sret %17, %struct.ap_fixed_base.11* %22, %struct.ap_fixed_base* %163), !dbg !15249 ; [debug line = 100:54]
  call void @_ZNK13ap_fixed_baseILi19ELi4ELb1EL9ap_q_mode5EL9ap_o_mode3ELi0EEplILi56ELi26ELb1ELS0_5ELS1_3ELi0EEENS2_5RTypeIXT_EXT0_EXT1_EE4plusERKS_IXT_EXT0_EXT1_EXT2_EXT3_EXT4_EE(%struct.ap_fixed_base.3* sret %16, %struct.ap_fixed_base* %144, %struct.ap_fixed_base.5* %17), !dbg !15249 ; [debug line = 100:54]
  call void @_ZN8ap_fixedILi19ELi4EL9ap_q_mode5EL9ap_o_mode3ELi0EEC1ILi57ELi27ELb1ELS0_5ELS1_3ELi0EEERK13ap_fixed_baseIXT_EXT0_EXT1_EXT2_EXT3_EXT4_EE(%struct.ap_fixed* %15, %struct.ap_fixed_base.3* %16), !dbg !15249 ; [debug line = 100:54]
  %164 = call %struct.ap_fixed* @_ZN8ap_fixedILi19ELi4EL9ap_q_mode5EL9ap_o_mode3ELi0EEaSERKS2_(%struct.ap_fixed* %scaled_power, %struct.ap_fixed* %15), !dbg !15249 ; [#uses=0 type=%struct.ap_fixed*] [debug line = 100:54]
  %165 = load i32* %i, align 4, !dbg !15250       ; [#uses=1 type=i32] [debug line = 101:3]
  %166 = sext i32 %165 to i64, !dbg !15250        ; [#uses=1 type=i64] [debug line = 101:3]
  %167 = add i64 536872984, %166, !dbg !15250     ; [#uses=1 type=i64] [debug line = 101:3]
  %168 = load %struct.ap_fixed.0** %2, align 8, !dbg !15250 ; [#uses=1 type=%struct.ap_fixed.0*] [debug line = 101:3]
  %169 = getelementptr inbounds %struct.ap_fixed.0* %168, i64 %167, !dbg !15250 ; [#uses=1 type=%struct.ap_fixed.0*] [debug line = 101:3]
  %170 = bitcast %struct.ap_fixed* %scaled_power to %struct.ap_fixed_base*, !dbg !15251 ; [#uses=1 type=%struct.ap_fixed_base*] [debug line = 101:57]
  call void @_ZN8ap_fixedILi19ELi4EL9ap_q_mode5EL9ap_o_mode3ELi0EEC1Ei(%struct.ap_fixed* %26, i32 0), !dbg !15251 ; [debug line = 101:57]
  %171 = bitcast %struct.ap_fixed* %26 to %struct.ap_fixed_base*, !dbg !15251 ; [#uses=1 type=%struct.ap_fixed_base*] [debug line = 101:57]
  %172 = call zeroext i1 @_ZNK13ap_fixed_baseILi19ELi4ELb1EL9ap_q_mode5EL9ap_o_mode3ELi0EEltILi19ELi4ELb1ELS0_5ELS1_3ELi0EEEbRKS_IXT_EXT0_EXT1_EXT2_EXT3_EXT4_EE(%struct.ap_fixed_base* %170, %struct.ap_fixed_base* %171), !dbg !15251 ; [#uses=1 type=i1] [debug line = 101:57]
  br i1 %172, label %173, label %174, !dbg !15251 ; [debug line = 101:57]

; <label>:173                                     ; preds = %143
  call void @_ZN8ap_fixedILi19ELi4EL9ap_q_mode5EL9ap_o_mode3ELi0EEC1Ei(%struct.ap_fixed* %25, i32 0), !dbg !15251 ; [debug line = 101:57]
  br label %190, !dbg !15251                      ; [debug line = 101:57]

; <label>:174                                     ; preds = %143
  %175 = bitcast %struct.ap_fixed* %scaled_power to %struct.ap_fixed_base*, !dbg !15252 ; [#uses=1 type=%struct.ap_fixed_base*] [debug line = 101:91]
  call void @_ZN8ap_fixedILi19ELi4EL9ap_q_mode5EL9ap_o_mode3ELi0EEC1Ed(%struct.ap_fixed* %27, double 9.900000e-01), !dbg !15252 ; [debug line = 101:91]
  %176 = bitcast %struct.ap_fixed* %27 to %struct.ap_fixed_base*, !dbg !15252 ; [#uses=1 type=%struct.ap_fixed_base*] [debug line = 101:91]
  %177 = call zeroext i1 @_ZNK13ap_fixed_baseILi19ELi4ELb1EL9ap_q_mode5EL9ap_o_mode3ELi0EEgtILi19ELi4ELb1ELS0_5ELS1_3ELi0EEEbRKS_IXT_EXT0_EXT1_EXT2_EXT3_EXT4_EE(%struct.ap_fixed_base* %175, %struct.ap_fixed_base* %176), !dbg !15252 ; [#uses=1 type=i1] [debug line = 101:91]
  br i1 %177, label %178, label %179, !dbg !15252 ; [debug line = 101:91]

; <label>:178                                     ; preds = %174
  call void @_ZN8ap_fixedILi19ELi4EL9ap_q_mode5EL9ap_o_mode3ELi0EEC1Ed(%struct.ap_fixed* %25, double 9.900000e-01), !dbg !15252 ; [debug line = 101:91]
  br label %189, !dbg !15252                      ; [debug line = 101:91]

; <label>:179                                     ; preds = %174
  %180 = bitcast %struct.ap_fixed* %25 to i8*, !dbg !15252 ; [#uses=0 type=i8*] [debug line = 101:91]
  %181 = bitcast %struct.ap_fixed* %scaled_power to i8*, !dbg !15252 ; [#uses=0 type=i8*] [debug line = 101:91]
  %182 = getelementptr inbounds %struct.ap_fixed* %25, i32 0, i32 0, !dbg !15252 ; [#uses=1 type=%struct.ap_fixed_base*] [debug line = 101:91]
  %183 = getelementptr inbounds %struct.ap_fixed* %scaled_power, i32 0, i32 0, !dbg !15252 ; [#uses=1 type=%struct.ap_fixed_base*] [debug line = 101:91]
  %184 = getelementptr inbounds %struct.ap_fixed_base* %182, i32 0, i32 0, !dbg !15252 ; [#uses=1 type=%struct.ssdm_int*] [debug line = 101:91]
  %185 = getelementptr inbounds %struct.ap_fixed_base* %183, i32 0, i32 0, !dbg !15252 ; [#uses=1 type=%struct.ssdm_int*] [debug line = 101:91]
  %186 = getelementptr inbounds %struct.ssdm_int* %184, i32 0, i32 0, !dbg !15252 ; [#uses=1 type=i19*] [debug line = 101:91]
  %187 = getelementptr inbounds %struct.ssdm_int* %185, i32 0, i32 0, !dbg !15252 ; [#uses=1 type=i19*] [debug line = 101:91]
  %188 = load i19* %187, !dbg !15252              ; [#uses=1 type=i19] [debug line = 101:91]
  store i19 %188, i19* %186, !dbg !15252          ; [debug line = 101:91]
  br label %189, !dbg !15252                      ; [debug line = 101:91]

; <label>:189                                     ; preds = %179, %178
  br label %190, !dbg !15252                      ; [debug line = 101:91]

; <label>:190                                     ; preds = %189, %173
  call void @_ZN8ap_fixedILi16ELi1EL9ap_q_mode5EL9ap_o_mode3ELi0EEC1ILi19ELi4ELS0_5ELS1_3ELi0EEERKS_IXT_EXT0_EXT1_EXT2_EXT3_EE(%struct.ap_fixed.0* %24, %struct.ap_fixed* %25), !dbg !15252 ; [debug line = 101:91]
  %191 = call %struct.ap_fixed.0* @_ZN8ap_fixedILi16ELi1EL9ap_q_mode5EL9ap_o_mode3ELi0EEaSERKS2_(%struct.ap_fixed.0* %169, %struct.ap_fixed.0* %24), !dbg !15252 ; [#uses=0 type=%struct.ap_fixed.0*] [debug line = 101:91]
  call void (...)* @_ssdm_RegionEnd(i8* getelementptr inbounds ([12 x i8]* @.str4, i32 0, i32 0)) nounwind, !dbg !15253 ; [debug line = 102:2]
  br label %192, !dbg !15253                      ; [debug line = 102:2]

; <label>:192                                     ; preds = %190
  %193 = load i32* %i, align 4, !dbg !15254       ; [#uses=1 type=i32] [debug line = 98:22]
  %194 = add nsw i32 %193, 1, !dbg !15254         ; [#uses=1 type=i32] [debug line = 98:22]
  store i32 %194, i32* %i, align 4, !dbg !15254   ; [debug line = 98:22]
  br label %140, !dbg !15254                      ; [debug line = 98:22]

; <label>:195                                     ; preds = %140
  ret void, !dbg !15255                           ; [debug line = 103:1]
}

; [#uses=2]
declare void @_ssdm_SpecArrayDimSize(...) nounwind

; [#uses=3]
declare void @_ssdm_op_SpecInterface(...) nounwind

; [#uses=1]
declare void @_ssdm_op_SpecPipeline(...) nounwind

; [#uses=4]
define internal void @_ZN8ap_fixedILi19ELi4EL9ap_q_mode5EL9ap_o_mode3ELi0EEC1ILi16ELi1ELS0_5ELS1_3ELi0EEERKS_IXT_EXT0_EXT1_EXT2_EXT3_EE(%struct.ap_fixed* %this, %struct.ap_fixed.0* %op) unnamed_addr nounwind uwtable inlinehint alwaysinline align 2 {
  %1 = alloca %struct.ap_fixed*, align 8          ; [#uses=2 type=%struct.ap_fixed**]
  %2 = alloca %struct.ap_fixed.0*, align 8        ; [#uses=2 type=%struct.ap_fixed.0**]
  store %struct.ap_fixed* %this, %struct.ap_fixed** %1, align 8
  call void @llvm.dbg.declare(metadata !{%struct.ap_fixed** %1}, metadata !15256), !dbg !15258 ; [debug line = 299:41] [debug variable = this]
  store %struct.ap_fixed.0* %op, %struct.ap_fixed.0** %2, align 8
  call void @llvm.dbg.declare(metadata !{%struct.ap_fixed.0** %2}, metadata !15259), !dbg !15260 ; [debug line = 300:22] [debug variable = op]
  %3 = load %struct.ap_fixed** %1                 ; [#uses=1 type=%struct.ap_fixed*]
  %4 = load %struct.ap_fixed.0** %2, !dbg !15261  ; [#uses=1 type=%struct.ap_fixed.0*] [debug line = 301:47]
  call void @_ZN8ap_fixedILi19ELi4EL9ap_q_mode5EL9ap_o_mode3ELi0EEC2ILi16ELi1ELS0_5ELS1_3ELi0EEERKS_IXT_EXT0_EXT1_EXT2_EXT3_EE(%struct.ap_fixed* %3, %struct.ap_fixed.0* %4), !dbg !15261 ; [debug line = 301:47]
  ret void, !dbg !15261                           ; [debug line = 301:47]
}

; [#uses=4]
define internal zeroext i1 @_ZNK13ap_fixed_baseILi16ELi1ELb1EL9ap_q_mode5EL9ap_o_mode3ELi0EEltILi16ELi1ELb1ELS0_5ELS1_3ELi0EEEbRKS_IXT_EXT0_EXT1_EXT2_EXT3_EXT4_EE(%struct.ap_fixed_base.1* %this, %struct.ap_fixed_base.1* %op2) nounwind uwtable inlinehint alwaysinline align 2 {
  %1 = alloca %struct.ap_fixed_base.1*, align 8   ; [#uses=2 type=%struct.ap_fixed_base.1**]
  %2 = alloca %struct.ap_fixed_base.1*, align 8   ; [#uses=2 type=%struct.ap_fixed_base.1**]
  %_AP_F = alloca i32, align 4                    ; [#uses=1 type=i32*]
  %F2 = alloca i32, align 4                       ; [#uses=1 type=i32*]
  store %struct.ap_fixed_base.1* %this, %struct.ap_fixed_base.1** %1, align 8
  call void @llvm.dbg.declare(metadata !{%struct.ap_fixed_base.1** %1}, metadata !15262), !dbg !15264 ; [debug line = 1957:142] [debug variable = this]
  store %struct.ap_fixed_base.1* %op2, %struct.ap_fixed_base.1** %2, align 8
  call void @llvm.dbg.declare(metadata !{%struct.ap_fixed_base.1** %2}, metadata !15265), !dbg !15266 ; [debug line = 1957:219] [debug variable = op2]
  %3 = load %struct.ap_fixed_base.1** %1          ; [#uses=1 type=%struct.ap_fixed_base.1*]
  call void @llvm.dbg.declare(metadata !{i32* %_AP_F}, metadata !15267), !dbg !15269 ; [debug line = 1957:242] [debug variable = _AP_F]
  store i32 15, i32* %_AP_F, align 4, !dbg !15270 ; [debug line = 1957:0]
  call void @llvm.dbg.declare(metadata !{i32* %F2}, metadata !15271), !dbg !15270 ; [debug line = 1957:0] [debug variable = F2]
  store i32 15, i32* %F2, align 4, !dbg !15270    ; [debug line = 1957:0]
  %4 = bitcast %struct.ap_fixed_base.1* %3 to %struct.ssdm_int.2*, !dbg !15270 ; [#uses=1 type=%struct.ssdm_int.2*] [debug line = 1957:0]
  %5 = getelementptr inbounds %struct.ssdm_int.2* %4, i32 0, i32 0, !dbg !15270 ; [#uses=1 type=i16*] [debug line = 1957:0]
  %6 = load i16* %5, align 2, !dbg !15270         ; [#uses=1 type=i16] [debug line = 1957:0]
  %7 = sext i16 %6 to i32, !dbg !15270            ; [#uses=1 type=i32] [debug line = 1957:0]
  %8 = load %struct.ap_fixed_base.1** %2, align 8, !dbg !15270 ; [#uses=1 type=%struct.ap_fixed_base.1*] [debug line = 1957:0]
  %9 = bitcast %struct.ap_fixed_base.1* %8 to %struct.ssdm_int.2*, !dbg !15270 ; [#uses=1 type=%struct.ssdm_int.2*] [debug line = 1957:0]
  %10 = getelementptr inbounds %struct.ssdm_int.2* %9, i32 0, i32 0, !dbg !15270 ; [#uses=1 type=i16*] [debug line = 1957:0]
  %11 = load i16* %10, align 2, !dbg !15270       ; [#uses=1 type=i16] [debug line = 1957:0]
  %12 = sext i16 %11 to i32, !dbg !15270          ; [#uses=1 type=i32] [debug line = 1957:0]
  %13 = icmp slt i32 %7, %12, !dbg !15270         ; [#uses=1 type=i1] [debug line = 1957:0]
  ret i1 %13, !dbg !15270                         ; [debug line = 1957:0]
}

; [#uses=14]
define internal void @_ZN8ap_fixedILi16ELi1EL9ap_q_mode5EL9ap_o_mode3ELi0EEC1Ed(%struct.ap_fixed.0* %this, double %v) unnamed_addr nounwind uwtable inlinehint alwaysinline align 2 {
  %1 = alloca %struct.ap_fixed.0*, align 8        ; [#uses=2 type=%struct.ap_fixed.0**]
  %2 = alloca double, align 8                     ; [#uses=2 type=double*]
  store %struct.ap_fixed.0* %this, %struct.ap_fixed.0** %1, align 8
  call void @llvm.dbg.declare(metadata !{%struct.ap_fixed.0** %1}, metadata !15272), !dbg !15274 ; [debug line = 380:41] [debug variable = this]
  store double %v, double* %2, align 8
  call void @llvm.dbg.declare(metadata !{double* %2}, metadata !15275), !dbg !15276 ; [debug line = 380:57] [debug variable = v]
  %3 = load %struct.ap_fixed.0** %1               ; [#uses=1 type=%struct.ap_fixed.0*]
  %4 = load double* %2, align 8, !dbg !15277      ; [#uses=1 type=double] [debug line = 380:69]
  call void @_ZN8ap_fixedILi16ELi1EL9ap_q_mode5EL9ap_o_mode3ELi0EEC2Ed(%struct.ap_fixed.0* %3, double %4), !dbg !15277 ; [debug line = 380:69]
  ret void, !dbg !15277                           ; [debug line = 380:69]
}

; [#uses=4]
define internal zeroext i1 @_ZNK13ap_fixed_baseILi16ELi1ELb1EL9ap_q_mode5EL9ap_o_mode3ELi0EEgtILi16ELi1ELb1ELS0_5ELS1_3ELi0EEEbRKS_IXT_EXT0_EXT1_EXT2_EXT3_EXT4_EE(%struct.ap_fixed_base.1* %this, %struct.ap_fixed_base.1* %op2) nounwind uwtable inlinehint alwaysinline align 2 {
  %1 = alloca %struct.ap_fixed_base.1*, align 8   ; [#uses=2 type=%struct.ap_fixed_base.1**]
  %2 = alloca %struct.ap_fixed_base.1*, align 8   ; [#uses=2 type=%struct.ap_fixed_base.1**]
  %_AP_F = alloca i32, align 4                    ; [#uses=1 type=i32*]
  %F2 = alloca i32, align 4                       ; [#uses=1 type=i32*]
  store %struct.ap_fixed_base.1* %this, %struct.ap_fixed_base.1** %1, align 8
  call void @llvm.dbg.declare(metadata !{%struct.ap_fixed_base.1** %1}, metadata !15278), !dbg !15279 ; [debug line = 1955:142] [debug variable = this]
  store %struct.ap_fixed_base.1* %op2, %struct.ap_fixed_base.1** %2, align 8
  call void @llvm.dbg.declare(metadata !{%struct.ap_fixed_base.1** %2}, metadata !15280), !dbg !15281 ; [debug line = 1955:219] [debug variable = op2]
  %3 = load %struct.ap_fixed_base.1** %1          ; [#uses=1 type=%struct.ap_fixed_base.1*]
  call void @llvm.dbg.declare(metadata !{i32* %_AP_F}, metadata !15282), !dbg !15284 ; [debug line = 1955:242] [debug variable = _AP_F]
  store i32 15, i32* %_AP_F, align 4, !dbg !15285 ; [debug line = 1955:0]
  call void @llvm.dbg.declare(metadata !{i32* %F2}, metadata !15286), !dbg !15285 ; [debug line = 1955:0] [debug variable = F2]
  store i32 15, i32* %F2, align 4, !dbg !15285    ; [debug line = 1955:0]
  %4 = bitcast %struct.ap_fixed_base.1* %3 to %struct.ssdm_int.2*, !dbg !15285 ; [#uses=1 type=%struct.ssdm_int.2*] [debug line = 1955:0]
  %5 = getelementptr inbounds %struct.ssdm_int.2* %4, i32 0, i32 0, !dbg !15285 ; [#uses=1 type=i16*] [debug line = 1955:0]
  %6 = load i16* %5, align 2, !dbg !15285         ; [#uses=1 type=i16] [debug line = 1955:0]
  %7 = sext i16 %6 to i32, !dbg !15285            ; [#uses=1 type=i32] [debug line = 1955:0]
  %8 = load %struct.ap_fixed_base.1** %2, align 8, !dbg !15285 ; [#uses=1 type=%struct.ap_fixed_base.1*] [debug line = 1955:0]
  %9 = bitcast %struct.ap_fixed_base.1* %8 to %struct.ssdm_int.2*, !dbg !15285 ; [#uses=1 type=%struct.ssdm_int.2*] [debug line = 1955:0]
  %10 = getelementptr inbounds %struct.ssdm_int.2* %9, i32 0, i32 0, !dbg !15285 ; [#uses=1 type=i16*] [debug line = 1955:0]
  %11 = load i16* %10, align 2, !dbg !15285       ; [#uses=1 type=i16] [debug line = 1955:0]
  %12 = sext i16 %11 to i32, !dbg !15285          ; [#uses=1 type=i32] [debug line = 1955:0]
  %13 = icmp sgt i32 %7, %12, !dbg !15285         ; [#uses=1 type=i1] [debug line = 1955:0]
  ret i1 %13, !dbg !15285                         ; [debug line = 1955:0]
}

; [#uses=2]
define internal void @_ZN8ap_fixedILi16ELi1EL9ap_q_mode5EL9ap_o_mode3ELi0EEC1Ei(%struct.ap_fixed.0* %this, i32 %v) unnamed_addr nounwind uwtable inlinehint alwaysinline align 2 {
  %1 = alloca %struct.ap_fixed.0*, align 8        ; [#uses=2 type=%struct.ap_fixed.0**]
  %2 = alloca i32, align 4                        ; [#uses=2 type=i32*]
  store %struct.ap_fixed.0* %this, %struct.ap_fixed.0** %1, align 8
  call void @llvm.dbg.declare(metadata !{%struct.ap_fixed.0** %1}, metadata !15287), !dbg !15288 ; [debug line = 372:41] [debug variable = this]
  store i32 %v, i32* %2, align 4
  call void @llvm.dbg.declare(metadata !{i32* %2}, metadata !15289), !dbg !15290 ; [debug line = 372:54] [debug variable = v]
  %3 = load %struct.ap_fixed.0** %1               ; [#uses=1 type=%struct.ap_fixed.0*]
  %4 = load i32* %2, align 4, !dbg !15291         ; [#uses=1 type=i32] [debug line = 372:66]
  call void @_ZN8ap_fixedILi16ELi1EL9ap_q_mode5EL9ap_o_mode3ELi0EEC2Ei(%struct.ap_fixed.0* %3, i32 %4), !dbg !15291 ; [debug line = 372:66]
  ret void, !dbg !15291                           ; [debug line = 372:66]
}

; [#uses=1]
define internal void @_ZN8ap_fixedILi19ELi4EL9ap_q_mode5EL9ap_o_mode3ELi0EEC1Ev(%struct.ap_fixed* %this) unnamed_addr nounwind uwtable inlinehint alwaysinline align 2 {
  %1 = alloca %struct.ap_fixed*, align 8          ; [#uses=2 type=%struct.ap_fixed**]
  store %struct.ap_fixed* %this, %struct.ap_fixed** %1, align 8
  call void @llvm.dbg.declare(metadata !{%struct.ap_fixed** %1}, metadata !15292), !dbg !15293 ; [debug line = 295:41] [debug variable = this]
  %2 = load %struct.ap_fixed** %1                 ; [#uses=1 type=%struct.ap_fixed*]
  call void @_ZN8ap_fixedILi19ELi4EL9ap_q_mode5EL9ap_o_mode3ELi0EEC2Ev(%struct.ap_fixed* %2), !dbg !15294 ; [debug line = 295:60]
  ret void, !dbg !15294                           ; [debug line = 295:60]
}

; [#uses=1]
declare void @_ssdm_RegionBegin(...) nounwind

; [#uses=1]
declare void @_ssdm_Unroll(...) nounwind

; [#uses=1]
define internal %struct.ap_fixed* @_ZN8ap_fixedILi19ELi4EL9ap_q_mode5EL9ap_o_mode3ELi0EEaSERKS2_(%struct.ap_fixed* %this, %struct.ap_fixed* %op) nounwind uwtable inlinehint alwaysinline align 2 {
  %1 = alloca %struct.ap_fixed*, align 8          ; [#uses=2 type=%struct.ap_fixed**]
  %2 = alloca %struct.ap_fixed*, align 8          ; [#uses=2 type=%struct.ap_fixed**]
  store %struct.ap_fixed* %this, %struct.ap_fixed** %1, align 8
  call void @llvm.dbg.declare(metadata !{%struct.ap_fixed** %1}, metadata !15295), !dbg !15296 ; [debug line = 386:51] [debug variable = this]
  store %struct.ap_fixed* %op, %struct.ap_fixed** %2, align 8
  call void @llvm.dbg.declare(metadata !{%struct.ap_fixed** %2}, metadata !15297), !dbg !15298 ; [debug line = 387:19] [debug variable = op]
  %3 = load %struct.ap_fixed** %1                 ; [#uses=2 type=%struct.ap_fixed*]
  %4 = load %struct.ap_fixed** %2, align 8, !dbg !15299 ; [#uses=1 type=%struct.ap_fixed*] [debug line = 388:5]
  %5 = bitcast %struct.ap_fixed* %4 to %struct.ssdm_int*, !dbg !15299 ; [#uses=1 type=%struct.ssdm_int*] [debug line = 388:5]
  %6 = getelementptr inbounds %struct.ssdm_int* %5, i32 0, i32 0, !dbg !15299 ; [#uses=1 type=i19*] [debug line = 388:5]
  %7 = load i19* %6, align 4, !dbg !15299         ; [#uses=1 type=i19] [debug line = 388:5]
  %8 = bitcast %struct.ap_fixed* %3 to %struct.ap_fixed_base*, !dbg !15299 ; [#uses=1 type=%struct.ap_fixed_base*] [debug line = 388:5]
  %9 = bitcast %struct.ap_fixed_base* %8 to %struct.ssdm_int*, !dbg !15299 ; [#uses=1 type=%struct.ssdm_int*] [debug line = 388:5]
  %10 = getelementptr inbounds %struct.ssdm_int* %9, i32 0, i32 0, !dbg !15299 ; [#uses=1 type=i19*] [debug line = 388:5]
  store i19 %7, i19* %10, align 4, !dbg !15299    ; [debug line = 388:5]
  ret %struct.ap_fixed* %3, !dbg !15301           ; [debug line = 389:5]
}

; [#uses=1]
define internal void @_ZN8ap_fixedILi19ELi4EL9ap_q_mode5EL9ap_o_mode3ELi0EEC1ILi57ELi27ELb1ELS0_5ELS1_3ELi0EEERK13ap_fixed_baseIXT_EXT0_EXT1_EXT2_EXT3_EXT4_EE(%struct.ap_fixed* %this, %struct.ap_fixed_base.3* %op) unnamed_addr nounwind uwtable inlinehint alwaysinline align 2 {
  %1 = alloca %struct.ap_fixed*, align 8          ; [#uses=2 type=%struct.ap_fixed**]
  %2 = alloca %struct.ap_fixed_base.3*, align 8   ; [#uses=2 type=%struct.ap_fixed_base.3**]
  store %struct.ap_fixed* %this, %struct.ap_fixed** %1, align 8
  call void @llvm.dbg.declare(metadata !{%struct.ap_fixed** %1}, metadata !15302), !dbg !15303 ; [debug line = 337:41] [debug variable = this]
  store %struct.ap_fixed_base.3* %op, %struct.ap_fixed_base.3** %2, align 8
  call void @llvm.dbg.declare(metadata !{%struct.ap_fixed_base.3** %2}, metadata !15304), !dbg !15305 ; [debug line = 338:30] [debug variable = op]
  %3 = load %struct.ap_fixed** %1                 ; [#uses=1 type=%struct.ap_fixed*]
  %4 = load %struct.ap_fixed_base.3** %2, !dbg !15306 ; [#uses=1 type=%struct.ap_fixed_base.3*] [debug line = 338:44]
  call void @_ZN8ap_fixedILi19ELi4EL9ap_q_mode5EL9ap_o_mode3ELi0EEC2ILi57ELi27ELb1ELS0_5ELS1_3ELi0EEERK13ap_fixed_baseIXT_EXT0_EXT1_EXT2_EXT3_EXT4_EE(%struct.ap_fixed* %3, %struct.ap_fixed_base.3* %4), !dbg !15306 ; [debug line = 338:44]
  ret void, !dbg !15306                           ; [debug line = 338:44]
}

; [#uses=1]
define internal void @_ZNK13ap_fixed_baseILi19ELi4ELb1EL9ap_q_mode5EL9ap_o_mode3ELi0EEplILi56ELi26ELb1ELS0_5ELS1_3ELi0EEENS2_5RTypeIXT_EXT0_EXT1_EE4plusERKS_IXT_EXT0_EXT1_EXT2_EXT3_EXT4_EE(%struct.ap_fixed_base.3* noalias sret %agg.result, %struct.ap_fixed_base* %this, %struct.ap_fixed_base.5* %op2) nounwind uwtable inlinehint alwaysinline align 2 {
  %1 = alloca %struct.ap_fixed_base*, align 8     ; [#uses=2 type=%struct.ap_fixed_base**]
  %2 = alloca %struct.ap_fixed_base.5*, align 8   ; [#uses=2 type=%struct.ap_fixed_base.5**]
  %lhs = alloca %struct.ap_fixed_base.3, align 8  ; [#uses=2 type=%struct.ap_fixed_base.3*]
  %rhs = alloca %struct.ap_fixed_base.3, align 8  ; [#uses=2 type=%struct.ap_fixed_base.3*]
  store %struct.ap_fixed_base* %this, %struct.ap_fixed_base** %1, align 8
  call void @llvm.dbg.declare(metadata !{%struct.ap_fixed_base** %1}, metadata !15307), !dbg !15309 ; [debug line = 1400:177] [debug variable = this]
  store %struct.ap_fixed_base.5* %op2, %struct.ap_fixed_base.5** %2, align 8
  call void @llvm.dbg.declare(metadata !{%struct.ap_fixed_base.5** %2}, metadata !15310), !dbg !15311 ; [debug line = 1400:254] [debug variable = op2]
  %3 = load %struct.ap_fixed_base** %1            ; [#uses=1 type=%struct.ap_fixed_base*]
  call void @llvm.dbg.declare(metadata !{%struct.ap_fixed_base.3* %agg.result}, metadata !15312), !dbg !15315 ; [debug line = 1400:0] [debug variable = r]
  call void @_ZN13ap_fixed_baseILi57ELi27ELb1EL9ap_q_mode5EL9ap_o_mode3ELi0EEC1Ev(%struct.ap_fixed_base.3* %agg.result), !dbg !15315 ; [debug line = 1400:0]
  call void @llvm.dbg.declare(metadata !{%struct.ap_fixed_base.3* %lhs}, metadata !15316), !dbg !15315 ; [debug line = 1400:0] [debug variable = lhs]
  call void @_ZN13ap_fixed_baseILi57ELi27ELb1EL9ap_q_mode5EL9ap_o_mode3ELi0EEC1ILi19ELi4ELb1ELS0_5ELS1_3ELi0EEERKS_IXT_EXT0_EXT1_EXT2_EXT3_EXT4_EE(%struct.ap_fixed_base.3* %lhs, %struct.ap_fixed_base* %3), !dbg !15315 ; [debug line = 1400:0]
  call void @llvm.dbg.declare(metadata !{%struct.ap_fixed_base.3* %rhs}, metadata !15317), !dbg !15315 ; [debug line = 1400:0] [debug variable = rhs]
  %4 = load %struct.ap_fixed_base.5** %2, align 8, !dbg !15315 ; [#uses=1 type=%struct.ap_fixed_base.5*] [debug line = 1400:0]
  call void @_ZN13ap_fixed_baseILi57ELi27ELb1EL9ap_q_mode5EL9ap_o_mode3ELi0EEC1ILi56ELi26ELb1ELS0_5ELS1_3ELi0EEERKS_IXT_EXT0_EXT1_EXT2_EXT3_EXT4_EE(%struct.ap_fixed_base.3* %rhs, %struct.ap_fixed_base.5* %4), !dbg !15315 ; [debug line = 1400:0]
  %5 = bitcast %struct.ap_fixed_base.3* %lhs to %struct.ssdm_int.4*, !dbg !15315 ; [#uses=1 type=%struct.ssdm_int.4*] [debug line = 1400:0]
  %6 = getelementptr inbounds %struct.ssdm_int.4* %5, i32 0, i32 0, !dbg !15315 ; [#uses=1 type=i57*] [debug line = 1400:0]
  %7 = load i57* %6, align 8, !dbg !15315         ; [#uses=1 type=i57] [debug line = 1400:0]
  %8 = bitcast %struct.ap_fixed_base.3* %rhs to %struct.ssdm_int.4*, !dbg !15315 ; [#uses=1 type=%struct.ssdm_int.4*] [debug line = 1400:0]
  %9 = getelementptr inbounds %struct.ssdm_int.4* %8, i32 0, i32 0, !dbg !15315 ; [#uses=1 type=i57*] [debug line = 1400:0]
  %10 = load i57* %9, align 8, !dbg !15315        ; [#uses=1 type=i57] [debug line = 1400:0]
  %11 = add nsw i57 %7, %10, !dbg !15315          ; [#uses=1 type=i57] [debug line = 1400:0]
  %12 = bitcast %struct.ap_fixed_base.3* %agg.result to %struct.ssdm_int.4*, !dbg !15315 ; [#uses=1 type=%struct.ssdm_int.4*] [debug line = 1400:0]
  %13 = getelementptr inbounds %struct.ssdm_int.4* %12, i32 0, i32 0, !dbg !15315 ; [#uses=1 type=i57*] [debug line = 1400:0]
  store i57 %11, i57* %13, align 8, !dbg !15315   ; [debug line = 1400:0]
  ret void, !dbg !15315                           ; [debug line = 1400:0]
}

; [#uses=3]
define internal void @_ZNK13ap_fixed_baseILi19ELi4ELb1EL9ap_q_mode5EL9ap_o_mode3ELi0EEmlILi19ELi4ELb1ELS0_5ELS1_3ELi0EEENS2_5RTypeIXT_EXT0_EXT1_EE4multERKS_IXT_EXT0_EXT1_EXT2_EXT3_EXT4_EE(%struct.ap_fixed_base.7* noalias sret %agg.result, %struct.ap_fixed_base* %this, %struct.ap_fixed_base* %op2) nounwind uwtable inlinehint alwaysinline align 2 {
  %1 = alloca %struct.ap_fixed_base*, align 8     ; [#uses=2 type=%struct.ap_fixed_base**]
  %2 = alloca %struct.ap_fixed_base*, align 8     ; [#uses=2 type=%struct.ap_fixed_base**]
  %OP1 = alloca %struct.ap_int_base.28, align 8   ; [#uses=3 type=%struct.ap_int_base.28*]
  %OP2 = alloca %struct.ap_int_base.28, align 8   ; [#uses=3 type=%struct.ap_int_base.28*]
  store %struct.ap_fixed_base* %this, %struct.ap_fixed_base** %1, align 8
  call void @llvm.dbg.declare(metadata !{%struct.ap_fixed_base** %1}, metadata !15318), !dbg !15319 ; [debug line = 1361:5] [debug variable = this]
  store %struct.ap_fixed_base* %op2, %struct.ap_fixed_base** %2, align 8
  call void @llvm.dbg.declare(metadata !{%struct.ap_fixed_base** %2}, metadata !15320), !dbg !15321 ; [debug line = 1361:81] [debug variable = op2]
  %3 = load %struct.ap_fixed_base** %1            ; [#uses=1 type=%struct.ap_fixed_base*]
  call void @llvm.dbg.declare(metadata !{%struct.ap_fixed_base.7* %agg.result}, metadata !15322), !dbg !15325 ; [debug line = 1362:52] [debug variable = r]
  call void @_ZN13ap_fixed_baseILi38ELi8ELb1EL9ap_q_mode5EL9ap_o_mode3ELi0EEC1Ev(%struct.ap_fixed_base.7* %agg.result), !dbg !15326 ; [debug line = 1362:53]
  call void @llvm.dbg.declare(metadata !{%struct.ap_int_base.28* %OP1}, metadata !15327), !dbg !15328 ; [debug line = 1363:41] [debug variable = OP1]
  call void @_ZN11ap_int_baseILi38ELb1ELb1EEC1Ev(%struct.ap_int_base.28* %OP1), !dbg !15329 ; [debug line = 1363:44]
  %4 = bitcast %struct.ap_fixed_base* %3 to %struct.ssdm_int*, !dbg !15330 ; [#uses=1 type=%struct.ssdm_int*] [debug line = 1364:9]
  %5 = getelementptr inbounds %struct.ssdm_int* %4, i32 0, i32 0, !dbg !15330 ; [#uses=1 type=i19*] [debug line = 1364:9]
  %6 = load i19* %5, align 4, !dbg !15330         ; [#uses=1 type=i19] [debug line = 1364:9]
  %7 = sext i19 %6 to i38, !dbg !15330            ; [#uses=1 type=i38] [debug line = 1364:9]
  %8 = bitcast %struct.ap_int_base.28* %OP1 to %struct.ssdm_int.8*, !dbg !15330 ; [#uses=1 type=%struct.ssdm_int.8*] [debug line = 1364:9]
  %9 = getelementptr inbounds %struct.ssdm_int.8* %8, i32 0, i32 0, !dbg !15330 ; [#uses=1 type=i38*] [debug line = 1364:9]
  store i38 %7, i38* %9, align 8, !dbg !15330     ; [debug line = 1364:9]
  call void @llvm.dbg.declare(metadata !{%struct.ap_int_base.28* %OP2}, metadata !15331), !dbg !15332 ; [debug line = 1365:42] [debug variable = OP2]
  call void @_ZN11ap_int_baseILi38ELb1ELb1EEC1Ev(%struct.ap_int_base.28* %OP2), !dbg !15333 ; [debug line = 1365:45]
  %10 = load %struct.ap_fixed_base** %2, align 8, !dbg !15334 ; [#uses=1 type=%struct.ap_fixed_base*] [debug line = 1366:9]
  %11 = bitcast %struct.ap_fixed_base* %10 to %struct.ssdm_int*, !dbg !15334 ; [#uses=1 type=%struct.ssdm_int*] [debug line = 1366:9]
  %12 = getelementptr inbounds %struct.ssdm_int* %11, i32 0, i32 0, !dbg !15334 ; [#uses=1 type=i19*] [debug line = 1366:9]
  %13 = load i19* %12, align 4, !dbg !15334       ; [#uses=1 type=i19] [debug line = 1366:9]
  %14 = sext i19 %13 to i38, !dbg !15334          ; [#uses=1 type=i38] [debug line = 1366:9]
  %15 = bitcast %struct.ap_int_base.28* %OP2 to %struct.ssdm_int.8*, !dbg !15334 ; [#uses=1 type=%struct.ssdm_int.8*] [debug line = 1366:9]
  %16 = getelementptr inbounds %struct.ssdm_int.8* %15, i32 0, i32 0, !dbg !15334 ; [#uses=1 type=i38*] [debug line = 1366:9]
  store i38 %14, i38* %16, align 8, !dbg !15334   ; [debug line = 1366:9]
  %17 = bitcast %struct.ap_int_base.28* %OP1 to %struct.ssdm_int.8*, !dbg !15335 ; [#uses=1 type=%struct.ssdm_int.8*] [debug line = 1367:9]
  %18 = getelementptr inbounds %struct.ssdm_int.8* %17, i32 0, i32 0, !dbg !15335 ; [#uses=1 type=i38*] [debug line = 1367:9]
  %19 = load i38* %18, align 8, !dbg !15335       ; [#uses=1 type=i38] [debug line = 1367:9]
  %20 = bitcast %struct.ap_int_base.28* %OP2 to %struct.ssdm_int.8*, !dbg !15335 ; [#uses=1 type=%struct.ssdm_int.8*] [debug line = 1367:9]
  %21 = getelementptr inbounds %struct.ssdm_int.8* %20, i32 0, i32 0, !dbg !15335 ; [#uses=1 type=i38*] [debug line = 1367:9]
  %22 = load i38* %21, align 8, !dbg !15335       ; [#uses=1 type=i38] [debug line = 1367:9]
  %23 = mul nsw i38 %19, %22, !dbg !15335         ; [#uses=1 type=i38] [debug line = 1367:9]
  %24 = bitcast %struct.ap_fixed_base.7* %agg.result to %struct.ssdm_int.8*, !dbg !15335 ; [#uses=1 type=%struct.ssdm_int.8*] [debug line = 1367:9]
  %25 = getelementptr inbounds %struct.ssdm_int.8* %24, i32 0, i32 0, !dbg !15335 ; [#uses=1 type=i38*] [debug line = 1367:9]
  store i38 %23, i38* %25, align 8, !dbg !15335   ; [debug line = 1367:9]
  ret void, !dbg !15336                           ; [debug line = 1368:9]
}

; [#uses=1]
define internal void @_ZNK13ap_fixed_baseILi38ELi8ELb1EL9ap_q_mode5EL9ap_o_mode3ELi0EEplILi38ELi8ELb1ELS0_5ELS1_3ELi0EEENS2_5RTypeIXT_EXT0_EXT1_EE4plusERKS_IXT_EXT0_EXT1_EXT2_EXT3_EXT4_EE(%struct.ap_fixed_base.9.26* noalias sret %agg.result, %struct.ap_fixed_base.7* %this, %struct.ap_fixed_base.7* %op2) nounwind uwtable inlinehint alwaysinline align 2 {
  %1 = alloca %struct.ap_fixed_base.7*, align 8   ; [#uses=2 type=%struct.ap_fixed_base.7**]
  %2 = alloca %struct.ap_fixed_base.7*, align 8   ; [#uses=2 type=%struct.ap_fixed_base.7**]
  %lhs = alloca %struct.ap_fixed_base.9.26, align 8 ; [#uses=2 type=%struct.ap_fixed_base.9.26*]
  %rhs = alloca %struct.ap_fixed_base.9.26, align 8 ; [#uses=2 type=%struct.ap_fixed_base.9.26*]
  store %struct.ap_fixed_base.7* %this, %struct.ap_fixed_base.7** %1, align 8
  call void @llvm.dbg.declare(metadata !{%struct.ap_fixed_base.7** %1}, metadata !15337), !dbg !15339 ; [debug line = 1400:177] [debug variable = this]
  store %struct.ap_fixed_base.7* %op2, %struct.ap_fixed_base.7** %2, align 8
  call void @llvm.dbg.declare(metadata !{%struct.ap_fixed_base.7** %2}, metadata !15340), !dbg !15341 ; [debug line = 1400:254] [debug variable = op2]
  %3 = load %struct.ap_fixed_base.7** %1          ; [#uses=1 type=%struct.ap_fixed_base.7*]
  call void @llvm.dbg.declare(metadata !{%struct.ap_fixed_base.9.26* %agg.result}, metadata !15342), !dbg !15345 ; [debug line = 1400:0] [debug variable = r]
  call void @_ZN13ap_fixed_baseILi39ELi9ELb1EL9ap_q_mode5EL9ap_o_mode3ELi0EEC1Ev(%struct.ap_fixed_base.9.26* %agg.result), !dbg !15345 ; [debug line = 1400:0]
  call void @llvm.dbg.declare(metadata !{%struct.ap_fixed_base.9.26* %lhs}, metadata !15346), !dbg !15345 ; [debug line = 1400:0] [debug variable = lhs]
  call void @_ZN13ap_fixed_baseILi39ELi9ELb1EL9ap_q_mode5EL9ap_o_mode3ELi0EEC1ILi38ELi8ELb1ELS0_5ELS1_3ELi0EEERKS_IXT_EXT0_EXT1_EXT2_EXT3_EXT4_EE(%struct.ap_fixed_base.9.26* %lhs, %struct.ap_fixed_base.7* %3), !dbg !15345 ; [debug line = 1400:0]
  call void @llvm.dbg.declare(metadata !{%struct.ap_fixed_base.9.26* %rhs}, metadata !15347), !dbg !15345 ; [debug line = 1400:0] [debug variable = rhs]
  %4 = load %struct.ap_fixed_base.7** %2, align 8, !dbg !15345 ; [#uses=1 type=%struct.ap_fixed_base.7*] [debug line = 1400:0]
  call void @_ZN13ap_fixed_baseILi39ELi9ELb1EL9ap_q_mode5EL9ap_o_mode3ELi0EEC1ILi38ELi8ELb1ELS0_5ELS1_3ELi0EEERKS_IXT_EXT0_EXT1_EXT2_EXT3_EXT4_EE(%struct.ap_fixed_base.9.26* %rhs, %struct.ap_fixed_base.7* %4), !dbg !15345 ; [debug line = 1400:0]
  %5 = bitcast %struct.ap_fixed_base.9.26* %lhs to %struct.ssdm_int.10.25*, !dbg !15345 ; [#uses=1 type=%struct.ssdm_int.10.25*] [debug line = 1400:0]
  %6 = getelementptr inbounds %struct.ssdm_int.10.25* %5, i32 0, i32 0, !dbg !15345 ; [#uses=1 type=i39*] [debug line = 1400:0]
  %7 = load i39* %6, align 8, !dbg !15345         ; [#uses=1 type=i39] [debug line = 1400:0]
  %8 = bitcast %struct.ap_fixed_base.9.26* %rhs to %struct.ssdm_int.10.25*, !dbg !15345 ; [#uses=1 type=%struct.ssdm_int.10.25*] [debug line = 1400:0]
  %9 = getelementptr inbounds %struct.ssdm_int.10.25* %8, i32 0, i32 0, !dbg !15345 ; [#uses=1 type=i39*] [debug line = 1400:0]
  %10 = load i39* %9, align 8, !dbg !15345        ; [#uses=1 type=i39] [debug line = 1400:0]
  %11 = add nsw i39 %7, %10, !dbg !15345          ; [#uses=1 type=i39] [debug line = 1400:0]
  %12 = bitcast %struct.ap_fixed_base.9.26* %agg.result to %struct.ssdm_int.10.25*, !dbg !15345 ; [#uses=1 type=%struct.ssdm_int.10.25*] [debug line = 1400:0]
  %13 = getelementptr inbounds %struct.ssdm_int.10.25* %12, i32 0, i32 0, !dbg !15345 ; [#uses=1 type=i39*] [debug line = 1400:0]
  store i39 %11, i39* %13, align 8, !dbg !15345   ; [debug line = 1400:0]
  ret void, !dbg !15345                           ; [debug line = 1400:0]
}

; [#uses=1]
define internal void @_ZNK13ap_fixed_baseILi39ELi9ELb1EL9ap_q_mode5EL9ap_o_mode3ELi0EEplILi38ELi8ELb1ELS0_5ELS1_3ELi0EEENS2_5RTypeIXT_EXT0_EXT1_EE4plusERKS_IXT_EXT0_EXT1_EXT2_EXT3_EXT4_EE(%struct.ap_fixed_base.11* noalias sret %agg.result, %struct.ap_fixed_base.9.26* %this, %struct.ap_fixed_base.7* %op2) nounwind uwtable inlinehint alwaysinline align 2 {
  %1 = alloca %struct.ap_fixed_base.9.26*, align 8 ; [#uses=2 type=%struct.ap_fixed_base.9.26**]
  %2 = alloca %struct.ap_fixed_base.7*, align 8   ; [#uses=2 type=%struct.ap_fixed_base.7**]
  %lhs = alloca %struct.ap_fixed_base.11, align 8 ; [#uses=2 type=%struct.ap_fixed_base.11*]
  %rhs = alloca %struct.ap_fixed_base.11, align 8 ; [#uses=2 type=%struct.ap_fixed_base.11*]
  store %struct.ap_fixed_base.9.26* %this, %struct.ap_fixed_base.9.26** %1, align 8
  call void @llvm.dbg.declare(metadata !{%struct.ap_fixed_base.9.26** %1}, metadata !15348), !dbg !15350 ; [debug line = 1400:177] [debug variable = this]
  store %struct.ap_fixed_base.7* %op2, %struct.ap_fixed_base.7** %2, align 8
  call void @llvm.dbg.declare(metadata !{%struct.ap_fixed_base.7** %2}, metadata !15351), !dbg !15352 ; [debug line = 1400:254] [debug variable = op2]
  %3 = load %struct.ap_fixed_base.9.26** %1       ; [#uses=1 type=%struct.ap_fixed_base.9.26*]
  call void @llvm.dbg.declare(metadata !{%struct.ap_fixed_base.11* %agg.result}, metadata !15353), !dbg !15356 ; [debug line = 1400:0] [debug variable = r]
  call void @_ZN13ap_fixed_baseILi40ELi10ELb1EL9ap_q_mode5EL9ap_o_mode3ELi0EEC1Ev(%struct.ap_fixed_base.11* %agg.result), !dbg !15356 ; [debug line = 1400:0]
  call void @llvm.dbg.declare(metadata !{%struct.ap_fixed_base.11* %lhs}, metadata !15357), !dbg !15356 ; [debug line = 1400:0] [debug variable = lhs]
  call void @_ZN13ap_fixed_baseILi40ELi10ELb1EL9ap_q_mode5EL9ap_o_mode3ELi0EEC1ILi39ELi9ELb1ELS0_5ELS1_3ELi0EEERKS_IXT_EXT0_EXT1_EXT2_EXT3_EXT4_EE(%struct.ap_fixed_base.11* %lhs, %struct.ap_fixed_base.9.26* %3), !dbg !15356 ; [debug line = 1400:0]
  call void @llvm.dbg.declare(metadata !{%struct.ap_fixed_base.11* %rhs}, metadata !15358), !dbg !15356 ; [debug line = 1400:0] [debug variable = rhs]
  %4 = load %struct.ap_fixed_base.7** %2, align 8, !dbg !15356 ; [#uses=1 type=%struct.ap_fixed_base.7*] [debug line = 1400:0]
  call void @_ZN13ap_fixed_baseILi40ELi10ELb1EL9ap_q_mode5EL9ap_o_mode3ELi0EEC1ILi38ELi8ELb1ELS0_5ELS1_3ELi0EEERKS_IXT_EXT0_EXT1_EXT2_EXT3_EXT4_EE(%struct.ap_fixed_base.11* %rhs, %struct.ap_fixed_base.7* %4), !dbg !15356 ; [debug line = 1400:0]
  %5 = bitcast %struct.ap_fixed_base.11* %lhs to %struct.ssdm_int.12*, !dbg !15356 ; [#uses=1 type=%struct.ssdm_int.12*] [debug line = 1400:0]
  %6 = getelementptr inbounds %struct.ssdm_int.12* %5, i32 0, i32 0, !dbg !15356 ; [#uses=1 type=i40*] [debug line = 1400:0]
  %7 = load i40* %6, align 8, !dbg !15356         ; [#uses=1 type=i40] [debug line = 1400:0]
  %8 = bitcast %struct.ap_fixed_base.11* %rhs to %struct.ssdm_int.12*, !dbg !15356 ; [#uses=1 type=%struct.ssdm_int.12*] [debug line = 1400:0]
  %9 = getelementptr inbounds %struct.ssdm_int.12* %8, i32 0, i32 0, !dbg !15356 ; [#uses=1 type=i40*] [debug line = 1400:0]
  %10 = load i40* %9, align 8, !dbg !15356        ; [#uses=1 type=i40] [debug line = 1400:0]
  %11 = add nsw i40 %7, %10, !dbg !15356          ; [#uses=1 type=i40] [debug line = 1400:0]
  %12 = bitcast %struct.ap_fixed_base.11* %agg.result to %struct.ssdm_int.12*, !dbg !15356 ; [#uses=1 type=%struct.ssdm_int.12*] [debug line = 1400:0]
  %13 = getelementptr inbounds %struct.ssdm_int.12* %12, i32 0, i32 0, !dbg !15356 ; [#uses=1 type=i40*] [debug line = 1400:0]
  store i40 %11, i40* %13, align 8, !dbg !15356   ; [debug line = 1400:0]
  ret void, !dbg !15356                           ; [debug line = 1400:0]
}

; [#uses=1]
define internal void @_ZNK13ap_fixed_baseILi40ELi10ELb1EL9ap_q_mode5EL9ap_o_mode3ELi0EEdvILi19ELi4ELb1ELS0_5ELS1_3ELi0EEENS2_5RTypeIXT_EXT0_EXT1_EE3divERKS_IXT_EXT0_EXT1_EXT2_EXT3_EXT4_EE(%struct.ap_fixed_base.5* noalias sret %agg.result, %struct.ap_fixed_base.11* %this, %struct.ap_fixed_base* %op2) nounwind uwtable inlinehint alwaysinline align 2 {
  %1 = alloca %struct.ap_fixed_base.11*, align 8  ; [#uses=2 type=%struct.ap_fixed_base.11**]
  %2 = alloca %struct.ap_fixed_base*, align 8     ; [#uses=2 type=%struct.ap_fixed_base**]
  %t = alloca %struct.ap_fixed_base.22, align 8   ; [#uses=2 type=%struct.ap_fixed_base.22*]
  store %struct.ap_fixed_base.11* %this, %struct.ap_fixed_base.11** %1, align 8
  call void @llvm.dbg.declare(metadata !{%struct.ap_fixed_base.11** %1}, metadata !15359), !dbg !15361 ; [debug line = 1373:5] [debug variable = this]
  store %struct.ap_fixed_base* %op2, %struct.ap_fixed_base** %2, align 8
  call void @llvm.dbg.declare(metadata !{%struct.ap_fixed_base** %2}, metadata !15362), !dbg !15363 ; [debug line = 1373:81] [debug variable = op2]
  %3 = load %struct.ap_fixed_base.11** %1         ; [#uses=1 type=%struct.ap_fixed_base.11*]
  call void @llvm.dbg.declare(metadata !{%struct.ap_fixed_base.5* %agg.result}, metadata !15364), !dbg !15367 ; [debug line = 1374:51] [debug variable = r]
  call void @_ZN13ap_fixed_baseILi56ELi26ELb1EL9ap_q_mode5EL9ap_o_mode3ELi0EEC1Ev(%struct.ap_fixed_base.5* %agg.result), !dbg !15368 ; [debug line = 1374:52]
  call void @llvm.dbg.declare(metadata !{%struct.ap_fixed_base.22* %t}, metadata !15369), !dbg !15370 ; [debug line = 1377:37] [debug variable = t]
  call void @_ZN13ap_fixed_baseILi55ELi10ELb1EL9ap_q_mode5EL9ap_o_mode3ELi0EEC1ILi40ELi10ELb1ELS0_5ELS1_3ELi0EEERKS_IXT_EXT0_EXT1_EXT2_EXT3_EXT4_EE(%struct.ap_fixed_base.22* %t, %struct.ap_fixed_base.11* %3), !dbg !15371 ; [debug line = 1377:45]
  %4 = bitcast %struct.ap_fixed_base.22* %t to %struct.ssdm_int.21*, !dbg !15372 ; [#uses=1 type=%struct.ssdm_int.21*] [debug line = 1382:9]
  %5 = getelementptr inbounds %struct.ssdm_int.21* %4, i32 0, i32 0, !dbg !15372 ; [#uses=1 type=i55*] [debug line = 1382:9]
  %6 = load i55* %5, align 8, !dbg !15372         ; [#uses=1 type=i55] [debug line = 1382:9]
  %7 = load %struct.ap_fixed_base** %2, align 8, !dbg !15372 ; [#uses=1 type=%struct.ap_fixed_base*] [debug line = 1382:9]
  %8 = bitcast %struct.ap_fixed_base* %7 to %struct.ssdm_int*, !dbg !15372 ; [#uses=1 type=%struct.ssdm_int*] [debug line = 1382:9]
  %9 = getelementptr inbounds %struct.ssdm_int* %8, i32 0, i32 0, !dbg !15372 ; [#uses=1 type=i19*] [debug line = 1382:9]
  %10 = load i19* %9, align 4, !dbg !15372        ; [#uses=1 type=i19] [debug line = 1382:9]
  %11 = sext i19 %10 to i55, !dbg !15372          ; [#uses=1 type=i55] [debug line = 1382:9]
  %12 = sdiv i55 %6, %11, !dbg !15372             ; [#uses=1 type=i55] [debug line = 1382:9]
  %13 = sext i55 %12 to i56, !dbg !15372          ; [#uses=1 type=i56] [debug line = 1382:9]
  %14 = bitcast %struct.ap_fixed_base.5* %agg.result to %struct.ssdm_int.6*, !dbg !15372 ; [#uses=1 type=%struct.ssdm_int.6*] [debug line = 1382:9]
  %15 = getelementptr inbounds %struct.ssdm_int.6* %14, i32 0, i32 0, !dbg !15372 ; [#uses=1 type=i56*] [debug line = 1382:9]
  store i56 %13, i56* %15, align 8, !dbg !15372   ; [debug line = 1382:9]
  ret void, !dbg !15373                           ; [debug line = 1384:9]
}

; [#uses=1]
define internal %struct.ap_fixed.0* @_ZN8ap_fixedILi16ELi1EL9ap_q_mode5EL9ap_o_mode3ELi0EEaSERKS2_(%struct.ap_fixed.0* %this, %struct.ap_fixed.0* %op) nounwind uwtable inlinehint alwaysinline align 2 {
  %1 = alloca %struct.ap_fixed.0*, align 8        ; [#uses=2 type=%struct.ap_fixed.0**]
  %2 = alloca %struct.ap_fixed.0*, align 8        ; [#uses=2 type=%struct.ap_fixed.0**]
  store %struct.ap_fixed.0* %this, %struct.ap_fixed.0** %1, align 8
  call void @llvm.dbg.declare(metadata !{%struct.ap_fixed.0** %1}, metadata !15374), !dbg !15375 ; [debug line = 386:51] [debug variable = this]
  store %struct.ap_fixed.0* %op, %struct.ap_fixed.0** %2, align 8
  call void @llvm.dbg.declare(metadata !{%struct.ap_fixed.0** %2}, metadata !15376), !dbg !15377 ; [debug line = 387:19] [debug variable = op]
  %3 = load %struct.ap_fixed.0** %1               ; [#uses=2 type=%struct.ap_fixed.0*]
  %4 = load %struct.ap_fixed.0** %2, align 8, !dbg !15378 ; [#uses=1 type=%struct.ap_fixed.0*] [debug line = 388:5]
  %5 = bitcast %struct.ap_fixed.0* %4 to %struct.ssdm_int.2*, !dbg !15378 ; [#uses=1 type=%struct.ssdm_int.2*] [debug line = 388:5]
  %6 = getelementptr inbounds %struct.ssdm_int.2* %5, i32 0, i32 0, !dbg !15378 ; [#uses=1 type=i16*] [debug line = 388:5]
  %7 = load i16* %6, align 2, !dbg !15378         ; [#uses=1 type=i16] [debug line = 388:5]
  %8 = bitcast %struct.ap_fixed.0* %3 to %struct.ap_fixed_base.1*, !dbg !15378 ; [#uses=1 type=%struct.ap_fixed_base.1*] [debug line = 388:5]
  %9 = bitcast %struct.ap_fixed_base.1* %8 to %struct.ssdm_int.2*, !dbg !15378 ; [#uses=1 type=%struct.ssdm_int.2*] [debug line = 388:5]
  %10 = getelementptr inbounds %struct.ssdm_int.2* %9, i32 0, i32 0, !dbg !15378 ; [#uses=1 type=i16*] [debug line = 388:5]
  store i16 %7, i16* %10, align 2, !dbg !15378    ; [debug line = 388:5]
  ret %struct.ap_fixed.0* %3, !dbg !15380         ; [debug line = 389:5]
}

; [#uses=1]
define internal void @_ZN8ap_fixedILi16ELi1EL9ap_q_mode5EL9ap_o_mode3ELi0EEC1ILi19ELi4ELS0_5ELS1_3ELi0EEERKS_IXT_EXT0_EXT1_EXT2_EXT3_EE(%struct.ap_fixed.0* %this, %struct.ap_fixed* %op) unnamed_addr nounwind uwtable inlinehint alwaysinline align 2 {
  %1 = alloca %struct.ap_fixed.0*, align 8        ; [#uses=2 type=%struct.ap_fixed.0**]
  %2 = alloca %struct.ap_fixed*, align 8          ; [#uses=2 type=%struct.ap_fixed**]
  store %struct.ap_fixed.0* %this, %struct.ap_fixed.0** %1, align 8
  call void @llvm.dbg.declare(metadata !{%struct.ap_fixed.0** %1}, metadata !15381), !dbg !15382 ; [debug line = 299:41] [debug variable = this]
  store %struct.ap_fixed* %op, %struct.ap_fixed** %2, align 8
  call void @llvm.dbg.declare(metadata !{%struct.ap_fixed** %2}, metadata !15383), !dbg !15384 ; [debug line = 300:22] [debug variable = op]
  %3 = load %struct.ap_fixed.0** %1               ; [#uses=1 type=%struct.ap_fixed.0*]
  %4 = load %struct.ap_fixed** %2, !dbg !15385    ; [#uses=1 type=%struct.ap_fixed*] [debug line = 301:47]
  call void @_ZN8ap_fixedILi16ELi1EL9ap_q_mode5EL9ap_o_mode3ELi0EEC2ILi19ELi4ELS0_5ELS1_3ELi0EEERKS_IXT_EXT0_EXT1_EXT2_EXT3_EE(%struct.ap_fixed.0* %3, %struct.ap_fixed* %4), !dbg !15385 ; [debug line = 301:47]
  ret void, !dbg !15385                           ; [debug line = 301:47]
}

; [#uses=1]
define internal zeroext i1 @_ZNK13ap_fixed_baseILi19ELi4ELb1EL9ap_q_mode5EL9ap_o_mode3ELi0EEltILi19ELi4ELb1ELS0_5ELS1_3ELi0EEEbRKS_IXT_EXT0_EXT1_EXT2_EXT3_EXT4_EE(%struct.ap_fixed_base* %this, %struct.ap_fixed_base* %op2) nounwind uwtable inlinehint alwaysinline align 2 {
  %1 = alloca %struct.ap_fixed_base*, align 8     ; [#uses=2 type=%struct.ap_fixed_base**]
  %2 = alloca %struct.ap_fixed_base*, align 8     ; [#uses=2 type=%struct.ap_fixed_base**]
  %_AP_F = alloca i32, align 4                    ; [#uses=1 type=i32*]
  %F2 = alloca i32, align 4                       ; [#uses=1 type=i32*]
  store %struct.ap_fixed_base* %this, %struct.ap_fixed_base** %1, align 8
  call void @llvm.dbg.declare(metadata !{%struct.ap_fixed_base** %1}, metadata !15386), !dbg !15387 ; [debug line = 1957:142] [debug variable = this]
  store %struct.ap_fixed_base* %op2, %struct.ap_fixed_base** %2, align 8
  call void @llvm.dbg.declare(metadata !{%struct.ap_fixed_base** %2}, metadata !15388), !dbg !15389 ; [debug line = 1957:219] [debug variable = op2]
  %3 = load %struct.ap_fixed_base** %1            ; [#uses=1 type=%struct.ap_fixed_base*]
  call void @llvm.dbg.declare(metadata !{i32* %_AP_F}, metadata !15390), !dbg !15392 ; [debug line = 1957:242] [debug variable = _AP_F]
  store i32 15, i32* %_AP_F, align 4, !dbg !15393 ; [debug line = 1957:0]
  call void @llvm.dbg.declare(metadata !{i32* %F2}, metadata !15394), !dbg !15393 ; [debug line = 1957:0] [debug variable = F2]
  store i32 15, i32* %F2, align 4, !dbg !15393    ; [debug line = 1957:0]
  %4 = bitcast %struct.ap_fixed_base* %3 to %struct.ssdm_int*, !dbg !15393 ; [#uses=1 type=%struct.ssdm_int*] [debug line = 1957:0]
  %5 = getelementptr inbounds %struct.ssdm_int* %4, i32 0, i32 0, !dbg !15393 ; [#uses=1 type=i19*] [debug line = 1957:0]
  %6 = load i19* %5, align 4, !dbg !15393         ; [#uses=1 type=i19] [debug line = 1957:0]
  %7 = sext i19 %6 to i32, !dbg !15393            ; [#uses=1 type=i32] [debug line = 1957:0]
  %8 = load %struct.ap_fixed_base** %2, align 8, !dbg !15393 ; [#uses=1 type=%struct.ap_fixed_base*] [debug line = 1957:0]
  %9 = bitcast %struct.ap_fixed_base* %8 to %struct.ssdm_int*, !dbg !15393 ; [#uses=1 type=%struct.ssdm_int*] [debug line = 1957:0]
  %10 = getelementptr inbounds %struct.ssdm_int* %9, i32 0, i32 0, !dbg !15393 ; [#uses=1 type=i19*] [debug line = 1957:0]
  %11 = load i19* %10, align 4, !dbg !15393       ; [#uses=1 type=i19] [debug line = 1957:0]
  %12 = sext i19 %11 to i32, !dbg !15393          ; [#uses=1 type=i32] [debug line = 1957:0]
  %13 = icmp slt i32 %7, %12, !dbg !15393         ; [#uses=1 type=i1] [debug line = 1957:0]
  ret i1 %13, !dbg !15393                         ; [debug line = 1957:0]
}

; [#uses=1]
define internal zeroext i1 @_ZNK13ap_fixed_baseILi19ELi4ELb1EL9ap_q_mode5EL9ap_o_mode3ELi0EEgtILi19ELi4ELb1ELS0_5ELS1_3ELi0EEEbRKS_IXT_EXT0_EXT1_EXT2_EXT3_EXT4_EE(%struct.ap_fixed_base* %this, %struct.ap_fixed_base* %op2) nounwind uwtable inlinehint alwaysinline align 2 {
  %1 = alloca %struct.ap_fixed_base*, align 8     ; [#uses=2 type=%struct.ap_fixed_base**]
  %2 = alloca %struct.ap_fixed_base*, align 8     ; [#uses=2 type=%struct.ap_fixed_base**]
  %_AP_F = alloca i32, align 4                    ; [#uses=1 type=i32*]
  %F2 = alloca i32, align 4                       ; [#uses=1 type=i32*]
  store %struct.ap_fixed_base* %this, %struct.ap_fixed_base** %1, align 8
  call void @llvm.dbg.declare(metadata !{%struct.ap_fixed_base** %1}, metadata !15395), !dbg !15396 ; [debug line = 1955:142] [debug variable = this]
  store %struct.ap_fixed_base* %op2, %struct.ap_fixed_base** %2, align 8
  call void @llvm.dbg.declare(metadata !{%struct.ap_fixed_base** %2}, metadata !15397), !dbg !15398 ; [debug line = 1955:219] [debug variable = op2]
  %3 = load %struct.ap_fixed_base** %1            ; [#uses=1 type=%struct.ap_fixed_base*]
  call void @llvm.dbg.declare(metadata !{i32* %_AP_F}, metadata !15399), !dbg !15401 ; [debug line = 1955:242] [debug variable = _AP_F]
  store i32 15, i32* %_AP_F, align 4, !dbg !15402 ; [debug line = 1955:0]
  call void @llvm.dbg.declare(metadata !{i32* %F2}, metadata !15403), !dbg !15402 ; [debug line = 1955:0] [debug variable = F2]
  store i32 15, i32* %F2, align 4, !dbg !15402    ; [debug line = 1955:0]
  %4 = bitcast %struct.ap_fixed_base* %3 to %struct.ssdm_int*, !dbg !15402 ; [#uses=1 type=%struct.ssdm_int*] [debug line = 1955:0]
  %5 = getelementptr inbounds %struct.ssdm_int* %4, i32 0, i32 0, !dbg !15402 ; [#uses=1 type=i19*] [debug line = 1955:0]
  %6 = load i19* %5, align 4, !dbg !15402         ; [#uses=1 type=i19] [debug line = 1955:0]
  %7 = sext i19 %6 to i32, !dbg !15402            ; [#uses=1 type=i32] [debug line = 1955:0]
  %8 = load %struct.ap_fixed_base** %2, align 8, !dbg !15402 ; [#uses=1 type=%struct.ap_fixed_base*] [debug line = 1955:0]
  %9 = bitcast %struct.ap_fixed_base* %8 to %struct.ssdm_int*, !dbg !15402 ; [#uses=1 type=%struct.ssdm_int*] [debug line = 1955:0]
  %10 = getelementptr inbounds %struct.ssdm_int* %9, i32 0, i32 0, !dbg !15402 ; [#uses=1 type=i19*] [debug line = 1955:0]
  %11 = load i19* %10, align 4, !dbg !15402       ; [#uses=1 type=i19] [debug line = 1955:0]
  %12 = sext i19 %11 to i32, !dbg !15402          ; [#uses=1 type=i32] [debug line = 1955:0]
  %13 = icmp sgt i32 %7, %12, !dbg !15402         ; [#uses=1 type=i1] [debug line = 1955:0]
  ret i1 %13, !dbg !15402                         ; [debug line = 1955:0]
}

; [#uses=1]
declare void @_ssdm_RegionEnd(...) nounwind

; [#uses=1]
define internal void @__cxx_global_var_init5() nounwind section ".text.startup" {
  call void @_ZN38ssdm_global_array_mixerpp0cppaplinecppC1Ev(%class.ssdm_global_array_mixerpp0cppaplinecpp* @_ZL21ssdm_global_array_ins6)
  ret void
}

; [#uses=1]
define void @_ZN38ssdm_global_array_mixerpp0cppaplinecppC1Ev(%class.ssdm_global_array_mixerpp0cppaplinecpp* %this) unnamed_addr nounwind uwtable inlinehint alwaysinline align 2 {
  %1 = alloca %class.ssdm_global_array_mixerpp0cppaplinecpp*, align 8 ; [#uses=2 type=%class.ssdm_global_array_mixerpp0cppaplinecpp**]
  store %class.ssdm_global_array_mixerpp0cppaplinecpp* %this, %class.ssdm_global_array_mixerpp0cppaplinecpp** %1, align 8
  call void @llvm.dbg.declare(metadata !{%class.ssdm_global_array_mixerpp0cppaplinecpp** %1}, metadata !15404), !dbg !15406 ; [debug line = 107:42] [debug variable = this]
  %2 = load %class.ssdm_global_array_mixerpp0cppaplinecpp** %1 ; [#uses=1 type=%class.ssdm_global_array_mixerpp0cppaplinecpp*]
  call void @_ZN38ssdm_global_array_mixerpp0cppaplinecppC2Ev(%class.ssdm_global_array_mixerpp0cppaplinecpp* %2), !dbg !15407 ; [debug line = 109:3]
  ret void, !dbg !15407                           ; [debug line = 109:3]
}

; [#uses=1]
define internal void @_ZN8ap_fixedILi16ELi1EL9ap_q_mode5EL9ap_o_mode3ELi0EEC2ILi19ELi4ELS0_5ELS1_3ELi0EEERKS_IXT_EXT0_EXT1_EXT2_EXT3_EE(%struct.ap_fixed.0* %this, %struct.ap_fixed* %op) unnamed_addr nounwind uwtable inlinehint alwaysinline align 2 {
  %1 = alloca %struct.ap_fixed.0*, align 8        ; [#uses=2 type=%struct.ap_fixed.0**]
  %2 = alloca %struct.ap_fixed*, align 8          ; [#uses=2 type=%struct.ap_fixed**]
  %3 = alloca %struct.ap_fixed_base, align 4      ; [#uses=3 type=%struct.ap_fixed_base*]
  store %struct.ap_fixed.0* %this, %struct.ap_fixed.0** %1, align 8
  call void @llvm.dbg.declare(metadata !{%struct.ap_fixed.0** %1}, metadata !15408), !dbg !15409 ; [debug line = 299:41] [debug variable = this]
  store %struct.ap_fixed* %op, %struct.ap_fixed** %2, align 8
  call void @llvm.dbg.declare(metadata !{%struct.ap_fixed** %2}, metadata !15410), !dbg !15411 ; [debug line = 300:22] [debug variable = op]
  %4 = load %struct.ap_fixed.0** %1               ; [#uses=1 type=%struct.ap_fixed.0*]
  %5 = bitcast %struct.ap_fixed.0* %4 to %struct.ap_fixed_base.1*, !dbg !15412 ; [#uses=1 type=%struct.ap_fixed_base.1*] [debug line = 301:46]
  %6 = load %struct.ap_fixed** %2, align 8, !dbg !15412 ; [#uses=1 type=%struct.ap_fixed*] [debug line = 301:46]
  %7 = bitcast %struct.ap_fixed* %6 to %struct.ap_fixed_base*, !dbg !15412 ; [#uses=2 type=%struct.ap_fixed_base*] [debug line = 301:46]
  %8 = bitcast %struct.ap_fixed_base* %3 to i8*, !dbg !15412 ; [#uses=0 type=i8*] [debug line = 301:46]
  %9 = bitcast %struct.ap_fixed_base* %7 to i8*, !dbg !15412 ; [#uses=0 type=i8*] [debug line = 301:46]
  %10 = getelementptr inbounds %struct.ap_fixed_base* %3, i32 0, i32 0, !dbg !15412 ; [#uses=1 type=%struct.ssdm_int*] [debug line = 301:46]
  %11 = getelementptr inbounds %struct.ap_fixed_base* %7, i32 0, i32 0, !dbg !15412 ; [#uses=1 type=%struct.ssdm_int*] [debug line = 301:46]
  %12 = getelementptr inbounds %struct.ssdm_int* %10, i32 0, i32 0, !dbg !15412 ; [#uses=1 type=i19*] [debug line = 301:46]
  %13 = getelementptr inbounds %struct.ssdm_int* %11, i32 0, i32 0, !dbg !15412 ; [#uses=1 type=i19*] [debug line = 301:46]
  %14 = load i19* %13, !dbg !15412                ; [#uses=1 type=i19] [debug line = 301:46]
  store i19 %14, i19* %12, !dbg !15412            ; [debug line = 301:46]
  call void @_ZN13ap_fixed_baseILi16ELi1ELb1EL9ap_q_mode5EL9ap_o_mode3ELi0EEC2ILi19ELi4ELb1ELS0_5ELS1_3ELi0EEERKS_IXT_EXT0_EXT1_EXT2_EXT3_EXT4_EE(%struct.ap_fixed_base.1* %5, %struct.ap_fixed_base* %3), !dbg !15412 ; [debug line = 301:46]
  ret void, !dbg !15413                           ; [debug line = 301:47]
}

; [#uses=1]
define internal void @_ZN13ap_fixed_baseILi16ELi1ELb1EL9ap_q_mode5EL9ap_o_mode3ELi0EEC2ILi19ELi4ELb1ELS0_5ELS1_3ELi0EEERKS_IXT_EXT0_EXT1_EXT2_EXT3_EXT4_EE(%struct.ap_fixed_base.1* %this, %struct.ap_fixed_base* %op) unnamed_addr nounwind uwtable align 2 {
  %1 = alloca %struct.ap_fixed_base.1*, align 8   ; [#uses=2 type=%struct.ap_fixed_base.1**]
  %2 = alloca %struct.ap_fixed_base*, align 8     ; [#uses=3 type=%struct.ap_fixed_base**]
  %carry = alloca i1, align 1                     ; [#uses=1 type=i1*]
  %sh_amt = alloca i32, align 4                   ; [#uses=1 type=i32*]
  %signbit = alloca i1, align 1                   ; [#uses=2 type=i1*]
  %__Result__ = alloca i19, align 4               ; [#uses=4 type=i19*]
  %__Val2__ = alloca i19, align 4                 ; [#uses=3 type=i19*]
  %isneg = alloca i1, align 1                     ; [#uses=1 type=i1*]
  store %struct.ap_fixed_base.1* %this, %struct.ap_fixed_base.1** %1, align 8
  call void @llvm.dbg.declare(metadata !{%struct.ap_fixed_base.1** %1}, metadata !15415), !dbg !15417 ; [debug line = 663:13] [debug variable = this]
  store %struct.ap_fixed_base* %op, %struct.ap_fixed_base** %2, align 8
  call void @llvm.dbg.declare(metadata !{%struct.ap_fixed_base** %2}, metadata !15418), !dbg !15419 ; [debug line = 663:93] [debug variable = op]
  %3 = load %struct.ap_fixed_base.1** %1          ; [#uses=2 type=%struct.ap_fixed_base.1*]
  %4 = bitcast %struct.ap_fixed_base.1* %3 to %struct.ssdm_int.2*, !dbg !15420 ; [#uses=1 type=%struct.ssdm_int.2*] [debug line = 663:97]
  call void @_ZN8ssdm_intILi16ELb1EEC2Ev(%struct.ssdm_int.2* %4), !dbg !15420 ; [debug line = 663:97]
  call void (...)* @_ssdm_InlineSelf(i32 0, i8* getelementptr inbounds ([1 x i8]* @.str2, i32 0, i32 0)) nounwind, !dbg !15421 ; [debug line = 665:1]
  call void @llvm.dbg.declare(metadata !{i1* %carry}, metadata !15423), !dbg !15424 ; [debug line = 669:14] [debug variable = carry]
  store i1 false, i1* %carry, align 1, !dbg !15425 ; [debug line = 669:27]
  call void @llvm.dbg.declare(metadata !{i32* %sh_amt}, metadata !15426), !dbg !15427 ; [debug line = 674:18] [debug variable = sh_amt]
  store i32 0, i32* %sh_amt, align 4, !dbg !15428 ; [debug line = 674:65]
  call void @llvm.dbg.declare(metadata !{i1* %signbit}, metadata !15429), !dbg !15430 ; [debug line = 675:14] [debug variable = signbit]
  call void @llvm.dbg.declare(metadata !{i19* %__Result__}, metadata !15431), !dbg !15433 ; [debug line = 675:120] [debug variable = __Result__]
  store i19 0, i19* %__Result__, align 4, !dbg !15434 ; [debug line = 675:134]
  call void @llvm.dbg.declare(metadata !{i19* %__Val2__}, metadata !15435), !dbg !15436 ; [debug line = 675:229] [debug variable = __Val2__]
  %5 = load %struct.ap_fixed_base** %2, align 8, !dbg !15437 ; [#uses=1 type=%struct.ap_fixed_base*] [debug line = 675:0]
  %6 = bitcast %struct.ap_fixed_base* %5 to %struct.ssdm_int*, !dbg !15437 ; [#uses=1 type=%struct.ssdm_int*] [debug line = 675:0]
  %7 = getelementptr inbounds %struct.ssdm_int* %6, i32 0, i32 0, !dbg !15437 ; [#uses=1 type=i19*] [debug line = 675:0]
  %8 = load i19* %7, align 4, !dbg !15437         ; [#uses=1 type=i19] [debug line = 675:0]
  store i19 %8, i19* %__Val2__, align 4, !dbg !15437 ; [debug line = 675:0]
  %9 = bitcast i19* %__Result__ to i8*, !dbg !15437 ; [#uses=0 type=i8*] [debug line = 675:0]
  %10 = bitcast i19* %__Val2__ to i8*, !dbg !15437 ; [#uses=0 type=i8*] [debug line = 675:0]
  %11 = load i19* %__Val2__, !dbg !15437          ; [#uses=1 type=i19] [debug line = 675:0]
  %12 = call i19 @llvm.part.select.i19(i19 %11, i32 18, i32 18), !dbg !15437 ; [#uses=1 type=i19] [debug line = 675:0]
  store i19 %12, i19* %__Result__, !dbg !15437    ; [debug line = 675:0]
  %13 = load i19* %__Result__, align 4, !dbg !15437 ; [#uses=1 type=i19] [debug line = 675:0]
  %14 = sext i19 %13 to i32, !dbg !15437          ; [#uses=1 type=i32] [debug line = 675:0]
  %15 = and i32 %14, 1, !dbg !15437               ; [#uses=1 type=i32] [debug line = 675:0]
  %16 = icmp ne i32 %15, 0, !dbg !15437           ; [#uses=1 type=i1] [debug line = 675:0]
  store i1 %16, i1* %signbit, align 1, !dbg !15437 ; [debug line = 675:0]
  call void @llvm.dbg.declare(metadata !{i1* %isneg}, metadata !15438), !dbg !15439 ; [debug line = 677:14] [debug variable = isneg]
  %17 = load i1* %signbit, align 1, !dbg !15440   ; [#uses=1 type=i1] [debug line = 677:39]
  br i1 %17, label %18, label %19, !dbg !15440    ; [debug line = 677:39]

; <label>:18                                      ; preds = %0
  br label %19

; <label>:19                                      ; preds = %18, %0
  %20 = phi i1 [ false, %0 ], [ true, %18 ]       ; [#uses=1 type=i1]
  store i1 %20, i1* %isneg, align 1
  %21 = load %struct.ap_fixed_base** %2, align 8, !dbg !15441 ; [#uses=1 type=%struct.ap_fixed_base*] [debug line = 679:13]
  %22 = bitcast %struct.ap_fixed_base* %21 to %struct.ssdm_int*, !dbg !15441 ; [#uses=1 type=%struct.ssdm_int*] [debug line = 679:13]
  %23 = getelementptr inbounds %struct.ssdm_int* %22, i32 0, i32 0, !dbg !15441 ; [#uses=1 type=i19*] [debug line = 679:13]
  %24 = load i19* %23, align 4, !dbg !15441       ; [#uses=1 type=i19] [debug line = 679:13]
  %25 = trunc i19 %24 to i16, !dbg !15441         ; [#uses=1 type=i16] [debug line = 679:13]
  %26 = bitcast %struct.ap_fixed_base.1* %3 to %struct.ssdm_int.2*, !dbg !15441 ; [#uses=1 type=%struct.ssdm_int.2*] [debug line = 679:13]
  %27 = getelementptr inbounds %struct.ssdm_int.2* %26, i32 0, i32 0, !dbg !15441 ; [#uses=1 type=i16*] [debug line = 679:13]
  store i16 %25, i16* %27, align 2, !dbg !15441   ; [debug line = 679:13]
  ret void, !dbg !15442                           ; [debug line = 773:5]
}

; [#uses=4]
define internal void @_ZN8ssdm_intILi16ELb1EEC2Ev(%struct.ssdm_int.2* %this) unnamed_addr nounwind uwtable inlinehint alwaysinline align 2 {
  %1 = alloca %struct.ssdm_int.2*, align 8        ; [#uses=2 type=%struct.ssdm_int.2**]
  store %struct.ssdm_int.2* %this, %struct.ssdm_int.2** %1, align 8
  call void @llvm.dbg.declare(metadata !{%struct.ssdm_int.2** %1}, metadata !15443), !dbg !15445 ; [debug line = 18:137] [debug variable = this]
  %2 = load %struct.ssdm_int.2** %1               ; [#uses=0 type=%struct.ssdm_int.2*]
  ret void, !dbg !15446                           ; [debug line = 18:171]
}

; [#uses=2]
declare i19 @llvm.part.select.i19(i19, i32, i32) nounwind readnone

; [#uses=1]
define internal void @_ZN8ap_fixedILi19ELi4EL9ap_q_mode5EL9ap_o_mode3ELi0EEC2ILi57ELi27ELb1ELS0_5ELS1_3ELi0EEERK13ap_fixed_baseIXT_EXT0_EXT1_EXT2_EXT3_EXT4_EE(%struct.ap_fixed* %this, %struct.ap_fixed_base.3* %op) unnamed_addr nounwind uwtable inlinehint alwaysinline align 2 {
  %1 = alloca %struct.ap_fixed*, align 8          ; [#uses=2 type=%struct.ap_fixed**]
  %2 = alloca %struct.ap_fixed_base.3*, align 8   ; [#uses=2 type=%struct.ap_fixed_base.3**]
  store %struct.ap_fixed* %this, %struct.ap_fixed** %1, align 8
  call void @llvm.dbg.declare(metadata !{%struct.ap_fixed** %1}, metadata !15448), !dbg !15449 ; [debug line = 337:41] [debug variable = this]
  store %struct.ap_fixed_base.3* %op, %struct.ap_fixed_base.3** %2, align 8
  call void @llvm.dbg.declare(metadata !{%struct.ap_fixed_base.3** %2}, metadata !15450), !dbg !15451 ; [debug line = 338:30] [debug variable = op]
  %3 = load %struct.ap_fixed** %1                 ; [#uses=1 type=%struct.ap_fixed*]
  %4 = bitcast %struct.ap_fixed* %3 to %struct.ap_fixed_base*, !dbg !15452 ; [#uses=1 type=%struct.ap_fixed_base*] [debug line = 338:43]
  %5 = load %struct.ap_fixed_base.3** %2, align 8, !dbg !15452 ; [#uses=1 type=%struct.ap_fixed_base.3*] [debug line = 338:43]
  call void @_ZN13ap_fixed_baseILi19ELi4ELb1EL9ap_q_mode5EL9ap_o_mode3ELi0EEC2ILi57ELi27ELb1ELS0_5ELS1_3ELi0EEERKS_IXT_EXT0_EXT1_EXT2_EXT3_EXT4_EE(%struct.ap_fixed_base* %4, %struct.ap_fixed_base.3* %5), !dbg !15452 ; [debug line = 338:43]
  ret void, !dbg !15453                           ; [debug line = 338:44]
}

; [#uses=1]
define internal void @_ZN13ap_fixed_baseILi19ELi4ELb1EL9ap_q_mode5EL9ap_o_mode3ELi0EEC2ILi57ELi27ELb1ELS0_5ELS1_3ELi0EEERKS_IXT_EXT0_EXT1_EXT2_EXT3_EXT4_EE(%struct.ap_fixed_base* %this, %struct.ap_fixed_base.3* %op) unnamed_addr nounwind uwtable align 2 {
  %1 = alloca %struct.ap_fixed_base*, align 8     ; [#uses=2 type=%struct.ap_fixed_base**]
  %2 = alloca %struct.ap_fixed_base.3*, align 8   ; [#uses=3 type=%struct.ap_fixed_base.3**]
  %carry = alloca i1, align 1                     ; [#uses=1 type=i1*]
  %sh_amt = alloca i32, align 4                   ; [#uses=3 type=i32*]
  %signbit = alloca i1, align 1                   ; [#uses=2 type=i1*]
  %__Result__ = alloca i57, align 8               ; [#uses=4 type=i57*]
  %__Val2__ = alloca i57, align 8                 ; [#uses=3 type=i57*]
  %isneg = alloca i1, align 1                     ; [#uses=2 type=i1*]
  store %struct.ap_fixed_base* %this, %struct.ap_fixed_base** %1, align 8
  call void @llvm.dbg.declare(metadata !{%struct.ap_fixed_base** %1}, metadata !15455), !dbg !15457 ; [debug line = 663:13] [debug variable = this]
  store %struct.ap_fixed_base.3* %op, %struct.ap_fixed_base.3** %2, align 8
  call void @llvm.dbg.declare(metadata !{%struct.ap_fixed_base.3** %2}, metadata !15458), !dbg !15459 ; [debug line = 663:93] [debug variable = op]
  %3 = load %struct.ap_fixed_base** %1            ; [#uses=4 type=%struct.ap_fixed_base*]
  %4 = bitcast %struct.ap_fixed_base* %3 to %struct.ssdm_int*, !dbg !15460 ; [#uses=1 type=%struct.ssdm_int*] [debug line = 663:97]
  call void @_ZN8ssdm_intILi19ELb1EEC2Ev(%struct.ssdm_int* %4), !dbg !15460 ; [debug line = 663:97]
  call void (...)* @_ssdm_InlineSelf(i32 0, i8* getelementptr inbounds ([1 x i8]* @.str2, i32 0, i32 0)) nounwind, !dbg !15461 ; [debug line = 665:1]
  call void @llvm.dbg.declare(metadata !{i1* %carry}, metadata !15463), !dbg !15464 ; [debug line = 669:14] [debug variable = carry]
  store i1 false, i1* %carry, align 1, !dbg !15465 ; [debug line = 669:27]
  call void @llvm.dbg.declare(metadata !{i32* %sh_amt}, metadata !15466), !dbg !15467 ; [debug line = 674:18] [debug variable = sh_amt]
  store i32 15, i32* %sh_amt, align 4, !dbg !15468 ; [debug line = 674:65]
  call void @llvm.dbg.declare(metadata !{i1* %signbit}, metadata !15469), !dbg !15470 ; [debug line = 675:14] [debug variable = signbit]
  call void @llvm.dbg.declare(metadata !{i57* %__Result__}, metadata !15471), !dbg !15473 ; [debug line = 675:120] [debug variable = __Result__]
  store i57 0, i57* %__Result__, align 8, !dbg !15474 ; [debug line = 675:134]
  call void @llvm.dbg.declare(metadata !{i57* %__Val2__}, metadata !15475), !dbg !15476 ; [debug line = 675:229] [debug variable = __Val2__]
  %5 = load %struct.ap_fixed_base.3** %2, align 8, !dbg !15477 ; [#uses=1 type=%struct.ap_fixed_base.3*] [debug line = 675:0]
  %6 = bitcast %struct.ap_fixed_base.3* %5 to %struct.ssdm_int.4*, !dbg !15477 ; [#uses=1 type=%struct.ssdm_int.4*] [debug line = 675:0]
  %7 = getelementptr inbounds %struct.ssdm_int.4* %6, i32 0, i32 0, !dbg !15477 ; [#uses=1 type=i57*] [debug line = 675:0]
  %8 = load i57* %7, align 8, !dbg !15477         ; [#uses=1 type=i57] [debug line = 675:0]
  store i57 %8, i57* %__Val2__, align 8, !dbg !15477 ; [debug line = 675:0]
  %9 = bitcast i57* %__Result__ to i8*, !dbg !15477 ; [#uses=0 type=i8*] [debug line = 675:0]
  %10 = bitcast i57* %__Val2__ to i8*, !dbg !15477 ; [#uses=0 type=i8*] [debug line = 675:0]
  %11 = load i57* %__Val2__, !dbg !15477          ; [#uses=1 type=i57] [debug line = 675:0]
  %12 = call i57 @llvm.part.select.i57(i57 %11, i32 56, i32 56), !dbg !15477 ; [#uses=1 type=i57] [debug line = 675:0]
  store i57 %12, i57* %__Result__, !dbg !15477    ; [debug line = 675:0]
  %13 = load i57* %__Result__, align 8, !dbg !15477 ; [#uses=1 type=i57] [debug line = 675:0]
  %14 = and i57 %13, 1, !dbg !15477               ; [#uses=1 type=i57] [debug line = 675:0]
  %15 = icmp ne i57 %14, 0, !dbg !15477           ; [#uses=1 type=i1] [debug line = 675:0]
  store i1 %15, i1* %signbit, align 1, !dbg !15477 ; [debug line = 675:0]
  call void @llvm.dbg.declare(metadata !{i1* %isneg}, metadata !15478), !dbg !15479 ; [debug line = 677:14] [debug variable = isneg]
  %16 = load i1* %signbit, align 1, !dbg !15480   ; [#uses=1 type=i1] [debug line = 677:39]
  br i1 %16, label %17, label %18, !dbg !15480    ; [debug line = 677:39]

; <label>:17                                      ; preds = %0
  br label %18

; <label>:18                                      ; preds = %17, %0
  %19 = phi i1 [ false, %0 ], [ true, %17 ]       ; [#uses=1 type=i1]
  store i1 %19, i1* %isneg, align 1
  %20 = load i32* %sh_amt, align 4, !dbg !15481   ; [#uses=1 type=i32] [debug line = 681:13]
  %21 = icmp ult i32 %20, 57, !dbg !15481         ; [#uses=1 type=i1] [debug line = 681:13]
  br i1 %21, label %22, label %33, !dbg !15481    ; [debug line = 681:13]

; <label>:22                                      ; preds = %18
  %23 = load %struct.ap_fixed_base.3** %2, align 8, !dbg !15483 ; [#uses=1 type=%struct.ap_fixed_base.3*] [debug line = 682:17]
  %24 = bitcast %struct.ap_fixed_base.3* %23 to %struct.ssdm_int.4*, !dbg !15483 ; [#uses=1 type=%struct.ssdm_int.4*] [debug line = 682:17]
  %25 = getelementptr inbounds %struct.ssdm_int.4* %24, i32 0, i32 0, !dbg !15483 ; [#uses=1 type=i57*] [debug line = 682:17]
  %26 = load i57* %25, align 8, !dbg !15483       ; [#uses=1 type=i57] [debug line = 682:17]
  %27 = load i32* %sh_amt, align 4, !dbg !15483   ; [#uses=1 type=i32] [debug line = 682:17]
  %28 = zext i32 %27 to i57, !dbg !15483          ; [#uses=1 type=i57] [debug line = 682:17]
  %29 = ashr i57 %26, %28, !dbg !15483            ; [#uses=1 type=i57] [debug line = 682:17]
  %30 = trunc i57 %29 to i19, !dbg !15483         ; [#uses=1 type=i19] [debug line = 682:17]
  %31 = bitcast %struct.ap_fixed_base* %3 to %struct.ssdm_int*, !dbg !15483 ; [#uses=1 type=%struct.ssdm_int*] [debug line = 682:17]
  %32 = getelementptr inbounds %struct.ssdm_int* %31, i32 0, i32 0, !dbg !15483 ; [#uses=1 type=i19*] [debug line = 682:17]
  store i19 %30, i19* %32, align 4, !dbg !15483   ; [debug line = 682:17]
  br label %44, !dbg !15483                       ; [debug line = 682:17]

; <label>:33                                      ; preds = %18
  %34 = load i1* %isneg, align 1, !dbg !15484     ; [#uses=1 type=i1] [debug line = 685:17]
  br i1 %34, label %35, label %40, !dbg !15484    ; [debug line = 685:17]

; <label>:35                                      ; preds = %33
  %36 = load i32* @_ZZN13ap_fixed_baseILi19ELi4ELb1EL9ap_q_mode5EL9ap_o_mode3ELi0EEC1ILi57ELi27ELb1ELS0_5ELS1_3ELi0EEERKS_IXT_EXT0_EXT1_EXT2_EXT3_EXT4_EEE10AllOnesInt, align 4, !dbg !15486 ; [#uses=1 type=i32] [debug line = 685:28]
  %37 = trunc i32 %36 to i19, !dbg !15486         ; [#uses=1 type=i19] [debug line = 685:28]
  %38 = bitcast %struct.ap_fixed_base* %3 to %struct.ssdm_int*, !dbg !15486 ; [#uses=1 type=%struct.ssdm_int*] [debug line = 685:28]
  %39 = getelementptr inbounds %struct.ssdm_int* %38, i32 0, i32 0, !dbg !15486 ; [#uses=1 type=i19*] [debug line = 685:28]
  store i19 %37, i19* %39, align 4, !dbg !15486   ; [debug line = 685:28]
  br label %43, !dbg !15486                       ; [debug line = 685:28]

; <label>:40                                      ; preds = %33
  %41 = bitcast %struct.ap_fixed_base* %3 to %struct.ssdm_int*, !dbg !15487 ; [#uses=1 type=%struct.ssdm_int*] [debug line = 686:22]
  %42 = getelementptr inbounds %struct.ssdm_int* %41, i32 0, i32 0, !dbg !15487 ; [#uses=1 type=i19*] [debug line = 686:22]
  store i19 0, i19* %42, align 4, !dbg !15487     ; [debug line = 686:22]
  br label %43

; <label>:43                                      ; preds = %40, %35
  br label %44

; <label>:44                                      ; preds = %43, %22
  ret void, !dbg !15488                           ; [debug line = 773:5]
}

; [#uses=1]
declare i57 @llvm.part.select.i57(i57, i32, i32) nounwind readnone

; [#uses=1]
define internal void @_ZN13ap_fixed_baseILi57ELi27ELb1EL9ap_q_mode5EL9ap_o_mode3ELi0EEC1Ev(%struct.ap_fixed_base.3* %this) unnamed_addr nounwind uwtable inlinehint alwaysinline align 2 {
  %1 = alloca %struct.ap_fixed_base.3*, align 8   ; [#uses=2 type=%struct.ap_fixed_base.3**]
  store %struct.ap_fixed_base.3* %this, %struct.ap_fixed_base.3** %1, align 8
  call void @llvm.dbg.declare(metadata !{%struct.ap_fixed_base.3** %1}, metadata !15489), !dbg !15491 ; [debug line = 653:43] [debug variable = this]
  %2 = load %struct.ap_fixed_base.3** %1          ; [#uses=1 type=%struct.ap_fixed_base.3*]
  call void @_ZN13ap_fixed_baseILi57ELi27ELb1EL9ap_q_mode5EL9ap_o_mode3ELi0EEC2Ev(%struct.ap_fixed_base.3* %2), !dbg !15492 ; [debug line = 660:5]
  ret void, !dbg !15492                           ; [debug line = 660:5]
}

; [#uses=1]
define internal void @_ZN13ap_fixed_baseILi57ELi27ELb1EL9ap_q_mode5EL9ap_o_mode3ELi0EEC1ILi19ELi4ELb1ELS0_5ELS1_3ELi0EEERKS_IXT_EXT0_EXT1_EXT2_EXT3_EXT4_EE(%struct.ap_fixed_base.3* %this, %struct.ap_fixed_base* %op) unnamed_addr nounwind uwtable align 2 {
  %1 = alloca %struct.ap_fixed_base.3*, align 8   ; [#uses=2 type=%struct.ap_fixed_base.3**]
  %2 = alloca %struct.ap_fixed_base*, align 8     ; [#uses=2 type=%struct.ap_fixed_base**]
  store %struct.ap_fixed_base.3* %this, %struct.ap_fixed_base.3** %1, align 8
  call void @llvm.dbg.declare(metadata !{%struct.ap_fixed_base.3** %1}, metadata !15493), !dbg !15494 ; [debug line = 663:13] [debug variable = this]
  store %struct.ap_fixed_base* %op, %struct.ap_fixed_base** %2, align 8
  call void @llvm.dbg.declare(metadata !{%struct.ap_fixed_base** %2}, metadata !15495), !dbg !15496 ; [debug line = 663:93] [debug variable = op]
  %3 = load %struct.ap_fixed_base.3** %1          ; [#uses=1 type=%struct.ap_fixed_base.3*]
  %4 = load %struct.ap_fixed_base** %2, !dbg !15497 ; [#uses=1 type=%struct.ap_fixed_base*] [debug line = 773:5]
  call void @_ZN13ap_fixed_baseILi57ELi27ELb1EL9ap_q_mode5EL9ap_o_mode3ELi0EEC2ILi19ELi4ELb1ELS0_5ELS1_3ELi0EEERKS_IXT_EXT0_EXT1_EXT2_EXT3_EXT4_EE(%struct.ap_fixed_base.3* %3, %struct.ap_fixed_base* %4), !dbg !15497 ; [debug line = 773:5]
  ret void, !dbg !15497                           ; [debug line = 773:5]
}

; [#uses=1]
define internal void @_ZN13ap_fixed_baseILi57ELi27ELb1EL9ap_q_mode5EL9ap_o_mode3ELi0EEC1ILi56ELi26ELb1ELS0_5ELS1_3ELi0EEERKS_IXT_EXT0_EXT1_EXT2_EXT3_EXT4_EE(%struct.ap_fixed_base.3* %this, %struct.ap_fixed_base.5* %op) unnamed_addr nounwind uwtable align 2 {
  %1 = alloca %struct.ap_fixed_base.3*, align 8   ; [#uses=2 type=%struct.ap_fixed_base.3**]
  %2 = alloca %struct.ap_fixed_base.5*, align 8   ; [#uses=2 type=%struct.ap_fixed_base.5**]
  store %struct.ap_fixed_base.3* %this, %struct.ap_fixed_base.3** %1, align 8
  call void @llvm.dbg.declare(metadata !{%struct.ap_fixed_base.3** %1}, metadata !15498), !dbg !15499 ; [debug line = 663:13] [debug variable = this]
  store %struct.ap_fixed_base.5* %op, %struct.ap_fixed_base.5** %2, align 8
  call void @llvm.dbg.declare(metadata !{%struct.ap_fixed_base.5** %2}, metadata !15500), !dbg !15501 ; [debug line = 663:93] [debug variable = op]
  %3 = load %struct.ap_fixed_base.3** %1          ; [#uses=1 type=%struct.ap_fixed_base.3*]
  %4 = load %struct.ap_fixed_base.5** %2, !dbg !15502 ; [#uses=1 type=%struct.ap_fixed_base.5*] [debug line = 773:5]
  call void @_ZN13ap_fixed_baseILi57ELi27ELb1EL9ap_q_mode5EL9ap_o_mode3ELi0EEC2ILi56ELi26ELb1ELS0_5ELS1_3ELi0EEERKS_IXT_EXT0_EXT1_EXT2_EXT3_EXT4_EE(%struct.ap_fixed_base.3* %3, %struct.ap_fixed_base.5* %4), !dbg !15502 ; [debug line = 773:5]
  ret void, !dbg !15502                           ; [debug line = 773:5]
}

; [#uses=1]
define internal void @_ZN13ap_fixed_baseILi57ELi27ELb1EL9ap_q_mode5EL9ap_o_mode3ELi0EEC2ILi56ELi26ELb1ELS0_5ELS1_3ELi0EEERKS_IXT_EXT0_EXT1_EXT2_EXT3_EXT4_EE(%struct.ap_fixed_base.3* %this, %struct.ap_fixed_base.5* %op) unnamed_addr nounwind uwtable align 2 {
  %1 = alloca %struct.ap_fixed_base.3*, align 8   ; [#uses=2 type=%struct.ap_fixed_base.3**]
  %2 = alloca %struct.ap_fixed_base.5*, align 8   ; [#uses=3 type=%struct.ap_fixed_base.5**]
  %carry = alloca i1, align 1                     ; [#uses=1 type=i1*]
  %sh_amt = alloca i32, align 4                   ; [#uses=1 type=i32*]
  %signbit = alloca i1, align 1                   ; [#uses=2 type=i1*]
  %__Result__ = alloca i56, align 8               ; [#uses=4 type=i56*]
  %__Val2__ = alloca i56, align 8                 ; [#uses=3 type=i56*]
  %isneg = alloca i1, align 1                     ; [#uses=1 type=i1*]
  store %struct.ap_fixed_base.3* %this, %struct.ap_fixed_base.3** %1, align 8
  call void @llvm.dbg.declare(metadata !{%struct.ap_fixed_base.3** %1}, metadata !15503), !dbg !15504 ; [debug line = 663:13] [debug variable = this]
  store %struct.ap_fixed_base.5* %op, %struct.ap_fixed_base.5** %2, align 8
  call void @llvm.dbg.declare(metadata !{%struct.ap_fixed_base.5** %2}, metadata !15505), !dbg !15506 ; [debug line = 663:93] [debug variable = op]
  %3 = load %struct.ap_fixed_base.3** %1          ; [#uses=2 type=%struct.ap_fixed_base.3*]
  %4 = bitcast %struct.ap_fixed_base.3* %3 to %struct.ssdm_int.4*, !dbg !15507 ; [#uses=1 type=%struct.ssdm_int.4*] [debug line = 663:97]
  call void @_ZN8ssdm_intILi57ELb1EEC2Ev(%struct.ssdm_int.4* %4), !dbg !15507 ; [debug line = 663:97]
  call void (...)* @_ssdm_InlineSelf(i32 0, i8* getelementptr inbounds ([1 x i8]* @.str2, i32 0, i32 0)) nounwind, !dbg !15508 ; [debug line = 665:1]
  call void @llvm.dbg.declare(metadata !{i1* %carry}, metadata !15510), !dbg !15511 ; [debug line = 669:14] [debug variable = carry]
  store i1 false, i1* %carry, align 1, !dbg !15512 ; [debug line = 669:27]
  call void @llvm.dbg.declare(metadata !{i32* %sh_amt}, metadata !15513), !dbg !15514 ; [debug line = 674:18] [debug variable = sh_amt]
  store i32 0, i32* %sh_amt, align 4, !dbg !15515 ; [debug line = 674:65]
  call void @llvm.dbg.declare(metadata !{i1* %signbit}, metadata !15516), !dbg !15517 ; [debug line = 675:14] [debug variable = signbit]
  call void @llvm.dbg.declare(metadata !{i56* %__Result__}, metadata !15518), !dbg !15520 ; [debug line = 675:120] [debug variable = __Result__]
  store i56 0, i56* %__Result__, align 8, !dbg !15521 ; [debug line = 675:134]
  call void @llvm.dbg.declare(metadata !{i56* %__Val2__}, metadata !15522), !dbg !15523 ; [debug line = 675:229] [debug variable = __Val2__]
  %5 = load %struct.ap_fixed_base.5** %2, align 8, !dbg !15524 ; [#uses=1 type=%struct.ap_fixed_base.5*] [debug line = 675:0]
  %6 = bitcast %struct.ap_fixed_base.5* %5 to %struct.ssdm_int.6*, !dbg !15524 ; [#uses=1 type=%struct.ssdm_int.6*] [debug line = 675:0]
  %7 = getelementptr inbounds %struct.ssdm_int.6* %6, i32 0, i32 0, !dbg !15524 ; [#uses=1 type=i56*] [debug line = 675:0]
  %8 = load i56* %7, align 8, !dbg !15524         ; [#uses=1 type=i56] [debug line = 675:0]
  store i56 %8, i56* %__Val2__, align 8, !dbg !15524 ; [debug line = 675:0]
  %9 = bitcast i56* %__Result__ to i8*, !dbg !15524 ; [#uses=0 type=i8*] [debug line = 675:0]
  %10 = bitcast i56* %__Val2__ to i8*, !dbg !15524 ; [#uses=0 type=i8*] [debug line = 675:0]
  %11 = load i56* %__Val2__, !dbg !15524          ; [#uses=1 type=i56] [debug line = 675:0]
  %12 = call i56 @llvm.part.select.i56(i56 %11, i32 55, i32 55), !dbg !15524 ; [#uses=1 type=i56] [debug line = 675:0]
  store i56 %12, i56* %__Result__, !dbg !15524    ; [debug line = 675:0]
  %13 = load i56* %__Result__, align 8, !dbg !15524 ; [#uses=1 type=i56] [debug line = 675:0]
  %14 = and i56 %13, 1, !dbg !15524               ; [#uses=1 type=i56] [debug line = 675:0]
  %15 = icmp ne i56 %14, 0, !dbg !15524           ; [#uses=1 type=i1] [debug line = 675:0]
  store i1 %15, i1* %signbit, align 1, !dbg !15524 ; [debug line = 675:0]
  call void @llvm.dbg.declare(metadata !{i1* %isneg}, metadata !15525), !dbg !15526 ; [debug line = 677:14] [debug variable = isneg]
  %16 = load i1* %signbit, align 1, !dbg !15527   ; [#uses=1 type=i1] [debug line = 677:39]
  br i1 %16, label %17, label %18, !dbg !15527    ; [debug line = 677:39]

; <label>:17                                      ; preds = %0
  br label %18

; <label>:18                                      ; preds = %17, %0
  %19 = phi i1 [ false, %0 ], [ true, %17 ]       ; [#uses=1 type=i1]
  store i1 %19, i1* %isneg, align 1
  %20 = load %struct.ap_fixed_base.5** %2, align 8, !dbg !15528 ; [#uses=1 type=%struct.ap_fixed_base.5*] [debug line = 679:13]
  %21 = bitcast %struct.ap_fixed_base.5* %20 to %struct.ssdm_int.6*, !dbg !15528 ; [#uses=1 type=%struct.ssdm_int.6*] [debug line = 679:13]
  %22 = getelementptr inbounds %struct.ssdm_int.6* %21, i32 0, i32 0, !dbg !15528 ; [#uses=1 type=i56*] [debug line = 679:13]
  %23 = load i56* %22, align 8, !dbg !15528       ; [#uses=1 type=i56] [debug line = 679:13]
  %24 = sext i56 %23 to i57, !dbg !15528          ; [#uses=1 type=i57] [debug line = 679:13]
  %25 = bitcast %struct.ap_fixed_base.3* %3 to %struct.ssdm_int.4*, !dbg !15528 ; [#uses=1 type=%struct.ssdm_int.4*] [debug line = 679:13]
  %26 = getelementptr inbounds %struct.ssdm_int.4* %25, i32 0, i32 0, !dbg !15528 ; [#uses=1 type=i57*] [debug line = 679:13]
  store i57 %24, i57* %26, align 8, !dbg !15528   ; [debug line = 679:13]
  ret void, !dbg !15529                           ; [debug line = 773:5]
}

; [#uses=3]
define internal void @_ZN8ssdm_intILi57ELb1EEC2Ev(%struct.ssdm_int.4* %this) unnamed_addr nounwind uwtable inlinehint alwaysinline align 2 {
  %1 = alloca %struct.ssdm_int.4*, align 8        ; [#uses=2 type=%struct.ssdm_int.4**]
  store %struct.ssdm_int.4* %this, %struct.ssdm_int.4** %1, align 8
  call void @llvm.dbg.declare(metadata !{%struct.ssdm_int.4** %1}, metadata !15530), !dbg !15532 ; [debug line = 59:137] [debug variable = this]
  %2 = load %struct.ssdm_int.4** %1               ; [#uses=0 type=%struct.ssdm_int.4*]
  ret void, !dbg !15533                           ; [debug line = 59:171]
}

; [#uses=1]
declare i56 @llvm.part.select.i56(i56, i32, i32) nounwind readnone

; [#uses=1]
define internal void @_ZN13ap_fixed_baseILi57ELi27ELb1EL9ap_q_mode5EL9ap_o_mode3ELi0EEC2ILi19ELi4ELb1ELS0_5ELS1_3ELi0EEERKS_IXT_EXT0_EXT1_EXT2_EXT3_EXT4_EE(%struct.ap_fixed_base.3* %this, %struct.ap_fixed_base* %op) unnamed_addr nounwind uwtable align 2 {
  %1 = alloca %struct.ap_fixed_base.3*, align 8   ; [#uses=2 type=%struct.ap_fixed_base.3**]
  %2 = alloca %struct.ap_fixed_base*, align 8     ; [#uses=3 type=%struct.ap_fixed_base**]
  %carry = alloca i1, align 1                     ; [#uses=1 type=i1*]
  %sh_amt = alloca i32, align 4                   ; [#uses=3 type=i32*]
  %signbit = alloca i1, align 1                   ; [#uses=2 type=i1*]
  %__Result__ = alloca i19, align 4               ; [#uses=4 type=i19*]
  %__Val2__ = alloca i19, align 4                 ; [#uses=3 type=i19*]
  %isneg = alloca i1, align 1                     ; [#uses=1 type=i1*]
  store %struct.ap_fixed_base.3* %this, %struct.ap_fixed_base.3** %1, align 8
  call void @llvm.dbg.declare(metadata !{%struct.ap_fixed_base.3** %1}, metadata !15535), !dbg !15536 ; [debug line = 663:13] [debug variable = this]
  store %struct.ap_fixed_base* %op, %struct.ap_fixed_base** %2, align 8
  call void @llvm.dbg.declare(metadata !{%struct.ap_fixed_base** %2}, metadata !15537), !dbg !15538 ; [debug line = 663:93] [debug variable = op]
  %3 = load %struct.ap_fixed_base.3** %1          ; [#uses=5 type=%struct.ap_fixed_base.3*]
  %4 = bitcast %struct.ap_fixed_base.3* %3 to %struct.ssdm_int.4*, !dbg !15539 ; [#uses=1 type=%struct.ssdm_int.4*] [debug line = 663:97]
  call void @_ZN8ssdm_intILi57ELb1EEC2Ev(%struct.ssdm_int.4* %4), !dbg !15539 ; [debug line = 663:97]
  call void (...)* @_ssdm_InlineSelf(i32 0, i8* getelementptr inbounds ([1 x i8]* @.str2, i32 0, i32 0)) nounwind, !dbg !15540 ; [debug line = 665:1]
  call void @llvm.dbg.declare(metadata !{i1* %carry}, metadata !15542), !dbg !15543 ; [debug line = 669:14] [debug variable = carry]
  store i1 false, i1* %carry, align 1, !dbg !15544 ; [debug line = 669:27]
  call void @llvm.dbg.declare(metadata !{i32* %sh_amt}, metadata !15545), !dbg !15546 ; [debug line = 674:18] [debug variable = sh_amt]
  store i32 15, i32* %sh_amt, align 4, !dbg !15547 ; [debug line = 674:65]
  call void @llvm.dbg.declare(metadata !{i1* %signbit}, metadata !15548), !dbg !15549 ; [debug line = 675:14] [debug variable = signbit]
  call void @llvm.dbg.declare(metadata !{i19* %__Result__}, metadata !15550), !dbg !15552 ; [debug line = 675:120] [debug variable = __Result__]
  store i19 0, i19* %__Result__, align 4, !dbg !15553 ; [debug line = 675:134]
  call void @llvm.dbg.declare(metadata !{i19* %__Val2__}, metadata !15554), !dbg !15555 ; [debug line = 675:229] [debug variable = __Val2__]
  %5 = load %struct.ap_fixed_base** %2, align 8, !dbg !15556 ; [#uses=1 type=%struct.ap_fixed_base*] [debug line = 675:0]
  %6 = bitcast %struct.ap_fixed_base* %5 to %struct.ssdm_int*, !dbg !15556 ; [#uses=1 type=%struct.ssdm_int*] [debug line = 675:0]
  %7 = getelementptr inbounds %struct.ssdm_int* %6, i32 0, i32 0, !dbg !15556 ; [#uses=1 type=i19*] [debug line = 675:0]
  %8 = load i19* %7, align 4, !dbg !15556         ; [#uses=1 type=i19] [debug line = 675:0]
  store i19 %8, i19* %__Val2__, align 4, !dbg !15556 ; [debug line = 675:0]
  %9 = bitcast i19* %__Result__ to i8*, !dbg !15556 ; [#uses=0 type=i8*] [debug line = 675:0]
  %10 = bitcast i19* %__Val2__ to i8*, !dbg !15556 ; [#uses=0 type=i8*] [debug line = 675:0]
  %11 = load i19* %__Val2__, !dbg !15556          ; [#uses=1 type=i19] [debug line = 675:0]
  %12 = call i19 @llvm.part.select.i19(i19 %11, i32 18, i32 18), !dbg !15556 ; [#uses=1 type=i19] [debug line = 675:0]
  store i19 %12, i19* %__Result__, !dbg !15556    ; [debug line = 675:0]
  %13 = load i19* %__Result__, align 4, !dbg !15556 ; [#uses=1 type=i19] [debug line = 675:0]
  %14 = sext i19 %13 to i32, !dbg !15556          ; [#uses=1 type=i32] [debug line = 675:0]
  %15 = and i32 %14, 1, !dbg !15556               ; [#uses=1 type=i32] [debug line = 675:0]
  %16 = icmp ne i32 %15, 0, !dbg !15556           ; [#uses=1 type=i1] [debug line = 675:0]
  store i1 %16, i1* %signbit, align 1, !dbg !15556 ; [debug line = 675:0]
  call void @llvm.dbg.declare(metadata !{i1* %isneg}, metadata !15557), !dbg !15558 ; [debug line = 677:14] [debug variable = isneg]
  %17 = load i1* %signbit, align 1, !dbg !15559   ; [#uses=1 type=i1] [debug line = 677:39]
  br i1 %17, label %18, label %19, !dbg !15559    ; [debug line = 677:39]

; <label>:18                                      ; preds = %0
  br label %19

; <label>:19                                      ; preds = %18, %0
  %20 = phi i1 [ false, %0 ], [ true, %18 ]       ; [#uses=1 type=i1]
  store i1 %20, i1* %isneg, align 1
  %21 = load %struct.ap_fixed_base** %2, align 8, !dbg !15560 ; [#uses=1 type=%struct.ap_fixed_base*] [debug line = 701:13]
  %22 = bitcast %struct.ap_fixed_base* %21 to %struct.ssdm_int*, !dbg !15560 ; [#uses=1 type=%struct.ssdm_int*] [debug line = 701:13]
  %23 = getelementptr inbounds %struct.ssdm_int* %22, i32 0, i32 0, !dbg !15560 ; [#uses=1 type=i19*] [debug line = 701:13]
  %24 = load i19* %23, align 4, !dbg !15560       ; [#uses=1 type=i19] [debug line = 701:13]
  %25 = sext i19 %24 to i57, !dbg !15560          ; [#uses=1 type=i57] [debug line = 701:13]
  %26 = bitcast %struct.ap_fixed_base.3* %3 to %struct.ssdm_int.4*, !dbg !15560 ; [#uses=1 type=%struct.ssdm_int.4*] [debug line = 701:13]
  %27 = getelementptr inbounds %struct.ssdm_int.4* %26, i32 0, i32 0, !dbg !15560 ; [#uses=1 type=i57*] [debug line = 701:13]
  store i57 %25, i57* %27, align 8, !dbg !15560   ; [debug line = 701:13]
  %28 = load i32* %sh_amt, align 4, !dbg !15562   ; [#uses=1 type=i32] [debug line = 702:13]
  %29 = icmp ult i32 %28, 57, !dbg !15562         ; [#uses=1 type=i1] [debug line = 702:13]
  br i1 %29, label %30, label %39, !dbg !15562    ; [debug line = 702:13]

; <label>:30                                      ; preds = %19
  %31 = bitcast %struct.ap_fixed_base.3* %3 to %struct.ssdm_int.4*, !dbg !15563 ; [#uses=1 type=%struct.ssdm_int.4*] [debug line = 703:17]
  %32 = getelementptr inbounds %struct.ssdm_int.4* %31, i32 0, i32 0, !dbg !15563 ; [#uses=1 type=i57*] [debug line = 703:17]
  %33 = load i57* %32, align 8, !dbg !15563       ; [#uses=1 type=i57] [debug line = 703:17]
  %34 = load i32* %sh_amt, align 4, !dbg !15563   ; [#uses=1 type=i32] [debug line = 703:17]
  %35 = zext i32 %34 to i57, !dbg !15563          ; [#uses=1 type=i57] [debug line = 703:17]
  %36 = shl i57 %33, %35, !dbg !15563             ; [#uses=1 type=i57] [debug line = 703:17]
  %37 = bitcast %struct.ap_fixed_base.3* %3 to %struct.ssdm_int.4*, !dbg !15563 ; [#uses=1 type=%struct.ssdm_int.4*] [debug line = 703:17]
  %38 = getelementptr inbounds %struct.ssdm_int.4* %37, i32 0, i32 0, !dbg !15563 ; [#uses=1 type=i57*] [debug line = 703:17]
  store i57 %36, i57* %38, align 8, !dbg !15563   ; [debug line = 703:17]
  br label %42, !dbg !15563                       ; [debug line = 703:17]

; <label>:39                                      ; preds = %19
  %40 = bitcast %struct.ap_fixed_base.3* %3 to %struct.ssdm_int.4*, !dbg !15564 ; [#uses=1 type=%struct.ssdm_int.4*] [debug line = 705:17]
  %41 = getelementptr inbounds %struct.ssdm_int.4* %40, i32 0, i32 0, !dbg !15564 ; [#uses=1 type=i57*] [debug line = 705:17]
  store i57 0, i57* %41, align 8, !dbg !15564     ; [debug line = 705:17]
  br label %42

; <label>:42                                      ; preds = %39, %30
  ret void, !dbg !15565                           ; [debug line = 773:5]
}

; [#uses=1]
define internal void @_ZN13ap_fixed_baseILi57ELi27ELb1EL9ap_q_mode5EL9ap_o_mode3ELi0EEC2Ev(%struct.ap_fixed_base.3* %this) unnamed_addr nounwind uwtable inlinehint alwaysinline align 2 {
  %1 = alloca %struct.ap_fixed_base.3*, align 8   ; [#uses=2 type=%struct.ap_fixed_base.3**]
  store %struct.ap_fixed_base.3* %this, %struct.ap_fixed_base.3** %1, align 8
  call void @llvm.dbg.declare(metadata !{%struct.ap_fixed_base.3** %1}, metadata !15566), !dbg !15567 ; [debug line = 653:43] [debug variable = this]
  %2 = load %struct.ap_fixed_base.3** %1          ; [#uses=1 type=%struct.ap_fixed_base.3*]
  %3 = bitcast %struct.ap_fixed_base.3* %2 to %struct.ssdm_int.4*, !dbg !15568 ; [#uses=1 type=%struct.ssdm_int.4*] [debug line = 653:59]
  call void @_ZN8ssdm_intILi57ELb1EEC2Ev(%struct.ssdm_int.4* %3), !dbg !15568 ; [debug line = 653:59]
  ret void, !dbg !15569                           ; [debug line = 660:5]
}

; [#uses=1]
define internal void @_ZN13ap_fixed_baseILi56ELi26ELb1EL9ap_q_mode5EL9ap_o_mode3ELi0EEC1Ev(%struct.ap_fixed_base.5* %this) unnamed_addr nounwind uwtable inlinehint alwaysinline align 2 {
  %1 = alloca %struct.ap_fixed_base.5*, align 8   ; [#uses=2 type=%struct.ap_fixed_base.5**]
  store %struct.ap_fixed_base.5* %this, %struct.ap_fixed_base.5** %1, align 8
  call void @llvm.dbg.declare(metadata !{%struct.ap_fixed_base.5** %1}, metadata !15571), !dbg !15573 ; [debug line = 653:43] [debug variable = this]
  %2 = load %struct.ap_fixed_base.5** %1          ; [#uses=1 type=%struct.ap_fixed_base.5*]
  call void @_ZN13ap_fixed_baseILi56ELi26ELb1EL9ap_q_mode5EL9ap_o_mode3ELi0EEC2Ev(%struct.ap_fixed_base.5* %2), !dbg !15574 ; [debug line = 660:5]
  ret void, !dbg !15574                           ; [debug line = 660:5]
}

; [#uses=1]
define internal void @_ZN13ap_fixed_baseILi55ELi10ELb1EL9ap_q_mode5EL9ap_o_mode3ELi0EEC1ILi40ELi10ELb1ELS0_5ELS1_3ELi0EEERKS_IXT_EXT0_EXT1_EXT2_EXT3_EXT4_EE(%struct.ap_fixed_base.22* %this, %struct.ap_fixed_base.11* %op) unnamed_addr nounwind uwtable align 2 {
  %1 = alloca %struct.ap_fixed_base.22*, align 8  ; [#uses=2 type=%struct.ap_fixed_base.22**]
  %2 = alloca %struct.ap_fixed_base.11*, align 8  ; [#uses=2 type=%struct.ap_fixed_base.11**]
  store %struct.ap_fixed_base.22* %this, %struct.ap_fixed_base.22** %1, align 8
  call void @llvm.dbg.declare(metadata !{%struct.ap_fixed_base.22** %1}, metadata !15575), !dbg !15577 ; [debug line = 663:13] [debug variable = this]
  store %struct.ap_fixed_base.11* %op, %struct.ap_fixed_base.11** %2, align 8
  call void @llvm.dbg.declare(metadata !{%struct.ap_fixed_base.11** %2}, metadata !15578), !dbg !15579 ; [debug line = 663:93] [debug variable = op]
  %3 = load %struct.ap_fixed_base.22** %1         ; [#uses=1 type=%struct.ap_fixed_base.22*]
  %4 = load %struct.ap_fixed_base.11** %2, !dbg !15580 ; [#uses=1 type=%struct.ap_fixed_base.11*] [debug line = 773:5]
  call void @_ZN13ap_fixed_baseILi55ELi10ELb1EL9ap_q_mode5EL9ap_o_mode3ELi0EEC2ILi40ELi10ELb1ELS0_5ELS1_3ELi0EEERKS_IXT_EXT0_EXT1_EXT2_EXT3_EXT4_EE(%struct.ap_fixed_base.22* %3, %struct.ap_fixed_base.11* %4), !dbg !15580 ; [debug line = 773:5]
  ret void, !dbg !15580                           ; [debug line = 773:5]
}

; [#uses=1]
define internal void @_ZN13ap_fixed_baseILi55ELi10ELb1EL9ap_q_mode5EL9ap_o_mode3ELi0EEC2ILi40ELi10ELb1ELS0_5ELS1_3ELi0EEERKS_IXT_EXT0_EXT1_EXT2_EXT3_EXT4_EE(%struct.ap_fixed_base.22* %this, %struct.ap_fixed_base.11* %op) unnamed_addr nounwind uwtable align 2 {
  %1 = alloca %struct.ap_fixed_base.22*, align 8  ; [#uses=2 type=%struct.ap_fixed_base.22**]
  %2 = alloca %struct.ap_fixed_base.11*, align 8  ; [#uses=3 type=%struct.ap_fixed_base.11**]
  %carry = alloca i1, align 1                     ; [#uses=1 type=i1*]
  %sh_amt = alloca i32, align 4                   ; [#uses=3 type=i32*]
  %signbit = alloca i1, align 1                   ; [#uses=2 type=i1*]
  %__Result__ = alloca i40, align 8               ; [#uses=4 type=i40*]
  %__Val2__ = alloca i40, align 8                 ; [#uses=3 type=i40*]
  %isneg = alloca i1, align 1                     ; [#uses=1 type=i1*]
  store %struct.ap_fixed_base.22* %this, %struct.ap_fixed_base.22** %1, align 8
  call void @llvm.dbg.declare(metadata !{%struct.ap_fixed_base.22** %1}, metadata !15581), !dbg !15582 ; [debug line = 663:13] [debug variable = this]
  store %struct.ap_fixed_base.11* %op, %struct.ap_fixed_base.11** %2, align 8
  call void @llvm.dbg.declare(metadata !{%struct.ap_fixed_base.11** %2}, metadata !15583), !dbg !15584 ; [debug line = 663:93] [debug variable = op]
  %3 = load %struct.ap_fixed_base.22** %1         ; [#uses=5 type=%struct.ap_fixed_base.22*]
  %4 = bitcast %struct.ap_fixed_base.22* %3 to %struct.ssdm_int.21*, !dbg !15585 ; [#uses=1 type=%struct.ssdm_int.21*] [debug line = 663:97]
  call void @_ZN8ssdm_intILi55ELb1EEC2Ev(%struct.ssdm_int.21* %4), !dbg !15585 ; [debug line = 663:97]
  call void (...)* @_ssdm_InlineSelf(i32 0, i8* getelementptr inbounds ([1 x i8]* @.str2, i32 0, i32 0)) nounwind, !dbg !15586 ; [debug line = 665:1]
  call void @llvm.dbg.declare(metadata !{i1* %carry}, metadata !15588), !dbg !15589 ; [debug line = 669:14] [debug variable = carry]
  store i1 false, i1* %carry, align 1, !dbg !15590 ; [debug line = 669:27]
  call void @llvm.dbg.declare(metadata !{i32* %sh_amt}, metadata !15591), !dbg !15592 ; [debug line = 674:18] [debug variable = sh_amt]
  store i32 15, i32* %sh_amt, align 4, !dbg !15593 ; [debug line = 674:65]
  call void @llvm.dbg.declare(metadata !{i1* %signbit}, metadata !15594), !dbg !15595 ; [debug line = 675:14] [debug variable = signbit]
  call void @llvm.dbg.declare(metadata !{i40* %__Result__}, metadata !15596), !dbg !15598 ; [debug line = 675:120] [debug variable = __Result__]
  store i40 0, i40* %__Result__, align 8, !dbg !15599 ; [debug line = 675:134]
  call void @llvm.dbg.declare(metadata !{i40* %__Val2__}, metadata !15600), !dbg !15601 ; [debug line = 675:229] [debug variable = __Val2__]
  %5 = load %struct.ap_fixed_base.11** %2, align 8, !dbg !15602 ; [#uses=1 type=%struct.ap_fixed_base.11*] [debug line = 675:0]
  %6 = bitcast %struct.ap_fixed_base.11* %5 to %struct.ssdm_int.12*, !dbg !15602 ; [#uses=1 type=%struct.ssdm_int.12*] [debug line = 675:0]
  %7 = getelementptr inbounds %struct.ssdm_int.12* %6, i32 0, i32 0, !dbg !15602 ; [#uses=1 type=i40*] [debug line = 675:0]
  %8 = load i40* %7, align 8, !dbg !15602         ; [#uses=1 type=i40] [debug line = 675:0]
  store i40 %8, i40* %__Val2__, align 8, !dbg !15602 ; [debug line = 675:0]
  %9 = bitcast i40* %__Result__ to i8*, !dbg !15602 ; [#uses=0 type=i8*] [debug line = 675:0]
  %10 = bitcast i40* %__Val2__ to i8*, !dbg !15602 ; [#uses=0 type=i8*] [debug line = 675:0]
  %11 = load i40* %__Val2__, !dbg !15602          ; [#uses=1 type=i40] [debug line = 675:0]
  %12 = call i40 @llvm.part.select.i40(i40 %11, i32 39, i32 39), !dbg !15602 ; [#uses=1 type=i40] [debug line = 675:0]
  store i40 %12, i40* %__Result__, !dbg !15602    ; [debug line = 675:0]
  %13 = load i40* %__Result__, align 8, !dbg !15602 ; [#uses=1 type=i40] [debug line = 675:0]
  %14 = and i40 %13, 1, !dbg !15602               ; [#uses=1 type=i40] [debug line = 675:0]
  %15 = icmp ne i40 %14, 0, !dbg !15602           ; [#uses=1 type=i1] [debug line = 675:0]
  store i1 %15, i1* %signbit, align 1, !dbg !15602 ; [debug line = 675:0]
  call void @llvm.dbg.declare(metadata !{i1* %isneg}, metadata !15603), !dbg !15604 ; [debug line = 677:14] [debug variable = isneg]
  %16 = load i1* %signbit, align 1, !dbg !15605   ; [#uses=1 type=i1] [debug line = 677:39]
  br i1 %16, label %17, label %18, !dbg !15605    ; [debug line = 677:39]

; <label>:17                                      ; preds = %0
  br label %18

; <label>:18                                      ; preds = %17, %0
  %19 = phi i1 [ false, %0 ], [ true, %17 ]       ; [#uses=1 type=i1]
  store i1 %19, i1* %isneg, align 1
  %20 = load %struct.ap_fixed_base.11** %2, align 8, !dbg !15606 ; [#uses=1 type=%struct.ap_fixed_base.11*] [debug line = 701:13]
  %21 = bitcast %struct.ap_fixed_base.11* %20 to %struct.ssdm_int.12*, !dbg !15606 ; [#uses=1 type=%struct.ssdm_int.12*] [debug line = 701:13]
  %22 = getelementptr inbounds %struct.ssdm_int.12* %21, i32 0, i32 0, !dbg !15606 ; [#uses=1 type=i40*] [debug line = 701:13]
  %23 = load i40* %22, align 8, !dbg !15606       ; [#uses=1 type=i40] [debug line = 701:13]
  %24 = sext i40 %23 to i55, !dbg !15606          ; [#uses=1 type=i55] [debug line = 701:13]
  %25 = bitcast %struct.ap_fixed_base.22* %3 to %struct.ssdm_int.21*, !dbg !15606 ; [#uses=1 type=%struct.ssdm_int.21*] [debug line = 701:13]
  %26 = getelementptr inbounds %struct.ssdm_int.21* %25, i32 0, i32 0, !dbg !15606 ; [#uses=1 type=i55*] [debug line = 701:13]
  store i55 %24, i55* %26, align 8, !dbg !15606   ; [debug line = 701:13]
  %27 = load i32* %sh_amt, align 4, !dbg !15608   ; [#uses=1 type=i32] [debug line = 702:13]
  %28 = icmp ult i32 %27, 55, !dbg !15608         ; [#uses=1 type=i1] [debug line = 702:13]
  br i1 %28, label %29, label %38, !dbg !15608    ; [debug line = 702:13]

; <label>:29                                      ; preds = %18
  %30 = bitcast %struct.ap_fixed_base.22* %3 to %struct.ssdm_int.21*, !dbg !15609 ; [#uses=1 type=%struct.ssdm_int.21*] [debug line = 703:17]
  %31 = getelementptr inbounds %struct.ssdm_int.21* %30, i32 0, i32 0, !dbg !15609 ; [#uses=1 type=i55*] [debug line = 703:17]
  %32 = load i55* %31, align 8, !dbg !15609       ; [#uses=1 type=i55] [debug line = 703:17]
  %33 = load i32* %sh_amt, align 4, !dbg !15609   ; [#uses=1 type=i32] [debug line = 703:17]
  %34 = zext i32 %33 to i55, !dbg !15609          ; [#uses=1 type=i55] [debug line = 703:17]
  %35 = shl i55 %32, %34, !dbg !15609             ; [#uses=1 type=i55] [debug line = 703:17]
  %36 = bitcast %struct.ap_fixed_base.22* %3 to %struct.ssdm_int.21*, !dbg !15609 ; [#uses=1 type=%struct.ssdm_int.21*] [debug line = 703:17]
  %37 = getelementptr inbounds %struct.ssdm_int.21* %36, i32 0, i32 0, !dbg !15609 ; [#uses=1 type=i55*] [debug line = 703:17]
  store i55 %35, i55* %37, align 8, !dbg !15609   ; [debug line = 703:17]
  br label %41, !dbg !15609                       ; [debug line = 703:17]

; <label>:38                                      ; preds = %18
  %39 = bitcast %struct.ap_fixed_base.22* %3 to %struct.ssdm_int.21*, !dbg !15610 ; [#uses=1 type=%struct.ssdm_int.21*] [debug line = 705:17]
  %40 = getelementptr inbounds %struct.ssdm_int.21* %39, i32 0, i32 0, !dbg !15610 ; [#uses=1 type=i55*] [debug line = 705:17]
  store i55 0, i55* %40, align 8, !dbg !15610     ; [debug line = 705:17]
  br label %41

; <label>:41                                      ; preds = %38, %29
  ret void, !dbg !15611                           ; [debug line = 773:5]
}

; [#uses=1]
declare i40 @llvm.part.select.i40(i40, i32, i32) nounwind readnone

; [#uses=1]
define internal void @_ZN13ap_fixed_baseILi56ELi26ELb1EL9ap_q_mode5EL9ap_o_mode3ELi0EEC2Ev(%struct.ap_fixed_base.5* %this) unnamed_addr nounwind uwtable inlinehint alwaysinline align 2 {
  %1 = alloca %struct.ap_fixed_base.5*, align 8   ; [#uses=2 type=%struct.ap_fixed_base.5**]
  store %struct.ap_fixed_base.5* %this, %struct.ap_fixed_base.5** %1, align 8
  call void @llvm.dbg.declare(metadata !{%struct.ap_fixed_base.5** %1}, metadata !15612), !dbg !15613 ; [debug line = 653:43] [debug variable = this]
  %2 = load %struct.ap_fixed_base.5** %1          ; [#uses=1 type=%struct.ap_fixed_base.5*]
  %3 = bitcast %struct.ap_fixed_base.5* %2 to %struct.ssdm_int.6*, !dbg !15614 ; [#uses=1 type=%struct.ssdm_int.6*] [debug line = 653:59]
  call void @_ZN8ssdm_intILi56ELb1EEC2Ev(%struct.ssdm_int.6* %3), !dbg !15614 ; [debug line = 653:59]
  ret void, !dbg !15615                           ; [debug line = 660:5]
}

; [#uses=1]
define internal void @_ZN8ssdm_intILi56ELb1EEC2Ev(%struct.ssdm_int.6* %this) unnamed_addr nounwind uwtable inlinehint alwaysinline align 2 {
  %1 = alloca %struct.ssdm_int.6*, align 8        ; [#uses=2 type=%struct.ssdm_int.6**]
  store %struct.ssdm_int.6* %this, %struct.ssdm_int.6** %1, align 8
  call void @llvm.dbg.declare(metadata !{%struct.ssdm_int.6** %1}, metadata !15617), !dbg !15619 ; [debug line = 58:137] [debug variable = this]
  %2 = load %struct.ssdm_int.6** %1               ; [#uses=0 type=%struct.ssdm_int.6*]
  ret void, !dbg !15620                           ; [debug line = 58:171]
}

; [#uses=1]
define internal void @_ZN13ap_fixed_baseILi40ELi10ELb1EL9ap_q_mode5EL9ap_o_mode3ELi0EEC1Ev(%struct.ap_fixed_base.11* %this) unnamed_addr nounwind uwtable inlinehint alwaysinline align 2 {
  %1 = alloca %struct.ap_fixed_base.11*, align 8  ; [#uses=2 type=%struct.ap_fixed_base.11**]
  store %struct.ap_fixed_base.11* %this, %struct.ap_fixed_base.11** %1, align 8
  call void @llvm.dbg.declare(metadata !{%struct.ap_fixed_base.11** %1}, metadata !15622), !dbg !15624 ; [debug line = 653:43] [debug variable = this]
  %2 = load %struct.ap_fixed_base.11** %1         ; [#uses=1 type=%struct.ap_fixed_base.11*]
  call void @_ZN13ap_fixed_baseILi40ELi10ELb1EL9ap_q_mode5EL9ap_o_mode3ELi0EEC2Ev(%struct.ap_fixed_base.11* %2), !dbg !15625 ; [debug line = 660:5]
  ret void, !dbg !15625                           ; [debug line = 660:5]
}

; [#uses=1]
define internal void @_ZN13ap_fixed_baseILi40ELi10ELb1EL9ap_q_mode5EL9ap_o_mode3ELi0EEC1ILi39ELi9ELb1ELS0_5ELS1_3ELi0EEERKS_IXT_EXT0_EXT1_EXT2_EXT3_EXT4_EE(%struct.ap_fixed_base.11* %this, %struct.ap_fixed_base.9.26* %op) unnamed_addr nounwind uwtable align 2 {
  %1 = alloca %struct.ap_fixed_base.11*, align 8  ; [#uses=2 type=%struct.ap_fixed_base.11**]
  %2 = alloca %struct.ap_fixed_base.9.26*, align 8 ; [#uses=2 type=%struct.ap_fixed_base.9.26**]
  store %struct.ap_fixed_base.11* %this, %struct.ap_fixed_base.11** %1, align 8
  call void @llvm.dbg.declare(metadata !{%struct.ap_fixed_base.11** %1}, metadata !15626), !dbg !15627 ; [debug line = 663:13] [debug variable = this]
  store %struct.ap_fixed_base.9.26* %op, %struct.ap_fixed_base.9.26** %2, align 8
  call void @llvm.dbg.declare(metadata !{%struct.ap_fixed_base.9.26** %2}, metadata !15628), !dbg !15629 ; [debug line = 663:93] [debug variable = op]
  %3 = load %struct.ap_fixed_base.11** %1         ; [#uses=1 type=%struct.ap_fixed_base.11*]
  %4 = load %struct.ap_fixed_base.9.26** %2, !dbg !15630 ; [#uses=1 type=%struct.ap_fixed_base.9.26*] [debug line = 773:5]
  call void @_ZN13ap_fixed_baseILi40ELi10ELb1EL9ap_q_mode5EL9ap_o_mode3ELi0EEC2ILi39ELi9ELb1ELS0_5ELS1_3ELi0EEERKS_IXT_EXT0_EXT1_EXT2_EXT3_EXT4_EE(%struct.ap_fixed_base.11* %3, %struct.ap_fixed_base.9.26* %4), !dbg !15630 ; [debug line = 773:5]
  ret void, !dbg !15630                           ; [debug line = 773:5]
}

; [#uses=1]
define internal void @_ZN13ap_fixed_baseILi40ELi10ELb1EL9ap_q_mode5EL9ap_o_mode3ELi0EEC1ILi38ELi8ELb1ELS0_5ELS1_3ELi0EEERKS_IXT_EXT0_EXT1_EXT2_EXT3_EXT4_EE(%struct.ap_fixed_base.11* %this, %struct.ap_fixed_base.7* %op) unnamed_addr nounwind uwtable align 2 {
  %1 = alloca %struct.ap_fixed_base.11*, align 8  ; [#uses=2 type=%struct.ap_fixed_base.11**]
  %2 = alloca %struct.ap_fixed_base.7*, align 8   ; [#uses=2 type=%struct.ap_fixed_base.7**]
  store %struct.ap_fixed_base.11* %this, %struct.ap_fixed_base.11** %1, align 8
  call void @llvm.dbg.declare(metadata !{%struct.ap_fixed_base.11** %1}, metadata !15631), !dbg !15632 ; [debug line = 663:13] [debug variable = this]
  store %struct.ap_fixed_base.7* %op, %struct.ap_fixed_base.7** %2, align 8
  call void @llvm.dbg.declare(metadata !{%struct.ap_fixed_base.7** %2}, metadata !15633), !dbg !15634 ; [debug line = 663:93] [debug variable = op]
  %3 = load %struct.ap_fixed_base.11** %1         ; [#uses=1 type=%struct.ap_fixed_base.11*]
  %4 = load %struct.ap_fixed_base.7** %2, !dbg !15635 ; [#uses=1 type=%struct.ap_fixed_base.7*] [debug line = 773:5]
  call void @_ZN13ap_fixed_baseILi40ELi10ELb1EL9ap_q_mode5EL9ap_o_mode3ELi0EEC2ILi38ELi8ELb1ELS0_5ELS1_3ELi0EEERKS_IXT_EXT0_EXT1_EXT2_EXT3_EXT4_EE(%struct.ap_fixed_base.11* %3, %struct.ap_fixed_base.7* %4), !dbg !15635 ; [debug line = 773:5]
  ret void, !dbg !15635                           ; [debug line = 773:5]
}

; [#uses=1]
define internal void @_ZN13ap_fixed_baseILi40ELi10ELb1EL9ap_q_mode5EL9ap_o_mode3ELi0EEC2ILi38ELi8ELb1ELS0_5ELS1_3ELi0EEERKS_IXT_EXT0_EXT1_EXT2_EXT3_EXT4_EE(%struct.ap_fixed_base.11* %this, %struct.ap_fixed_base.7* %op) unnamed_addr nounwind uwtable align 2 {
  %1 = alloca %struct.ap_fixed_base.11*, align 8  ; [#uses=2 type=%struct.ap_fixed_base.11**]
  %2 = alloca %struct.ap_fixed_base.7*, align 8   ; [#uses=3 type=%struct.ap_fixed_base.7**]
  %carry = alloca i1, align 1                     ; [#uses=1 type=i1*]
  %sh_amt = alloca i32, align 4                   ; [#uses=1 type=i32*]
  %signbit = alloca i1, align 1                   ; [#uses=2 type=i1*]
  %__Result__ = alloca i38, align 8               ; [#uses=4 type=i38*]
  %__Val2__ = alloca i38, align 8                 ; [#uses=3 type=i38*]
  %isneg = alloca i1, align 1                     ; [#uses=1 type=i1*]
  store %struct.ap_fixed_base.11* %this, %struct.ap_fixed_base.11** %1, align 8
  call void @llvm.dbg.declare(metadata !{%struct.ap_fixed_base.11** %1}, metadata !15636), !dbg !15637 ; [debug line = 663:13] [debug variable = this]
  store %struct.ap_fixed_base.7* %op, %struct.ap_fixed_base.7** %2, align 8
  call void @llvm.dbg.declare(metadata !{%struct.ap_fixed_base.7** %2}, metadata !15638), !dbg !15639 ; [debug line = 663:93] [debug variable = op]
  %3 = load %struct.ap_fixed_base.11** %1         ; [#uses=2 type=%struct.ap_fixed_base.11*]
  %4 = bitcast %struct.ap_fixed_base.11* %3 to %struct.ssdm_int.12*, !dbg !15640 ; [#uses=1 type=%struct.ssdm_int.12*] [debug line = 663:97]
  call void @_ZN8ssdm_intILi40ELb1EEC2Ev(%struct.ssdm_int.12* %4), !dbg !15640 ; [debug line = 663:97]
  call void (...)* @_ssdm_InlineSelf(i32 0, i8* getelementptr inbounds ([1 x i8]* @.str2, i32 0, i32 0)) nounwind, !dbg !15641 ; [debug line = 665:1]
  call void @llvm.dbg.declare(metadata !{i1* %carry}, metadata !15643), !dbg !15644 ; [debug line = 669:14] [debug variable = carry]
  store i1 false, i1* %carry, align 1, !dbg !15645 ; [debug line = 669:27]
  call void @llvm.dbg.declare(metadata !{i32* %sh_amt}, metadata !15646), !dbg !15647 ; [debug line = 674:18] [debug variable = sh_amt]
  store i32 0, i32* %sh_amt, align 4, !dbg !15648 ; [debug line = 674:65]
  call void @llvm.dbg.declare(metadata !{i1* %signbit}, metadata !15649), !dbg !15650 ; [debug line = 675:14] [debug variable = signbit]
  call void @llvm.dbg.declare(metadata !{i38* %__Result__}, metadata !15651), !dbg !15653 ; [debug line = 675:120] [debug variable = __Result__]
  store i38 0, i38* %__Result__, align 8, !dbg !15654 ; [debug line = 675:134]
  call void @llvm.dbg.declare(metadata !{i38* %__Val2__}, metadata !15655), !dbg !15656 ; [debug line = 675:229] [debug variable = __Val2__]
  %5 = load %struct.ap_fixed_base.7** %2, align 8, !dbg !15657 ; [#uses=1 type=%struct.ap_fixed_base.7*] [debug line = 675:0]
  %6 = bitcast %struct.ap_fixed_base.7* %5 to %struct.ssdm_int.8*, !dbg !15657 ; [#uses=1 type=%struct.ssdm_int.8*] [debug line = 675:0]
