; ModuleID = '/home/brennan/Documents/pynq-copter/pynqcopter/ip/mixer/mixer/mixer/.autopilot/db/a.o.3.bc'
target datalayout = "e-p:64:64:64-i1:8:8-i8:8:8-i16:16:16-i32:32:32-i64:64:64-f32:32:32-f64:64:64-v64:64:64-v128:128:128-a0:0:64-s0:64:64-f80:128:128-n8:16:32:64-S128"
target triple = "x86_64-unknown-linux-gnu"

@mixer_str = internal unnamed_addr constant [6 x i8] c"mixer\00" ; [#uses=1 type=[6 x i8]*]
@llvm_global_ctors_1 = appending global [2 x void ()*] [void ()* @_GLOBAL__I_a, void ()* @_GLOBAL__I_a15] ; [#uses=0 type=[2 x void ()*]*]
@llvm_global_ctors_0 = appending global [2 x i32] [i32 65535, i32 65535] ; [#uses=0 type=[2 x i32]*]
@RAM_1P_str = internal unnamed_addr constant [7 x i8] c"RAM_1P\00" ; [#uses=1 type=[7 x i8]*]
@p_str5 = internal unnamed_addr constant [1 x i8] zeroinitializer ; [#uses=7 type=[1 x i8]*]
@p_str4 = private unnamed_addr constant [11 x i8] c"0x40000000\00", align 1 ; [#uses=1 type=[11 x i8]*]
@p_str3 = private unnamed_addr constant [6 x i8] c"m_axi\00", align 1 ; [#uses=1 type=[6 x i8]*]
@p_str2 = private unnamed_addr constant [1 x i8] zeroinitializer, align 1 ; [#uses=18 type=[1 x i8]*]
@p_str = private unnamed_addr constant [10 x i8] c"s_axilite\00", align 1 ; [#uses=2 type=[10 x i8]*]

; [#uses=0]
define void @mixer([4 x i32]* %regs_in_V, i32* %m_V) {
  call void (...)* @_ssdm_op_SpecBitsMap([4 x i32]* %regs_in_V), !map !90
  call void (...)* @_ssdm_op_SpecBitsMap(i32* %m_V), !map !96
  %regs_in_V_addr = getelementptr [4 x i32]* %regs_in_V, i64 0, i64 0 ; [#uses=1 type=i32*]
  call void (...)* @_ssdm_op_SpecTopModule([6 x i8]* @mixer_str) nounwind
  call void @llvm.dbg.value(metadata !{[4 x i32]* %regs_in_V}, i64 0, metadata !102), !dbg !1070 ; [debug line = 76:16] [debug variable = regs_in.V]
  call void @llvm.dbg.value(metadata !{i32* %m_V}, i64 0, metadata !1071), !dbg !1076 ; [debug line = 76:31] [debug variable = m.V]
  call void (...)* @_ssdm_op_SpecInterface(i32 0, [10 x i8]* @p_str, i32 0, i32 0, [1 x i8]* @p_str2, i32 0, i32 0, [1 x i8]* @p_str2, [1 x i8]* @p_str2, [1 x i8]* @p_str2, i32 0, i32 0, i32 0, i32 0, [1 x i8]* @p_str2, [1 x i8]* @p_str2) nounwind, !dbg !1077 ; [debug line = 77:1]
  %empty = call i32 (...)* @_ssdm_op_SpecMemCore([4 x i32]* %regs_in_V, [1 x i8]* @p_str5, [7 x i8]* @RAM_1P_str, [1 x i8]* @p_str5, i32 -1, [1 x i8]* @p_str5, [1 x i8]* @p_str5, [1 x i8]* @p_str5, [1 x i8]* @p_str5, [1 x i8]* @p_str5) ; [#uses=0 type=i32]
  call void (...)* @_ssdm_op_SpecInterface([4 x i32]* %regs_in_V, [10 x i8]* @p_str, i32 0, i32 0, [1 x i8]* @p_str2, i32 0, i32 0, [1 x i8]* @p_str2, [1 x i8]* @p_str2, [1 x i8]* @p_str2, i32 0, i32 0, i32 0, i32 0, [1 x i8]* @p_str2, [1 x i8]* @p_str2) nounwind
  call void (...)* @_ssdm_op_SpecInterface(i32* %m_V, [6 x i8]* @p_str3, i32 0, i32 0, [1 x i8]* @p_str2, i32 0, i32 0, [1 x i8]* @p_str2, [11 x i8]* @p_str4, [1 x i8]* @p_str2, i32 16, i32 16, i32 16, i32 16, [1 x i8]* @p_str2, [1 x i8]* @p_str2)
  call void (...)* @_ssdm_op_SpecPipeline(i32 -1, i32 1, i32 1, i32 0, [1 x i8]* @p_str2) nounwind, !dbg !1079 ; [debug line = 80:1]
  call void @llvm.dbg.value(metadata !{[4 x i32]* %regs_in_V}, i64 0, metadata !1080), !dbg !1461 ; [debug line = 306:14@82:23] [debug variable = op.V]
  call void @llvm.dbg.value(metadata !{[4 x i32]* %regs_in_V}, i64 0, metadata !1463), !dbg !1466 ; [debug line = 306:14@307:47@82:23] [debug variable = op.V]
  %p_Val2_s = load i32* %regs_in_V_addr, align 4, !dbg !1468 ; [#uses=1 type=i32] [debug line = 307:46@307:47@82:23]
  call void @llvm.dbg.value(metadata !{i32 %p_Val2_s}, i64 0, metadata !1469) nounwind, !dbg !1475 ; [debug line = 675:0@307:46@307:47@82:23] [debug variable = __Val2__]
  %tmp = call i29 @_ssdm_op_PartSelect.i29.i32.i32.i32(i32 %p_Val2_s, i32 3, i32 31), !dbg !1476 ; [#uses=3 type=i29] [debug line = 682:17@307:46@307:47@82:23]
  %r_c_V_cast = zext i29 %tmp to i30, !dbg !1476  ; [#uses=1 type=i30] [debug line = 682:17@307:46@307:47@82:23]
  %regs_in_V_addr_1 = getelementptr [4 x i32]* %regs_in_V, i64 0, i64 1, !dbg !1478 ; [#uses=1 type=i32*] [debug line = 307:46@307:47@83:23]
  %p_Val2_1 = load i32* %regs_in_V_addr_1, align 4, !dbg !1478 ; [#uses=1 type=i32] [debug line = 307:46@307:47@83:23]
  call void @llvm.dbg.value(metadata !{i32 %p_Val2_1}, i64 0, metadata !1481) nounwind, !dbg !1482 ; [debug line = 675:0@307:46@307:47@83:23] [debug variable = __Val2__]
  %p_c_V = call i29 @_ssdm_op_PartSelect.i29.i32.i32.i32(i32 %p_Val2_1, i32 3, i32 31), !dbg !1483 ; [#uses=2 type=i29] [debug line = 682:17@307:46@307:47@83:23]
  %regs_in_V_addr_2 = getelementptr [4 x i32]* %regs_in_V, i64 0, i64 2, !dbg !1484 ; [#uses=1 type=i32*] [debug line = 307:46@307:47@84:23]
  %p_Val2_2 = load i32* %regs_in_V_addr_2, align 4, !dbg !1484 ; [#uses=1 type=i32] [debug line = 307:46@307:47@84:23]
  call void @llvm.dbg.value(metadata !{i32 %p_Val2_2}, i64 0, metadata !1487) nounwind, !dbg !1488 ; [debug line = 675:0@307:46@307:47@84:23] [debug variable = __Val2__]
  %tmp_3 = call i29 @_ssdm_op_PartSelect.i29.i32.i32.i32(i32 %p_Val2_2, i32 3, i32 31), !dbg !1489 ; [#uses=2 type=i29] [debug line = 682:17@307:46@307:47@84:23]
  %y_c_V_cast = zext i29 %tmp_3 to i30, !dbg !1489 ; [#uses=1 type=i30] [debug line = 682:17@307:46@307:47@84:23]
  %regs_in_V_addr_3 = getelementptr [4 x i32]* %regs_in_V, i64 0, i64 3, !dbg !1490 ; [#uses=1 type=i32*] [debug line = 307:46@307:47@85:23]
  %p_Val2_3 = load i32* %regs_in_V_addr_3, align 4, !dbg !1490 ; [#uses=1 type=i32] [debug line = 307:46@307:47@85:23]
  call void @llvm.dbg.value(metadata !{i32 %p_Val2_3}, i64 0, metadata !1493) nounwind, !dbg !1494 ; [debug line = 675:0@307:46@307:47@85:23] [debug variable = __Val2__]
  %tmp_7 = call i29 @_ssdm_op_PartSelect.i29.i32.i32.i32(i32 %p_Val2_3, i32 3, i32 31), !dbg !1495 ; [#uses=2 type=i29] [debug line = 1401:0@2350:0@106:40]
  %tmp_cast = zext i29 %tmp_7 to i30, !dbg !1495  ; [#uses=1 type=i30] [debug line = 1401:0@2350:0@106:40]
  %r_V = sub i30 268435456, %tmp_cast, !dbg !1495 ; [#uses=1 type=i30] [debug line = 1401:0@2350:0@106:40]
  %p_Val2_5 = call i56 @_ssdm_op_BitConcatenate.i56.i29.i27(i29 %tmp, i27 0) ; [#uses=2 type=i56]
  %p_Val2_5_cast3 = zext i56 %p_Val2_5 to i58     ; [#uses=3 type=i58]
  %p_Val2_5_cast = zext i56 %p_Val2_5 to i59      ; [#uses=1 type=i59]
  %OP1_V_cast2 = zext i29 %p_c_V to i57           ; [#uses=1 type=i57]
  %OP1_V_cast = zext i29 %p_c_V to i58            ; [#uses=1 type=i58]
  %p_Val2_6 = mul i58 %OP1_V_cast, -154981283     ; [#uses=2 type=i58]
  %p_Val2_6_cast = sext i58 %p_Val2_6 to i59      ; [#uses=1 type=i59]
  %p_Val2_7 = add i58 %p_Val2_6, %p_Val2_5_cast3  ; [#uses=1 type=i58]
  %p_shl1 = call i57 @_ssdm_op_BitConcatenate.i57.i29.i28(i29 %tmp_3, i28 0) ; [#uses=2 type=i57]
  %tmp_cast_12 = zext i57 %p_shl1 to i59          ; [#uses=4 type=i59]
  %tmp_1_cast = sext i58 %p_Val2_7 to i59, !dbg !3965 ; [#uses=1 type=i59] [debug line = 1382:9@2350:0@106:81]
  %r_V_2_tr_0_tr = sub i59 %tmp_1_cast, %tmp_cast_12, !dbg !3965 ; [#uses=2 type=i59] [debug line = 1382:9@2350:0@106:81]
  %sext1_cast = sext i59 %r_V_2_tr_0_tr to i119, !dbg !3965 ; [#uses=1 type=i119] [debug line = 1382:9@2350:0@106:81]
  %mul1 = mul i119 %sext1_cast, 768614336404564651, !dbg !3965 ; [#uses=2 type=i119] [debug line = 1382:9@2350:0@106:81]
  %neg_mul1 = sub i119 0, %mul1, !dbg !3965       ; [#uses=1 type=i119] [debug line = 1382:9@2350:0@106:81]
  %tmp_6 = call i1 @_ssdm_op_BitSelect.i1.i59.i32(i59 %r_V_2_tr_0_tr, i32 58), !dbg !3965 ; [#uses=2 type=i1] [debug line = 1382:9@2350:0@106:81]
  %tmp_13 = call i58 @_ssdm_op_PartSelect.i58.i119.i32.i32(i119 %neg_mul1, i32 61, i32 118), !dbg !3965 ; [#uses=1 type=i58] [debug line = 1382:9@2350:0@106:81]
  %tmp_16 = sext i58 %tmp_13 to i59, !dbg !3965   ; [#uses=1 type=i59] [debug line = 1382:9@2350:0@106:81]
  %tmp_18 = call i58 @_ssdm_op_PartSelect.i58.i119.i32.i32(i119 %mul1, i32 61, i32 118), !dbg !3965 ; [#uses=1 type=i58] [debug line = 1382:9@2350:0@106:81]
  %tmp_19 = sext i58 %tmp_18 to i59, !dbg !3965   ; [#uses=2 type=i59] [debug line = 1382:9@2350:0@106:81]
  %tmp_20 = select i1 %tmp_6, i59 %tmp_16, i59 %tmp_19, !dbg !3965 ; [#uses=1 type=i59] [debug line = 1382:9@2350:0@106:81]
  %neg_ti1 = sub i59 0, %tmp_20, !dbg !3965       ; [#uses=1 type=i59] [debug line = 1382:9@2350:0@106:81]
  %tmp_2 = select i1 %tmp_6, i59 %neg_ti1, i59 %tmp_19, !dbg !3965 ; [#uses=1 type=i59] [debug line = 1382:9@2350:0@106:81]
  %OP1_V_3_cast1 = sext i30 %r_V to i85, !dbg !5398 ; [#uses=6 type=i85] [debug line = 1366:9@106:81]
  %tmp_1 = sext i59 %tmp_2 to i85, !dbg !5401     ; [#uses=1 type=i85] [debug line = 1367:9@106:81]
  %tmp_s = call i85 @_ssdm_op_BitConcatenate.i85.i29.i56(i29 %tmp_7, i56 0), !dbg !5402 ; [#uses=6 type=i85] [debug line = 703:17@773:5@1400:0@106:81]
  %tmp_15_cast = mul i85 %OP1_V_3_cast1, %tmp_1, !dbg !5410 ; [#uses=1 type=i85] [debug line = 1400:0@106:81]
  %p_Val2_s_13 = add i85 %tmp_s, %tmp_15_cast, !dbg !5410 ; [#uses=1 type=i85] [debug line = 1400:0@106:81]
  %tmp_4 = call i32 @_ssdm_op_PartSelect.i32.i85.i32.i32(i85 %p_Val2_s_13, i32 53, i32 84), !dbg !5418 ; [#uses=1 type=i32] [debug line = 682:17@461:44@461:45@106:81]
  %m_V_addr = getelementptr i32* %m_V, i64 268436496 ; [#uses=8 type=i32*]
  %m_V_addr_req = call i1 @_ssdm_op_WriteReq.m_axi.i32P(i32* %m_V_addr, i32 6), !dbg !5428 ; [#uses=0 type=i1] [debug line = 511:5@106:81]
  call void @_ssdm_op_Write.m_axi.i32P(i32* %m_V_addr, i32 %tmp_4, i4 -1), !dbg !5428 ; [debug line = 511:5@106:81]
  %tmp_4_cast = zext i57 %p_shl1 to i58           ; [#uses=1 type=i58]
  %tmp_5 = call i57 @_ssdm_op_BitConcatenate.i57.i29.i28(i29 %tmp, i28 0) ; [#uses=1 type=i57]
  %tmp_5_cast = zext i57 %tmp_5 to i58            ; [#uses=1 type=i58]
  %r_V_2_tr_1_tr = add i58 %tmp_4_cast, %tmp_5_cast, !dbg !3965 ; [#uses=1 type=i58] [debug line = 1382:9@2350:0@106:81]
  %zext1_cast = zext i58 %r_V_2_tr_1_tr to i117, !dbg !3965 ; [#uses=1 type=i117] [debug line = 1382:9@2350:0@106:81]
  %mul3 = mul i117 %zext1_cast, 384307168202282326, !dbg !3965 ; [#uses=1 type=i117] [debug line = 1382:9@2350:0@106:81]
  %tmp_21 = call i57 @_ssdm_op_PartSelect.i57.i117.i32.i32(i117 %mul3, i32 60, i32 116), !dbg !3965 ; [#uses=1 type=i57] [debug line = 1382:9@2350:0@106:81]
  %tmp_9 = zext i57 %tmp_21 to i85, !dbg !5401    ; [#uses=1 type=i85] [debug line = 1367:9@106:81]
  %tmp_116_1_cast = mul i85 %OP1_V_3_cast1, %tmp_9, !dbg !5410 ; [#uses=1 type=i85] [debug line = 1400:0@106:81]
  %p_Val2_10_1 = add i85 %tmp_s, %tmp_116_1_cast, !dbg !5410 ; [#uses=1 type=i85] [debug line = 1400:0@106:81]
  %tmp_13_1 = call i32 @_ssdm_op_PartSelect.i32.i85.i32.i32(i85 %p_Val2_10_1, i32 53, i32 84), !dbg !5418 ; [#uses=1 type=i32] [debug line = 682:17@461:44@461:45@106:81]
  call void @_ssdm_op_Write.m_axi.i32P(i32* %m_V_addr, i32 %tmp_13_1, i4 -1), !dbg !5428 ; [debug line = 511:5@106:81]
  %p_Val2_6_2 = mul i57 %OP1_V_cast2, 154981282   ; [#uses=1 type=i57]
  %p_Val2_6_2_cast = zext i57 %p_Val2_6_2 to i58  ; [#uses=2 type=i58]
  %p_Val2_7_2 = add i58 %p_Val2_6_2_cast, %p_Val2_5_cast3 ; [#uses=1 type=i58]
  %tmp_7_cast = zext i58 %p_Val2_7_2 to i59, !dbg !3965 ; [#uses=1 type=i59] [debug line = 1382:9@2350:0@106:81]
  %r_V_2_tr_2_tr = sub i59 %tmp_7_cast, %tmp_cast_12, !dbg !3965 ; [#uses=2 type=i59] [debug line = 1382:9@2350:0@106:81]
  %sext2_cast = sext i59 %r_V_2_tr_2_tr to i118, !dbg !3965 ; [#uses=1 type=i118] [debug line = 1382:9@2350:0@106:81]
  %mul4 = mul i118 %sext2_cast, 768614336404564651, !dbg !3965 ; [#uses=2 type=i118] [debug line = 1382:9@2350:0@106:81]
  %neg_mul2 = sub i118 0, %mul4, !dbg !3965       ; [#uses=1 type=i118] [debug line = 1382:9@2350:0@106:81]
  %tmp_22 = call i1 @_ssdm_op_BitSelect.i1.i59.i32(i59 %r_V_2_tr_2_tr, i32 58), !dbg !3965 ; [#uses=2 type=i1] [debug line = 1382:9@2350:0@106:81]
  %tmp_32 = call i57 @_ssdm_op_PartSelect.i57.i118.i32.i32(i118 %neg_mul2, i32 61, i32 117), !dbg !3965 ; [#uses=1 type=i57] [debug line = 1382:9@2350:0@106:81]
  %tmp_23 = sext i57 %tmp_32 to i59, !dbg !3965   ; [#uses=1 type=i59] [debug line = 1382:9@2350:0@106:81]
  %tmp_33 = call i57 @_ssdm_op_PartSelect.i57.i118.i32.i32(i118 %mul4, i32 61, i32 117), !dbg !3965 ; [#uses=1 type=i57] [debug line = 1382:9@2350:0@106:81]
  %tmp_24 = sext i57 %tmp_33 to i59, !dbg !3965   ; [#uses=2 type=i59] [debug line = 1382:9@2350:0@106:81]
  %tmp_25 = select i1 %tmp_22, i59 %tmp_23, i59 %tmp_24, !dbg !3965 ; [#uses=1 type=i59] [debug line = 1382:9@2350:0@106:81]
  %neg_ti2 = sub i59 0, %tmp_25, !dbg !3965       ; [#uses=1 type=i59] [debug line = 1382:9@2350:0@106:81]
  %tmp_8 = select i1 %tmp_22, i59 %neg_ti2, i59 %tmp_24, !dbg !3965 ; [#uses=1 type=i59] [debug line = 1382:9@2350:0@106:81]
  %OP2_V_3_2_cast = sext i59 %tmp_8 to i85, !dbg !5401 ; [#uses=1 type=i85] [debug line = 1367:9@106:81]
  %p_Val2_9_2 = mul i85 %OP1_V_3_cast1, %OP2_V_3_2_cast, !dbg !5401 ; [#uses=1 type=i85] [debug line = 1367:9@106:81]
  %p_Val2_10_2 = add i85 %tmp_s, %p_Val2_9_2, !dbg !5410 ; [#uses=1 type=i85] [debug line = 1400:0@106:81]
  %tmp_13_2 = call i32 @_ssdm_op_PartSelect.i32.i85.i32.i32(i85 %p_Val2_10_2, i32 53, i32 84), !dbg !5418 ; [#uses=1 type=i32] [debug line = 682:17@461:44@461:45@106:81]
  call void @_ssdm_op_Write.m_axi.i32P(i32* %m_V_addr, i32 %tmp_13_2, i4 -1), !dbg !5428 ; [debug line = 511:5@106:81]
  %p_Val2_7_3 = sub i59 %p_Val2_6_cast, %p_Val2_5_cast ; [#uses=1 type=i59]
  %r_V_2_tr_3_tr = add i59 %tmp_cast_12, %p_Val2_7_3, !dbg !3965 ; [#uses=2 type=i59] [debug line = 1382:9@2350:0@106:81]
  %sext5_cast = sext i59 %r_V_2_tr_3_tr to i118, !dbg !3965 ; [#uses=1 type=i118] [debug line = 1382:9@2350:0@106:81]
  %mul6 = mul i118 %sext5_cast, 768614336404564651, !dbg !3965 ; [#uses=2 type=i118] [debug line = 1382:9@2350:0@106:81]
  %neg_mul7 = sub i118 0, %mul6, !dbg !3965       ; [#uses=1 type=i118] [debug line = 1382:9@2350:0@106:81]
  %tmp_34 = call i1 @_ssdm_op_BitSelect.i1.i59.i32(i59 %r_V_2_tr_3_tr, i32 58), !dbg !3965 ; [#uses=2 type=i1] [debug line = 1382:9@2350:0@106:81]
  %tmp_35 = call i57 @_ssdm_op_PartSelect.i57.i118.i32.i32(i118 %neg_mul7, i32 61, i32 117), !dbg !3965 ; [#uses=1 type=i57] [debug line = 1382:9@2350:0@106:81]
  %tmp_26 = sext i57 %tmp_35 to i59, !dbg !3965   ; [#uses=1 type=i59] [debug line = 1382:9@2350:0@106:81]
  %tmp_36 = call i57 @_ssdm_op_PartSelect.i57.i118.i32.i32(i118 %mul6, i32 61, i32 117), !dbg !3965 ; [#uses=1 type=i57] [debug line = 1382:9@2350:0@106:81]
  %tmp_27 = sext i57 %tmp_36 to i59, !dbg !3965   ; [#uses=2 type=i59] [debug line = 1382:9@2350:0@106:81]
  %tmp_28 = select i1 %tmp_34, i59 %tmp_26, i59 %tmp_27, !dbg !3965 ; [#uses=1 type=i59] [debug line = 1382:9@2350:0@106:81]
  %neg_ti3 = sub i59 0, %tmp_28, !dbg !3965       ; [#uses=1 type=i59] [debug line = 1382:9@2350:0@106:81]
  %tmp_10 = select i1 %tmp_34, i59 %neg_ti3, i59 %tmp_27, !dbg !3965 ; [#uses=1 type=i59] [debug line = 1382:9@2350:0@106:81]
  %OP2_V_3_3_cast = sext i59 %tmp_10 to i85, !dbg !5401 ; [#uses=1 type=i85] [debug line = 1367:9@106:81]
  %p_Val2_9_3 = mul i85 %OP1_V_3_cast1, %OP2_V_3_3_cast, !dbg !5401 ; [#uses=1 type=i85] [debug line = 1367:9@106:81]
  %p_Val2_10_3 = add i85 %tmp_s, %p_Val2_9_3, !dbg !5410 ; [#uses=1 type=i85] [debug line = 1400:0@106:81]
  %tmp_13_3 = call i32 @_ssdm_op_PartSelect.i32.i85.i32.i32(i85 %p_Val2_10_3, i32 53, i32 84), !dbg !5418 ; [#uses=1 type=i32] [debug line = 682:17@461:44@461:45@106:81]
  call void @_ssdm_op_Write.m_axi.i32P(i32* %m_V_addr, i32 %tmp_13_3, i4 -1), !dbg !5428 ; [debug line = 511:5@106:81]
  %p_Val2_8_s = add i30 %r_c_V_cast, %y_c_V_cast, !dbg !3965 ; [#uses=1 type=i30] [debug line = 1382:9@2350:0@106:81]
  %p_shl = call i58 @_ssdm_op_BitConcatenate.i58.i30.i28(i30 %p_Val2_8_s, i28 0), !dbg !3965 ; [#uses=1 type=i58] [debug line = 1382:9@2350:0@106:81]
  %zext_cast = zext i58 %p_shl to i117, !dbg !3965 ; [#uses=1 type=i117] [debug line = 1382:9@2350:0@106:81]
  %mul2 = mul i117 %zext_cast, 384307168202282326, !dbg !3965 ; [#uses=1 type=i117] [debug line = 1382:9@2350:0@106:81]
  %tmp_37 = call i57 @_ssdm_op_PartSelect.i57.i117.i32.i32(i117 %mul2, i32 60, i32 116), !dbg !3965 ; [#uses=1 type=i57] [debug line = 1382:9@2350:0@106:81]
  %tmp_11 = zext i57 %tmp_37 to i58, !dbg !3965   ; [#uses=1 type=i58] [debug line = 1382:9@2350:0@106:81]
  %tmp_12 = sub i58 0, %tmp_11, !dbg !3965        ; [#uses=1 type=i58] [debug line = 1382:9@2350:0@106:81]
  %tmp_14 = sext i58 %tmp_12 to i85, !dbg !5401   ; [#uses=1 type=i85] [debug line = 1367:9@106:81]
  %tmp_116_4_cast = mul i85 %OP1_V_3_cast1, %tmp_14, !dbg !5410 ; [#uses=1 type=i85] [debug line = 1400:0@106:81]
  %p_Val2_10_4 = add i85 %tmp_s, %tmp_116_4_cast, !dbg !5410 ; [#uses=1 type=i85] [debug line = 1400:0@106:81]
  %tmp_13_4 = call i32 @_ssdm_op_PartSelect.i32.i85.i32.i32(i85 %p_Val2_10_4, i32 53, i32 84), !dbg !5418 ; [#uses=1 type=i32] [debug line = 682:17@461:44@461:45@106:81]
  call void @_ssdm_op_Write.m_axi.i32P(i32* %m_V_addr, i32 %tmp_13_4, i4 -1), !dbg !5428 ; [debug line = 511:5@106:81]
  %p_Val2_7_5 = sub i58 %p_Val2_6_2_cast, %p_Val2_5_cast3 ; [#uses=1 type=i58]
  %tmp_18_cast = sext i58 %p_Val2_7_5 to i59, !dbg !3965 ; [#uses=1 type=i59] [debug line = 1382:9@2350:0@106:81]
  %r_V_2_tr_5_tr = add i59 %tmp_cast_12, %tmp_18_cast, !dbg !3965 ; [#uses=2 type=i59] [debug line = 1382:9@2350:0@106:81]
  %sext_cast = sext i59 %r_V_2_tr_5_tr to i119, !dbg !3965 ; [#uses=1 type=i119] [debug line = 1382:9@2350:0@106:81]
  %mul = mul i119 %sext_cast, 768614336404564651, !dbg !3965 ; [#uses=2 type=i119] [debug line = 1382:9@2350:0@106:81]
  %neg_mul = sub i119 0, %mul, !dbg !3965         ; [#uses=1 type=i119] [debug line = 1382:9@2350:0@106:81]
  %tmp_38 = call i1 @_ssdm_op_BitSelect.i1.i59.i32(i59 %r_V_2_tr_5_tr, i32 58), !dbg !3965 ; [#uses=2 type=i1] [debug line = 1382:9@2350:0@106:81]
  %tmp_39 = call i58 @_ssdm_op_PartSelect.i58.i119.i32.i32(i119 %neg_mul, i32 61, i32 118), !dbg !3965 ; [#uses=1 type=i58] [debug line = 1382:9@2350:0@106:81]
  %tmp_29 = sext i58 %tmp_39 to i59, !dbg !3965   ; [#uses=1 type=i59] [debug line = 1382:9@2350:0@106:81]
  %tmp_40 = call i58 @_ssdm_op_PartSelect.i58.i119.i32.i32(i119 %mul, i32 61, i32 118), !dbg !3965 ; [#uses=1 type=i58] [debug line = 1382:9@2350:0@106:81]
  %tmp_30 = sext i58 %tmp_40 to i59, !dbg !3965   ; [#uses=2 type=i59] [debug line = 1382:9@2350:0@106:81]
  %tmp_31 = select i1 %tmp_38, i59 %tmp_29, i59 %tmp_30, !dbg !3965 ; [#uses=1 type=i59] [debug line = 1382:9@2350:0@106:81]
  %neg_ti = sub i59 0, %tmp_31, !dbg !3965        ; [#uses=1 type=i59] [debug line = 1382:9@2350:0@106:81]
  %tmp_15 = select i1 %tmp_38, i59 %neg_ti, i59 %tmp_30, !dbg !3965 ; [#uses=1 type=i59] [debug line = 1382:9@2350:0@106:81]
  %tmp_17 = sext i59 %tmp_15 to i85, !dbg !5401   ; [#uses=1 type=i85] [debug line = 1367:9@106:81]
  %tmp_116_5_cast = mul i85 %OP1_V_3_cast1, %tmp_17, !dbg !5410 ; [#uses=1 type=i85] [debug line = 1400:0@106:81]
  %p_Val2_10_5 = add i85 %tmp_s, %tmp_116_5_cast, !dbg !5410 ; [#uses=1 type=i85] [debug line = 1400:0@106:81]
  %tmp_13_5 = call i32 @_ssdm_op_PartSelect.i32.i85.i32.i32(i85 %p_Val2_10_5, i32 53, i32 84), !dbg !5418 ; [#uses=1 type=i32] [debug line = 682:17@461:44@461:45@106:81]
  call void @_ssdm_op_Write.m_axi.i32P(i32* %m_V_addr, i32 %tmp_13_5, i4 -1), !dbg !5428 ; [debug line = 511:5@106:81]
  %m_V_addr_resp = call i1 @_ssdm_op_WriteResp.m_axi.i32P(i32* %m_V_addr), !dbg !5428 ; [#uses=0 type=i1] [debug line = 511:5@106:81]
  ret void, !dbg !5431                            ; [debug line = 108:1]
}

; [#uses=1]
declare i85 @llvm.part.select.i85(i85, i32, i32) nounwind readnone

; [#uses=1]
declare i32 @llvm.part.select.i32(i32, i32, i32) nounwind readnone

; [#uses=1]
declare i119 @llvm.part.select.i119(i119, i32, i32) nounwind readnone

; [#uses=1]
declare i118 @llvm.part.select.i118(i118, i32, i32) nounwind readnone

; [#uses=1]
declare i117 @llvm.part.select.i117(i117, i32, i32) nounwind readnone

; [#uses=8]
declare void @llvm.dbg.value(metadata, i64, metadata) nounwind readnone

; [#uses=1]
define weak i1 @_ssdm_op_WriteResp.m_axi.i32P(i32*) {
entry:
  ret i1 true
}

; [#uses=1]
define weak i1 @_ssdm_op_WriteReq.m_axi.i32P(i32*, i32) {
entry:
  ret i1 true
}

; [#uses=6]
define weak void @_ssdm_op_Write.m_axi.i32P(i32*, i32, i4) {
entry:
  ret void
}

; [#uses=1]
define weak void @_ssdm_op_SpecTopModule(...) {
entry:
  ret void
}

; [#uses=1]
define weak void @_ssdm_op_SpecPipeline(...) nounwind {
entry:
  ret void
}

; [#uses=1]
define weak i32 @_ssdm_op_SpecMemCore(...) {
entry:
  ret i32 0
}

; [#uses=3]
define weak void @_ssdm_op_SpecInterface(...) nounwind {
entry:
  ret void
}

; [#uses=2]
define weak void @_ssdm_op_SpecBitsMap(...) {
entry:
  ret void
}

; [#uses=4]
define weak i58 @_ssdm_op_PartSelect.i58.i119.i32.i32(i119, i32, i32) nounwind readnone {
entry:
  %empty = call i119 @llvm.part.select.i119(i119 %0, i32 %1, i32 %2) ; [#uses=1 type=i119]
  %empty_14 = trunc i119 %empty to i58            ; [#uses=1 type=i58]
  ret i58 %empty_14
}

; [#uses=4]
define weak i57 @_ssdm_op_PartSelect.i57.i118.i32.i32(i118, i32, i32) nounwind readnone {
entry:
  %empty = call i118 @llvm.part.select.i118(i118 %0, i32 %1, i32 %2) ; [#uses=1 type=i118]
  %empty_15 = trunc i118 %empty to i57            ; [#uses=1 type=i57]
  ret i57 %empty_15
}

; [#uses=2]
define weak i57 @_ssdm_op_PartSelect.i57.i117.i32.i32(i117, i32, i32) nounwind readnone {
entry:
  %empty = call i117 @llvm.part.select.i117(i117 %0, i32 %1, i32 %2) ; [#uses=1 type=i117]
  %empty_16 = trunc i117 %empty to i57            ; [#uses=1 type=i57]
  ret i57 %empty_16
}

; [#uses=6]
define weak i32 @_ssdm_op_PartSelect.i32.i85.i32.i32(i85, i32, i32) nounwind readnone {
entry:
  %empty = call i85 @llvm.part.select.i85(i85 %0, i32 %1, i32 %2) ; [#uses=1 type=i85]
  %empty_17 = trunc i85 %empty to i32             ; [#uses=1 type=i32]
  ret i32 %empty_17
}

; [#uses=4]
define weak i29 @_ssdm_op_PartSelect.i29.i32.i32.i32(i32, i32, i32) nounwind readnone {
entry:
  %empty = call i32 @llvm.part.select.i32(i32 %0, i32 %1, i32 %2) ; [#uses=1 type=i32]
  %empty_18 = trunc i32 %empty to i29             ; [#uses=1 type=i29]
  ret i29 %empty_18
}

; [#uses=4]
define weak i1 @_ssdm_op_BitSelect.i1.i59.i32(i59, i32) nounwind readnone {
entry:
  %empty = zext i32 %1 to i59                     ; [#uses=1 type=i59]
  %empty_19 = shl i59 1, %empty                   ; [#uses=1 type=i59]
  %empty_20 = and i59 %0, %empty_19               ; [#uses=1 type=i59]
  %empty_21 = icmp ne i59 %empty_20, 0            ; [#uses=1 type=i1]
  ret i1 %empty_21
}

; [#uses=1]
define weak i85 @_ssdm_op_BitConcatenate.i85.i29.i56(i29, i56) nounwind readnone {
entry:
  %empty = zext i29 %0 to i85                     ; [#uses=1 type=i85]
  %empty_22 = zext i56 %1 to i85                  ; [#uses=1 type=i85]
  %empty_23 = shl i85 %empty, 56                  ; [#uses=1 type=i85]
  %empty_24 = or i85 %empty_23, %empty_22         ; [#uses=1 type=i85]
  ret i85 %empty_24
}

; [#uses=1]
define weak i58 @_ssdm_op_BitConcatenate.i58.i30.i28(i30, i28) nounwind readnone {
entry:
  %empty = zext i30 %0 to i58                     ; [#uses=1 type=i58]
  %empty_25 = zext i28 %1 to i58                  ; [#uses=1 type=i58]
  %empty_26 = shl i58 %empty, 28                  ; [#uses=1 type=i58]
  %empty_27 = or i58 %empty_26, %empty_25         ; [#uses=1 type=i58]
  ret i58 %empty_27
}

; [#uses=2]
define weak i57 @_ssdm_op_BitConcatenate.i57.i29.i28(i29, i28) nounwind readnone {
entry:
  %empty = zext i29 %0 to i57                     ; [#uses=1 type=i57]
  %empty_28 = zext i28 %1 to i57                  ; [#uses=1 type=i57]
  %empty_29 = shl i57 %empty, 28                  ; [#uses=1 type=i57]
  %empty_30 = or i57 %empty_29, %empty_28         ; [#uses=1 type=i57]
  ret i57 %empty_30
}

; [#uses=1]
define weak i56 @_ssdm_op_BitConcatenate.i56.i29.i27(i29, i27) nounwind readnone {
entry:
  %empty = zext i29 %0 to i56                     ; [#uses=1 type=i56]
  %empty_31 = zext i27 %1 to i56                  ; [#uses=1 type=i56]
  %empty_32 = shl i56 %empty, 27                  ; [#uses=1 type=i56]
  %empty_33 = or i56 %empty_32, %empty_31         ; [#uses=1 type=i56]
  ret i56 %empty_33
}

; [#uses=1]
declare void @_GLOBAL__I_a15() nounwind section ".text.startup"

; [#uses=1]
declare void @_GLOBAL__I_a() nounwind section ".text.startup"

!opencl.kernels = !{!0, !7, !7, !7, !13, !19, !21, !24, !24, !13, !25, !25, !13, !13, !27, !13, !13, !13, !13, !13, !29, !33, !33, !13, !36, !13, !13, !13, !38, !40, !40, !13, !41, !41, !13, !13, !38, !40, !40, !13, !13, !13, !43, !13, !13, !13, !13, !13, !44, !43, !25, !25, !13, !47, !47, !13, !13, !19, !19, !48, !50, !50, !52, !47, !47, !25, !54, !54, !56, !13, !58, !58, !13, !59, !13, !13, !13, !62, !62, !64, !64, !66, !13, !13, !13, !68, !58, !58, !70, !13, !13, !13, !72, !72, !74, !74, !76, !13, !13, !13, !13, !13, !13, !78, !13, !13, !13, !13, !13, !13, !13, !13, !13, !13, !50, !50, !52, !33, !33, !13, !47, !47, !48, !50, !50, !52, !47, !47, !25, !54, !54, !56, !13, !58, !58, !13, !59, !13, !13, !13, !62, !62, !64, !64, !66, !13, !13, !13, !68, !58, !58, !70, !13, !13, !13, !72, !72, !74, !74, !76, !13, !13, !13, !13, !13, !13, !78, !13, !13, !13, !13, !13, !80}
!hls.encrypted.func = !{}
!llvm.map.gv = !{!83}

!0 = metadata !{null, metadata !1, metadata !2, metadata !3, metadata !4, metadata !5, metadata !6}
!1 = metadata !{metadata !"kernel_arg_addr_space", i32 1, i32 1}
!2 = metadata !{metadata !"kernel_arg_access_qual", metadata !"none", metadata !"none"}
!3 = metadata !{metadata !"kernel_arg_type", metadata !"F_t*", metadata !"F_t*"}
!4 = metadata !{metadata !"kernel_arg_type_qual", metadata !"", metadata !""}
!5 = metadata !{metadata !"kernel_arg_name", metadata !"regs_in", metadata !"m"}
!6 = metadata !{metadata !"reqd_work_group_size", i32 1, i32 1, i32 1}
!7 = metadata !{null, metadata !8, metadata !9, metadata !10, metadata !11, metadata !12, metadata !6}
!8 = metadata !{metadata !"kernel_arg_addr_space", i32 0}
!9 = metadata !{metadata !"kernel_arg_access_qual", metadata !"none"}
!10 = metadata !{metadata !"kernel_arg_type", metadata !"const ap_fixed_base<129, 45, true, (enum ap_q_mode)5, (enum ap_o_mode)3, 0> &"}
!11 = metadata !{metadata !"kernel_arg_type_qual", metadata !""}
!12 = metadata !{metadata !"kernel_arg_name", metadata !"op"}
!13 = metadata !{null, metadata !14, metadata !15, metadata !16, metadata !17, metadata !18, metadata !6}
!14 = metadata !{metadata !"kernel_arg_addr_space"}
!15 = metadata !{metadata !"kernel_arg_access_qual"}
!16 = metadata !{metadata !"kernel_arg_type"}
!17 = metadata !{metadata !"kernel_arg_type_qual"}
!18 = metadata !{metadata !"kernel_arg_name"}
!19 = metadata !{null, metadata !8, metadata !9, metadata !20, metadata !11, metadata !12, metadata !6}
!20 = metadata !{metadata !"kernel_arg_type", metadata !"const ap_ufixed<32, 1, (enum ap_q_mode)5, (enum ap_o_mode)3, 0> &"}
!21 = metadata !{null, metadata !8, metadata !9, metadata !22, metadata !11, metadata !23, metadata !6}
!22 = metadata !{metadata !"kernel_arg_type", metadata !"const ap_fixed_base<128, 44, true, (enum ap_q_mode)5, (enum ap_o_mode)3, 0> &"}
!23 = metadata !{metadata !"kernel_arg_name", metadata !"op2"}
!24 = metadata !{null, metadata !8, metadata !9, metadata !22, metadata !11, metadata !12, metadata !6}
!25 = metadata !{null, metadata !8, metadata !9, metadata !26, metadata !11, metadata !12, metadata !6}
!26 = metadata !{metadata !"kernel_arg_type", metadata !"const ap_fixed_base<32, 4, true, (enum ap_q_mode)5, (enum ap_o_mode)3, 0> &"}
!27 = metadata !{null, metadata !8, metadata !9, metadata !28, metadata !11, metadata !23, metadata !6}
!28 = metadata !{metadata !"kernel_arg_type", metadata !"const ap_fixed_base<67, 11, true, (enum ap_q_mode)5, (enum ap_o_mode)3, 0> &"}
!29 = metadata !{null, metadata !30, metadata !2, metadata !31, metadata !4, metadata !32, metadata !6}
!30 = metadata !{metadata !"kernel_arg_addr_space", i32 0, i32 0}
!31 = metadata !{metadata !"kernel_arg_type", metadata !"const ap_fixed_base<66, 10, true, (enum ap_q_mode)5, (enum ap_o_mode)3, 0> &", metadata !"int"}
!32 = metadata !{metadata !"kernel_arg_name", metadata !"op", metadata !"i_op"}
!33 = metadata !{null, metadata !8, metadata !9, metadata !34, metadata !11, metadata !35, metadata !6}
!34 = metadata !{metadata !"kernel_arg_type", metadata !"int"}
!35 = metadata !{metadata !"kernel_arg_name", metadata !"i_op"}
!36 = metadata !{null, metadata !8, metadata !9, metadata !37, metadata !11, metadata !23, metadata !6}
!37 = metadata !{metadata !"kernel_arg_type", metadata !"const ap_fixed_base<32, 32, true, (enum ap_q_mode)5, (enum ap_o_mode)3, 0> &"}
!38 = metadata !{null, metadata !8, metadata !9, metadata !39, metadata !11, metadata !23, metadata !6}
!39 = metadata !{metadata !"kernel_arg_type", metadata !"const ap_fixed_base<64, 8, true, (enum ap_q_mode)5, (enum ap_o_mode)3, 0> &"}
!40 = metadata !{null, metadata !8, metadata !9, metadata !39, metadata !11, metadata !12, metadata !6}
!41 = metadata !{null, metadata !8, metadata !9, metadata !42, metadata !11, metadata !12, metadata !6}
!42 = metadata !{metadata !"kernel_arg_type", metadata !"const ap_fixed_base<65, 9, true, (enum ap_q_mode)5, (enum ap_o_mode)3, 0> &"}
!43 = metadata !{null, metadata !8, metadata !9, metadata !26, metadata !11, metadata !23, metadata !6}
!44 = metadata !{null, metadata !30, metadata !2, metadata !45, metadata !4, metadata !46, metadata !6}
!45 = metadata !{metadata !"kernel_arg_type", metadata !"int", metadata !"const ap_fixed_base<32, 4, true, (enum ap_q_mode)5, (enum ap_o_mode)3, 0> &"}
!46 = metadata !{metadata !"kernel_arg_name", metadata !"i_op", metadata !"op"}
!47 = metadata !{null, metadata !8, metadata !9, metadata !37, metadata !11, metadata !12, metadata !6}
!48 = metadata !{null, metadata !8, metadata !9, metadata !49, metadata !11, metadata !12, metadata !6}
!49 = metadata !{metadata !"kernel_arg_type", metadata !"const ap_fixed_base<32, 1, false, (enum ap_q_mode)5, (enum ap_o_mode)3, 0> &"}
!50 = metadata !{null, metadata !8, metadata !9, metadata !34, metadata !11, metadata !51, metadata !6}
!51 = metadata !{metadata !"kernel_arg_name", metadata !"v"}
!52 = metadata !{null, metadata !8, metadata !9, metadata !34, metadata !11, metadata !53, metadata !6}
!53 = metadata !{metadata !"kernel_arg_name", metadata !"b"}
!54 = metadata !{null, metadata !8, metadata !9, metadata !55, metadata !11, metadata !51, metadata !6}
!55 = metadata !{metadata !"kernel_arg_type", metadata !"double"}
!56 = metadata !{null, metadata !8, metadata !9, metadata !55, metadata !11, metadata !57, metadata !6}
!57 = metadata !{metadata !"kernel_arg_name", metadata !"d"}
!58 = metadata !{null, metadata !8, metadata !9, metadata !34, metadata !11, metadata !12, metadata !6}
!59 = metadata !{null, metadata !30, metadata !2, metadata !60, metadata !4, metadata !61, metadata !6}
!60 = metadata !{metadata !"kernel_arg_type", metadata !"const ap_int_base<1, false> &", metadata !"const ap_int_base<54, true> &"}
!61 = metadata !{metadata !"kernel_arg_name", metadata !"op", metadata !"op2"}
!62 = metadata !{null, metadata !8, metadata !9, metadata !63, metadata !11, metadata !12, metadata !6}
!63 = metadata !{metadata !"kernel_arg_type", metadata !"const ap_int_base<54, true> &"}
!64 = metadata !{null, metadata !8, metadata !9, metadata !65, metadata !11, metadata !12, metadata !6}
!65 = metadata !{metadata !"kernel_arg_type", metadata !"const ap_int_base<1, false> &"}
!66 = metadata !{null, metadata !8, metadata !9, metadata !67, metadata !11, metadata !23, metadata !6}
!67 = metadata !{metadata !"kernel_arg_type", metadata !"const ap_int_base<55, true> &"}
!68 = metadata !{null, metadata !30, metadata !2, metadata !69, metadata !4, metadata !32, metadata !6}
!69 = metadata !{metadata !"kernel_arg_type", metadata !"const ap_int_base<11, false> &", metadata !"int"}
!70 = metadata !{null, metadata !30, metadata !2, metadata !71, metadata !4, metadata !61, metadata !6}
!71 = metadata !{metadata !"kernel_arg_type", metadata !"const ap_int_base<11, false> &", metadata !"const ap_int_base<32, true> &"}
!72 = metadata !{null, metadata !8, metadata !9, metadata !73, metadata !11, metadata !12, metadata !6}
!73 = metadata !{metadata !"kernel_arg_type", metadata !"const ap_int_base<32, true> &"}
!74 = metadata !{null, metadata !8, metadata !9, metadata !75, metadata !11, metadata !12, metadata !6}
!75 = metadata !{metadata !"kernel_arg_type", metadata !"const ap_int_base<11, false> &"}
!76 = metadata !{null, metadata !8, metadata !9, metadata !77, metadata !11, metadata !23, metadata !6}
!77 = metadata !{metadata !"kernel_arg_type", metadata !"const ap_int_base<33, true> &"}
!78 = metadata !{null, metadata !8, metadata !9, metadata !55, metadata !11, metadata !79, metadata !6}
!79 = metadata !{metadata !"kernel_arg_name", metadata !"pf"}
!80 = metadata !{null, metadata !30, metadata !2, metadata !81, metadata !4, metadata !82, metadata !6}
!81 = metadata !{metadata !"kernel_arg_type", metadata !"enum std::_Ios_Openmode", metadata !"enum std::_Ios_Openmode"}
!82 = metadata !{metadata !"kernel_arg_name", metadata !"__a", metadata !"__b"}
!83 = metadata !{metadata !84, [2 x i32]* @llvm_global_ctors_0}
!84 = metadata !{metadata !85}
!85 = metadata !{i32 0, i32 31, metadata !86}
!86 = metadata !{metadata !87}
!87 = metadata !{metadata !"llvm.global_ctors.0", metadata !88, metadata !"", i32 0, i32 31}
!88 = metadata !{metadata !89}
!89 = metadata !{i32 0, i32 1, i32 1}
!90 = metadata !{metadata !91}
!91 = metadata !{i32 0, i32 31, metadata !92}
!92 = metadata !{metadata !93}
!93 = metadata !{metadata !"regs_in.V", metadata !94, metadata !"uint32", i32 0, i32 31}
!94 = metadata !{metadata !95}
!95 = metadata !{i32 0, i32 3, i32 1}
!96 = metadata !{metadata !97}
!97 = metadata !{i32 0, i32 31, metadata !98}
!98 = metadata !{metadata !99}
!99 = metadata !{metadata !"m.V", metadata !100, metadata !"uint32", i32 0, i32 31}
!100 = metadata !{metadata !101}
!101 = metadata !{i32 0, i32 4095, i32 1}
!102 = metadata !{i32 790531, metadata !103, metadata !"regs_in.V", null, i32 76, metadata !1061, i32 0, i32 0} ; [ DW_TAG_arg_variable_field ]
!103 = metadata !{i32 786689, metadata !104, metadata !"regs_in", metadata !105, i32 16777292, metadata !108, i32 0, i32 0} ; [ DW_TAG_arg_variable ]
!104 = metadata !{i32 786478, i32 0, metadata !105, metadata !"mixer", metadata !"mixer", metadata !"_Z5mixerP9ap_ufixedILi32ELi1EL9ap_q_mode5EL9ap_o_mode3ELi0EES3_", metadata !105, i32 76, metadata !106, i1 false, i1 true, i32 0, i32 0, null, i32 256, i1 false, null, null, null, metadata !127, i32 76} ; [ DW_TAG_subprogram ]
!105 = metadata !{i32 786473, metadata !"mixer.cpp", metadata !"/home/brennan/Documents/pynq-copter/pynqcopter/ip/mixer", null} ; [ DW_TAG_file_type ]
!106 = metadata !{i32 786453, i32 0, metadata !"", i32 0, i32 0, i64 0, i64 0, i64 0, i32 0, null, metadata !107, i32 0, i32 0} ; [ DW_TAG_subroutine_type ]
!107 = metadata !{null, metadata !108, metadata !108}
!108 = metadata !{i32 786447, null, metadata !"", null, i32 0, i64 64, i64 64, i64 0, i32 0, metadata !109} ; [ DW_TAG_pointer_type ]
!109 = metadata !{i32 786454, null, metadata !"F_t", metadata !105, i32 48, i64 0, i64 0, i64 0, i32 0, metadata !110} ; [ DW_TAG_typedef ]
!110 = metadata !{i32 786434, null, metadata !"ap_ufixed<32, 1, 5, 3, 0>", metadata !111, i32 413, i64 32, i64 32, i32 0, i32 0, null, metadata !112, i32 0, null, metadata !1060} ; [ DW_TAG_class_type ]
!111 = metadata !{i32 786473, metadata !"/home/brennan/Vivado/Vivado/2017.4/common/technology/autopilot/ap_int.h", metadata !"/home/brennan/Documents/pynq-copter/pynqcopter/ip/mixer", null} ; [ DW_TAG_file_type ]
!112 = metadata !{metadata !113, metadata !703, metadata !707, metadata !992, metadata !995, metadata !998, metadata !1001, metadata !1004, metadata !1007, metadata !1010, metadata !1013, metadata !1016, metadata !1019, metadata !1022, metadata !1025, metadata !1028, metadata !1031, metadata !1034, metadata !1037, metadata !1040, metadata !1046, metadata !1052, metadata !1056, metadata !1059}
!113 = metadata !{i32 786460, metadata !110, null, metadata !111, i32 0, i64 0, i64 0, i64 0, i32 0, metadata !114} ; [ DW_TAG_inheritance ]
!114 = metadata !{i32 786434, null, metadata !"ap_fixed_base<32, 1, false, 5, 3, 0>", metadata !115, i32 512, i64 32, i64 32, i32 0, i32 0, null, metadata !116, i32 0, null, metadata !697} ; [ DW_TAG_class_type ]
!115 = metadata !{i32 786473, metadata !"/home/brennan/Vivado/Vivado/2017.4/common/technology/autopilot/ap_fixed_syn.h", metadata !"/home/brennan/Documents/pynq-copter/pynqcopter/ip/mixer", null} ; [ DW_TAG_file_type ]
!116 = metadata !{metadata !117, metadata !134, metadata !138, metadata !141, metadata !144, metadata !173, metadata !179, metadata !182, metadata !186, metadata !190, metadata !194, metadata !198, metadata !202, metadata !205, metadata !209, metadata !213, metadata !217, metadata !222, metadata !227, metadata !232, metadata !235, metadata !240, metadata !244, metadata !249, metadata !252, metadata !255, metadata !258, metadata !261, metadata !264, metadata !267, metadata !271, metadata !274, metadata !278, metadata !281, metadata !284, metadata !287, metadata !543, metadata !546, metadata !549, metadata !552, metadata !555, metadata !558, metadata !561, metadata !564, metadata !565, metadata !566, metadata !567, metadata !570, metadata !573, metadata !576, metadata !579, metadata !582, metadata !585, metadata !586, metadata !587, metadata !590, metadata !593, metadata !596, metadata !599, metadata !600, metadata !603, metadata !606, metadata !607, metadata !610, metadata !611, metadata !614, metadata !618, metadata !622, metadata !623, metadata !626, metadata !629, metadata !632, metadata !633, metadata !634, metadata !637, metadata !640, metadata !641, metadata !642, metadata !645, metadata !646, metadata !647, metadata !648, metadata !649, metadata !650, metadata !654, metadata !657, metadata !658, metadata !659, metadata !662, metadata !665, metadata !669, metadata !670, metadata !673, metadata !674, metadata !677, metadata !680, metadata !681, metadata !682, metadata !683, metadata !684, metadata !687, metadata !690, metadata !691, metadata !694}
!117 = metadata !{i32 786460, metadata !114, null, metadata !115, i32 0, i64 0, i64 0, i64 0, i32 0, metadata !118} ; [ DW_TAG_inheritance ]
!118 = metadata !{i32 786434, null, metadata !"ssdm_int<32 + 1024 * 0, false>", metadata !119, i32 34, i64 32, i64 32, i32 0, i32 0, null, metadata !120, i32 0, null, metadata !129} ; [ DW_TAG_class_type ]
!119 = metadata !{i32 786473, metadata !"/home/brennan/Vivado/Vivado/2017.4/common/technology/autopilot/etc/autopilot_dt.def", metadata !"/home/brennan/Documents/pynq-copter/pynqcopter/ip/mixer", null} ; [ DW_TAG_file_type ]
!120 = metadata !{metadata !121, metadata !123}
!121 = metadata !{i32 786445, metadata !118, metadata !"V", metadata !119, i32 34, i64 32, i64 32, i64 0, i32 0, metadata !122} ; [ DW_TAG_member ]
!122 = metadata !{i32 786468, null, metadata !"uint32", null, i32 0, i64 32, i64 32, i64 0, i32 0, i32 7} ; [ DW_TAG_base_type ]
!123 = metadata !{i32 786478, i32 0, metadata !118, metadata !"ssdm_int", metadata !"ssdm_int", metadata !"", metadata !119, i32 34, metadata !124, i1 false, i1 false, i32 0, i32 0, null, i32 256, i1 false, null, null, i32 0, metadata !127, i32 34} ; [ DW_TAG_subprogram ]
!124 = metadata !{i32 786453, i32 0, metadata !"", i32 0, i32 0, i64 0, i64 0, i64 0, i32 0, null, metadata !125, i32 0, i32 0} ; [ DW_TAG_subroutine_type ]
!125 = metadata !{null, metadata !126}
!126 = metadata !{i32 786447, i32 0, metadata !"", i32 0, i32 0, i64 64, i64 64, i64 0, i32 64, metadata !118} ; [ DW_TAG_pointer_type ]
!127 = metadata !{metadata !128}
!128 = metadata !{i32 786468}                     ; [ DW_TAG_base_type ]
!129 = metadata !{metadata !130, metadata !132}
!130 = metadata !{i32 786480, null, metadata !"_AP_N", metadata !131, i64 32, null, i32 0, i32 0} ; [ DW_TAG_template_value_parameter ]
!131 = metadata !{i32 786468, null, metadata !"int", null, i32 0, i64 32, i64 32, i64 0, i32 0, i32 5} ; [ DW_TAG_base_type ]
!132 = metadata !{i32 786480, null, metadata !"_AP_S", metadata !133, i64 0, null, i32 0, i32 0} ; [ DW_TAG_template_value_parameter ]
!133 = metadata !{i32 786468, null, metadata !"bool", null, i32 0, i64 8, i64 8, i64 0, i32 0, i32 2} ; [ DW_TAG_base_type ]
!134 = metadata !{i32 786478, i32 0, metadata !114, metadata !"overflow_adjust", metadata !"overflow_adjust", metadata !"_ZN13ap_fixed_baseILi32ELi1ELb0EL9ap_q_mode5EL9ap_o_mode3ELi0EE15overflow_adjustEbbbb", metadata !115, i32 522, metadata !135, i1 false, i1 false, i32 0, i32 0, null, i32 256, i1 false, null, null, i32 0, metadata !127, i32 522} ; [ DW_TAG_subprogram ]
!135 = metadata !{i32 786453, i32 0, metadata !"", i32 0, i32 0, i64 0, i64 0, i64 0, i32 0, null, metadata !136, i32 0, i32 0} ; [ DW_TAG_subroutine_type ]
!136 = metadata !{null, metadata !137, metadata !133, metadata !133, metadata !133, metadata !133}
!137 = metadata !{i32 786447, i32 0, metadata !"", i32 0, i32 0, i64 64, i64 64, i64 0, i32 64, metadata !114} ; [ DW_TAG_pointer_type ]
!138 = metadata !{i32 786478, i32 0, metadata !114, metadata !"quantization_adjust", metadata !"quantization_adjust", metadata !"_ZN13ap_fixed_baseILi32ELi1ELb0EL9ap_q_mode5EL9ap_o_mode3ELi0EE19quantization_adjustEbbb", metadata !115, i32 595, metadata !139, i1 false, i1 false, i32 0, i32 0, null, i32 256, i1 false, null, null, i32 0, metadata !127, i32 595} ; [ DW_TAG_subprogram ]
!139 = metadata !{i32 786453, i32 0, metadata !"", i32 0, i32 0, i64 0, i64 0, i64 0, i32 0, null, metadata !140, i32 0, i32 0} ; [ DW_TAG_subroutine_type ]
!140 = metadata !{metadata !133, metadata !137, metadata !133, metadata !133, metadata !133}
!141 = metadata !{i32 786478, i32 0, metadata !114, metadata !"ap_fixed_base", metadata !"ap_fixed_base", metadata !"", metadata !115, i32 653, metadata !142, i1 false, i1 false, i32 0, i32 0, null, i32 256, i1 false, null, null, i32 0, metadata !127, i32 653} ; [ DW_TAG_subprogram ]
!142 = metadata !{i32 786453, i32 0, metadata !"", i32 0, i32 0, i64 0, i64 0, i64 0, i32 0, null, metadata !143, i32 0, i32 0} ; [ DW_TAG_subroutine_type ]
!143 = metadata !{null, metadata !137}
!144 = metadata !{i32 786478, i32 0, metadata !114, metadata !"ap_fixed_base<32, 1, false, 5, 3, 0>", metadata !"ap_fixed_base<32, 1, false, 5, 3, 0>", metadata !"", metadata !115, i32 663, metadata !145, i1 false, i1 false, i32 0, i32 0, null, i32 256, i1 false, null, metadata !149, i32 0, metadata !127, i32 663} ; [ DW_TAG_subprogram ]
!145 = metadata !{i32 786453, i32 0, metadata !"", i32 0, i32 0, i64 0, i64 0, i64 0, i32 0, null, metadata !146, i32 0, i32 0} ; [ DW_TAG_subroutine_type ]
!146 = metadata !{null, metadata !137, metadata !147}
!147 = metadata !{i32 786448, null, null, null, i32 0, i64 0, i64 0, i64 0, i32 0, metadata !148} ; [ DW_TAG_reference_type ]
!148 = metadata !{i32 786470, null, metadata !"", null, i32 0, i64 0, i64 0, i64 0, i32 0, metadata !114} ; [ DW_TAG_const_type ]
!149 = metadata !{metadata !150, metadata !151, metadata !152, metadata !153, metadata !164, metadata !172}
!150 = metadata !{i32 786480, null, metadata !"_AP_W2", metadata !131, i64 32, null, i32 0, i32 0} ; [ DW_TAG_template_value_parameter ]
!151 = metadata !{i32 786480, null, metadata !"_AP_I2", metadata !131, i64 1, null, i32 0, i32 0} ; [ DW_TAG_template_value_parameter ]
!152 = metadata !{i32 786480, null, metadata !"_AP_S2", metadata !133, i64 0, null, i32 0, i32 0} ; [ DW_TAG_template_value_parameter ]
!153 = metadata !{i32 786480, null, metadata !"_AP_Q2", metadata !154, i64 5, null, i32 0, i32 0} ; [ DW_TAG_template_value_parameter ]
!154 = metadata !{i32 786436, null, metadata !"ap_q_mode", metadata !155, i32 658, i64 3, i64 4, i32 0, i32 0, null, metadata !156, i32 0, i32 0} ; [ DW_TAG_enumeration_type ]
!155 = metadata !{i32 786473, metadata !"/home/brennan/Vivado/Vivado/2017.4/common/technology/autopilot/ap_int_syn.h", metadata !"/home/brennan/Documents/pynq-copter/pynqcopter/ip/mixer", null} ; [ DW_TAG_file_type ]
!156 = metadata !{metadata !157, metadata !158, metadata !159, metadata !160, metadata !161, metadata !162, metadata !163}
!157 = metadata !{i32 786472, metadata !"SC_RND", i64 0} ; [ DW_TAG_enumerator ]
!158 = metadata !{i32 786472, metadata !"SC_RND_ZERO", i64 1} ; [ DW_TAG_enumerator ]
!159 = metadata !{i32 786472, metadata !"SC_RND_MIN_INF", i64 2} ; [ DW_TAG_enumerator ]
!160 = metadata !{i32 786472, metadata !"SC_RND_INF", i64 3} ; [ DW_TAG_enumerator ]
!161 = metadata !{i32 786472, metadata !"SC_RND_CONV", i64 4} ; [ DW_TAG_enumerator ]
!162 = metadata !{i32 786472, metadata !"SC_TRN", i64 5} ; [ DW_TAG_enumerator ]
!163 = metadata !{i32 786472, metadata !"SC_TRN_ZERO", i64 6} ; [ DW_TAG_enumerator ]
!164 = metadata !{i32 786480, null, metadata !"_AP_O2", metadata !165, i64 3, null, i32 0, i32 0} ; [ DW_TAG_template_value_parameter ]
!165 = metadata !{i32 786436, null, metadata !"ap_o_mode", metadata !155, i32 668, i64 3, i64 4, i32 0, i32 0, null, metadata !166, i32 0, i32 0} ; [ DW_TAG_enumeration_type ]
!166 = metadata !{metadata !167, metadata !168, metadata !169, metadata !170, metadata !171}
!167 = metadata !{i32 786472, metadata !"SC_SAT", i64 0} ; [ DW_TAG_enumerator ]
!168 = metadata !{i32 786472, metadata !"SC_SAT_ZERO", i64 1} ; [ DW_TAG_enumerator ]
!169 = metadata !{i32 786472, metadata !"SC_SAT_SYM", i64 2} ; [ DW_TAG_enumerator ]
!170 = metadata !{i32 786472, metadata !"SC_WRAP", i64 3} ; [ DW_TAG_enumerator ]
!171 = metadata !{i32 786472, metadata !"SC_WRAP_SM", i64 4} ; [ DW_TAG_enumerator ]
!172 = metadata !{i32 786480, null, metadata !"_AP_N2", metadata !131, i64 0, null, i32 0, i32 0} ; [ DW_TAG_template_value_parameter ]
!173 = metadata !{i32 786478, i32 0, metadata !114, metadata !"ap_fixed_base<32, 1, false, 5, 3, 0>", metadata !"ap_fixed_base<32, 1, false, 5, 3, 0>", metadata !"", metadata !115, i32 777, metadata !174, i1 false, i1 false, i32 0, i32 0, null, i32 256, i1 false, null, metadata !149, i32 0, metadata !127, i32 777} ; [ DW_TAG_subprogram ]
!174 = metadata !{i32 786453, i32 0, metadata !"", i32 0, i32 0, i64 0, i64 0, i64 0, i32 0, null, metadata !175, i32 0, i32 0} ; [ DW_TAG_subroutine_type ]
!175 = metadata !{null, metadata !137, metadata !176}
!176 = metadata !{i32 786448, null, null, null, i32 0, i64 0, i64 0, i64 0, i32 0, metadata !177} ; [ DW_TAG_reference_type ]
!177 = metadata !{i32 786470, null, metadata !"", null, i32 0, i64 0, i64 0, i64 0, i32 0, metadata !178} ; [ DW_TAG_const_type ]
!178 = metadata !{i32 786485, null, metadata !"", null, i32 0, i64 0, i64 0, i64 0, i32 0, metadata !114} ; [ DW_TAG_volatile_type ]
!179 = metadata !{i32 786478, i32 0, metadata !114, metadata !"ap_fixed_base", metadata !"ap_fixed_base", metadata !"", metadata !115, i32 789, metadata !180, i1 false, i1 false, i32 0, i32 0, null, i32 256, i1 false, null, null, i32 0, metadata !127, i32 789} ; [ DW_TAG_subprogram ]
!180 = metadata !{i32 786453, i32 0, metadata !"", i32 0, i32 0, i64 0, i64 0, i64 0, i32 0, null, metadata !181, i32 0, i32 0} ; [ DW_TAG_subroutine_type ]
!181 = metadata !{null, metadata !137, metadata !133}
!182 = metadata !{i32 786478, i32 0, metadata !114, metadata !"ap_fixed_base", metadata !"ap_fixed_base", metadata !"", metadata !115, i32 790, metadata !183, i1 false, i1 false, i32 0, i32 0, null, i32 256, i1 false, null, null, i32 0, metadata !127, i32 790} ; [ DW_TAG_subprogram ]
!183 = metadata !{i32 786453, i32 0, metadata !"", i32 0, i32 0, i64 0, i64 0, i64 0, i32 0, null, metadata !184, i32 0, i32 0} ; [ DW_TAG_subroutine_type ]
!184 = metadata !{null, metadata !137, metadata !185}
!185 = metadata !{i32 786468, null, metadata !"char", null, i32 0, i64 8, i64 8, i64 0, i32 0, i32 6} ; [ DW_TAG_base_type ]
!186 = metadata !{i32 786478, i32 0, metadata !114, metadata !"ap_fixed_base", metadata !"ap_fixed_base", metadata !"", metadata !115, i32 791, metadata !187, i1 false, i1 false, i32 0, i32 0, null, i32 256, i1 false, null, null, i32 0, metadata !127, i32 791} ; [ DW_TAG_subprogram ]
!187 = metadata !{i32 786453, i32 0, metadata !"", i32 0, i32 0, i64 0, i64 0, i64 0, i32 0, null, metadata !188, i32 0, i32 0} ; [ DW_TAG_subroutine_type ]
!188 = metadata !{null, metadata !137, metadata !189}
!189 = metadata !{i32 786468, null, metadata !"signed char", null, i32 0, i64 8, i64 8, i64 0, i32 0, i32 6} ; [ DW_TAG_base_type ]
!190 = metadata !{i32 786478, i32 0, metadata !114, metadata !"ap_fixed_base", metadata !"ap_fixed_base", metadata !"", metadata !115, i32 792, metadata !191, i1 false, i1 false, i32 0, i32 0, null, i32 256, i1 false, null, null, i32 0, metadata !127, i32 792} ; [ DW_TAG_subprogram ]
!191 = metadata !{i32 786453, i32 0, metadata !"", i32 0, i32 0, i64 0, i64 0, i64 0, i32 0, null, metadata !192, i32 0, i32 0} ; [ DW_TAG_subroutine_type ]
!192 = metadata !{null, metadata !137, metadata !193}
!193 = metadata !{i32 786468, null, metadata !"unsigned char", null, i32 0, i64 8, i64 8, i64 0, i32 0, i32 8} ; [ DW_TAG_base_type ]
!194 = metadata !{i32 786478, i32 0, metadata !114, metadata !"ap_fixed_base", metadata !"ap_fixed_base", metadata !"", metadata !115, i32 793, metadata !195, i1 false, i1 false, i32 0, i32 0, null, i32 256, i1 false, null, null, i32 0, metadata !127, i32 793} ; [ DW_TAG_subprogram ]
!195 = metadata !{i32 786453, i32 0, metadata !"", i32 0, i32 0, i64 0, i64 0, i64 0, i32 0, null, metadata !196, i32 0, i32 0} ; [ DW_TAG_subroutine_type ]
!196 = metadata !{null, metadata !137, metadata !197}
!197 = metadata !{i32 786468, null, metadata !"short", null, i32 0, i64 16, i64 16, i64 0, i32 0, i32 5} ; [ DW_TAG_base_type ]
!198 = metadata !{i32 786478, i32 0, metadata !114, metadata !"ap_fixed_base", metadata !"ap_fixed_base", metadata !"", metadata !115, i32 794, metadata !199, i1 false, i1 false, i32 0, i32 0, null, i32 256, i1 false, null, null, i32 0, metadata !127, i32 794} ; [ DW_TAG_subprogram ]
!199 = metadata !{i32 786453, i32 0, metadata !"", i32 0, i32 0, i64 0, i64 0, i64 0, i32 0, null, metadata !200, i32 0, i32 0} ; [ DW_TAG_subroutine_type ]
!200 = metadata !{null, metadata !137, metadata !201}
!201 = metadata !{i32 786468, null, metadata !"unsigned short", null, i32 0, i64 16, i64 16, i64 0, i32 0, i32 7} ; [ DW_TAG_base_type ]
!202 = metadata !{i32 786478, i32 0, metadata !114, metadata !"ap_fixed_base", metadata !"ap_fixed_base", metadata !"", metadata !115, i32 795, metadata !203, i1 false, i1 false, i32 0, i32 0, null, i32 256, i1 false, null, null, i32 0, metadata !127, i32 795} ; [ DW_TAG_subprogram ]
!203 = metadata !{i32 786453, i32 0, metadata !"", i32 0, i32 0, i64 0, i64 0, i64 0, i32 0, null, metadata !204, i32 0, i32 0} ; [ DW_TAG_subroutine_type ]
!204 = metadata !{null, metadata !137, metadata !131}
!205 = metadata !{i32 786478, i32 0, metadata !114, metadata !"ap_fixed_base", metadata !"ap_fixed_base", metadata !"", metadata !115, i32 796, metadata !206, i1 false, i1 false, i32 0, i32 0, null, i32 256, i1 false, null, null, i32 0, metadata !127, i32 796} ; [ DW_TAG_subprogram ]
!206 = metadata !{i32 786453, i32 0, metadata !"", i32 0, i32 0, i64 0, i64 0, i64 0, i32 0, null, metadata !207, i32 0, i32 0} ; [ DW_TAG_subroutine_type ]
!207 = metadata !{null, metadata !137, metadata !208}
!208 = metadata !{i32 786468, null, metadata !"unsigned int", null, i32 0, i64 32, i64 32, i64 0, i32 0, i32 7} ; [ DW_TAG_base_type ]
!209 = metadata !{i32 786478, i32 0, metadata !114, metadata !"ap_fixed_base", metadata !"ap_fixed_base", metadata !"", metadata !115, i32 798, metadata !210, i1 false, i1 false, i32 0, i32 0, null, i32 256, i1 false, null, null, i32 0, metadata !127, i32 798} ; [ DW_TAG_subprogram ]
!210 = metadata !{i32 786453, i32 0, metadata !"", i32 0, i32 0, i64 0, i64 0, i64 0, i32 0, null, metadata !211, i32 0, i32 0} ; [ DW_TAG_subroutine_type ]
!211 = metadata !{null, metadata !137, metadata !212}
!212 = metadata !{i32 786468, null, metadata !"long int", null, i32 0, i64 64, i64 64, i64 0, i32 0, i32 5} ; [ DW_TAG_base_type ]
!213 = metadata !{i32 786478, i32 0, metadata !114, metadata !"ap_fixed_base", metadata !"ap_fixed_base", metadata !"", metadata !115, i32 799, metadata !214, i1 false, i1 false, i32 0, i32 0, null, i32 256, i1 false, null, null, i32 0, metadata !127, i32 799} ; [ DW_TAG_subprogram ]
!214 = metadata !{i32 786453, i32 0, metadata !"", i32 0, i32 0, i64 0, i64 0, i64 0, i32 0, null, metadata !215, i32 0, i32 0} ; [ DW_TAG_subroutine_type ]
!215 = metadata !{null, metadata !137, metadata !216}
!216 = metadata !{i32 786468, null, metadata !"long unsigned int", null, i32 0, i64 64, i64 64, i64 0, i32 0, i32 7} ; [ DW_TAG_base_type ]
!217 = metadata !{i32 786478, i32 0, metadata !114, metadata !"ap_fixed_base", metadata !"ap_fixed_base", metadata !"", metadata !115, i32 804, metadata !218, i1 false, i1 false, i32 0, i32 0, null, i32 256, i1 false, null, null, i32 0, metadata !127, i32 804} ; [ DW_TAG_subprogram ]
!218 = metadata !{i32 786453, i32 0, metadata !"", i32 0, i32 0, i64 0, i64 0, i64 0, i32 0, null, metadata !219, i32 0, i32 0} ; [ DW_TAG_subroutine_type ]
!219 = metadata !{null, metadata !137, metadata !220}
!220 = metadata !{i32 786454, null, metadata !"ap_slong", metadata !115, i32 112, i64 0, i64 0, i64 0, i32 0, metadata !221} ; [ DW_TAG_typedef ]
!221 = metadata !{i32 786468, null, metadata !"long long int", null, i32 0, i64 64, i64 64, i64 0, i32 0, i32 5} ; [ DW_TAG_base_type ]
!222 = metadata !{i32 786478, i32 0, metadata !114, metadata !"ap_fixed_base", metadata !"ap_fixed_base", metadata !"", metadata !115, i32 805, metadata !223, i1 false, i1 false, i32 0, i32 0, null, i32 256, i1 false, null, null, i32 0, metadata !127, i32 805} ; [ DW_TAG_subprogram ]
!223 = metadata !{i32 786453, i32 0, metadata !"", i32 0, i32 0, i64 0, i64 0, i64 0, i32 0, null, metadata !224, i32 0, i32 0} ; [ DW_TAG_subroutine_type ]
!224 = metadata !{null, metadata !137, metadata !225}
!225 = metadata !{i32 786454, null, metadata !"ap_ulong", metadata !115, i32 111, i64 0, i64 0, i64 0, i32 0, metadata !226} ; [ DW_TAG_typedef ]
!226 = metadata !{i32 786468, null, metadata !"long long unsigned int", null, i32 0, i64 64, i64 64, i64 0, i32 0, i32 7} ; [ DW_TAG_base_type ]
!227 = metadata !{i32 786478, i32 0, metadata !114, metadata !"ap_fixed_base", metadata !"ap_fixed_base", metadata !"", metadata !115, i32 806, metadata !228, i1 false, i1 false, i32 0, i32 0, null, i32 256, i1 false, null, null, i32 0, metadata !127, i32 806} ; [ DW_TAG_subprogram ]
!228 = metadata !{i32 786453, i32 0, metadata !"", i32 0, i32 0, i64 0, i64 0, i64 0, i32 0, null, metadata !229, i32 0, i32 0} ; [ DW_TAG_subroutine_type ]
!229 = metadata !{null, metadata !137, metadata !230}
!230 = metadata !{i32 786447, null, metadata !"", null, i32 0, i64 64, i64 64, i64 0, i32 0, metadata !231} ; [ DW_TAG_pointer_type ]
!231 = metadata !{i32 786470, null, metadata !"", null, i32 0, i64 0, i64 0, i64 0, i32 0, metadata !185} ; [ DW_TAG_const_type ]
!232 = metadata !{i32 786478, i32 0, metadata !114, metadata !"ap_fixed_base", metadata !"ap_fixed_base", metadata !"", metadata !115, i32 813, metadata !233, i1 false, i1 false, i32 0, i32 0, null, i32 256, i1 false, null, null, i32 0, metadata !127, i32 813} ; [ DW_TAG_subprogram ]
!233 = metadata !{i32 786453, i32 0, metadata !"", i32 0, i32 0, i64 0, i64 0, i64 0, i32 0, null, metadata !234, i32 0, i32 0} ; [ DW_TAG_subroutine_type ]
!234 = metadata !{null, metadata !137, metadata !230, metadata !189}
!235 = metadata !{i32 786478, i32 0, metadata !114, metadata !"doubleToRawBits", metadata !"doubleToRawBits", metadata !"_ZNK13ap_fixed_baseILi32ELi1ELb0EL9ap_q_mode5EL9ap_o_mode3ELi0EE15doubleToRawBitsEd", metadata !115, i32 849, metadata !236, i1 false, i1 false, i32 0, i32 0, null, i32 256, i1 false, null, null, i32 0, metadata !127, i32 849} ; [ DW_TAG_subprogram ]
!236 = metadata !{i32 786453, i32 0, metadata !"", i32 0, i32 0, i64 0, i64 0, i64 0, i32 0, null, metadata !237, i32 0, i32 0} ; [ DW_TAG_subroutine_type ]
!237 = metadata !{metadata !226, metadata !238, metadata !239}
!238 = metadata !{i32 786447, i32 0, metadata !"", i32 0, i32 0, i64 64, i64 64, i64 0, i32 64, metadata !148} ; [ DW_TAG_pointer_type ]
!239 = metadata !{i32 786468, null, metadata !"double", null, i32 0, i64 64, i64 64, i64 0, i32 0, i32 4} ; [ DW_TAG_base_type ]
!240 = metadata !{i32 786478, i32 0, metadata !114, metadata !"floatToRawBits", metadata !"floatToRawBits", metadata !"_ZNK13ap_fixed_baseILi32ELi1ELb0EL9ap_q_mode5EL9ap_o_mode3ELi0EE14floatToRawBitsEf", metadata !115, i32 857, metadata !241, i1 false, i1 false, i32 0, i32 0, null, i32 256, i1 false, null, null, i32 0, metadata !127, i32 857} ; [ DW_TAG_subprogram ]
!241 = metadata !{i32 786453, i32 0, metadata !"", i32 0, i32 0, i64 0, i64 0, i64 0, i32 0, null, metadata !242, i32 0, i32 0} ; [ DW_TAG_subroutine_type ]
!242 = metadata !{metadata !208, metadata !238, metadata !243}
!243 = metadata !{i32 786468, null, metadata !"float", null, i32 0, i64 32, i64 32, i64 0, i32 0, i32 4} ; [ DW_TAG_base_type ]
!244 = metadata !{i32 786478, i32 0, metadata !114, metadata !"halfToRawBits", metadata !"halfToRawBits", metadata !"_ZNK13ap_fixed_baseILi32ELi1ELb0EL9ap_q_mode5EL9ap_o_mode3ELi0EE13halfToRawBitsEDh", metadata !115, i32 865, metadata !245, i1 false, i1 false, i32 0, i32 0, null, i32 256, i1 false, null, null, i32 0, metadata !127, i32 865} ; [ DW_TAG_subprogram ]
!245 = metadata !{i32 786453, i32 0, metadata !"", i32 0, i32 0, i64 0, i64 0, i64 0, i32 0, null, metadata !246, i32 0, i32 0} ; [ DW_TAG_subroutine_type ]
!246 = metadata !{metadata !201, metadata !238, metadata !247}
!247 = metadata !{i32 786454, null, metadata !"half", metadata !115, i32 54, i64 0, i64 0, i64 0, i32 0, metadata !248} ; [ DW_TAG_typedef ]
!248 = metadata !{i32 786468, null, metadata !"half", null, i32 0, i64 16, i64 16, i64 0, i32 0, i32 4} ; [ DW_TAG_base_type ]
!249 = metadata !{i32 786478, i32 0, metadata !114, metadata !"rawBitsToDouble", metadata !"rawBitsToDouble", metadata !"_ZNK13ap_fixed_baseILi32ELi1ELb0EL9ap_q_mode5EL9ap_o_mode3ELi0EE15rawBitsToDoubleEy", metadata !115, i32 874, metadata !250, i1 false, i1 false, i32 0, i32 0, null, i32 256, i1 false, null, null, i32 0, metadata !127, i32 874} ; [ DW_TAG_subprogram ]
!250 = metadata !{i32 786453, i32 0, metadata !"", i32 0, i32 0, i64 0, i64 0, i64 0, i32 0, null, metadata !251, i32 0, i32 0} ; [ DW_TAG_subroutine_type ]
!251 = metadata !{metadata !239, metadata !238, metadata !226}
!252 = metadata !{i32 786478, i32 0, metadata !114, metadata !"rawBitsToFloat", metadata !"rawBitsToFloat", metadata !"_ZNK13ap_fixed_baseILi32ELi1ELb0EL9ap_q_mode5EL9ap_o_mode3ELi0EE14rawBitsToFloatEj", metadata !115, i32 883, metadata !253, i1 false, i1 false, i32 0, i32 0, null, i32 256, i1 false, null, null, i32 0, metadata !127, i32 883} ; [ DW_TAG_subprogram ]
!253 = metadata !{i32 786453, i32 0, metadata !"", i32 0, i32 0, i64 0, i64 0, i64 0, i32 0, null, metadata !254, i32 0, i32 0} ; [ DW_TAG_subroutine_type ]
!254 = metadata !{metadata !243, metadata !238, metadata !208}
!255 = metadata !{i32 786478, i32 0, metadata !114, metadata !"rawBitsToHalf", metadata !"rawBitsToHalf", metadata !"_ZNK13ap_fixed_baseILi32ELi1ELb0EL9ap_q_mode5EL9ap_o_mode3ELi0EE13rawBitsToHalfEt", metadata !115, i32 892, metadata !256, i1 false, i1 false, i32 0, i32 0, null, i32 256, i1 false, null, null, i32 0, metadata !127, i32 892} ; [ DW_TAG_subprogram ]
!256 = metadata !{i32 786453, i32 0, metadata !"", i32 0, i32 0, i64 0, i64 0, i64 0, i32 0, null, metadata !257, i32 0, i32 0} ; [ DW_TAG_subroutine_type ]
!257 = metadata !{metadata !247, metadata !238, metadata !201}
!258 = metadata !{i32 786478, i32 0, metadata !114, metadata !"ap_fixed_base", metadata !"ap_fixed_base", metadata !"", metadata !115, i32 901, metadata !259, i1 false, i1 false, i32 0, i32 0, null, i32 256, i1 false, null, null, i32 0, metadata !127, i32 901} ; [ DW_TAG_subprogram ]
!259 = metadata !{i32 786453, i32 0, metadata !"", i32 0, i32 0, i64 0, i64 0, i64 0, i32 0, null, metadata !260, i32 0, i32 0} ; [ DW_TAG_subroutine_type ]
!260 = metadata !{null, metadata !137, metadata !239}
!261 = metadata !{i32 786478, i32 0, metadata !114, metadata !"ap_fixed_base", metadata !"ap_fixed_base", metadata !"", metadata !115, i32 1014, metadata !262, i1 false, i1 false, i32 0, i32 0, null, i32 256, i1 false, null, null, i32 0, metadata !127, i32 1014} ; [ DW_TAG_subprogram ]
!262 = metadata !{i32 786453, i32 0, metadata !"", i32 0, i32 0, i64 0, i64 0, i64 0, i32 0, null, metadata !263, i32 0, i32 0} ; [ DW_TAG_subroutine_type ]
!263 = metadata !{null, metadata !137, metadata !243}
!264 = metadata !{i32 786478, i32 0, metadata !114, metadata !"ap_fixed_base", metadata !"ap_fixed_base", metadata !"", metadata !115, i32 1018, metadata !265, i1 false, i1 false, i32 0, i32 0, null, i32 256, i1 false, null, null, i32 0, metadata !127, i32 1018} ; [ DW_TAG_subprogram ]
!265 = metadata !{i32 786453, i32 0, metadata !"", i32 0, i32 0, i64 0, i64 0, i64 0, i32 0, null, metadata !266, i32 0, i32 0} ; [ DW_TAG_subroutine_type ]
!266 = metadata !{null, metadata !137, metadata !247}
!267 = metadata !{i32 786478, i32 0, metadata !114, metadata !"operator=", metadata !"operator=", metadata !"_ZN13ap_fixed_baseILi32ELi1ELb0EL9ap_q_mode5EL9ap_o_mode3ELi0EEaSERKS2_", metadata !115, i32 1022, metadata !268, i1 false, i1 false, i32 0, i32 0, null, i32 256, i1 false, null, null, i32 0, metadata !127, i32 1022} ; [ DW_TAG_subprogram ]
!268 = metadata !{i32 786453, i32 0, metadata !"", i32 0, i32 0, i64 0, i64 0, i64 0, i32 0, null, metadata !269, i32 0, i32 0} ; [ DW_TAG_subroutine_type ]
!269 = metadata !{metadata !270, metadata !137, metadata !147}
!270 = metadata !{i32 786448, null, null, null, i32 0, i64 0, i64 0, i64 0, i32 0, metadata !114} ; [ DW_TAG_reference_type ]
!271 = metadata !{i32 786478, i32 0, metadata !114, metadata !"operator=", metadata !"operator=", metadata !"_ZN13ap_fixed_baseILi32ELi1ELb0EL9ap_q_mode5EL9ap_o_mode3ELi0EEaSERVKS2_", metadata !115, i32 1029, metadata !272, i1 false, i1 false, i32 0, i32 0, null, i32 256, i1 false, null, null, i32 0, metadata !127, i32 1029} ; [ DW_TAG_subprogram ]
!272 = metadata !{i32 786453, i32 0, metadata !"", i32 0, i32 0, i64 0, i64 0, i64 0, i32 0, null, metadata !273, i32 0, i32 0} ; [ DW_TAG_subroutine_type ]
!273 = metadata !{metadata !270, metadata !137, metadata !176}
!274 = metadata !{i32 786478, i32 0, metadata !114, metadata !"operator=", metadata !"operator=", metadata !"_ZNV13ap_fixed_baseILi32ELi1ELb0EL9ap_q_mode5EL9ap_o_mode3ELi0EEaSERKS2_", metadata !115, i32 1036, metadata !275, i1 false, i1 false, i32 0, i32 0, null, i32 256, i1 false, null, null, i32 0, metadata !127, i32 1036} ; [ DW_TAG_subprogram ]
!275 = metadata !{i32 786453, i32 0, metadata !"", i32 0, i32 0, i64 0, i64 0, i64 0, i32 0, null, metadata !276, i32 0, i32 0} ; [ DW_TAG_subroutine_type ]
!276 = metadata !{null, metadata !277, metadata !147}
!277 = metadata !{i32 786447, i32 0, metadata !"", i32 0, i32 0, i64 64, i64 64, i64 0, i32 64, metadata !178} ; [ DW_TAG_pointer_type ]
!278 = metadata !{i32 786478, i32 0, metadata !114, metadata !"operator=", metadata !"operator=", metadata !"_ZNV13ap_fixed_baseILi32ELi1ELb0EL9ap_q_mode5EL9ap_o_mode3ELi0EEaSERVKS2_", metadata !115, i32 1042, metadata !279, i1 false, i1 false, i32 0, i32 0, null, i32 256, i1 false, null, null, i32 0, metadata !127, i32 1042} ; [ DW_TAG_subprogram ]
!279 = metadata !{i32 786453, i32 0, metadata !"", i32 0, i32 0, i64 0, i64 0, i64 0, i32 0, null, metadata !280, i32 0, i32 0} ; [ DW_TAG_subroutine_type ]
!280 = metadata !{null, metadata !277, metadata !176}
!281 = metadata !{i32 786478, i32 0, metadata !114, metadata !"setBits", metadata !"setBits", metadata !"_ZN13ap_fixed_baseILi32ELi1ELb0EL9ap_q_mode5EL9ap_o_mode3ELi0EE7setBitsEy", metadata !115, i32 1051, metadata !282, i1 false, i1 false, i32 0, i32 0, null, i32 256, i1 false, null, null, i32 0, metadata !127, i32 1051} ; [ DW_TAG_subprogram ]
!282 = metadata !{i32 786453, i32 0, metadata !"", i32 0, i32 0, i64 0, i64 0, i64 0, i32 0, null, metadata !283, i32 0, i32 0} ; [ DW_TAG_subroutine_type ]
!283 = metadata !{metadata !270, metadata !137, metadata !226}
!284 = metadata !{i32 786478, i32 0, metadata !114, metadata !"bitsToFixed", metadata !"bitsToFixed", metadata !"_ZN13ap_fixed_baseILi32ELi1ELb0EL9ap_q_mode5EL9ap_o_mode3ELi0EE11bitsToFixedEy", metadata !115, i32 1057, metadata !285, i1 false, i1 false, i32 0, i32 0, null, i32 256, i1 false, null, null, i32 0, metadata !127, i32 1057} ; [ DW_TAG_subprogram ]
!285 = metadata !{i32 786453, i32 0, metadata !"", i32 0, i32 0, i64 0, i64 0, i64 0, i32 0, null, metadata !286, i32 0, i32 0} ; [ DW_TAG_subroutine_type ]
!286 = metadata !{metadata !114, metadata !226}
!287 = metadata !{i32 786478, i32 0, metadata !114, metadata !"to_ap_int_base", metadata !"to_ap_int_base", metadata !"_ZNK13ap_fixed_baseILi32ELi1ELb0EL9ap_q_mode5EL9ap_o_mode3ELi0EE14to_ap_int_baseEb", metadata !115, i32 1066, metadata !288, i1 false, i1 false, i32 0, i32 0, null, i32 256, i1 false, null, null, i32 0, metadata !127, i32 1066} ; [ DW_TAG_subprogram ]
!288 = metadata !{i32 786453, i32 0, metadata !"", i32 0, i32 0, i64 0, i64 0, i64 0, i32 0, null, metadata !289, i32 0, i32 0} ; [ DW_TAG_subroutine_type ]
!289 = metadata !{metadata !290, metadata !238, metadata !133}
!290 = metadata !{i32 786434, null, metadata !"ap_int_base<1, false, true>", metadata !155, i32 1453, i64 8, i64 8, i32 0, i32 0, null, metadata !291, i32 0, null, metadata !540} ; [ DW_TAG_class_type ]
!291 = metadata !{metadata !292, metadata !303, metadata !307, metadata !310, metadata !313, metadata !316, metadata !319, metadata !322, metadata !325, metadata !328, metadata !331, metadata !334, metadata !337, metadata !340, metadata !343, metadata !346, metadata !349, metadata !352, metadata !355, metadata !360, metadata !365, metadata !370, metadata !371, metadata !375, metadata !378, metadata !381, metadata !384, metadata !387, metadata !390, metadata !393, metadata !396, metadata !399, metadata !402, metadata !405, metadata !408, metadata !416, metadata !419, metadata !422, metadata !425, metadata !428, metadata !431, metadata !434, metadata !437, metadata !440, metadata !443, metadata !446, metadata !449, metadata !452, metadata !453, metadata !457, metadata !460, metadata !461, metadata !462, metadata !463, metadata !464, metadata !465, metadata !468, metadata !469, metadata !472, metadata !473, metadata !474, metadata !475, metadata !476, metadata !477, metadata !480, metadata !481, metadata !482, metadata !485, metadata !486, metadata !489, metadata !490, metadata !494, metadata !498, metadata !499, metadata !502, metadata !503, metadata !507, metadata !508, metadata !509, metadata !510, metadata !513, metadata !514, metadata !515, metadata !516, metadata !517, metadata !518, metadata !519, metadata !520, metadata !521, metadata !522, metadata !523, metadata !524, metadata !534, metadata !537}
!292 = metadata !{i32 786460, metadata !290, null, metadata !155, i32 0, i64 0, i64 0, i64 0, i32 0, metadata !293} ; [ DW_TAG_inheritance ]
!293 = metadata !{i32 786434, null, metadata !"ssdm_int<1 + 1024 * 0, false>", metadata !119, i32 3, i64 8, i64 8, i32 0, i32 0, null, metadata !294, i32 0, null, metadata !301} ; [ DW_TAG_class_type ]
!294 = metadata !{metadata !295, metadata !297}
!295 = metadata !{i32 786445, metadata !293, metadata !"V", metadata !119, i32 3, i64 1, i64 1, i64 0, i32 0, metadata !296} ; [ DW_TAG_member ]
!296 = metadata !{i32 786468, null, metadata !"uint1", null, i32 0, i64 1, i64 1, i64 0, i32 0, i32 7} ; [ DW_TAG_base_type ]
!297 = metadata !{i32 786478, i32 0, metadata !293, metadata !"ssdm_int", metadata !"ssdm_int", metadata !"", metadata !119, i32 3, metadata !298, i1 false, i1 false, i32 0, i32 0, null, i32 256, i1 false, null, null, i32 0, metadata !127, i32 3} ; [ DW_TAG_subprogram ]
!298 = metadata !{i32 786453, i32 0, metadata !"", i32 0, i32 0, i64 0, i64 0, i64 0, i32 0, null, metadata !299, i32 0, i32 0} ; [ DW_TAG_subroutine_type ]
!299 = metadata !{null, metadata !300}
!300 = metadata !{i32 786447, i32 0, metadata !"", i32 0, i32 0, i64 64, i64 64, i64 0, i32 64, metadata !293} ; [ DW_TAG_pointer_type ]
!301 = metadata !{metadata !302, metadata !132}
!302 = metadata !{i32 786480, null, metadata !"_AP_N", metadata !131, i64 1, null, i32 0, i32 0} ; [ DW_TAG_template_value_parameter ]
!303 = metadata !{i32 786478, i32 0, metadata !290, metadata !"ap_int_base", metadata !"ap_int_base", metadata !"", metadata !155, i32 1494, metadata !304, i1 false, i1 false, i32 0, i32 0, null, i32 256, i1 false, null, null, i32 0, metadata !127, i32 1494} ; [ DW_TAG_subprogram ]
!304 = metadata !{i32 786453, i32 0, metadata !"", i32 0, i32 0, i64 0, i64 0, i64 0, i32 0, null, metadata !305, i32 0, i32 0} ; [ DW_TAG_subroutine_type ]
!305 = metadata !{null, metadata !306}
!306 = metadata !{i32 786447, i32 0, metadata !"", i32 0, i32 0, i64 64, i64 64, i64 0, i32 64, metadata !290} ; [ DW_TAG_pointer_type ]
!307 = metadata !{i32 786478, i32 0, metadata !290, metadata !"ap_int_base", metadata !"ap_int_base", metadata !"", metadata !155, i32 1516, metadata !308, i1 false, i1 false, i32 0, i32 0, null, i32 384, i1 false, null, null, i32 0, metadata !127, i32 1516} ; [ DW_TAG_subprogram ]
!308 = metadata !{i32 786453, i32 0, metadata !"", i32 0, i32 0, i64 0, i64 0, i64 0, i32 0, null, metadata !309, i32 0, i32 0} ; [ DW_TAG_subroutine_type ]
!309 = metadata !{null, metadata !306, metadata !133}
!310 = metadata !{i32 786478, i32 0, metadata !290, metadata !"ap_int_base", metadata !"ap_int_base", metadata !"", metadata !155, i32 1517, metadata !311, i1 false, i1 false, i32 0, i32 0, null, i32 384, i1 false, null, null, i32 0, metadata !127, i32 1517} ; [ DW_TAG_subprogram ]
!311 = metadata !{i32 786453, i32 0, metadata !"", i32 0, i32 0, i64 0, i64 0, i64 0, i32 0, null, metadata !312, i32 0, i32 0} ; [ DW_TAG_subroutine_type ]
!312 = metadata !{null, metadata !306, metadata !189}
!313 = metadata !{i32 786478, i32 0, metadata !290, metadata !"ap_int_base", metadata !"ap_int_base", metadata !"", metadata !155, i32 1518, metadata !314, i1 false, i1 false, i32 0, i32 0, null, i32 384, i1 false, null, null, i32 0, metadata !127, i32 1518} ; [ DW_TAG_subprogram ]
!314 = metadata !{i32 786453, i32 0, metadata !"", i32 0, i32 0, i64 0, i64 0, i64 0, i32 0, null, metadata !315, i32 0, i32 0} ; [ DW_TAG_subroutine_type ]
!315 = metadata !{null, metadata !306, metadata !193}
!316 = metadata !{i32 786478, i32 0, metadata !290, metadata !"ap_int_base", metadata !"ap_int_base", metadata !"", metadata !155, i32 1519, metadata !317, i1 false, i1 false, i32 0, i32 0, null, i32 384, i1 false, null, null, i32 0, metadata !127, i32 1519} ; [ DW_TAG_subprogram ]
!317 = metadata !{i32 786453, i32 0, metadata !"", i32 0, i32 0, i64 0, i64 0, i64 0, i32 0, null, metadata !318, i32 0, i32 0} ; [ DW_TAG_subroutine_type ]
!318 = metadata !{null, metadata !306, metadata !197}
!319 = metadata !{i32 786478, i32 0, metadata !290, metadata !"ap_int_base", metadata !"ap_int_base", metadata !"", metadata !155, i32 1520, metadata !320, i1 false, i1 false, i32 0, i32 0, null, i32 384, i1 false, null, null, i32 0, metadata !127, i32 1520} ; [ DW_TAG_subprogram ]
!320 = metadata !{i32 786453, i32 0, metadata !"", i32 0, i32 0, i64 0, i64 0, i64 0, i32 0, null, metadata !321, i32 0, i32 0} ; [ DW_TAG_subroutine_type ]
!321 = metadata !{null, metadata !306, metadata !201}
!322 = metadata !{i32 786478, i32 0, metadata !290, metadata !"ap_int_base", metadata !"ap_int_base", metadata !"", metadata !155, i32 1521, metadata !323, i1 false, i1 false, i32 0, i32 0, null, i32 384, i1 false, null, null, i32 0, metadata !127, i32 1521} ; [ DW_TAG_subprogram ]
!323 = metadata !{i32 786453, i32 0, metadata !"", i32 0, i32 0, i64 0, i64 0, i64 0, i32 0, null, metadata !324, i32 0, i32 0} ; [ DW_TAG_subroutine_type ]
!324 = metadata !{null, metadata !306, metadata !131}
!325 = metadata !{i32 786478, i32 0, metadata !290, metadata !"ap_int_base", metadata !"ap_int_base", metadata !"", metadata !155, i32 1522, metadata !326, i1 false, i1 false, i32 0, i32 0, null, i32 384, i1 false, null, null, i32 0, metadata !127, i32 1522} ; [ DW_TAG_subprogram ]
!326 = metadata !{i32 786453, i32 0, metadata !"", i32 0, i32 0, i64 0, i64 0, i64 0, i32 0, null, metadata !327, i32 0, i32 0} ; [ DW_TAG_subroutine_type ]
!327 = metadata !{null, metadata !306, metadata !208}
!328 = metadata !{i32 786478, i32 0, metadata !290, metadata !"ap_int_base", metadata !"ap_int_base", metadata !"", metadata !155, i32 1523, metadata !329, i1 false, i1 false, i32 0, i32 0, null, i32 384, i1 false, null, null, i32 0, metadata !127, i32 1523} ; [ DW_TAG_subprogram ]
!329 = metadata !{i32 786453, i32 0, metadata !"", i32 0, i32 0, i64 0, i64 0, i64 0, i32 0, null, metadata !330, i32 0, i32 0} ; [ DW_TAG_subroutine_type ]
!330 = metadata !{null, metadata !306, metadata !212}
!331 = metadata !{i32 786478, i32 0, metadata !290, metadata !"ap_int_base", metadata !"ap_int_base", metadata !"", metadata !155, i32 1524, metadata !332, i1 false, i1 false, i32 0, i32 0, null, i32 384, i1 false, null, null, i32 0, metadata !127, i32 1524} ; [ DW_TAG_subprogram ]
!332 = metadata !{i32 786453, i32 0, metadata !"", i32 0, i32 0, i64 0, i64 0, i64 0, i32 0, null, metadata !333, i32 0, i32 0} ; [ DW_TAG_subroutine_type ]
!333 = metadata !{null, metadata !306, metadata !216}
!334 = metadata !{i32 786478, i32 0, metadata !290, metadata !"ap_int_base", metadata !"ap_int_base", metadata !"", metadata !155, i32 1525, metadata !335, i1 false, i1 false, i32 0, i32 0, null, i32 384, i1 false, null, null, i32 0, metadata !127, i32 1525} ; [ DW_TAG_subprogram ]
!335 = metadata !{i32 786453, i32 0, metadata !"", i32 0, i32 0, i64 0, i64 0, i64 0, i32 0, null, metadata !336, i32 0, i32 0} ; [ DW_TAG_subroutine_type ]
!336 = metadata !{null, metadata !306, metadata !220}
!337 = metadata !{i32 786478, i32 0, metadata !290, metadata !"ap_int_base", metadata !"ap_int_base", metadata !"", metadata !155, i32 1526, metadata !338, i1 false, i1 false, i32 0, i32 0, null, i32 384, i1 false, null, null, i32 0, metadata !127, i32 1526} ; [ DW_TAG_subprogram ]
!338 = metadata !{i32 786453, i32 0, metadata !"", i32 0, i32 0, i64 0, i64 0, i64 0, i32 0, null, metadata !339, i32 0, i32 0} ; [ DW_TAG_subroutine_type ]
!339 = metadata !{null, metadata !306, metadata !225}
!340 = metadata !{i32 786478, i32 0, metadata !290, metadata !"ap_int_base", metadata !"ap_int_base", metadata !"", metadata !155, i32 1527, metadata !341, i1 false, i1 false, i32 0, i32 0, null, i32 384, i1 false, null, null, i32 0, metadata !127, i32 1527} ; [ DW_TAG_subprogram ]
!341 = metadata !{i32 786453, i32 0, metadata !"", i32 0, i32 0, i64 0, i64 0, i64 0, i32 0, null, metadata !342, i32 0, i32 0} ; [ DW_TAG_subroutine_type ]
!342 = metadata !{null, metadata !306, metadata !247}
!343 = metadata !{i32 786478, i32 0, metadata !290, metadata !"ap_int_base", metadata !"ap_int_base", metadata !"", metadata !155, i32 1528, metadata !344, i1 false, i1 false, i32 0, i32 0, null, i32 384, i1 false, null, null, i32 0, metadata !127, i32 1528} ; [ DW_TAG_subprogram ]
!344 = metadata !{i32 786453, i32 0, metadata !"", i32 0, i32 0, i64 0, i64 0, i64 0, i32 0, null, metadata !345, i32 0, i32 0} ; [ DW_TAG_subroutine_type ]
!345 = metadata !{null, metadata !306, metadata !243}
!346 = metadata !{i32 786478, i32 0, metadata !290, metadata !"ap_int_base", metadata !"ap_int_base", metadata !"", metadata !155, i32 1529, metadata !347, i1 false, i1 false, i32 0, i32 0, null, i32 384, i1 false, null, null, i32 0, metadata !127, i32 1529} ; [ DW_TAG_subprogram ]
!347 = metadata !{i32 786453, i32 0, metadata !"", i32 0, i32 0, i64 0, i64 0, i64 0, i32 0, null, metadata !348, i32 0, i32 0} ; [ DW_TAG_subroutine_type ]
!348 = metadata !{null, metadata !306, metadata !239}
!349 = metadata !{i32 786478, i32 0, metadata !290, metadata !"ap_int_base", metadata !"ap_int_base", metadata !"", metadata !155, i32 1556, metadata !350, i1 false, i1 false, i32 0, i32 0, null, i32 256, i1 false, null, null, i32 0, metadata !127, i32 1556} ; [ DW_TAG_subprogram ]
!350 = metadata !{i32 786453, i32 0, metadata !"", i32 0, i32 0, i64 0, i64 0, i64 0, i32 0, null, metadata !351, i32 0, i32 0} ; [ DW_TAG_subroutine_type ]
!351 = metadata !{null, metadata !306, metadata !230}
!352 = metadata !{i32 786478, i32 0, metadata !290, metadata !"ap_int_base", metadata !"ap_int_base", metadata !"", metadata !155, i32 1563, metadata !353, i1 false, i1 false, i32 0, i32 0, null, i32 256, i1 false, null, null, i32 0, metadata !127, i32 1563} ; [ DW_TAG_subprogram ]
!353 = metadata !{i32 786453, i32 0, metadata !"", i32 0, i32 0, i64 0, i64 0, i64 0, i32 0, null, metadata !354, i32 0, i32 0} ; [ DW_TAG_subroutine_type ]
!354 = metadata !{null, metadata !306, metadata !230, metadata !189}
!355 = metadata !{i32 786478, i32 0, metadata !290, metadata !"read", metadata !"read", metadata !"_ZNV11ap_int_baseILi1ELb0ELb1EE4readEv", metadata !155, i32 1584, metadata !356, i1 false, i1 false, i32 0, i32 0, null, i32 256, i1 false, null, null, i32 0, metadata !127, i32 1584} ; [ DW_TAG_subprogram ]
!356 = metadata !{i32 786453, i32 0, metadata !"", i32 0, i32 0, i64 0, i64 0, i64 0, i32 0, null, metadata !357, i32 0, i32 0} ; [ DW_TAG_subroutine_type ]
!357 = metadata !{metadata !290, metadata !358}
!358 = metadata !{i32 786447, i32 0, metadata !"", i32 0, i32 0, i64 64, i64 64, i64 0, i32 64, metadata !359} ; [ DW_TAG_pointer_type ]
!359 = metadata !{i32 786485, null, metadata !"", null, i32 0, i64 0, i64 0, i64 0, i32 0, metadata !290} ; [ DW_TAG_volatile_type ]
!360 = metadata !{i32 786478, i32 0, metadata !290, metadata !"write", metadata !"write", metadata !"_ZNV11ap_int_baseILi1ELb0ELb1EE5writeERKS0_", metadata !155, i32 1590, metadata !361, i1 false, i1 false, i32 0, i32 0, null, i32 256, i1 false, null, null, i32 0, metadata !127, i32 1590} ; [ DW_TAG_subprogram ]
!361 = metadata !{i32 786453, i32 0, metadata !"", i32 0, i32 0, i64 0, i64 0, i64 0, i32 0, null, metadata !362, i32 0, i32 0} ; [ DW_TAG_subroutine_type ]
!362 = metadata !{null, metadata !358, metadata !363}
!363 = metadata !{i32 786448, null, null, null, i32 0, i64 0, i64 0, i64 0, i32 0, metadata !364} ; [ DW_TAG_reference_type ]
!364 = metadata !{i32 786470, null, metadata !"", null, i32 0, i64 0, i64 0, i64 0, i32 0, metadata !290} ; [ DW_TAG_const_type ]
!365 = metadata !{i32 786478, i32 0, metadata !290, metadata !"operator=", metadata !"operator=", metadata !"_ZNV11ap_int_baseILi1ELb0ELb1EEaSERVKS0_", metadata !155, i32 1602, metadata !366, i1 false, i1 false, i32 0, i32 0, null, i32 256, i1 false, null, null, i32 0, metadata !127, i32 1602} ; [ DW_TAG_subprogram ]
!366 = metadata !{i32 786453, i32 0, metadata !"", i32 0, i32 0, i64 0, i64 0, i64 0, i32 0, null, metadata !367, i32 0, i32 0} ; [ DW_TAG_subroutine_type ]
!367 = metadata !{null, metadata !358, metadata !368}
!368 = metadata !{i32 786448, null, null, null, i32 0, i64 0, i64 0, i64 0, i32 0, metadata !369} ; [ DW_TAG_reference_type ]
!369 = metadata !{i32 786470, null, metadata !"", null, i32 0, i64 0, i64 0, i64 0, i32 0, metadata !359} ; [ DW_TAG_const_type ]
!370 = metadata !{i32 786478, i32 0, metadata !290, metadata !"operator=", metadata !"operator=", metadata !"_ZNV11ap_int_baseILi1ELb0ELb1EEaSERKS0_", metadata !155, i32 1611, metadata !361, i1 false, i1 false, i32 0, i32 0, null, i32 256, i1 false, null, null, i32 0, metadata !127, i32 1611} ; [ DW_TAG_subprogram ]
!371 = metadata !{i32 786478, i32 0, metadata !290, metadata !"operator=", metadata !"operator=", metadata !"_ZN11ap_int_baseILi1ELb0ELb1EEaSERVKS0_", metadata !155, i32 1634, metadata !372, i1 false, i1 false, i32 0, i32 0, null, i32 256, i1 false, null, null, i32 0, metadata !127, i32 1634} ; [ DW_TAG_subprogram ]
!372 = metadata !{i32 786453, i32 0, metadata !"", i32 0, i32 0, i64 0, i64 0, i64 0, i32 0, null, metadata !373, i32 0, i32 0} ; [ DW_TAG_subroutine_type ]
!373 = metadata !{metadata !374, metadata !306, metadata !368}
!374 = metadata !{i32 786448, null, null, null, i32 0, i64 0, i64 0, i64 0, i32 0, metadata !290} ; [ DW_TAG_reference_type ]
!375 = metadata !{i32 786478, i32 0, metadata !290, metadata !"operator=", metadata !"operator=", metadata !"_ZN11ap_int_baseILi1ELb0ELb1EEaSERKS0_", metadata !155, i32 1639, metadata !376, i1 false, i1 false, i32 0, i32 0, null, i32 256, i1 false, null, null, i32 0, metadata !127, i32 1639} ; [ DW_TAG_subprogram ]
!376 = metadata !{i32 786453, i32 0, metadata !"", i32 0, i32 0, i64 0, i64 0, i64 0, i32 0, null, metadata !377, i32 0, i32 0} ; [ DW_TAG_subroutine_type ]
!377 = metadata !{metadata !374, metadata !306, metadata !363}
!378 = metadata !{i32 786478, i32 0, metadata !290, metadata !"operator=", metadata !"operator=", metadata !"_ZN11ap_int_baseILi1ELb0ELb1EEaSEPKc", metadata !155, i32 1643, metadata !379, i1 false, i1 false, i32 0, i32 0, null, i32 256, i1 false, null, null, i32 0, metadata !127, i32 1643} ; [ DW_TAG_subprogram ]
!379 = metadata !{i32 786453, i32 0, metadata !"", i32 0, i32 0, i64 0, i64 0, i64 0, i32 0, null, metadata !380, i32 0, i32 0} ; [ DW_TAG_subroutine_type ]
!380 = metadata !{metadata !374, metadata !306, metadata !230}
!381 = metadata !{i32 786478, i32 0, metadata !290, metadata !"set", metadata !"set", metadata !"_ZN11ap_int_baseILi1ELb0ELb1EE3setEPKca", metadata !155, i32 1651, metadata !382, i1 false, i1 false, i32 0, i32 0, null, i32 256, i1 false, null, null, i32 0, metadata !127, i32 1651} ; [ DW_TAG_subprogram ]
!382 = metadata !{i32 786453, i32 0, metadata !"", i32 0, i32 0, i64 0, i64 0, i64 0, i32 0, null, metadata !383, i32 0, i32 0} ; [ DW_TAG_subroutine_type ]
!383 = metadata !{metadata !374, metadata !306, metadata !230, metadata !189}
!384 = metadata !{i32 786478, i32 0, metadata !290, metadata !"operator=", metadata !"operator=", metadata !"_ZN11ap_int_baseILi1ELb0ELb1EEaSEa", metadata !155, i32 1665, metadata !385, i1 false, i1 false, i32 0, i32 0, null, i32 256, i1 false, null, null, i32 0, metadata !127, i32 1665} ; [ DW_TAG_subprogram ]
!385 = metadata !{i32 786453, i32 0, metadata !"", i32 0, i32 0, i64 0, i64 0, i64 0, i32 0, null, metadata !386, i32 0, i32 0} ; [ DW_TAG_subroutine_type ]
!386 = metadata !{metadata !374, metadata !306, metadata !189}
!387 = metadata !{i32 786478, i32 0, metadata !290, metadata !"operator=", metadata !"operator=", metadata !"_ZN11ap_int_baseILi1ELb0ELb1EEaSEh", metadata !155, i32 1666, metadata !388, i1 false, i1 false, i32 0, i32 0, null, i32 256, i1 false, null, null, i32 0, metadata !127, i32 1666} ; [ DW_TAG_subprogram ]
!388 = metadata !{i32 786453, i32 0, metadata !"", i32 0, i32 0, i64 0, i64 0, i64 0, i32 0, null, metadata !389, i32 0, i32 0} ; [ DW_TAG_subroutine_type ]
!389 = metadata !{metadata !374, metadata !306, metadata !193}
!390 = metadata !{i32 786478, i32 0, metadata !290, metadata !"operator=", metadata !"operator=", metadata !"_ZN11ap_int_baseILi1ELb0ELb1EEaSEs", metadata !155, i32 1667, metadata !391, i1 false, i1 false, i32 0, i32 0, null, i32 256, i1 false, null, null, i32 0, metadata !127, i32 1667} ; [ DW_TAG_subprogram ]
!391 = metadata !{i32 786453, i32 0, metadata !"", i32 0, i32 0, i64 0, i64 0, i64 0, i32 0, null, metadata !392, i32 0, i32 0} ; [ DW_TAG_subroutine_type ]
!392 = metadata !{metadata !374, metadata !306, metadata !197}
!393 = metadata !{i32 786478, i32 0, metadata !290, metadata !"operator=", metadata !"operator=", metadata !"_ZN11ap_int_baseILi1ELb0ELb1EEaSEt", metadata !155, i32 1668, metadata !394, i1 false, i1 false, i32 0, i32 0, null, i32 256, i1 false, null, null, i32 0, metadata !127, i32 1668} ; [ DW_TAG_subprogram ]
!394 = metadata !{i32 786453, i32 0, metadata !"", i32 0, i32 0, i64 0, i64 0, i64 0, i32 0, null, metadata !395, i32 0, i32 0} ; [ DW_TAG_subroutine_type ]
!395 = metadata !{metadata !374, metadata !306, metadata !201}
!396 = metadata !{i32 786478, i32 0, metadata !290, metadata !"operator=", metadata !"operator=", metadata !"_ZN11ap_int_baseILi1ELb0ELb1EEaSEi", metadata !155, i32 1669, metadata !397, i1 false, i1 false, i32 0, i32 0, null, i32 256, i1 false, null, null, i32 0, metadata !127, i32 1669} ; [ DW_TAG_subprogram ]
!397 = metadata !{i32 786453, i32 0, metadata !"", i32 0, i32 0, i64 0, i64 0, i64 0, i32 0, null, metadata !398, i32 0, i32 0} ; [ DW_TAG_subroutine_type ]
!398 = metadata !{metadata !374, metadata !306, metadata !131}
!399 = metadata !{i32 786478, i32 0, metadata !290, metadata !"operator=", metadata !"operator=", metadata !"_ZN11ap_int_baseILi1ELb0ELb1EEaSEj", metadata !155, i32 1670, metadata !400, i1 false, i1 false, i32 0, i32 0, null, i32 256, i1 false, null, null, i32 0, metadata !127, i32 1670} ; [ DW_TAG_subprogram ]
!400 = metadata !{i32 786453, i32 0, metadata !"", i32 0, i32 0, i64 0, i64 0, i64 0, i32 0, null, metadata !401, i32 0, i32 0} ; [ DW_TAG_subroutine_type ]
!401 = metadata !{metadata !374, metadata !306, metadata !208}
!402 = metadata !{i32 786478, i32 0, metadata !290, metadata !"operator=", metadata !"operator=", metadata !"_ZN11ap_int_baseILi1ELb0ELb1EEaSEx", metadata !155, i32 1671, metadata !403, i1 false, i1 false, i32 0, i32 0, null, i32 256, i1 false, null, null, i32 0, metadata !127, i32 1671} ; [ DW_TAG_subprogram ]
!403 = metadata !{i32 786453, i32 0, metadata !"", i32 0, i32 0, i64 0, i64 0, i64 0, i32 0, null, metadata !404, i32 0, i32 0} ; [ DW_TAG_subroutine_type ]
!404 = metadata !{metadata !374, metadata !306, metadata !220}
!405 = metadata !{i32 786478, i32 0, metadata !290, metadata !"operator=", metadata !"operator=", metadata !"_ZN11ap_int_baseILi1ELb0ELb1EEaSEy", metadata !155, i32 1672, metadata !406, i1 false, i1 false, i32 0, i32 0, null, i32 256, i1 false, null, null, i32 0, metadata !127, i32 1672} ; [ DW_TAG_subprogram ]
!406 = metadata !{i32 786453, i32 0, metadata !"", i32 0, i32 0, i64 0, i64 0, i64 0, i32 0, null, metadata !407, i32 0, i32 0} ; [ DW_TAG_subroutine_type ]
!407 = metadata !{metadata !374, metadata !306, metadata !225}
!408 = metadata !{i32 786478, i32 0, metadata !290, metadata !"operator unsigned char", metadata !"operator unsigned char", metadata !"_ZNK11ap_int_baseILi1ELb0ELb1EEcvhEv", metadata !155, i32 1710, metadata !409, i1 false, i1 false, i32 0, i32 0, null, i32 256, i1 false, null, null, i32 0, metadata !127, i32 1710} ; [ DW_TAG_subprogram ]
!409 = metadata !{i32 786453, i32 0, metadata !"", i32 0, i32 0, i64 0, i64 0, i64 0, i32 0, null, metadata !410, i32 0, i32 0} ; [ DW_TAG_subroutine_type ]
!410 = metadata !{metadata !411, metadata !415}
!411 = metadata !{i32 786454, metadata !290, metadata !"RetType", metadata !155, i32 1458, i64 0, i64 0, i64 0, i32 0, metadata !412} ; [ DW_TAG_typedef ]
!412 = metadata !{i32 786454, metadata !413, metadata !"Type", metadata !155, i32 1426, i64 0, i64 0, i64 0, i32 0, metadata !193} ; [ DW_TAG_typedef ]
!413 = metadata !{i32 786434, null, metadata !"retval<1, false>", metadata !155, i32 1425, i64 8, i64 8, i32 0, i32 0, null, metadata !414, i32 0, null, metadata !301} ; [ DW_TAG_class_type ]
!414 = metadata !{i32 0}
!415 = metadata !{i32 786447, i32 0, metadata !"", i32 0, i32 0, i64 64, i64 64, i64 0, i32 64, metadata !364} ; [ DW_TAG_pointer_type ]
!416 = metadata !{i32 786478, i32 0, metadata !290, metadata !"to_bool", metadata !"to_bool", metadata !"_ZNK11ap_int_baseILi1ELb0ELb1EE7to_boolEv", metadata !155, i32 1716, metadata !417, i1 false, i1 false, i32 0, i32 0, null, i32 256, i1 false, null, null, i32 0, metadata !127, i32 1716} ; [ DW_TAG_subprogram ]
!417 = metadata !{i32 786453, i32 0, metadata !"", i32 0, i32 0, i64 0, i64 0, i64 0, i32 0, null, metadata !418, i32 0, i32 0} ; [ DW_TAG_subroutine_type ]
!418 = metadata !{metadata !133, metadata !415}
!419 = metadata !{i32 786478, i32 0, metadata !290, metadata !"to_uchar", metadata !"to_uchar", metadata !"_ZNK11ap_int_baseILi1ELb0ELb1EE8to_ucharEv", metadata !155, i32 1717, metadata !420, i1 false, i1 false, i32 0, i32 0, null, i32 256, i1 false, null, null, i32 0, metadata !127, i32 1717} ; [ DW_TAG_subprogram ]
!420 = metadata !{i32 786453, i32 0, metadata !"", i32 0, i32 0, i64 0, i64 0, i64 0, i32 0, null, metadata !421, i32 0, i32 0} ; [ DW_TAG_subroutine_type ]
!421 = metadata !{metadata !193, metadata !415}
!422 = metadata !{i32 786478, i32 0, metadata !290, metadata !"to_char", metadata !"to_char", metadata !"_ZNK11ap_int_baseILi1ELb0ELb1EE7to_charEv", metadata !155, i32 1718, metadata !423, i1 false, i1 false, i32 0, i32 0, null, i32 256, i1 false, null, null, i32 0, metadata !127, i32 1718} ; [ DW_TAG_subprogram ]
!423 = metadata !{i32 786453, i32 0, metadata !"", i32 0, i32 0, i64 0, i64 0, i64 0, i32 0, null, metadata !424, i32 0, i32 0} ; [ DW_TAG_subroutine_type ]
!424 = metadata !{metadata !189, metadata !415}
!425 = metadata !{i32 786478, i32 0, metadata !290, metadata !"to_ushort", metadata !"to_ushort", metadata !"_ZNK11ap_int_baseILi1ELb0ELb1EE9to_ushortEv", metadata !155, i32 1719, metadata !426, i1 false, i1 false, i32 0, i32 0, null, i32 256, i1 false, null, null, i32 0, metadata !127, i32 1719} ; [ DW_TAG_subprogram ]
!426 = metadata !{i32 786453, i32 0, metadata !"", i32 0, i32 0, i64 0, i64 0, i64 0, i32 0, null, metadata !427, i32 0, i32 0} ; [ DW_TAG_subroutine_type ]
!427 = metadata !{metadata !201, metadata !415}
!428 = metadata !{i32 786478, i32 0, metadata !290, metadata !"to_short", metadata !"to_short", metadata !"_ZNK11ap_int_baseILi1ELb0ELb1EE8to_shortEv", metadata !155, i32 1720, metadata !429, i1 false, i1 false, i32 0, i32 0, null, i32 256, i1 false, null, null, i32 0, metadata !127, i32 1720} ; [ DW_TAG_subprogram ]
!429 = metadata !{i32 786453, i32 0, metadata !"", i32 0, i32 0, i64 0, i64 0, i64 0, i32 0, null, metadata !430, i32 0, i32 0} ; [ DW_TAG_subroutine_type ]
!430 = metadata !{metadata !197, metadata !415}
!431 = metadata !{i32 786478, i32 0, metadata !290, metadata !"to_int", metadata !"to_int", metadata !"_ZNK11ap_int_baseILi1ELb0ELb1EE6to_intEv", metadata !155, i32 1721, metadata !432, i1 false, i1 false, i32 0, i32 0, null, i32 256, i1 false, null, null, i32 0, metadata !127, i32 1721} ; [ DW_TAG_subprogram ]
!432 = metadata !{i32 786453, i32 0, metadata !"", i32 0, i32 0, i64 0, i64 0, i64 0, i32 0, null, metadata !433, i32 0, i32 0} ; [ DW_TAG_subroutine_type ]
!433 = metadata !{metadata !131, metadata !415}
!434 = metadata !{i32 786478, i32 0, metadata !290, metadata !"to_uint", metadata !"to_uint", metadata !"_ZNK11ap_int_baseILi1ELb0ELb1EE7to_uintEv", metadata !155, i32 1722, metadata !435, i1 false, i1 false, i32 0, i32 0, null, i32 256, i1 false, null, null, i32 0, metadata !127, i32 1722} ; [ DW_TAG_subprogram ]
!435 = metadata !{i32 786453, i32 0, metadata !"", i32 0, i32 0, i64 0, i64 0, i64 0, i32 0, null, metadata !436, i32 0, i32 0} ; [ DW_TAG_subroutine_type ]
!436 = metadata !{metadata !208, metadata !415}
!437 = metadata !{i32 786478, i32 0, metadata !290, metadata !"to_long", metadata !"to_long", metadata !"_ZNK11ap_int_baseILi1ELb0ELb1EE7to_longEv", metadata !155, i32 1723, metadata !438, i1 false, i1 false, i32 0, i32 0, null, i32 256, i1 false, null, null, i32 0, metadata !127, i32 1723} ; [ DW_TAG_subprogram ]
!438 = metadata !{i32 786453, i32 0, metadata !"", i32 0, i32 0, i64 0, i64 0, i64 0, i32 0, null, metadata !439, i32 0, i32 0} ; [ DW_TAG_subroutine_type ]
!439 = metadata !{metadata !212, metadata !415}
!440 = metadata !{i32 786478, i32 0, metadata !290, metadata !"to_ulong", metadata !"to_ulong", metadata !"_ZNK11ap_int_baseILi1ELb0ELb1EE8to_ulongEv", metadata !155, i32 1724, metadata !441, i1 false, i1 false, i32 0, i32 0, null, i32 256, i1 false, null, null, i32 0, metadata !127, i32 1724} ; [ DW_TAG_subprogram ]
!441 = metadata !{i32 786453, i32 0, metadata !"", i32 0, i32 0, i64 0, i64 0, i64 0, i32 0, null, metadata !442, i32 0, i32 0} ; [ DW_TAG_subroutine_type ]
!442 = metadata !{metadata !216, metadata !415}
!443 = metadata !{i32 786478, i32 0, metadata !290, metadata !"to_int64", metadata !"to_int64", metadata !"_ZNK11ap_int_baseILi1ELb0ELb1EE8to_int64Ev", metadata !155, i32 1725, metadata !444, i1 false, i1 false, i32 0, i32 0, null, i32 256, i1 false, null, null, i32 0, metadata !127, i32 1725} ; [ DW_TAG_subprogram ]
!444 = metadata !{i32 786453, i32 0, metadata !"", i32 0, i32 0, i64 0, i64 0, i64 0, i32 0, null, metadata !445, i32 0, i32 0} ; [ DW_TAG_subroutine_type ]
!445 = metadata !{metadata !220, metadata !415}
!446 = metadata !{i32 786478, i32 0, metadata !290, metadata !"to_uint64", metadata !"to_uint64", metadata !"_ZNK11ap_int_baseILi1ELb0ELb1EE9to_uint64Ev", metadata !155, i32 1726, metadata !447, i1 false, i1 false, i32 0, i32 0, null, i32 256, i1 false, null, null, i32 0, metadata !127, i32 1726} ; [ DW_TAG_subprogram ]
!447 = metadata !{i32 786453, i32 0, metadata !"", i32 0, i32 0, i64 0, i64 0, i64 0, i32 0, null, metadata !448, i32 0, i32 0} ; [ DW_TAG_subroutine_type ]
!448 = metadata !{metadata !225, metadata !415}
!449 = metadata !{i32 786478, i32 0, metadata !290, metadata !"to_double", metadata !"to_double", metadata !"_ZNK11ap_int_baseILi1ELb0ELb1EE9to_doubleEv", metadata !155, i32 1727, metadata !450, i1 false, i1 false, i32 0, i32 0, null, i32 256, i1 false, null, null, i32 0, metadata !127, i32 1727} ; [ DW_TAG_subprogram ]
!450 = metadata !{i32 786453, i32 0, metadata !"", i32 0, i32 0, i64 0, i64 0, i64 0, i32 0, null, metadata !451, i32 0, i32 0} ; [ DW_TAG_subroutine_type ]
!451 = metadata !{metadata !239, metadata !415}
!452 = metadata !{i32 786478, i32 0, metadata !290, metadata !"length", metadata !"length", metadata !"_ZNK11ap_int_baseILi1ELb0ELb1EE6lengthEv", metadata !155, i32 1741, metadata !432, i1 false, i1 false, i32 0, i32 0, null, i32 256, i1 false, null, null, i32 0, metadata !127, i32 1741} ; [ DW_TAG_subprogram ]
!453 = metadata !{i32 786478, i32 0, metadata !290, metadata !"length", metadata !"length", metadata !"_ZNVK11ap_int_baseILi1ELb0ELb1EE6lengthEv", metadata !155, i32 1742, metadata !454, i1 false, i1 false, i32 0, i32 0, null, i32 256, i1 false, null, null, i32 0, metadata !127, i32 1742} ; [ DW_TAG_subprogram ]
!454 = metadata !{i32 786453, i32 0, metadata !"", i32 0, i32 0, i64 0, i64 0, i64 0, i32 0, null, metadata !455, i32 0, i32 0} ; [ DW_TAG_subroutine_type ]
!455 = metadata !{metadata !131, metadata !456}
!456 = metadata !{i32 786447, i32 0, metadata !"", i32 0, i32 0, i64 64, i64 64, i64 0, i32 64, metadata !369} ; [ DW_TAG_pointer_type ]
!457 = metadata !{i32 786478, i32 0, metadata !290, metadata !"reverse", metadata !"reverse", metadata !"_ZN11ap_int_baseILi1ELb0ELb1EE7reverseEv", metadata !155, i32 1747, metadata !458, i1 false, i1 false, i32 0, i32 0, null, i32 256, i1 false, null, null, i32 0, metadata !127, i32 1747} ; [ DW_TAG_subprogram ]
!458 = metadata !{i32 786453, i32 0, metadata !"", i32 0, i32 0, i64 0, i64 0, i64 0, i32 0, null, metadata !459, i32 0, i32 0} ; [ DW_TAG_subroutine_type ]
!459 = metadata !{metadata !374, metadata !306}
!460 = metadata !{i32 786478, i32 0, metadata !290, metadata !"iszero", metadata !"iszero", metadata !"_ZNK11ap_int_baseILi1ELb0ELb1EE6iszeroEv", metadata !155, i32 1753, metadata !417, i1 false, i1 false, i32 0, i32 0, null, i32 256, i1 false, null, null, i32 0, metadata !127, i32 1753} ; [ DW_TAG_subprogram ]
!461 = metadata !{i32 786478, i32 0, metadata !290, metadata !"is_zero", metadata !"is_zero", metadata !"_ZNK11ap_int_baseILi1ELb0ELb1EE7is_zeroEv", metadata !155, i32 1758, metadata !417, i1 false, i1 false, i32 0, i32 0, null, i32 256, i1 false, null, null, i32 0, metadata !127, i32 1758} ; [ DW_TAG_subprogram ]
!462 = metadata !{i32 786478, i32 0, metadata !290, metadata !"sign", metadata !"sign", metadata !"_ZNK11ap_int_baseILi1ELb0ELb1EE4signEv", metadata !155, i32 1763, metadata !417, i1 false, i1 false, i32 0, i32 0, null, i32 256, i1 false, null, null, i32 0, metadata !127, i32 1763} ; [ DW_TAG_subprogram ]
!463 = metadata !{i32 786478, i32 0, metadata !290, metadata !"clear", metadata !"clear", metadata !"_ZN11ap_int_baseILi1ELb0ELb1EE5clearEi", metadata !155, i32 1771, metadata !323, i1 false, i1 false, i32 0, i32 0, null, i32 256, i1 false, null, null, i32 0, metadata !127, i32 1771} ; [ DW_TAG_subprogram ]
!464 = metadata !{i32 786478, i32 0, metadata !290, metadata !"invert", metadata !"invert", metadata !"_ZN11ap_int_baseILi1ELb0ELb1EE6invertEi", metadata !155, i32 1777, metadata !323, i1 false, i1 false, i32 0, i32 0, null, i32 256, i1 false, null, null, i32 0, metadata !127, i32 1777} ; [ DW_TAG_subprogram ]
!465 = metadata !{i32 786478, i32 0, metadata !290, metadata !"test", metadata !"test", metadata !"_ZNK11ap_int_baseILi1ELb0ELb1EE4testEi", metadata !155, i32 1785, metadata !466, i1 false, i1 false, i32 0, i32 0, null, i32 256, i1 false, null, null, i32 0, metadata !127, i32 1785} ; [ DW_TAG_subprogram ]
!466 = metadata !{i32 786453, i32 0, metadata !"", i32 0, i32 0, i64 0, i64 0, i64 0, i32 0, null, metadata !467, i32 0, i32 0} ; [ DW_TAG_subroutine_type ]
!467 = metadata !{metadata !133, metadata !415, metadata !131}
!468 = metadata !{i32 786478, i32 0, metadata !290, metadata !"set", metadata !"set", metadata !"_ZN11ap_int_baseILi1ELb0ELb1EE3setEi", metadata !155, i32 1791, metadata !323, i1 false, i1 false, i32 0, i32 0, null, i32 256, i1 false, null, null, i32 0, metadata !127, i32 1791} ; [ DW_TAG_subprogram ]
!469 = metadata !{i32 786478, i32 0, metadata !290, metadata !"set", metadata !"set", metadata !"_ZN11ap_int_baseILi1ELb0ELb1EE3setEib", metadata !155, i32 1797, metadata !470, i1 false, i1 false, i32 0, i32 0, null, i32 256, i1 false, null, null, i32 0, metadata !127, i32 1797} ; [ DW_TAG_subprogram ]
!470 = metadata !{i32 786453, i32 0, metadata !"", i32 0, i32 0, i64 0, i64 0, i64 0, i32 0, null, metadata !471, i32 0, i32 0} ; [ DW_TAG_subroutine_type ]
!471 = metadata !{null, metadata !306, metadata !131, metadata !133}
!472 = metadata !{i32 786478, i32 0, metadata !290, metadata !"lrotate", metadata !"lrotate", metadata !"_ZN11ap_int_baseILi1ELb0ELb1EE7lrotateEi", metadata !155, i32 1804, metadata !323, i1 false, i1 false, i32 0, i32 0, null, i32 256, i1 false, null, null, i32 0, metadata !127, i32 1804} ; [ DW_TAG_subprogram ]
!473 = metadata !{i32 786478, i32 0, metadata !290, metadata !"rrotate", metadata !"rrotate", metadata !"_ZN11ap_int_baseILi1ELb0ELb1EE7rrotateEi", metadata !155, i32 1813, metadata !323, i1 false, i1 false, i32 0, i32 0, null, i32 256, i1 false, null, null, i32 0, metadata !127, i32 1813} ; [ DW_TAG_subprogram ]
!474 = metadata !{i32 786478, i32 0, metadata !290, metadata !"set_bit", metadata !"set_bit", metadata !"_ZN11ap_int_baseILi1ELb0ELb1EE7set_bitEib", metadata !155, i32 1821, metadata !470, i1 false, i1 false, i32 0, i32 0, null, i32 256, i1 false, null, null, i32 0, metadata !127, i32 1821} ; [ DW_TAG_subprogram ]
!475 = metadata !{i32 786478, i32 0, metadata !290, metadata !"get_bit", metadata !"get_bit", metadata !"_ZNK11ap_int_baseILi1ELb0ELb1EE7get_bitEi", metadata !155, i32 1826, metadata !466, i1 false, i1 false, i32 0, i32 0, null, i32 256, i1 false, null, null, i32 0, metadata !127, i32 1826} ; [ DW_TAG_subprogram ]
!476 = metadata !{i32 786478, i32 0, metadata !290, metadata !"b_not", metadata !"b_not", metadata !"_ZN11ap_int_baseILi1ELb0ELb1EE5b_notEv", metadata !155, i32 1831, metadata !304, i1 false, i1 false, i32 0, i32 0, null, i32 256, i1 false, null, null, i32 0, metadata !127, i32 1831} ; [ DW_TAG_subprogram ]
!477 = metadata !{i32 786478, i32 0, metadata !290, metadata !"countLeadingZeros", metadata !"countLeadingZeros", metadata !"_ZN11ap_int_baseILi1ELb0ELb1EE17countLeadingZerosEv", metadata !155, i32 1838, metadata !478, i1 false, i1 false, i32 0, i32 0, null, i32 256, i1 false, null, null, i32 0, metadata !127, i32 1838} ; [ DW_TAG_subprogram ]
!478 = metadata !{i32 786453, i32 0, metadata !"", i32 0, i32 0, i64 0, i64 0, i64 0, i32 0, null, metadata !479, i32 0, i32 0} ; [ DW_TAG_subroutine_type ]
!479 = metadata !{metadata !131, metadata !306}
!480 = metadata !{i32 786478, i32 0, metadata !290, metadata !"operator++", metadata !"operator++", metadata !"_ZN11ap_int_baseILi1ELb0ELb1EEppEv", metadata !155, i32 1895, metadata !458, i1 false, i1 false, i32 0, i32 0, null, i32 256, i1 false, null, null, i32 0, metadata !127, i32 1895} ; [ DW_TAG_subprogram ]
!481 = metadata !{i32 786478, i32 0, metadata !290, metadata !"operator--", metadata !"operator--", metadata !"_ZN11ap_int_baseILi1ELb0ELb1EEmmEv", metadata !155, i32 1899, metadata !458, i1 false, i1 false, i32 0, i32 0, null, i32 256, i1 false, null, null, i32 0, metadata !127, i32 1899} ; [ DW_TAG_subprogram ]
!482 = metadata !{i32 786478, i32 0, metadata !290, metadata !"operator++", metadata !"operator++", metadata !"_ZN11ap_int_baseILi1ELb0ELb1EEppEi", metadata !155, i32 1907, metadata !483, i1 false, i1 false, i32 0, i32 0, null, i32 256, i1 false, null, null, i32 0, metadata !127, i32 1907} ; [ DW_TAG_subprogram ]
!483 = metadata !{i32 786453, i32 0, metadata !"", i32 0, i32 0, i64 0, i64 0, i64 0, i32 0, null, metadata !484, i32 0, i32 0} ; [ DW_TAG_subroutine_type ]
!484 = metadata !{metadata !364, metadata !306, metadata !131}
!485 = metadata !{i32 786478, i32 0, metadata !290, metadata !"operator--", metadata !"operator--", metadata !"_ZN11ap_int_baseILi1ELb0ELb1EEmmEi", metadata !155, i32 1912, metadata !483, i1 false, i1 false, i32 0, i32 0, null, i32 256, i1 false, null, null, i32 0, metadata !127, i32 1912} ; [ DW_TAG_subprogram ]
!486 = metadata !{i32 786478, i32 0, metadata !290, metadata !"operator+", metadata !"operator+", metadata !"_ZNK11ap_int_baseILi1ELb0ELb1EEpsEv", metadata !155, i32 1921, metadata !487, i1 false, i1 false, i32 0, i32 0, null, i32 256, i1 false, null, null, i32 0, metadata !127, i32 1921} ; [ DW_TAG_subprogram ]
!487 = metadata !{i32 786453, i32 0, metadata !"", i32 0, i32 0, i64 0, i64 0, i64 0, i32 0, null, metadata !488, i32 0, i32 0} ; [ DW_TAG_subroutine_type ]
!488 = metadata !{metadata !290, metadata !415}
!489 = metadata !{i32 786478, i32 0, metadata !290, metadata !"operator!", metadata !"operator!", metadata !"_ZNK11ap_int_baseILi1ELb0ELb1EEntEv", metadata !155, i32 1927, metadata !417, i1 false, i1 false, i32 0, i32 0, null, i32 256, i1 false, null, null, i32 0, metadata !127, i32 1927} ; [ DW_TAG_subprogram ]
!490 = metadata !{i32 786478, i32 0, metadata !290, metadata !"operator-", metadata !"operator-", metadata !"_ZNK11ap_int_baseILi1ELb0ELb1EEngEv", metadata !155, i32 1932, metadata !491, i1 false, i1 false, i32 0, i32 0, null, i32 256, i1 false, null, null, i32 0, metadata !127, i32 1932} ; [ DW_TAG_subprogram ]
!491 = metadata !{i32 786453, i32 0, metadata !"", i32 0, i32 0, i64 0, i64 0, i64 0, i32 0, null, metadata !492, i32 0, i32 0} ; [ DW_TAG_subroutine_type ]
!492 = metadata !{metadata !493, metadata !415}
!493 = metadata !{i32 786434, null, metadata !"ap_int_base<2, true, true>", metadata !155, i32 651, i32 0, i32 0, i32 0, i32 4, null, null, i32 0} ; [ DW_TAG_class_type ]
!494 = metadata !{i32 786478, i32 0, metadata !290, metadata !"range", metadata !"range", metadata !"_ZN11ap_int_baseILi1ELb0ELb1EE5rangeEii", metadata !155, i32 2062, metadata !495, i1 false, i1 false, i32 0, i32 0, null, i32 256, i1 false, null, null, i32 0, metadata !127, i32 2062} ; [ DW_TAG_subprogram ]
!495 = metadata !{i32 786453, i32 0, metadata !"", i32 0, i32 0, i64 0, i64 0, i64 0, i32 0, null, metadata !496, i32 0, i32 0} ; [ DW_TAG_subroutine_type ]
!496 = metadata !{metadata !497, metadata !306, metadata !131, metadata !131}
!497 = metadata !{i32 786434, null, metadata !"ap_range_ref<1, false>", metadata !155, i32 925, i32 0, i32 0, i32 0, i32 4, null, null, i32 0} ; [ DW_TAG_class_type ]
!498 = metadata !{i32 786478, i32 0, metadata !290, metadata !"operator()", metadata !"operator()", metadata !"_ZN11ap_int_baseILi1ELb0ELb1EEclEii", metadata !155, i32 2068, metadata !495, i1 false, i1 false, i32 0, i32 0, null, i32 256, i1 false, null, null, i32 0, metadata !127, i32 2068} ; [ DW_TAG_subprogram ]
!499 = metadata !{i32 786478, i32 0, metadata !290, metadata !"range", metadata !"range", metadata !"_ZNK11ap_int_baseILi1ELb0ELb1EE5rangeEii", metadata !155, i32 2074, metadata !500, i1 false, i1 false, i32 0, i32 0, null, i32 256, i1 false, null, null, i32 0, metadata !127, i32 2074} ; [ DW_TAG_subprogram ]
!500 = metadata !{i32 786453, i32 0, metadata !"", i32 0, i32 0, i64 0, i64 0, i64 0, i32 0, null, metadata !501, i32 0, i32 0} ; [ DW_TAG_subroutine_type ]
!501 = metadata !{metadata !497, metadata !415, metadata !131, metadata !131}
!502 = metadata !{i32 786478, i32 0, metadata !290, metadata !"operator()", metadata !"operator()", metadata !"_ZNK11ap_int_baseILi1ELb0ELb1EEclEii", metadata !155, i32 2080, metadata !500, i1 false, i1 false, i32 0, i32 0, null, i32 256, i1 false, null, null, i32 0, metadata !127, i32 2080} ; [ DW_TAG_subprogram ]
!503 = metadata !{i32 786478, i32 0, metadata !290, metadata !"operator[]", metadata !"operator[]", metadata !"_ZN11ap_int_baseILi1ELb0ELb1EEixEi", metadata !155, i32 2099, metadata !504, i1 false, i1 false, i32 0, i32 0, null, i32 256, i1 false, null, null, i32 0, metadata !127, i32 2099} ; [ DW_TAG_subprogram ]
!504 = metadata !{i32 786453, i32 0, metadata !"", i32 0, i32 0, i64 0, i64 0, i64 0, i32 0, null, metadata !505, i32 0, i32 0} ; [ DW_TAG_subroutine_type ]
!505 = metadata !{metadata !506, metadata !306, metadata !131}
!506 = metadata !{i32 786434, null, metadata !"ap_bit_ref<1, false>", metadata !155, i32 1249, i32 0, i32 0, i32 0, i32 4, null, null, i32 0} ; [ DW_TAG_class_type ]
!507 = metadata !{i32 786478, i32 0, metadata !290, metadata !"operator[]", metadata !"operator[]", metadata !"_ZNK11ap_int_baseILi1ELb0ELb1EEixEi", metadata !155, i32 2113, metadata !466, i1 false, i1 false, i32 0, i32 0, null, i32 256, i1 false, null, null, i32 0, metadata !127, i32 2113} ; [ DW_TAG_subprogram ]
!508 = metadata !{i32 786478, i32 0, metadata !290, metadata !"bit", metadata !"bit", metadata !"_ZN11ap_int_baseILi1ELb0ELb1EE3bitEi", metadata !155, i32 2127, metadata !504, i1 false, i1 false, i32 0, i32 0, null, i32 256, i1 false, null, null, i32 0, metadata !127, i32 2127} ; [ DW_TAG_subprogram ]
!509 = metadata !{i32 786478, i32 0, metadata !290, metadata !"bit", metadata !"bit", metadata !"_ZNK11ap_int_baseILi1ELb0ELb1EE3bitEi", metadata !155, i32 2141, metadata !466, i1 false, i1 false, i32 0, i32 0, null, i32 256, i1 false, null, null, i32 0, metadata !127, i32 2141} ; [ DW_TAG_subprogram ]
!510 = metadata !{i32 786478, i32 0, metadata !290, metadata !"and_reduce", metadata !"and_reduce", metadata !"_ZN11ap_int_baseILi1ELb0ELb1EE10and_reduceEv", metadata !155, i32 2321, metadata !511, i1 false, i1 false, i32 0, i32 0, null, i32 256, i1 false, null, null, i32 0, metadata !127, i32 2321} ; [ DW_TAG_subprogram ]
!511 = metadata !{i32 786453, i32 0, metadata !"", i32 0, i32 0, i64 0, i64 0, i64 0, i32 0, null, metadata !512, i32 0, i32 0} ; [ DW_TAG_subroutine_type ]
!512 = metadata !{metadata !133, metadata !306}
!513 = metadata !{i32 786478, i32 0, metadata !290, metadata !"nand_reduce", metadata !"nand_reduce", metadata !"_ZN11ap_int_baseILi1ELb0ELb1EE11nand_reduceEv", metadata !155, i32 2324, metadata !511, i1 false, i1 false, i32 0, i32 0, null, i32 256, i1 false, null, null, i32 0, metadata !127, i32 2324} ; [ DW_TAG_subprogram ]
!514 = metadata !{i32 786478, i32 0, metadata !290, metadata !"or_reduce", metadata !"or_reduce", metadata !"_ZN11ap_int_baseILi1ELb0ELb1EE9or_reduceEv", metadata !155, i32 2327, metadata !511, i1 false, i1 false, i32 0, i32 0, null, i32 256, i1 false, null, null, i32 0, metadata !127, i32 2327} ; [ DW_TAG_subprogram ]
!515 = metadata !{i32 786478, i32 0, metadata !290, metadata !"nor_reduce", metadata !"nor_reduce", metadata !"_ZN11ap_int_baseILi1ELb0ELb1EE10nor_reduceEv", metadata !155, i32 2330, metadata !511, i1 false, i1 false, i32 0, i32 0, null, i32 256, i1 false, null, null, i32 0, metadata !127, i32 2330} ; [ DW_TAG_subprogram ]
!516 = metadata !{i32 786478, i32 0, metadata !290, metadata !"xor_reduce", metadata !"xor_reduce", metadata !"_ZN11ap_int_baseILi1ELb0ELb1EE10xor_reduceEv", metadata !155, i32 2333, metadata !511, i1 false, i1 false, i32 0, i32 0, null, i32 256, i1 false, null, null, i32 0, metadata !127, i32 2333} ; [ DW_TAG_subprogram ]
!517 = metadata !{i32 786478, i32 0, metadata !290, metadata !"xnor_reduce", metadata !"xnor_reduce", metadata !"_ZN11ap_int_baseILi1ELb0ELb1EE11xnor_reduceEv", metadata !155, i32 2336, metadata !511, i1 false, i1 false, i32 0, i32 0, null, i32 256, i1 false, null, null, i32 0, metadata !127, i32 2336} ; [ DW_TAG_subprogram ]
!518 = metadata !{i32 786478, i32 0, metadata !290, metadata !"and_reduce", metadata !"and_reduce", metadata !"_ZNK11ap_int_baseILi1ELb0ELb1EE10and_reduceEv", metadata !155, i32 2340, metadata !417, i1 false, i1 false, i32 0, i32 0, null, i32 256, i1 false, null, null, i32 0, metadata !127, i32 2340} ; [ DW_TAG_subprogram ]
!519 = metadata !{i32 786478, i32 0, metadata !290, metadata !"nand_reduce", metadata !"nand_reduce", metadata !"_ZNK11ap_int_baseILi1ELb0ELb1EE11nand_reduceEv", metadata !155, i32 2343, metadata !417, i1 false, i1 false, i32 0, i32 0, null, i32 256, i1 false, null, null, i32 0, metadata !127, i32 2343} ; [ DW_TAG_subprogram ]
!520 = metadata !{i32 786478, i32 0, metadata !290, metadata !"or_reduce", metadata !"or_reduce", metadata !"_ZNK11ap_int_baseILi1ELb0ELb1EE9or_reduceEv", metadata !155, i32 2346, metadata !417, i1 false, i1 false, i32 0, i32 0, null, i32 256, i1 false, null, null, i32 0, metadata !127, i32 2346} ; [ DW_TAG_subprogram ]
!521 = metadata !{i32 786478, i32 0, metadata !290, metadata !"nor_reduce", metadata !"nor_reduce", metadata !"_ZNK11ap_int_baseILi1ELb0ELb1EE10nor_reduceEv", metadata !155, i32 2349, metadata !417, i1 false, i1 false, i32 0, i32 0, null, i32 256, i1 false, null, null, i32 0, metadata !127, i32 2349} ; [ DW_TAG_subprogram ]
!522 = metadata !{i32 786478, i32 0, metadata !290, metadata !"xor_reduce", metadata !"xor_reduce", metadata !"_ZNK11ap_int_baseILi1ELb0ELb1EE10xor_reduceEv", metadata !155, i32 2352, metadata !417, i1 false, i1 false, i32 0, i32 0, null, i32 256, i1 false, null, null, i32 0, metadata !127, i32 2352} ; [ DW_TAG_subprogram ]
!523 = metadata !{i32 786478, i32 0, metadata !290, metadata !"xnor_reduce", metadata !"xnor_reduce", metadata !"_ZNK11ap_int_baseILi1ELb0ELb1EE11xnor_reduceEv", metadata !155, i32 2355, metadata !417, i1 false, i1 false, i32 0, i32 0, null, i32 256, i1 false, null, null, i32 0, metadata !127, i32 2355} ; [ DW_TAG_subprogram ]
!524 = metadata !{i32 786478, i32 0, metadata !290, metadata !"to_string", metadata !"to_string", metadata !"_ZNK11ap_int_baseILi1ELb0ELb1EE9to_stringEPci8BaseModeb", metadata !155, i32 2362, metadata !525, i1 false, i1 false, i32 0, i32 0, null, i32 256, i1 false, null, null, i32 0, metadata !127, i32 2362} ; [ DW_TAG_subprogram ]
!525 = metadata !{i32 786453, i32 0, metadata !"", i32 0, i32 0, i64 0, i64 0, i64 0, i32 0, null, metadata !526, i32 0, i32 0} ; [ DW_TAG_subroutine_type ]
!526 = metadata !{null, metadata !415, metadata !527, metadata !131, metadata !528, metadata !133}
!527 = metadata !{i32 786447, null, metadata !"", null, i32 0, i64 64, i64 64, i64 0, i32 0, metadata !185} ; [ DW_TAG_pointer_type ]
!528 = metadata !{i32 786436, null, metadata !"BaseMode", metadata !155, i32 603, i64 5, i64 8, i32 0, i32 0, null, metadata !529, i32 0, i32 0} ; [ DW_TAG_enumeration_type ]
!529 = metadata !{metadata !530, metadata !531, metadata !532, metadata !533}
!530 = metadata !{i32 786472, metadata !"SC_BIN", i64 2} ; [ DW_TAG_enumerator ]
!531 = metadata !{i32 786472, metadata !"SC_OCT", i64 8} ; [ DW_TAG_enumerator ]
!532 = metadata !{i32 786472, metadata !"SC_DEC", i64 10} ; [ DW_TAG_enumerator ]
!533 = metadata !{i32 786472, metadata !"SC_HEX", i64 16} ; [ DW_TAG_enumerator ]
!534 = metadata !{i32 786478, i32 0, metadata !290, metadata !"to_string", metadata !"to_string", metadata !"_ZNK11ap_int_baseILi1ELb0ELb1EE9to_stringE8BaseModeb", metadata !155, i32 2389, metadata !535, i1 false, i1 false, i32 0, i32 0, null, i32 256, i1 false, null, null, i32 0, metadata !127, i32 2389} ; [ DW_TAG_subprogram ]
!535 = metadata !{i32 786453, i32 0, metadata !"", i32 0, i32 0, i64 0, i64 0, i64 0, i32 0, null, metadata !536, i32 0, i32 0} ; [ DW_TAG_subroutine_type ]
!536 = metadata !{metadata !527, metadata !415, metadata !528, metadata !133}
!537 = metadata !{i32 786478, i32 0, metadata !290, metadata !"to_string", metadata !"to_string", metadata !"_ZNK11ap_int_baseILi1ELb0ELb1EE9to_stringEab", metadata !155, i32 2393, metadata !538, i1 false, i1 false, i32 0, i32 0, null, i32 256, i1 false, null, null, i32 0, metadata !127, i32 2393} ; [ DW_TAG_subprogram ]
!538 = metadata !{i32 786453, i32 0, metadata !"", i32 0, i32 0, i64 0, i64 0, i64 0, i32 0, null, metadata !539, i32 0, i32 0} ; [ DW_TAG_subroutine_type ]
!539 = metadata !{metadata !527, metadata !415, metadata !189, metadata !133}
!540 = metadata !{metadata !541, metadata !132, metadata !542}
!541 = metadata !{i32 786480, null, metadata !"_AP_W", metadata !131, i64 1, null, i32 0, i32 0} ; [ DW_TAG_template_value_parameter ]
!542 = metadata !{i32 786480, null, metadata !"_AP_C", metadata !133, i64 1, null, i32 0, i32 0} ; [ DW_TAG_template_value_parameter ]
!543 = metadata !{i32 786478, i32 0, metadata !114, metadata !"to_int", metadata !"to_int", metadata !"_ZNK13ap_fixed_baseILi32ELi1ELb0EL9ap_q_mode5EL9ap_o_mode3ELi0EE6to_intEv", metadata !115, i32 1101, metadata !544, i1 false, i1 false, i32 0, i32 0, null, i32 256, i1 false, null, null, i32 0, metadata !127, i32 1101} ; [ DW_TAG_subprogram ]
!544 = metadata !{i32 786453, i32 0, metadata !"", i32 0, i32 0, i64 0, i64 0, i64 0, i32 0, null, metadata !545, i32 0, i32 0} ; [ DW_TAG_subroutine_type ]
!545 = metadata !{metadata !131, metadata !238}
!546 = metadata !{i32 786478, i32 0, metadata !114, metadata !"to_uint", metadata !"to_uint", metadata !"_ZNK13ap_fixed_baseILi32ELi1ELb0EL9ap_q_mode5EL9ap_o_mode3ELi0EE7to_uintEv", metadata !115, i32 1104, metadata !547, i1 false, i1 false, i32 0, i32 0, null, i32 256, i1 false, null, null, i32 0, metadata !127, i32 1104} ; [ DW_TAG_subprogram ]
!547 = metadata !{i32 786453, i32 0, metadata !"", i32 0, i32 0, i64 0, i64 0, i64 0, i32 0, null, metadata !548, i32 0, i32 0} ; [ DW_TAG_subroutine_type ]
!548 = metadata !{metadata !208, metadata !238}
!549 = metadata !{i32 786478, i32 0, metadata !114, metadata !"to_int64", metadata !"to_int64", metadata !"_ZNK13ap_fixed_baseILi32ELi1ELb0EL9ap_q_mode5EL9ap_o_mode3ELi0EE8to_int64Ev", metadata !115, i32 1107, metadata !550, i1 false, i1 false, i32 0, i32 0, null, i32 256, i1 false, null, null, i32 0, metadata !127, i32 1107} ; [ DW_TAG_subprogram ]
!550 = metadata !{i32 786453, i32 0, metadata !"", i32 0, i32 0, i64 0, i64 0, i64 0, i32 0, null, metadata !551, i32 0, i32 0} ; [ DW_TAG_subroutine_type ]
!551 = metadata !{metadata !220, metadata !238}
!552 = metadata !{i32 786478, i32 0, metadata !114, metadata !"to_uint64", metadata !"to_uint64", metadata !"_ZNK13ap_fixed_baseILi32ELi1ELb0EL9ap_q_mode5EL9ap_o_mode3ELi0EE9to_uint64Ev", metadata !115, i32 1110, metadata !553, i1 false, i1 false, i32 0, i32 0, null, i32 256, i1 false, null, null, i32 0, metadata !127, i32 1110} ; [ DW_TAG_subprogram ]
!553 = metadata !{i32 786453, i32 0, metadata !"", i32 0, i32 0, i64 0, i64 0, i64 0, i32 0, null, metadata !554, i32 0, i32 0} ; [ DW_TAG_subroutine_type ]
!554 = metadata !{metadata !225, metadata !238}
!555 = metadata !{i32 786478, i32 0, metadata !114, metadata !"to_double", metadata !"to_double", metadata !"_ZNK13ap_fixed_baseILi32ELi1ELb0EL9ap_q_mode5EL9ap_o_mode3ELi0EE9to_doubleEv", metadata !115, i32 1113, metadata !556, i1 false, i1 false, i32 0, i32 0, null, i32 256, i1 false, null, null, i32 0, metadata !127, i32 1113} ; [ DW_TAG_subprogram ]
!556 = metadata !{i32 786453, i32 0, metadata !"", i32 0, i32 0, i64 0, i64 0, i64 0, i32 0, null, metadata !557, i32 0, i32 0} ; [ DW_TAG_subroutine_type ]
!557 = metadata !{metadata !239, metadata !238}
!558 = metadata !{i32 786478, i32 0, metadata !114, metadata !"to_float", metadata !"to_float", metadata !"_ZNK13ap_fixed_baseILi32ELi1ELb0EL9ap_q_mode5EL9ap_o_mode3ELi0EE8to_floatEv", metadata !115, i32 1166, metadata !559, i1 false, i1 false, i32 0, i32 0, null, i32 256, i1 false, null, null, i32 0, metadata !127, i32 1166} ; [ DW_TAG_subprogram ]
!559 = metadata !{i32 786453, i32 0, metadata !"", i32 0, i32 0, i64 0, i64 0, i64 0, i32 0, null, metadata !560, i32 0, i32 0} ; [ DW_TAG_subroutine_type ]
!560 = metadata !{metadata !243, metadata !238}
!561 = metadata !{i32 786478, i32 0, metadata !114, metadata !"to_half", metadata !"to_half", metadata !"_ZNK13ap_fixed_baseILi32ELi1ELb0EL9ap_q_mode5EL9ap_o_mode3ELi0EE7to_halfEv", metadata !115, i32 1204, metadata !562, i1 false, i1 false, i32 0, i32 0, null, i32 256, i1 false, null, null, i32 0, metadata !127, i32 1204} ; [ DW_TAG_subprogram ]
!562 = metadata !{i32 786453, i32 0, metadata !"", i32 0, i32 0, i64 0, i64 0, i64 0, i32 0, null, metadata !563, i32 0, i32 0} ; [ DW_TAG_subroutine_type ]
!563 = metadata !{metadata !247, metadata !238}
!564 = metadata !{i32 786478, i32 0, metadata !114, metadata !"operator double", metadata !"operator double", metadata !"_ZNK13ap_fixed_baseILi32ELi1ELb0EL9ap_q_mode5EL9ap_o_mode3ELi0EEcvdEv", metadata !115, i32 1254, metadata !556, i1 false, i1 false, i32 0, i32 0, null, i32 256, i1 false, null, null, i32 0, metadata !127, i32 1254} ; [ DW_TAG_subprogram ]
!565 = metadata !{i32 786478, i32 0, metadata !114, metadata !"operator float", metadata !"operator float", metadata !"_ZNK13ap_fixed_baseILi32ELi1ELb0EL9ap_q_mode5EL9ap_o_mode3ELi0EEcvfEv", metadata !115, i32 1258, metadata !559, i1 false, i1 false, i32 0, i32 0, null, i32 256, i1 false, null, null, i32 0, metadata !127, i32 1258} ; [ DW_TAG_subprogram ]
!566 = metadata !{i32 786478, i32 0, metadata !114, metadata !"operator half", metadata !"operator half", metadata !"_ZNK13ap_fixed_baseILi32ELi1ELb0EL9ap_q_mode5EL9ap_o_mode3ELi0EEcvDhEv", metadata !115, i32 1261, metadata !562, i1 false, i1 false, i32 0, i32 0, null, i32 256, i1 false, null, null, i32 0, metadata !127, i32 1261} ; [ DW_TAG_subprogram ]
!567 = metadata !{i32 786478, i32 0, metadata !114, metadata !"operator _Bool", metadata !"operator _Bool", metadata !"_ZNK13ap_fixed_baseILi32ELi1ELb0EL9ap_q_mode5EL9ap_o_mode3ELi0EEcvbEv", metadata !115, i32 1265, metadata !568, i1 false, i1 false, i32 0, i32 0, null, i32 256, i1 false, null, null, i32 0, metadata !127, i32 1265} ; [ DW_TAG_subprogram ]
!568 = metadata !{i32 786453, i32 0, metadata !"", i32 0, i32 0, i64 0, i64 0, i64 0, i32 0, null, metadata !569, i32 0, i32 0} ; [ DW_TAG_subroutine_type ]
!569 = metadata !{metadata !133, metadata !238}
!570 = metadata !{i32 786478, i32 0, metadata !114, metadata !"operator char", metadata !"operator char", metadata !"_ZNK13ap_fixed_baseILi32ELi1ELb0EL9ap_q_mode5EL9ap_o_mode3ELi0EEcvcEv", metadata !115, i32 1269, metadata !571, i1 false, i1 false, i32 0, i32 0, null, i32 256, i1 false, null, null, i32 0, metadata !127, i32 1269} ; [ DW_TAG_subprogram ]
!571 = metadata !{i32 786453, i32 0, metadata !"", i32 0, i32 0, i64 0, i64 0, i64 0, i32 0, null, metadata !572, i32 0, i32 0} ; [ DW_TAG_subroutine_type ]
!572 = metadata !{metadata !185, metadata !238}
!573 = metadata !{i32 786478, i32 0, metadata !114, metadata !"operator signed char", metadata !"operator signed char", metadata !"_ZNK13ap_fixed_baseILi32ELi1ELb0EL9ap_q_mode5EL9ap_o_mode3ELi0EEcvaEv", metadata !115, i32 1273, metadata !574, i1 false, i1 false, i32 0, i32 0, null, i32 256, i1 false, null, null, i32 0, metadata !127, i32 1273} ; [ DW_TAG_subprogram ]
!574 = metadata !{i32 786453, i32 0, metadata !"", i32 0, i32 0, i64 0, i64 0, i64 0, i32 0, null, metadata !575, i32 0, i32 0} ; [ DW_TAG_subroutine_type ]
!575 = metadata !{metadata !189, metadata !238}
!576 = metadata !{i32 786478, i32 0, metadata !114, metadata !"operator unsigned char", metadata !"operator unsigned char", metadata !"_ZNK13ap_fixed_baseILi32ELi1ELb0EL9ap_q_mode5EL9ap_o_mode3ELi0EEcvhEv", metadata !115, i32 1277, metadata !577, i1 false, i1 false, i32 0, i32 0, null, i32 256, i1 false, null, null, i32 0, metadata !127, i32 1277} ; [ DW_TAG_subprogram ]
!577 = metadata !{i32 786453, i32 0, metadata !"", i32 0, i32 0, i64 0, i64 0, i64 0, i32 0, null, metadata !578, i32 0, i32 0} ; [ DW_TAG_subroutine_type ]
!578 = metadata !{metadata !193, metadata !238}
!579 = metadata !{i32 786478, i32 0, metadata !114, metadata !"operator short", metadata !"operator short", metadata !"_ZNK13ap_fixed_baseILi32ELi1ELb0EL9ap_q_mode5EL9ap_o_mode3ELi0EEcvsEv", metadata !115, i32 1281, metadata !580, i1 false, i1 false, i32 0, i32 0, null, i32 256, i1 false, null, null, i32 0, metadata !127, i32 1281} ; [ DW_TAG_subprogram ]
!580 = metadata !{i32 786453, i32 0, metadata !"", i32 0, i32 0, i64 0, i64 0, i64 0, i32 0, null, metadata !581, i32 0, i32 0} ; [ DW_TAG_subroutine_type ]
!581 = metadata !{metadata !197, metadata !238}
!582 = metadata !{i32 786478, i32 0, metadata !114, metadata !"operator unsigned short", metadata !"operator unsigned short", metadata !"_ZNK13ap_fixed_baseILi32ELi1ELb0EL9ap_q_mode5EL9ap_o_mode3ELi0EEcvtEv", metadata !115, i32 1285, metadata !583, i1 false, i1 false, i32 0, i32 0, null, i32 256, i1 false, null, null, i32 0, metadata !127, i32 1285} ; [ DW_TAG_subprogram ]
!583 = metadata !{i32 786453, i32 0, metadata !"", i32 0, i32 0, i64 0, i64 0, i64 0, i32 0, null, metadata !584, i32 0, i32 0} ; [ DW_TAG_subroutine_type ]
!584 = metadata !{metadata !201, metadata !238}
!585 = metadata !{i32 786478, i32 0, metadata !114, metadata !"operator int", metadata !"operator int", metadata !"_ZNK13ap_fixed_baseILi32ELi1ELb0EL9ap_q_mode5EL9ap_o_mode3ELi0EEcviEv", metadata !115, i32 1290, metadata !544, i1 false, i1 false, i32 0, i32 0, null, i32 256, i1 false, null, null, i32 0, metadata !127, i32 1290} ; [ DW_TAG_subprogram ]
!586 = metadata !{i32 786478, i32 0, metadata !114, metadata !"operator unsigned int", metadata !"operator unsigned int", metadata !"_ZNK13ap_fixed_baseILi32ELi1ELb0EL9ap_q_mode5EL9ap_o_mode3ELi0EEcvjEv", metadata !115, i32 1294, metadata !547, i1 false, i1 false, i32 0, i32 0, null, i32 256, i1 false, null, null, i32 0, metadata !127, i32 1294} ; [ DW_TAG_subprogram ]
!587 = metadata !{i32 786478, i32 0, metadata !114, metadata !"operator long", metadata !"operator long", metadata !"_ZNK13ap_fixed_baseILi32ELi1ELb0EL9ap_q_mode5EL9ap_o_mode3ELi0EEcvlEv", metadata !115, i32 1299, metadata !588, i1 false, i1 false, i32 0, i32 0, null, i32 256, i1 false, null, null, i32 0, metadata !127, i32 1299} ; [ DW_TAG_subprogram ]
!588 = metadata !{i32 786453, i32 0, metadata !"", i32 0, i32 0, i64 0, i64 0, i64 0, i32 0, null, metadata !589, i32 0, i32 0} ; [ DW_TAG_subroutine_type ]
!589 = metadata !{metadata !212, metadata !238}
!590 = metadata !{i32 786478, i32 0, metadata !114, metadata !"operator unsigned long", metadata !"operator unsigned long", metadata !"_ZNK13ap_fixed_baseILi32ELi1ELb0EL9ap_q_mode5EL9ap_o_mode3ELi0EEcvmEv", metadata !115, i32 1303, metadata !591, i1 false, i1 false, i32 0, i32 0, null, i32 256, i1 false, null, null, i32 0, metadata !127, i32 1303} ; [ DW_TAG_subprogram ]
!591 = metadata !{i32 786453, i32 0, metadata !"", i32 0, i32 0, i64 0, i64 0, i64 0, i32 0, null, metadata !592, i32 0, i32 0} ; [ DW_TAG_subroutine_type ]
!592 = metadata !{metadata !216, metadata !238}
!593 = metadata !{i32 786478, i32 0, metadata !114, metadata !"operator unsigned long long", metadata !"operator unsigned long long", metadata !"_ZNK13ap_fixed_baseILi32ELi1ELb0EL9ap_q_mode5EL9ap_o_mode3ELi0EEcvyEv", metadata !115, i32 1316, metadata !594, i1 false, i1 false, i32 0, i32 0, null, i32 256, i1 false, null, null, i32 0, metadata !127, i32 1316} ; [ DW_TAG_subprogram ]
!594 = metadata !{i32 786453, i32 0, metadata !"", i32 0, i32 0, i64 0, i64 0, i64 0, i32 0, null, metadata !595, i32 0, i32 0} ; [ DW_TAG_subroutine_type ]
!595 = metadata !{metadata !226, metadata !238}
!596 = metadata !{i32 786478, i32 0, metadata !114, metadata !"operator long long", metadata !"operator long long", metadata !"_ZNK13ap_fixed_baseILi32ELi1ELb0EL9ap_q_mode5EL9ap_o_mode3ELi0EEcvxEv", metadata !115, i32 1320, metadata !597, i1 false, i1 false, i32 0, i32 0, null, i32 256, i1 false, null, null, i32 0, metadata !127, i32 1320} ; [ DW_TAG_subprogram ]
!597 = metadata !{i32 786453, i32 0, metadata !"", i32 0, i32 0, i64 0, i64 0, i64 0, i32 0, null, metadata !598, i32 0, i32 0} ; [ DW_TAG_subroutine_type ]
!598 = metadata !{metadata !221, metadata !238}
!599 = metadata !{i32 786478, i32 0, metadata !114, metadata !"length", metadata !"length", metadata !"_ZNK13ap_fixed_baseILi32ELi1ELb0EL9ap_q_mode5EL9ap_o_mode3ELi0EE6lengthEv", metadata !115, i32 1324, metadata !544, i1 false, i1 false, i32 0, i32 0, null, i32 256, i1 false, null, null, i32 0, metadata !127, i32 1324} ; [ DW_TAG_subprogram ]
!600 = metadata !{i32 786478, i32 0, metadata !114, metadata !"countLeadingZeros", metadata !"countLeadingZeros", metadata !"_ZN13ap_fixed_baseILi32ELi1ELb0EL9ap_q_mode5EL9ap_o_mode3ELi0EE17countLeadingZerosEv", metadata !115, i32 1328, metadata !601, i1 false, i1 false, i32 0, i32 0, null, i32 256, i1 false, null, null, i32 0, metadata !127, i32 1328} ; [ DW_TAG_subprogram ]
!601 = metadata !{i32 786453, i32 0, metadata !"", i32 0, i32 0, i64 0, i64 0, i64 0, i32 0, null, metadata !602, i32 0, i32 0} ; [ DW_TAG_subroutine_type ]
!602 = metadata !{metadata !131, metadata !137}
!603 = metadata !{i32 786478, i32 0, metadata !114, metadata !"operator++", metadata !"operator++", metadata !"_ZN13ap_fixed_baseILi32ELi1ELb0EL9ap_q_mode5EL9ap_o_mode3ELi0EEppEv", metadata !115, i32 1429, metadata !604, i1 false, i1 false, i32 0, i32 0, null, i32 256, i1 false, null, null, i32 0, metadata !127, i32 1429} ; [ DW_TAG_subprogram ]
!604 = metadata !{i32 786453, i32 0, metadata !"", i32 0, i32 0, i64 0, i64 0, i64 0, i32 0, null, metadata !605, i32 0, i32 0} ; [ DW_TAG_subroutine_type ]
!605 = metadata !{metadata !270, metadata !137}
!606 = metadata !{i32 786478, i32 0, metadata !114, metadata !"operator--", metadata !"operator--", metadata !"_ZN13ap_fixed_baseILi32ELi1ELb0EL9ap_q_mode5EL9ap_o_mode3ELi0EEmmEv", metadata !115, i32 1433, metadata !604, i1 false, i1 false, i32 0, i32 0, null, i32 256, i1 false, null, null, i32 0, metadata !127, i32 1433} ; [ DW_TAG_subprogram ]
!607 = metadata !{i32 786478, i32 0, metadata !114, metadata !"operator++", metadata !"operator++", metadata !"_ZN13ap_fixed_baseILi32ELi1ELb0EL9ap_q_mode5EL9ap_o_mode3ELi0EEppEi", metadata !115, i32 1441, metadata !608, i1 false, i1 false, i32 0, i32 0, null, i32 256, i1 false, null, null, i32 0, metadata !127, i32 1441} ; [ DW_TAG_subprogram ]
!608 = metadata !{i32 786453, i32 0, metadata !"", i32 0, i32 0, i64 0, i64 0, i64 0, i32 0, null, metadata !609, i32 0, i32 0} ; [ DW_TAG_subroutine_type ]
!609 = metadata !{metadata !148, metadata !137, metadata !131}
!610 = metadata !{i32 786478, i32 0, metadata !114, metadata !"operator--", metadata !"operator--", metadata !"_ZN13ap_fixed_baseILi32ELi1ELb0EL9ap_q_mode5EL9ap_o_mode3ELi0EEmmEi", metadata !115, i32 1447, metadata !608, i1 false, i1 false, i32 0, i32 0, null, i32 256, i1 false, null, null, i32 0, metadata !127, i32 1447} ; [ DW_TAG_subprogram ]
!611 = metadata !{i32 786478, i32 0, metadata !114, metadata !"operator+", metadata !"operator+", metadata !"_ZN13ap_fixed_baseILi32ELi1ELb0EL9ap_q_mode5EL9ap_o_mode3ELi0EEpsEv", metadata !115, i32 1455, metadata !612, i1 false, i1 false, i32 0, i32 0, null, i32 256, i1 false, null, null, i32 0, metadata !127, i32 1455} ; [ DW_TAG_subprogram ]
!612 = metadata !{i32 786453, i32 0, metadata !"", i32 0, i32 0, i64 0, i64 0, i64 0, i32 0, null, metadata !613, i32 0, i32 0} ; [ DW_TAG_subroutine_type ]
!613 = metadata !{metadata !114, metadata !137}
!614 = metadata !{i32 786478, i32 0, metadata !114, metadata !"operator-", metadata !"operator-", metadata !"_ZNK13ap_fixed_baseILi32ELi1ELb0EL9ap_q_mode5EL9ap_o_mode3ELi0EEngEv", metadata !115, i32 1459, metadata !615, i1 false, i1 false, i32 0, i32 0, null, i32 256, i1 false, null, null, i32 0, metadata !127, i32 1459} ; [ DW_TAG_subprogram ]
!615 = metadata !{i32 786453, i32 0, metadata !"", i32 0, i32 0, i64 0, i64 0, i64 0, i32 0, null, metadata !616, i32 0, i32 0} ; [ DW_TAG_subroutine_type ]
!616 = metadata !{metadata !617, metadata !238}
!617 = metadata !{i32 786434, null, metadata !"ap_fixed_base<33, 2, true, 5, 3, 0>", metadata !115, i32 512, i32 0, i32 0, i32 0, i32 4, null, null, i32 0} ; [ DW_TAG_class_type ]
!618 = metadata !{i32 786478, i32 0, metadata !114, metadata !"getNeg", metadata !"getNeg", metadata !"_ZN13ap_fixed_baseILi32ELi1ELb0EL9ap_q_mode5EL9ap_o_mode3ELi0EE6getNegEv", metadata !115, i32 1465, metadata !619, i1 false, i1 false, i32 0, i32 0, null, i32 256, i1 false, null, null, i32 0, metadata !127, i32 1465} ; [ DW_TAG_subprogram ]
!619 = metadata !{i32 786453, i32 0, metadata !"", i32 0, i32 0, i64 0, i64 0, i64 0, i32 0, null, metadata !620, i32 0, i32 0} ; [ DW_TAG_subroutine_type ]
!620 = metadata !{metadata !621, metadata !137}
!621 = metadata !{i32 786434, null, metadata !"ap_fixed_base<32, 1, true, 5, 3, 0>", metadata !115, i32 512, i32 0, i32 0, i32 0, i32 4, null, null, i32 0} ; [ DW_TAG_class_type ]
!622 = metadata !{i32 786478, i32 0, metadata !114, metadata !"operator!", metadata !"operator!", metadata !"_ZNK13ap_fixed_baseILi32ELi1ELb0EL9ap_q_mode5EL9ap_o_mode3ELi0EEntEv", metadata !115, i32 1473, metadata !568, i1 false, i1 false, i32 0, i32 0, null, i32 256, i1 false, null, null, i32 0, metadata !127, i32 1473} ; [ DW_TAG_subprogram ]
!623 = metadata !{i32 786478, i32 0, metadata !114, metadata !"operator~", metadata !"operator~", metadata !"_ZNK13ap_fixed_baseILi32ELi1ELb0EL9ap_q_mode5EL9ap_o_mode3ELi0EEcoEv", metadata !115, i32 1479, metadata !624, i1 false, i1 false, i32 0, i32 0, null, i32 256, i1 false, null, null, i32 0, metadata !127, i32 1479} ; [ DW_TAG_subprogram ]
!624 = metadata !{i32 786453, i32 0, metadata !"", i32 0, i32 0, i64 0, i64 0, i64 0, i32 0, null, metadata !625, i32 0, i32 0} ; [ DW_TAG_subroutine_type ]
!625 = metadata !{metadata !114, metadata !238}
!626 = metadata !{i32 786478, i32 0, metadata !114, metadata !"operator<<", metadata !"operator<<", metadata !"_ZNK13ap_fixed_baseILi32ELi1ELb0EL9ap_q_mode5EL9ap_o_mode3ELi0EElsEi", metadata !115, i32 1502, metadata !627, i1 false, i1 false, i32 0, i32 0, null, i32 256, i1 false, null, null, i32 0, metadata !127, i32 1502} ; [ DW_TAG_subprogram ]
!627 = metadata !{i32 786453, i32 0, metadata !"", i32 0, i32 0, i64 0, i64 0, i64 0, i32 0, null, metadata !628, i32 0, i32 0} ; [ DW_TAG_subroutine_type ]
!628 = metadata !{metadata !114, metadata !238, metadata !131}
!629 = metadata !{i32 786478, i32 0, metadata !114, metadata !"operator<<", metadata !"operator<<", metadata !"_ZNK13ap_fixed_baseILi32ELi1ELb0EL9ap_q_mode5EL9ap_o_mode3ELi0EElsEj", metadata !115, i32 1561, metadata !630, i1 false, i1 false, i32 0, i32 0, null, i32 256, i1 false, null, null, i32 0, metadata !127, i32 1561} ; [ DW_TAG_subprogram ]
!630 = metadata !{i32 786453, i32 0, metadata !"", i32 0, i32 0, i64 0, i64 0, i64 0, i32 0, null, metadata !631, i32 0, i32 0} ; [ DW_TAG_subroutine_type ]
!631 = metadata !{metadata !114, metadata !238, metadata !208}
!632 = metadata !{i32 786478, i32 0, metadata !114, metadata !"operator>>", metadata !"operator>>", metadata !"_ZNK13ap_fixed_baseILi32ELi1ELb0EL9ap_q_mode5EL9ap_o_mode3ELi0EErsEi", metadata !115, i32 1605, metadata !627, i1 false, i1 false, i32 0, i32 0, null, i32 256, i1 false, null, null, i32 0, metadata !127, i32 1605} ; [ DW_TAG_subprogram ]
!633 = metadata !{i32 786478, i32 0, metadata !114, metadata !"operator>>", metadata !"operator>>", metadata !"_ZNK13ap_fixed_baseILi32ELi1ELb0EL9ap_q_mode5EL9ap_o_mode3ELi0EErsEj", metadata !115, i32 1663, metadata !630, i1 false, i1 false, i32 0, i32 0, null, i32 256, i1 false, null, null, i32 0, metadata !127, i32 1663} ; [ DW_TAG_subprogram ]
!634 = metadata !{i32 786478, i32 0, metadata !114, metadata !"operator<<=", metadata !"operator<<=", metadata !"_ZN13ap_fixed_baseILi32ELi1ELb0EL9ap_q_mode5EL9ap_o_mode3ELi0EElSEi", metadata !115, i32 1715, metadata !635, i1 false, i1 false, i32 0, i32 0, null, i32 256, i1 false, null, null, i32 0, metadata !127, i32 1715} ; [ DW_TAG_subprogram ]
!635 = metadata !{i32 786453, i32 0, metadata !"", i32 0, i32 0, i64 0, i64 0, i64 0, i32 0, null, metadata !636, i32 0, i32 0} ; [ DW_TAG_subroutine_type ]
!636 = metadata !{metadata !270, metadata !137, metadata !131}
!637 = metadata !{i32 786478, i32 0, metadata !114, metadata !"operator<<=", metadata !"operator<<=", metadata !"_ZN13ap_fixed_baseILi32ELi1ELb0EL9ap_q_mode5EL9ap_o_mode3ELi0EElSEj", metadata !115, i32 1778, metadata !638, i1 false, i1 false, i32 0, i32 0, null, i32 256, i1 false, null, null, i32 0, metadata !127, i32 1778} ; [ DW_TAG_subprogram ]
!638 = metadata !{i32 786453, i32 0, metadata !"", i32 0, i32 0, i64 0, i64 0, i64 0, i32 0, null, metadata !639, i32 0, i32 0} ; [ DW_TAG_subroutine_type ]
!639 = metadata !{metadata !270, metadata !137, metadata !208}
!640 = metadata !{i32 786478, i32 0, metadata !114, metadata !"operator>>=", metadata !"operator>>=", metadata !"_ZN13ap_fixed_baseILi32ELi1ELb0EL9ap_q_mode5EL9ap_o_mode3ELi0EErSEi", metadata !115, i32 1825, metadata !635, i1 false, i1 false, i32 0, i32 0, null, i32 256, i1 false, null, null, i32 0, metadata !127, i32 1825} ; [ DW_TAG_subprogram ]
!641 = metadata !{i32 786478, i32 0, metadata !114, metadata !"operator>>=", metadata !"operator>>=", metadata !"_ZN13ap_fixed_baseILi32ELi1ELb0EL9ap_q_mode5EL9ap_o_mode3ELi0EErSEj", metadata !115, i32 1887, metadata !638, i1 false, i1 false, i32 0, i32 0, null, i32 256, i1 false, null, null, i32 0, metadata !127, i32 1887} ; [ DW_TAG_subprogram ]
!642 = metadata !{i32 786478, i32 0, metadata !114, metadata !"operator==", metadata !"operator==", metadata !"_ZNK13ap_fixed_baseILi32ELi1ELb0EL9ap_q_mode5EL9ap_o_mode3ELi0EEeqEd", metadata !115, i32 1965, metadata !643, i1 false, i1 false, i32 0, i32 0, null, i32 256, i1 false, null, null, i32 0, metadata !127, i32 1965} ; [ DW_TAG_subprogram ]
!643 = metadata !{i32 786453, i32 0, metadata !"", i32 0, i32 0, i64 0, i64 0, i64 0, i32 0, null, metadata !644, i32 0, i32 0} ; [ DW_TAG_subroutine_type ]
!644 = metadata !{metadata !133, metadata !238, metadata !239}
!645 = metadata !{i32 786478, i32 0, metadata !114, metadata !"operator!=", metadata !"operator!=", metadata !"_ZNK13ap_fixed_baseILi32ELi1ELb0EL9ap_q_mode5EL9ap_o_mode3ELi0EEneEd", metadata !115, i32 1966, metadata !643, i1 false, i1 false, i32 0, i32 0, null, i32 256, i1 false, null, null, i32 0, metadata !127, i32 1966} ; [ DW_TAG_subprogram ]
!646 = metadata !{i32 786478, i32 0, metadata !114, metadata !"operator>", metadata !"operator>", metadata !"_ZNK13ap_fixed_baseILi32ELi1ELb0EL9ap_q_mode5EL9ap_o_mode3ELi0EEgtEd", metadata !115, i32 1967, metadata !643, i1 false, i1 false, i32 0, i32 0, null, i32 256, i1 false, null, null, i32 0, metadata !127, i32 1967} ; [ DW_TAG_subprogram ]
!647 = metadata !{i32 786478, i32 0, metadata !114, metadata !"operator>=", metadata !"operator>=", metadata !"_ZNK13ap_fixed_baseILi32ELi1ELb0EL9ap_q_mode5EL9ap_o_mode3ELi0EEgeEd", metadata !115, i32 1968, metadata !643, i1 false, i1 false, i32 0, i32 0, null, i32 256, i1 false, null, null, i32 0, metadata !127, i32 1968} ; [ DW_TAG_subprogram ]
!648 = metadata !{i32 786478, i32 0, metadata !114, metadata !"operator<", metadata !"operator<", metadata !"_ZNK13ap_fixed_baseILi32ELi1ELb0EL9ap_q_mode5EL9ap_o_mode3ELi0EEltEd", metadata !115, i32 1969, metadata !643, i1 false, i1 false, i32 0, i32 0, null, i32 256, i1 false, null, null, i32 0, metadata !127, i32 1969} ; [ DW_TAG_subprogram ]
!649 = metadata !{i32 786478, i32 0, metadata !114, metadata !"operator<=", metadata !"operator<=", metadata !"_ZNK13ap_fixed_baseILi32ELi1ELb0EL9ap_q_mode5EL9ap_o_mode3ELi0EEleEd", metadata !115, i32 1970, metadata !643, i1 false, i1 false, i32 0, i32 0, null, i32 256, i1 false, null, null, i32 0, metadata !127, i32 1970} ; [ DW_TAG_subprogram ]
!650 = metadata !{i32 786478, i32 0, metadata !114, metadata !"operator[]", metadata !"operator[]", metadata !"_ZN13ap_fixed_baseILi32ELi1ELb0EL9ap_q_mode5EL9ap_o_mode3ELi0EEixEj", metadata !115, i32 1973, metadata !651, i1 false, i1 false, i32 0, i32 0, null, i32 256, i1 false, null, null, i32 0, metadata !127, i32 1973} ; [ DW_TAG_subprogram ]
!651 = metadata !{i32 786453, i32 0, metadata !"", i32 0, i32 0, i64 0, i64 0, i64 0, i32 0, null, metadata !652, i32 0, i32 0} ; [ DW_TAG_subroutine_type ]
!652 = metadata !{metadata !653, metadata !137, metadata !208}
!653 = metadata !{i32 786434, null, metadata !"af_bit_ref<32, 1, false, 5, 3, 0>", metadata !115, i32 93, i32 0, i32 0, i32 0, i32 4, null, null, i32 0} ; [ DW_TAG_class_type ]
!654 = metadata !{i32 786478, i32 0, metadata !114, metadata !"operator[]", metadata !"operator[]", metadata !"_ZNK13ap_fixed_baseILi32ELi1ELb0EL9ap_q_mode5EL9ap_o_mode3ELi0EEixEj", metadata !115, i32 1985, metadata !655, i1 false, i1 false, i32 0, i32 0, null, i32 256, i1 false, null, null, i32 0, metadata !127, i32 1985} ; [ DW_TAG_subprogram ]
!655 = metadata !{i32 786453, i32 0, metadata !"", i32 0, i32 0, i64 0, i64 0, i64 0, i32 0, null, metadata !656, i32 0, i32 0} ; [ DW_TAG_subroutine_type ]
!656 = metadata !{metadata !133, metadata !238, metadata !208}
!657 = metadata !{i32 786478, i32 0, metadata !114, metadata !"bit", metadata !"bit", metadata !"_ZN13ap_fixed_baseILi32ELi1ELb0EL9ap_q_mode5EL9ap_o_mode3ELi0EE3bitEj", metadata !115, i32 1990, metadata !651, i1 false, i1 false, i32 0, i32 0, null, i32 256, i1 false, null, null, i32 0, metadata !127, i32 1990} ; [ DW_TAG_subprogram ]
!658 = metadata !{i32 786478, i32 0, metadata !114, metadata !"bit", metadata !"bit", metadata !"_ZNK13ap_fixed_baseILi32ELi1ELb0EL9ap_q_mode5EL9ap_o_mode3ELi0EE3bitEj", metadata !115, i32 2003, metadata !655, i1 false, i1 false, i32 0, i32 0, null, i32 256, i1 false, null, null, i32 0, metadata !127, i32 2003} ; [ DW_TAG_subprogram ]
!659 = metadata !{i32 786478, i32 0, metadata !114, metadata !"get_bit", metadata !"get_bit", metadata !"_ZNK13ap_fixed_baseILi32ELi1ELb0EL9ap_q_mode5EL9ap_o_mode3ELi0EE7get_bitEi", metadata !115, i32 2015, metadata !660, i1 false, i1 false, i32 0, i32 0, null, i32 256, i1 false, null, null, i32 0, metadata !127, i32 2015} ; [ DW_TAG_subprogram ]
!660 = metadata !{i32 786453, i32 0, metadata !"", i32 0, i32 0, i64 0, i64 0, i64 0, i32 0, null, metadata !661, i32 0, i32 0} ; [ DW_TAG_subroutine_type ]
!661 = metadata !{metadata !133, metadata !238, metadata !131}
!662 = metadata !{i32 786478, i32 0, metadata !114, metadata !"get_bit", metadata !"get_bit", metadata !"_ZN13ap_fixed_baseILi32ELi1ELb0EL9ap_q_mode5EL9ap_o_mode3ELi0EE7get_bitEi", metadata !115, i32 2021, metadata !663, i1 false, i1 false, i32 0, i32 0, null, i32 256, i1 false, null, null, i32 0, metadata !127, i32 2021} ; [ DW_TAG_subprogram ]
!663 = metadata !{i32 786453, i32 0, metadata !"", i32 0, i32 0, i64 0, i64 0, i64 0, i32 0, null, metadata !664, i32 0, i32 0} ; [ DW_TAG_subroutine_type ]
!664 = metadata !{metadata !653, metadata !137, metadata !131}
!665 = metadata !{i32 786478, i32 0, metadata !114, metadata !"range", metadata !"range", metadata !"_ZN13ap_fixed_baseILi32ELi1ELb0EL9ap_q_mode5EL9ap_o_mode3ELi0EE5rangeEii", metadata !115, i32 2036, metadata !666, i1 false, i1 false, i32 0, i32 0, null, i32 256, i1 false, null, null, i32 0, metadata !127, i32 2036} ; [ DW_TAG_subprogram ]
!666 = metadata !{i32 786453, i32 0, metadata !"", i32 0, i32 0, i64 0, i64 0, i64 0, i32 0, null, metadata !667, i32 0, i32 0} ; [ DW_TAG_subroutine_type ]
!667 = metadata !{metadata !668, metadata !137, metadata !131, metadata !131}
!668 = metadata !{i32 786434, null, metadata !"af_range_ref<32, 1, false, 5, 3, 0>", metadata !115, i32 238, i32 0, i32 0, i32 0, i32 4, null, null, i32 0} ; [ DW_TAG_class_type ]
!669 = metadata !{i32 786478, i32 0, metadata !114, metadata !"operator()", metadata !"operator()", metadata !"_ZN13ap_fixed_baseILi32ELi1ELb0EL9ap_q_mode5EL9ap_o_mode3ELi0EEclEii", metadata !115, i32 2042, metadata !666, i1 false, i1 false, i32 0, i32 0, null, i32 256, i1 false, null, null, i32 0, metadata !127, i32 2042} ; [ DW_TAG_subprogram ]
!670 = metadata !{i32 786478, i32 0, metadata !114, metadata !"range", metadata !"range", metadata !"_ZNK13ap_fixed_baseILi32ELi1ELb0EL9ap_q_mode5EL9ap_o_mode3ELi0EE5rangeEii", metadata !115, i32 2048, metadata !671, i1 false, i1 false, i32 0, i32 0, null, i32 256, i1 false, null, null, i32 0, metadata !127, i32 2048} ; [ DW_TAG_subprogram ]
!671 = metadata !{i32 786453, i32 0, metadata !"", i32 0, i32 0, i64 0, i64 0, i64 0, i32 0, null, metadata !672, i32 0, i32 0} ; [ DW_TAG_subroutine_type ]
!672 = metadata !{metadata !668, metadata !238, metadata !131, metadata !131}
!673 = metadata !{i32 786478, i32 0, metadata !114, metadata !"operator()", metadata !"operator()", metadata !"_ZNK13ap_fixed_baseILi32ELi1ELb0EL9ap_q_mode5EL9ap_o_mode3ELi0EEclEii", metadata !115, i32 2097, metadata !671, i1 false, i1 false, i32 0, i32 0, null, i32 256, i1 false, null, null, i32 0, metadata !127, i32 2097} ; [ DW_TAG_subprogram ]
!674 = metadata !{i32 786478, i32 0, metadata !114, metadata !"range", metadata !"range", metadata !"_ZN13ap_fixed_baseILi32ELi1ELb0EL9ap_q_mode5EL9ap_o_mode3ELi0EE5rangeEv", metadata !115, i32 2102, metadata !675, i1 false, i1 false, i32 0, i32 0, null, i32 256, i1 false, null, null, i32 0, metadata !127, i32 2102} ; [ DW_TAG_subprogram ]
!675 = metadata !{i32 786453, i32 0, metadata !"", i32 0, i32 0, i64 0, i64 0, i64 0, i32 0, null, metadata !676, i32 0, i32 0} ; [ DW_TAG_subroutine_type ]
!676 = metadata !{metadata !668, metadata !137}
!677 = metadata !{i32 786478, i32 0, metadata !114, metadata !"range", metadata !"range", metadata !"_ZNK13ap_fixed_baseILi32ELi1ELb0EL9ap_q_mode5EL9ap_o_mode3ELi0EE5rangeEv", metadata !115, i32 2107, metadata !678, i1 false, i1 false, i32 0, i32 0, null, i32 256, i1 false, null, null, i32 0, metadata !127, i32 2107} ; [ DW_TAG_subprogram ]
!678 = metadata !{i32 786453, i32 0, metadata !"", i32 0, i32 0, i64 0, i64 0, i64 0, i32 0, null, metadata !679, i32 0, i32 0} ; [ DW_TAG_subroutine_type ]
!679 = metadata !{metadata !668, metadata !238}
!680 = metadata !{i32 786478, i32 0, metadata !114, metadata !"is_zero", metadata !"is_zero", metadata !"_ZNK13ap_fixed_baseILi32ELi1ELb0EL9ap_q_mode5EL9ap_o_mode3ELi0EE7is_zeroEv", metadata !115, i32 2111, metadata !568, i1 false, i1 false, i32 0, i32 0, null, i32 256, i1 false, null, null, i32 0, metadata !127, i32 2111} ; [ DW_TAG_subprogram ]
!681 = metadata !{i32 786478, i32 0, metadata !114, metadata !"is_neg", metadata !"is_neg", metadata !"_ZNK13ap_fixed_baseILi32ELi1ELb0EL9ap_q_mode5EL9ap_o_mode3ELi0EE6is_negEv", metadata !115, i32 2115, metadata !568, i1 false, i1 false, i32 0, i32 0, null, i32 256, i1 false, null, null, i32 0, metadata !127, i32 2115} ; [ DW_TAG_subprogram ]
!682 = metadata !{i32 786478, i32 0, metadata !114, metadata !"wl", metadata !"wl", metadata !"_ZNK13ap_fixed_baseILi32ELi1ELb0EL9ap_q_mode5EL9ap_o_mode3ELi0EE2wlEv", metadata !115, i32 2121, metadata !544, i1 false, i1 false, i32 0, i32 0, null, i32 256, i1 false, null, null, i32 0, metadata !127, i32 2121} ; [ DW_TAG_subprogram ]
!683 = metadata !{i32 786478, i32 0, metadata !114, metadata !"iwl", metadata !"iwl", metadata !"_ZNK13ap_fixed_baseILi32ELi1ELb0EL9ap_q_mode5EL9ap_o_mode3ELi0EE3iwlEv", metadata !115, i32 2125, metadata !544, i1 false, i1 false, i32 0, i32 0, null, i32 256, i1 false, null, null, i32 0, metadata !127, i32 2125} ; [ DW_TAG_subprogram ]
!684 = metadata !{i32 786478, i32 0, metadata !114, metadata !"q_mode", metadata !"q_mode", metadata !"_ZNK13ap_fixed_baseILi32ELi1ELb0EL9ap_q_mode5EL9ap_o_mode3ELi0EE6q_modeEv", metadata !115, i32 2129, metadata !685, i1 false, i1 false, i32 0, i32 0, null, i32 256, i1 false, null, null, i32 0, metadata !127, i32 2129} ; [ DW_TAG_subprogram ]
!685 = metadata !{i32 786453, i32 0, metadata !"", i32 0, i32 0, i64 0, i64 0, i64 0, i32 0, null, metadata !686, i32 0, i32 0} ; [ DW_TAG_subroutine_type ]
!686 = metadata !{metadata !154, metadata !238}
!687 = metadata !{i32 786478, i32 0, metadata !114, metadata !"o_mode", metadata !"o_mode", metadata !"_ZNK13ap_fixed_baseILi32ELi1ELb0EL9ap_q_mode5EL9ap_o_mode3ELi0EE6o_modeEv", metadata !115, i32 2133, metadata !688, i1 false, i1 false, i32 0, i32 0, null, i32 256, i1 false, null, null, i32 0, metadata !127, i32 2133} ; [ DW_TAG_subprogram ]
!688 = metadata !{i32 786453, i32 0, metadata !"", i32 0, i32 0, i64 0, i64 0, i64 0, i32 0, null, metadata !689, i32 0, i32 0} ; [ DW_TAG_subroutine_type ]
!689 = metadata !{metadata !165, metadata !238}
!690 = metadata !{i32 786478, i32 0, metadata !114, metadata !"n_bits", metadata !"n_bits", metadata !"_ZNK13ap_fixed_baseILi32ELi1ELb0EL9ap_q_mode5EL9ap_o_mode3ELi0EE6n_bitsEv", metadata !115, i32 2137, metadata !544, i1 false, i1 false, i32 0, i32 0, null, i32 256, i1 false, null, null, i32 0, metadata !127, i32 2137} ; [ DW_TAG_subprogram ]
!691 = metadata !{i32 786478, i32 0, metadata !114, metadata !"to_string", metadata !"to_string", metadata !"_ZN13ap_fixed_baseILi32ELi1ELb0EL9ap_q_mode5EL9ap_o_mode3ELi0EE9to_stringE8BaseMode", metadata !115, i32 2141, metadata !692, i1 false, i1 false, i32 0, i32 0, null, i32 256, i1 false, null, null, i32 0, metadata !127, i32 2141} ; [ DW_TAG_subprogram ]
!692 = metadata !{i32 786453, i32 0, metadata !"", i32 0, i32 0, i64 0, i64 0, i64 0, i32 0, null, metadata !693, i32 0, i32 0} ; [ DW_TAG_subroutine_type ]
!693 = metadata !{metadata !527, metadata !137, metadata !528}
!694 = metadata !{i32 786478, i32 0, metadata !114, metadata !"to_string", metadata !"to_string", metadata !"_ZN13ap_fixed_baseILi32ELi1ELb0EL9ap_q_mode5EL9ap_o_mode3ELi0EE9to_stringEa", metadata !115, i32 2145, metadata !695, i1 false, i1 false, i32 0, i32 0, null, i32 256, i1 false, null, null, i32 0, metadata !127, i32 2145} ; [ DW_TAG_subprogram ]
!695 = metadata !{i32 786453, i32 0, metadata !"", i32 0, i32 0, i64 0, i64 0, i64 0, i32 0, null, metadata !696, i32 0, i32 0} ; [ DW_TAG_subroutine_type ]
!696 = metadata !{metadata !527, metadata !137, metadata !189}
!697 = metadata !{metadata !698, metadata !699, metadata !132, metadata !700, metadata !701, metadata !702}
!698 = metadata !{i32 786480, null, metadata !"_AP_W", metadata !131, i64 32, null, i32 0, i32 0} ; [ DW_TAG_template_value_parameter ]
!699 = metadata !{i32 786480, null, metadata !"_AP_I", metadata !131, i64 1, null, i32 0, i32 0} ; [ DW_TAG_template_value_parameter ]
!700 = metadata !{i32 786480, null, metadata !"_AP_Q", metadata !154, i64 5, null, i32 0, i32 0} ; [ DW_TAG_template_value_parameter ]
!701 = metadata !{i32 786480, null, metadata !"_AP_O", metadata !165, i64 3, null, i32 0, i32 0} ; [ DW_TAG_template_value_parameter ]
!702 = metadata !{i32 786480, null, metadata !"_AP_N", metadata !131, i64 0, null, i32 0, i32 0} ; [ DW_TAG_template_value_parameter ]
!703 = metadata !{i32 786478, i32 0, metadata !110, metadata !"ap_ufixed", metadata !"ap_ufixed", metadata !"", metadata !111, i32 416, metadata !704, i1 false, i1 false, i32 0, i32 0, null, i32 256, i1 false, null, null, i32 0, metadata !127, i32 416} ; [ DW_TAG_subprogram ]
!704 = metadata !{i32 786453, i32 0, metadata !"", i32 0, i32 0, i64 0, i64 0, i64 0, i32 0, null, metadata !705, i32 0, i32 0} ; [ DW_TAG_subroutine_type ]
!705 = metadata !{null, metadata !706}
!706 = metadata !{i32 786447, i32 0, metadata !"", i32 0, i32 0, i64 64, i64 64, i64 0, i32 64, metadata !110} ; [ DW_TAG_pointer_type ]
!707 = metadata !{i32 786478, i32 0, metadata !110, metadata !"ap_ufixed<129, 45, true, 5, 3, 0>", metadata !"ap_ufixed<129, 45, true, 5, 3, 0>", metadata !"", metadata !111, i32 460, metadata !708, i1 false, i1 false, i32 0, i32 0, null, i32 256, i1 false, null, metadata !988, i32 0, metadata !127, i32 460} ; [ DW_TAG_subprogram ]
!708 = metadata !{i32 786453, i32 0, metadata !"", i32 0, i32 0, i64 0, i64 0, i64 0, i32 0, null, metadata !709, i32 0, i32 0} ; [ DW_TAG_subroutine_type ]
!709 = metadata !{null, metadata !706, metadata !710}
!710 = metadata !{i32 786448, null, null, null, i32 0, i64 0, i64 0, i64 0, i32 0, metadata !711} ; [ DW_TAG_reference_type ]
!711 = metadata !{i32 786470, null, metadata !"", null, i32 0, i64 0, i64 0, i64 0, i32 0, metadata !712} ; [ DW_TAG_const_type ]
!712 = metadata !{i32 786434, null, metadata !"ap_fixed_base<129, 45, true, 5, 3, 0>", metadata !115, i32 512, i64 192, i64 64, i32 0, i32 0, null, metadata !713, i32 0, null, metadata !985} ; [ DW_TAG_class_type ]
!713 = metadata !{metadata !714, metadata !726, metadata !730, metadata !733, metadata !736, metadata !739, metadata !742, metadata !745, metadata !748, metadata !751, metadata !754, metadata !757, metadata !760, metadata !763, metadata !766, metadata !769, metadata !772, metadata !775, metadata !778, metadata !782, metadata !785, metadata !788, metadata !791, metadata !794, metadata !797, metadata !800, metadata !803, metadata !806, metadata !810, metadata !816, metadata !820, metadata !823, metadata !826, metadata !829, metadata !833, metadata !836, metadata !839, metadata !842, metadata !845, metadata !848, metadata !851, metadata !854, metadata !855, metadata !856, metadata !857, metadata !860, metadata !863, metadata !866, metadata !869, metadata !872, metadata !875, metadata !876, metadata !877, metadata !880, metadata !883, metadata !886, metadata !889, metadata !890, metadata !893, metadata !896, metadata !897, metadata !900, metadata !901, metadata !904, metadata !908, metadata !909, metadata !910, metadata !913, metadata !916, metadata !919, metadata !920, metadata !921, metadata !924, metadata !927, metadata !928, metadata !929, metadata !932, metadata !933, metadata !934, metadata !935, metadata !936, metadata !937, metadata !941, metadata !944, metadata !945, metadata !946, metadata !949, metadata !952, metadata !956, metadata !957, metadata !960, metadata !961, metadata !964, metadata !967, metadata !968, metadata !969, metadata !970, metadata !971, metadata !974, metadata !977, metadata !978, metadata !981, metadata !984}
!714 = metadata !{i32 786460, metadata !712, null, metadata !115, i32 0, i64 0, i64 0, i64 0, i32 0, metadata !715} ; [ DW_TAG_inheritance ]
!715 = metadata !{i32 786434, null, metadata !"ssdm_int<129 + 1024 * 0, true>", metadata !119, i32 143, i64 192, i64 64, i32 0, i32 0, null, metadata !716, i32 0, null, metadata !723} ; [ DW_TAG_class_type ]
!716 = metadata !{metadata !717, metadata !719}
!717 = metadata !{i32 786445, metadata !715, metadata !"V", metadata !119, i32 143, i64 129, i64 64, i64 0, i32 0, metadata !718} ; [ DW_TAG_member ]
!718 = metadata !{i32 786468, null, metadata !"int129", null, i32 0, i64 129, i64 64, i64 0, i32 0, i32 5} ; [ DW_TAG_base_type ]
!719 = metadata !{i32 786478, i32 0, metadata !715, metadata !"ssdm_int", metadata !"ssdm_int", metadata !"", metadata !119, i32 143, metadata !720, i1 false, i1 false, i32 0, i32 0, null, i32 256, i1 false, null, null, i32 0, metadata !127, i32 143} ; [ DW_TAG_subprogram ]
!720 = metadata !{i32 786453, i32 0, metadata !"", i32 0, i32 0, i64 0, i64 0, i64 0, i32 0, null, metadata !721, i32 0, i32 0} ; [ DW_TAG_subroutine_type ]
!721 = metadata !{null, metadata !722}
!722 = metadata !{i32 786447, i32 0, metadata !"", i32 0, i32 0, i64 64, i64 64, i64 0, i32 64, metadata !715} ; [ DW_TAG_pointer_type ]
!723 = metadata !{metadata !724, metadata !725}
!724 = metadata !{i32 786480, null, metadata !"_AP_N", metadata !131, i64 129, null, i32 0, i32 0} ; [ DW_TAG_template_value_parameter ]
!725 = metadata !{i32 786480, null, metadata !"_AP_S", metadata !133, i64 1, null, i32 0, i32 0} ; [ DW_TAG_template_value_parameter ]
!726 = metadata !{i32 786478, i32 0, metadata !712, metadata !"overflow_adjust", metadata !"overflow_adjust", metadata !"_ZN13ap_fixed_baseILi129ELi45ELb1EL9ap_q_mode5EL9ap_o_mode3ELi0EE15overflow_adjustEbbbb", metadata !115, i32 522, metadata !727, i1 false, i1 false, i32 0, i32 0, null, i32 256, i1 false, null, null, i32 0, metadata !127, i32 522} ; [ DW_TAG_subprogram ]
!727 = metadata !{i32 786453, i32 0, metadata !"", i32 0, i32 0, i64 0, i64 0, i64 0, i32 0, null, metadata !728, i32 0, i32 0} ; [ DW_TAG_subroutine_type ]
!728 = metadata !{null, metadata !729, metadata !133, metadata !133, metadata !133, metadata !133}
!729 = metadata !{i32 786447, i32 0, metadata !"", i32 0, i32 0, i64 64, i64 64, i64 0, i32 64, metadata !712} ; [ DW_TAG_pointer_type ]
!730 = metadata !{i32 786478, i32 0, metadata !712, metadata !"quantization_adjust", metadata !"quantization_adjust", metadata !"_ZN13ap_fixed_baseILi129ELi45ELb1EL9ap_q_mode5EL9ap_o_mode3ELi0EE19quantization_adjustEbbb", metadata !115, i32 595, metadata !731, i1 false, i1 false, i32 0, i32 0, null, i32 256, i1 false, null, null, i32 0, metadata !127, i32 595} ; [ DW_TAG_subprogram ]
!731 = metadata !{i32 786453, i32 0, metadata !"", i32 0, i32 0, i64 0, i64 0, i64 0, i32 0, null, metadata !732, i32 0, i32 0} ; [ DW_TAG_subroutine_type ]
!732 = metadata !{metadata !133, metadata !729, metadata !133, metadata !133, metadata !133}
!733 = metadata !{i32 786478, i32 0, metadata !712, metadata !"ap_fixed_base", metadata !"ap_fixed_base", metadata !"", metadata !115, i32 653, metadata !734, i1 false, i1 false, i32 0, i32 0, null, i32 256, i1 false, null, null, i32 0, metadata !127, i32 653} ; [ DW_TAG_subprogram ]
!734 = metadata !{i32 786453, i32 0, metadata !"", i32 0, i32 0, i64 0, i64 0, i64 0, i32 0, null, metadata !735, i32 0, i32 0} ; [ DW_TAG_subroutine_type ]
!735 = metadata !{null, metadata !729}
!736 = metadata !{i32 786478, i32 0, metadata !712, metadata !"ap_fixed_base", metadata !"ap_fixed_base", metadata !"", metadata !115, i32 789, metadata !737, i1 false, i1 false, i32 0, i32 0, null, i32 256, i1 false, null, null, i32 0, metadata !127, i32 789} ; [ DW_TAG_subprogram ]
!737 = metadata !{i32 786453, i32 0, metadata !"", i32 0, i32 0, i64 0, i64 0, i64 0, i32 0, null, metadata !738, i32 0, i32 0} ; [ DW_TAG_subroutine_type ]
!738 = metadata !{null, metadata !729, metadata !133}
!739 = metadata !{i32 786478, i32 0, metadata !712, metadata !"ap_fixed_base", metadata !"ap_fixed_base", metadata !"", metadata !115, i32 790, metadata !740, i1 false, i1 false, i32 0, i32 0, null, i32 256, i1 false, null, null, i32 0, metadata !127, i32 790} ; [ DW_TAG_subprogram ]
!740 = metadata !{i32 786453, i32 0, metadata !"", i32 0, i32 0, i64 0, i64 0, i64 0, i32 0, null, metadata !741, i32 0, i32 0} ; [ DW_TAG_subroutine_type ]
!741 = metadata !{null, metadata !729, metadata !185}
!742 = metadata !{i32 786478, i32 0, metadata !712, metadata !"ap_fixed_base", metadata !"ap_fixed_base", metadata !"", metadata !115, i32 791, metadata !743, i1 false, i1 false, i32 0, i32 0, null, i32 256, i1 false, null, null, i32 0, metadata !127, i32 791} ; [ DW_TAG_subprogram ]
!743 = metadata !{i32 786453, i32 0, metadata !"", i32 0, i32 0, i64 0, i64 0, i64 0, i32 0, null, metadata !744, i32 0, i32 0} ; [ DW_TAG_subroutine_type ]
!744 = metadata !{null, metadata !729, metadata !189}
!745 = metadata !{i32 786478, i32 0, metadata !712, metadata !"ap_fixed_base", metadata !"ap_fixed_base", metadata !"", metadata !115, i32 792, metadata !746, i1 false, i1 false, i32 0, i32 0, null, i32 256, i1 false, null, null, i32 0, metadata !127, i32 792} ; [ DW_TAG_subprogram ]
!746 = metadata !{i32 786453, i32 0, metadata !"", i32 0, i32 0, i64 0, i64 0, i64 0, i32 0, null, metadata !747, i32 0, i32 0} ; [ DW_TAG_subroutine_type ]
!747 = metadata !{null, metadata !729, metadata !193}
!748 = metadata !{i32 786478, i32 0, metadata !712, metadata !"ap_fixed_base", metadata !"ap_fixed_base", metadata !"", metadata !115, i32 793, metadata !749, i1 false, i1 false, i32 0, i32 0, null, i32 256, i1 false, null, null, i32 0, metadata !127, i32 793} ; [ DW_TAG_subprogram ]
!749 = metadata !{i32 786453, i32 0, metadata !"", i32 0, i32 0, i64 0, i64 0, i64 0, i32 0, null, metadata !750, i32 0, i32 0} ; [ DW_TAG_subroutine_type ]
!750 = metadata !{null, metadata !729, metadata !197}
!751 = metadata !{i32 786478, i32 0, metadata !712, metadata !"ap_fixed_base", metadata !"ap_fixed_base", metadata !"", metadata !115, i32 794, metadata !752, i1 false, i1 false, i32 0, i32 0, null, i32 256, i1 false, null, null, i32 0, metadata !127, i32 794} ; [ DW_TAG_subprogram ]
!752 = metadata !{i32 786453, i32 0, metadata !"", i32 0, i32 0, i64 0, i64 0, i64 0, i32 0, null, metadata !753, i32 0, i32 0} ; [ DW_TAG_subroutine_type ]
!753 = metadata !{null, metadata !729, metadata !201}
!754 = metadata !{i32 786478, i32 0, metadata !712, metadata !"ap_fixed_base", metadata !"ap_fixed_base", metadata !"", metadata !115, i32 795, metadata !755, i1 false, i1 false, i32 0, i32 0, null, i32 256, i1 false, null, null, i32 0, metadata !127, i32 795} ; [ DW_TAG_subprogram ]
!755 = metadata !{i32 786453, i32 0, metadata !"", i32 0, i32 0, i64 0, i64 0, i64 0, i32 0, null, metadata !756, i32 0, i32 0} ; [ DW_TAG_subroutine_type ]
!756 = metadata !{null, metadata !729, metadata !131}
!757 = metadata !{i32 786478, i32 0, metadata !712, metadata !"ap_fixed_base", metadata !"ap_fixed_base", metadata !"", metadata !115, i32 796, metadata !758, i1 false, i1 false, i32 0, i32 0, null, i32 256, i1 false, null, null, i32 0, metadata !127, i32 796} ; [ DW_TAG_subprogram ]
!758 = metadata !{i32 786453, i32 0, metadata !"", i32 0, i32 0, i64 0, i64 0, i64 0, i32 0, null, metadata !759, i32 0, i32 0} ; [ DW_TAG_subroutine_type ]
!759 = metadata !{null, metadata !729, metadata !208}
!760 = metadata !{i32 786478, i32 0, metadata !712, metadata !"ap_fixed_base", metadata !"ap_fixed_base", metadata !"", metadata !115, i32 798, metadata !761, i1 false, i1 false, i32 0, i32 0, null, i32 256, i1 false, null, null, i32 0, metadata !127, i32 798} ; [ DW_TAG_subprogram ]
!761 = metadata !{i32 786453, i32 0, metadata !"", i32 0, i32 0, i64 0, i64 0, i64 0, i32 0, null, metadata !762, i32 0, i32 0} ; [ DW_TAG_subroutine_type ]
!762 = metadata !{null, metadata !729, metadata !212}
!763 = metadata !{i32 786478, i32 0, metadata !712, metadata !"ap_fixed_base", metadata !"ap_fixed_base", metadata !"", metadata !115, i32 799, metadata !764, i1 false, i1 false, i32 0, i32 0, null, i32 256, i1 false, null, null, i32 0, metadata !127, i32 799} ; [ DW_TAG_subprogram ]
!764 = metadata !{i32 786453, i32 0, metadata !"", i32 0, i32 0, i64 0, i64 0, i64 0, i32 0, null, metadata !765, i32 0, i32 0} ; [ DW_TAG_subroutine_type ]
!765 = metadata !{null, metadata !729, metadata !216}
!766 = metadata !{i32 786478, i32 0, metadata !712, metadata !"ap_fixed_base", metadata !"ap_fixed_base", metadata !"", metadata !115, i32 804, metadata !767, i1 false, i1 false, i32 0, i32 0, null, i32 256, i1 false, null, null, i32 0, metadata !127, i32 804} ; [ DW_TAG_subprogram ]
!767 = metadata !{i32 786453, i32 0, metadata !"", i32 0, i32 0, i64 0, i64 0, i64 0, i32 0, null, metadata !768, i32 0, i32 0} ; [ DW_TAG_subroutine_type ]
!768 = metadata !{null, metadata !729, metadata !220}
!769 = metadata !{i32 786478, i32 0, metadata !712, metadata !"ap_fixed_base", metadata !"ap_fixed_base", metadata !"", metadata !115, i32 805, metadata !770, i1 false, i1 false, i32 0, i32 0, null, i32 256, i1 false, null, null, i32 0, metadata !127, i32 805} ; [ DW_TAG_subprogram ]
!770 = metadata !{i32 786453, i32 0, metadata !"", i32 0, i32 0, i64 0, i64 0, i64 0, i32 0, null, metadata !771, i32 0, i32 0} ; [ DW_TAG_subroutine_type ]
!771 = metadata !{null, metadata !729, metadata !225}
!772 = metadata !{i32 786478, i32 0, metadata !712, metadata !"ap_fixed_base", metadata !"ap_fixed_base", metadata !"", metadata !115, i32 806, metadata !773, i1 false, i1 false, i32 0, i32 0, null, i32 256, i1 false, null, null, i32 0, metadata !127, i32 806} ; [ DW_TAG_subprogram ]
!773 = metadata !{i32 786453, i32 0, metadata !"", i32 0, i32 0, i64 0, i64 0, i64 0, i32 0, null, metadata !774, i32 0, i32 0} ; [ DW_TAG_subroutine_type ]
!774 = metadata !{null, metadata !729, metadata !230}
!775 = metadata !{i32 786478, i32 0, metadata !712, metadata !"ap_fixed_base", metadata !"ap_fixed_base", metadata !"", metadata !115, i32 813, metadata !776, i1 false, i1 false, i32 0, i32 0, null, i32 256, i1 false, null, null, i32 0, metadata !127, i32 813} ; [ DW_TAG_subprogram ]
!776 = metadata !{i32 786453, i32 0, metadata !"", i32 0, i32 0, i64 0, i64 0, i64 0, i32 0, null, metadata !777, i32 0, i32 0} ; [ DW_TAG_subroutine_type ]
!777 = metadata !{null, metadata !729, metadata !230, metadata !189}
!778 = metadata !{i32 786478, i32 0, metadata !712, metadata !"doubleToRawBits", metadata !"doubleToRawBits", metadata !"_ZNK13ap_fixed_baseILi129ELi45ELb1EL9ap_q_mode5EL9ap_o_mode3ELi0EE15doubleToRawBitsEd", metadata !115, i32 849, metadata !779, i1 false, i1 false, i32 0, i32 0, null, i32 256, i1 false, null, null, i32 0, metadata !127, i32 849} ; [ DW_TAG_subprogram ]
!779 = metadata !{i32 786453, i32 0, metadata !"", i32 0, i32 0, i64 0, i64 0, i64 0, i32 0, null, metadata !780, i32 0, i32 0} ; [ DW_TAG_subroutine_type ]
!780 = metadata !{metadata !226, metadata !781, metadata !239}
!781 = metadata !{i32 786447, i32 0, metadata !"", i32 0, i32 0, i64 64, i64 64, i64 0, i32 64, metadata !711} ; [ DW_TAG_pointer_type ]
!782 = metadata !{i32 786478, i32 0, metadata !712, metadata !"floatToRawBits", metadata !"floatToRawBits", metadata !"_ZNK13ap_fixed_baseILi129ELi45ELb1EL9ap_q_mode5EL9ap_o_mode3ELi0EE14floatToRawBitsEf", metadata !115, i32 857, metadata !783, i1 false, i1 false, i32 0, i32 0, null, i32 256, i1 false, null, null, i32 0, metadata !127, i32 857} ; [ DW_TAG_subprogram ]
!783 = metadata !{i32 786453, i32 0, metadata !"", i32 0, i32 0, i64 0, i64 0, i64 0, i32 0, null, metadata !784, i32 0, i32 0} ; [ DW_TAG_subroutine_type ]
!784 = metadata !{metadata !208, metadata !781, metadata !243}
!785 = metadata !{i32 786478, i32 0, metadata !712, metadata !"halfToRawBits", metadata !"halfToRawBits", metadata !"_ZNK13ap_fixed_baseILi129ELi45ELb1EL9ap_q_mode5EL9ap_o_mode3ELi0EE13halfToRawBitsEDh", metadata !115, i32 865, metadata !786, i1 false, i1 false, i32 0, i32 0, null, i32 256, i1 false, null, null, i32 0, metadata !127, i32 865} ; [ DW_TAG_subprogram ]
!786 = metadata !{i32 786453, i32 0, metadata !"", i32 0, i32 0, i64 0, i64 0, i64 0, i32 0, null, metadata !787, i32 0, i32 0} ; [ DW_TAG_subroutine_type ]
!787 = metadata !{metadata !201, metadata !781, metadata !247}
!788 = metadata !{i32 786478, i32 0, metadata !712, metadata !"rawBitsToDouble", metadata !"rawBitsToDouble", metadata !"_ZNK13ap_fixed_baseILi129ELi45ELb1EL9ap_q_mode5EL9ap_o_mode3ELi0EE15rawBitsToDoubleEy", metadata !115, i32 874, metadata !789, i1 false, i1 false, i32 0, i32 0, null, i32 256, i1 false, null, null, i32 0, metadata !127, i32 874} ; [ DW_TAG_subprogram ]
!789 = metadata !{i32 786453, i32 0, metadata !"", i32 0, i32 0, i64 0, i64 0, i64 0, i32 0, null, metadata !790, i32 0, i32 0} ; [ DW_TAG_subroutine_type ]
!790 = metadata !{metadata !239, metadata !781, metadata !226}
!791 = metadata !{i32 786478, i32 0, metadata !712, metadata !"rawBitsToFloat", metadata !"rawBitsToFloat", metadata !"_ZNK13ap_fixed_baseILi129ELi45ELb1EL9ap_q_mode5EL9ap_o_mode3ELi0EE14rawBitsToFloatEj", metadata !115, i32 883, metadata !792, i1 false, i1 false, i32 0, i32 0, null, i32 256, i1 false, null, null, i32 0, metadata !127, i32 883} ; [ DW_TAG_subprogram ]
!792 = metadata !{i32 786453, i32 0, metadata !"", i32 0, i32 0, i64 0, i64 0, i64 0, i32 0, null, metadata !793, i32 0, i32 0} ; [ DW_TAG_subroutine_type ]
!793 = metadata !{metadata !243, metadata !781, metadata !208}
!794 = metadata !{i32 786478, i32 0, metadata !712, metadata !"rawBitsToHalf", metadata !"rawBitsToHalf", metadata !"_ZNK13ap_fixed_baseILi129ELi45ELb1EL9ap_q_mode5EL9ap_o_mode3ELi0EE13rawBitsToHalfEt", metadata !115, i32 892, metadata !795, i1 false, i1 false, i32 0, i32 0, null, i32 256, i1 false, null, null, i32 0, metadata !127, i32 892} ; [ DW_TAG_subprogram ]
!795 = metadata !{i32 786453, i32 0, metadata !"", i32 0, i32 0, i64 0, i64 0, i64 0, i32 0, null, metadata !796, i32 0, i32 0} ; [ DW_TAG_subroutine_type ]
!796 = metadata !{metadata !247, metadata !781, metadata !201}
!797 = metadata !{i32 786478, i32 0, metadata !712, metadata !"ap_fixed_base", metadata !"ap_fixed_base", metadata !"", metadata !115, i32 901, metadata !798, i1 false, i1 false, i32 0, i32 0, null, i32 256, i1 false, null, null, i32 0, metadata !127, i32 901} ; [ DW_TAG_subprogram ]
!798 = metadata !{i32 786453, i32 0, metadata !"", i32 0, i32 0, i64 0, i64 0, i64 0, i32 0, null, metadata !799, i32 0, i32 0} ; [ DW_TAG_subroutine_type ]
!799 = metadata !{null, metadata !729, metadata !239}
!800 = metadata !{i32 786478, i32 0, metadata !712, metadata !"ap_fixed_base", metadata !"ap_fixed_base", metadata !"", metadata !115, i32 1014, metadata !801, i1 false, i1 false, i32 0, i32 0, null, i32 256, i1 false, null, null, i32 0, metadata !127, i32 1014} ; [ DW_TAG_subprogram ]
!801 = metadata !{i32 786453, i32 0, metadata !"", i32 0, i32 0, i64 0, i64 0, i64 0, i32 0, null, metadata !802, i32 0, i32 0} ; [ DW_TAG_subroutine_type ]
!802 = metadata !{null, metadata !729, metadata !243}
!803 = metadata !{i32 786478, i32 0, metadata !712, metadata !"ap_fixed_base", metadata !"ap_fixed_base", metadata !"", metadata !115, i32 1018, metadata !804, i1 false, i1 false, i32 0, i32 0, null, i32 256, i1 false, null, null, i32 0, metadata !127, i32 1018} ; [ DW_TAG_subprogram ]
!804 = metadata !{i32 786453, i32 0, metadata !"", i32 0, i32 0, i64 0, i64 0, i64 0, i32 0, null, metadata !805, i32 0, i32 0} ; [ DW_TAG_subroutine_type ]
!805 = metadata !{null, metadata !729, metadata !247}
!806 = metadata !{i32 786478, i32 0, metadata !712, metadata !"operator=", metadata !"operator=", metadata !"_ZN13ap_fixed_baseILi129ELi45ELb1EL9ap_q_mode5EL9ap_o_mode3ELi0EEaSERKS2_", metadata !115, i32 1022, metadata !807, i1 false, i1 false, i32 0, i32 0, null, i32 256, i1 false, null, null, i32 0, metadata !127, i32 1022} ; [ DW_TAG_subprogram ]
!807 = metadata !{i32 786453, i32 0, metadata !"", i32 0, i32 0, i64 0, i64 0, i64 0, i32 0, null, metadata !808, i32 0, i32 0} ; [ DW_TAG_subroutine_type ]
!808 = metadata !{metadata !809, metadata !729, metadata !710}
!809 = metadata !{i32 786448, null, null, null, i32 0, i64 0, i64 0, i64 0, i32 0, metadata !712} ; [ DW_TAG_reference_type ]
!810 = metadata !{i32 786478, i32 0, metadata !712, metadata !"operator=", metadata !"operator=", metadata !"_ZN13ap_fixed_baseILi129ELi45ELb1EL9ap_q_mode5EL9ap_o_mode3ELi0EEaSERVKS2_", metadata !115, i32 1029, metadata !811, i1 false, i1 false, i32 0, i32 0, null, i32 256, i1 false, null, null, i32 0, metadata !127, i32 1029} ; [ DW_TAG_subprogram ]
!811 = metadata !{i32 786453, i32 0, metadata !"", i32 0, i32 0, i64 0, i64 0, i64 0, i32 0, null, metadata !812, i32 0, i32 0} ; [ DW_TAG_subroutine_type ]
!812 = metadata !{metadata !809, metadata !729, metadata !813}
!813 = metadata !{i32 786448, null, null, null, i32 0, i64 0, i64 0, i64 0, i32 0, metadata !814} ; [ DW_TAG_reference_type ]
!814 = metadata !{i32 786470, null, metadata !"", null, i32 0, i64 0, i64 0, i64 0, i32 0, metadata !815} ; [ DW_TAG_const_type ]
!815 = metadata !{i32 786485, null, metadata !"", null, i32 0, i64 0, i64 0, i64 0, i32 0, metadata !712} ; [ DW_TAG_volatile_type ]
!816 = metadata !{i32 786478, i32 0, metadata !712, metadata !"operator=", metadata !"operator=", metadata !"_ZNV13ap_fixed_baseILi129ELi45ELb1EL9ap_q_mode5EL9ap_o_mode3ELi0EEaSERKS2_", metadata !115, i32 1036, metadata !817, i1 false, i1 false, i32 0, i32 0, null, i32 256, i1 false, null, null, i32 0, metadata !127, i32 1036} ; [ DW_TAG_subprogram ]
!817 = metadata !{i32 786453, i32 0, metadata !"", i32 0, i32 0, i64 0, i64 0, i64 0, i32 0, null, metadata !818, i32 0, i32 0} ; [ DW_TAG_subroutine_type ]
!818 = metadata !{null, metadata !819, metadata !710}
!819 = metadata !{i32 786447, i32 0, metadata !"", i32 0, i32 0, i64 64, i64 64, i64 0, i32 64, metadata !815} ; [ DW_TAG_pointer_type ]
!820 = metadata !{i32 786478, i32 0, metadata !712, metadata !"operator=", metadata !"operator=", metadata !"_ZNV13ap_fixed_baseILi129ELi45ELb1EL9ap_q_mode5EL9ap_o_mode3ELi0EEaSERVKS2_", metadata !115, i32 1042, metadata !821, i1 false, i1 false, i32 0, i32 0, null, i32 256, i1 false, null, null, i32 0, metadata !127, i32 1042} ; [ DW_TAG_subprogram ]
!821 = metadata !{i32 786453, i32 0, metadata !"", i32 0, i32 0, i64 0, i64 0, i64 0, i32 0, null, metadata !822, i32 0, i32 0} ; [ DW_TAG_subroutine_type ]
!822 = metadata !{null, metadata !819, metadata !813}
!823 = metadata !{i32 786478, i32 0, metadata !712, metadata !"setBits", metadata !"setBits", metadata !"_ZN13ap_fixed_baseILi129ELi45ELb1EL9ap_q_mode5EL9ap_o_mode3ELi0EE7setBitsEy", metadata !115, i32 1051, metadata !824, i1 false, i1 false, i32 0, i32 0, null, i32 256, i1 false, null, null, i32 0, metadata !127, i32 1051} ; [ DW_TAG_subprogram ]
!824 = metadata !{i32 786453, i32 0, metadata !"", i32 0, i32 0, i64 0, i64 0, i64 0, i32 0, null, metadata !825, i32 0, i32 0} ; [ DW_TAG_subroutine_type ]
!825 = metadata !{metadata !809, metadata !729, metadata !226}
!826 = metadata !{i32 786478, i32 0, metadata !712, metadata !"bitsToFixed", metadata !"bitsToFixed", metadata !"_ZN13ap_fixed_baseILi129ELi45ELb1EL9ap_q_mode5EL9ap_o_mode3ELi0EE11bitsToFixedEy", metadata !115, i32 1057, metadata !827, i1 false, i1 false, i32 0, i32 0, null, i32 256, i1 false, null, null, i32 0, metadata !127, i32 1057} ; [ DW_TAG_subprogram ]
!827 = metadata !{i32 786453, i32 0, metadata !"", i32 0, i32 0, i64 0, i64 0, i64 0, i32 0, null, metadata !828, i32 0, i32 0} ; [ DW_TAG_subroutine_type ]
!828 = metadata !{metadata !712, metadata !226}
!829 = metadata !{i32 786478, i32 0, metadata !712, metadata !"to_ap_int_base", metadata !"to_ap_int_base", metadata !"_ZNK13ap_fixed_baseILi129ELi45ELb1EL9ap_q_mode5EL9ap_o_mode3ELi0EE14to_ap_int_baseEb", metadata !115, i32 1066, metadata !830, i1 false, i1 false, i32 0, i32 0, null, i32 256, i1 false, null, null, i32 0, metadata !127, i32 1066} ; [ DW_TAG_subprogram ]
!830 = metadata !{i32 786453, i32 0, metadata !"", i32 0, i32 0, i64 0, i64 0, i64 0, i32 0, null, metadata !831, i32 0, i32 0} ; [ DW_TAG_subroutine_type ]
!831 = metadata !{metadata !832, metadata !781, metadata !133}
!832 = metadata !{i32 786434, null, metadata !"ap_int_base<45, true, true>", metadata !155, i32 651, i32 0, i32 0, i32 0, i32 4, null, null, i32 0} ; [ DW_TAG_class_type ]
!833 = metadata !{i32 786478, i32 0, metadata !712, metadata !"to_int", metadata !"to_int", metadata !"_ZNK13ap_fixed_baseILi129ELi45ELb1EL9ap_q_mode5EL9ap_o_mode3ELi0EE6to_intEv", metadata !115, i32 1101, metadata !834, i1 false, i1 false, i32 0, i32 0, null, i32 256, i1 false, null, null, i32 0, metadata !127, i32 1101} ; [ DW_TAG_subprogram ]
!834 = metadata !{i32 786453, i32 0, metadata !"", i32 0, i32 0, i64 0, i64 0, i64 0, i32 0, null, metadata !835, i32 0, i32 0} ; [ DW_TAG_subroutine_type ]
!835 = metadata !{metadata !131, metadata !781}
!836 = metadata !{i32 786478, i32 0, metadata !712, metadata !"to_uint", metadata !"to_uint", metadata !"_ZNK13ap_fixed_baseILi129ELi45ELb1EL9ap_q_mode5EL9ap_o_mode3ELi0EE7to_uintEv", metadata !115, i32 1104, metadata !837, i1 false, i1 false, i32 0, i32 0, null, i32 256, i1 false, null, null, i32 0, metadata !127, i32 1104} ; [ DW_TAG_subprogram ]
!837 = metadata !{i32 786453, i32 0, metadata !"", i32 0, i32 0, i64 0, i64 0, i64 0, i32 0, null, metadata !838, i32 0, i32 0} ; [ DW_TAG_subroutine_type ]
!838 = metadata !{metadata !208, metadata !781}
!839 = metadata !{i32 786478, i32 0, metadata !712, metadata !"to_int64", metadata !"to_int64", metadata !"_ZNK13ap_fixed_baseILi129ELi45ELb1EL9ap_q_mode5EL9ap_o_mode3ELi0EE8to_int64Ev", metadata !115, i32 1107, metadata !840, i1 false, i1 false, i32 0, i32 0, null, i32 256, i1 false, null, null, i32 0, metadata !127, i32 1107} ; [ DW_TAG_subprogram ]
!840 = metadata !{i32 786453, i32 0, metadata !"", i32 0, i32 0, i64 0, i64 0, i64 0, i32 0, null, metadata !841, i32 0, i32 0} ; [ DW_TAG_subroutine_type ]
!841 = metadata !{metadata !220, metadata !781}
!842 = metadata !{i32 786478, i32 0, metadata !712, metadata !"to_uint64", metadata !"to_uint64", metadata !"_ZNK13ap_fixed_baseILi129ELi45ELb1EL9ap_q_mode5EL9ap_o_mode3ELi0EE9to_uint64Ev", metadata !115, i32 1110, metadata !843, i1 false, i1 false, i32 0, i32 0, null, i32 256, i1 false, null, null, i32 0, metadata !127, i32 1110} ; [ DW_TAG_subprogram ]
!843 = metadata !{i32 786453, i32 0, metadata !"", i32 0, i32 0, i64 0, i64 0, i64 0, i32 0, null, metadata !844, i32 0, i32 0} ; [ DW_TAG_subroutine_type ]
!844 = metadata !{metadata !225, metadata !781}
!845 = metadata !{i32 786478, i32 0, metadata !712, metadata !"to_double", metadata !"to_double", metadata !"_ZNK13ap_fixed_baseILi129ELi45ELb1EL9ap_q_mode5EL9ap_o_mode3ELi0EE9to_doubleEv", metadata !115, i32 1113, metadata !846, i1 false, i1 false, i32 0, i32 0, null, i32 256, i1 false, null, null, i32 0, metadata !127, i32 1113} ; [ DW_TAG_subprogram ]
!846 = metadata !{i32 786453, i32 0, metadata !"", i32 0, i32 0, i64 0, i64 0, i64 0, i32 0, null, metadata !847, i32 0, i32 0} ; [ DW_TAG_subroutine_type ]
!847 = metadata !{metadata !239, metadata !781}
!848 = metadata !{i32 786478, i32 0, metadata !712, metadata !"to_float", metadata !"to_float", metadata !"_ZNK13ap_fixed_baseILi129ELi45ELb1EL9ap_q_mode5EL9ap_o_mode3ELi0EE8to_floatEv", metadata !115, i32 1166, metadata !849, i1 false, i1 false, i32 0, i32 0, null, i32 256, i1 false, null, null, i32 0, metadata !127, i32 1166} ; [ DW_TAG_subprogram ]
!849 = metadata !{i32 786453, i32 0, metadata !"", i32 0, i32 0, i64 0, i64 0, i64 0, i32 0, null, metadata !850, i32 0, i32 0} ; [ DW_TAG_subroutine_type ]
!850 = metadata !{metadata !243, metadata !781}
!851 = metadata !{i32 786478, i32 0, metadata !712, metadata !"to_half", metadata !"to_half", metadata !"_ZNK13ap_fixed_baseILi129ELi45ELb1EL9ap_q_mode5EL9ap_o_mode3ELi0EE7to_halfEv", metadata !115, i32 1204, metadata !852, i1 false, i1 false, i32 0, i32 0, null, i32 256, i1 false, null, null, i32 0, metadata !127, i32 1204} ; [ DW_TAG_subprogram ]
!852 = metadata !{i32 786453, i32 0, metadata !"", i32 0, i32 0, i64 0, i64 0, i64 0, i32 0, null, metadata !853, i32 0, i32 0} ; [ DW_TAG_subroutine_type ]
!853 = metadata !{metadata !247, metadata !781}
!854 = metadata !{i32 786478, i32 0, metadata !712, metadata !"operator double", metadata !"operator double", metadata !"_ZNK13ap_fixed_baseILi129ELi45ELb1EL9ap_q_mode5EL9ap_o_mode3ELi0EEcvdEv", metadata !115, i32 1254, metadata !846, i1 false, i1 false, i32 0, i32 0, null, i32 256, i1 false, null, null, i32 0, metadata !127, i32 1254} ; [ DW_TAG_subprogram ]
!855 = metadata !{i32 786478, i32 0, metadata !712, metadata !"operator float", metadata !"operator float", metadata !"_ZNK13ap_fixed_baseILi129ELi45ELb1EL9ap_q_mode5EL9ap_o_mode3ELi0EEcvfEv", metadata !115, i32 1258, metadata !849, i1 false, i1 false, i32 0, i32 0, null, i32 256, i1 false, null, null, i32 0, metadata !127, i32 1258} ; [ DW_TAG_subprogram ]
!856 = metadata !{i32 786478, i32 0, metadata !712, metadata !"operator half", metadata !"operator half", metadata !"_ZNK13ap_fixed_baseILi129ELi45ELb1EL9ap_q_mode5EL9ap_o_mode3ELi0EEcvDhEv", metadata !115, i32 1261, metadata !852, i1 false, i1 false, i32 0, i32 0, null, i32 256, i1 false, null, null, i32 0, metadata !127, i32 1261} ; [ DW_TAG_subprogram ]
!857 = metadata !{i32 786478, i32 0, metadata !712, metadata !"operator _Bool", metadata !"operator _Bool", metadata !"_ZNK13ap_fixed_baseILi129ELi45ELb1EL9ap_q_mode5EL9ap_o_mode3ELi0EEcvbEv", metadata !115, i32 1265, metadata !858, i1 false, i1 false, i32 0, i32 0, null, i32 256, i1 false, null, null, i32 0, metadata !127, i32 1265} ; [ DW_TAG_subprogram ]
!858 = metadata !{i32 786453, i32 0, metadata !"", i32 0, i32 0, i64 0, i64 0, i64 0, i32 0, null, metadata !859, i32 0, i32 0} ; [ DW_TAG_subroutine_type ]
!859 = metadata !{metadata !133, metadata !781}
!860 = metadata !{i32 786478, i32 0, metadata !712, metadata !"operator char", metadata !"operator char", metadata !"_ZNK13ap_fixed_baseILi129ELi45ELb1EL9ap_q_mode5EL9ap_o_mode3ELi0EEcvcEv", metadata !115, i32 1269, metadata !861, i1 false, i1 false, i32 0, i32 0, null, i32 256, i1 false, null, null, i32 0, metadata !127, i32 1269} ; [ DW_TAG_subprogram ]
!861 = metadata !{i32 786453, i32 0, metadata !"", i32 0, i32 0, i64 0, i64 0, i64 0, i32 0, null, metadata !862, i32 0, i32 0} ; [ DW_TAG_subroutine_type ]
!862 = metadata !{metadata !185, metadata !781}
!863 = metadata !{i32 786478, i32 0, metadata !712, metadata !"operator signed char", metadata !"operator signed char", metadata !"_ZNK13ap_fixed_baseILi129ELi45ELb1EL9ap_q_mode5EL9ap_o_mode3ELi0EEcvaEv", metadata !115, i32 1273, metadata !864, i1 false, i1 false, i32 0, i32 0, null, i32 256, i1 false, null, null, i32 0, metadata !127, i32 1273} ; [ DW_TAG_subprogram ]
!864 = metadata !{i32 786453, i32 0, metadata !"", i32 0, i32 0, i64 0, i64 0, i64 0, i32 0, null, metadata !865, i32 0, i32 0} ; [ DW_TAG_subroutine_type ]
!865 = metadata !{metadata !189, metadata !781}
!866 = metadata !{i32 786478, i32 0, metadata !712, metadata !"operator unsigned char", metadata !"operator unsigned char", metadata !"_ZNK13ap_fixed_baseILi129ELi45ELb1EL9ap_q_mode5EL9ap_o_mode3ELi0EEcvhEv", metadata !115, i32 1277, metadata !867, i1 false, i1 false, i32 0, i32 0, null, i32 256, i1 false, null, null, i32 0, metadata !127, i32 1277} ; [ DW_TAG_subprogram ]
!867 = metadata !{i32 786453, i32 0, metadata !"", i32 0, i32 0, i64 0, i64 0, i64 0, i32 0, null, metadata !868, i32 0, i32 0} ; [ DW_TAG_subroutine_type ]
!868 = metadata !{metadata !193, metadata !781}
!869 = metadata !{i32 786478, i32 0, metadata !712, metadata !"operator short", metadata !"operator short", metadata !"_ZNK13ap_fixed_baseILi129ELi45ELb1EL9ap_q_mode5EL9ap_o_mode3ELi0EEcvsEv", metadata !115, i32 1281, metadata !870, i1 false, i1 false, i32 0, i32 0, null, i32 256, i1 false, null, null, i32 0, metadata !127, i32 1281} ; [ DW_TAG_subprogram ]
!870 = metadata !{i32 786453, i32 0, metadata !"", i32 0, i32 0, i64 0, i64 0, i64 0, i32 0, null, metadata !871, i32 0, i32 0} ; [ DW_TAG_subroutine_type ]
!871 = metadata !{metadata !197, metadata !781}
!872 = metadata !{i32 786478, i32 0, metadata !712, metadata !"operator unsigned short", metadata !"operator unsigned short", metadata !"_ZNK13ap_fixed_baseILi129ELi45ELb1EL9ap_q_mode5EL9ap_o_mode3ELi0EEcvtEv", metadata !115, i32 1285, metadata !873, i1 false, i1 false, i32 0, i32 0, null, i32 256, i1 false, null, null, i32 0, metadata !127, i32 1285} ; [ DW_TAG_subprogram ]
!873 = metadata !{i32 786453, i32 0, metadata !"", i32 0, i32 0, i64 0, i64 0, i64 0, i32 0, null, metadata !874, i32 0, i32 0} ; [ DW_TAG_subroutine_type ]
!874 = metadata !{metadata !201, metadata !781}
!875 = metadata !{i32 786478, i32 0, metadata !712, metadata !"operator int", metadata !"operator int", metadata !"_ZNK13ap_fixed_baseILi129ELi45ELb1EL9ap_q_mode5EL9ap_o_mode3ELi0EEcviEv", metadata !115, i32 1290, metadata !834, i1 false, i1 false, i32 0, i32 0, null, i32 256, i1 false, null, null, i32 0, metadata !127, i32 1290} ; [ DW_TAG_subprogram ]
!876 = metadata !{i32 786478, i32 0, metadata !712, metadata !"operator unsigned int", metadata !"operator unsigned int", metadata !"_ZNK13ap_fixed_baseILi129ELi45ELb1EL9ap_q_mode5EL9ap_o_mode3ELi0EEcvjEv", metadata !115, i32 1294, metadata !837, i1 false, i1 false, i32 0, i32 0, null, i32 256, i1 false, null, null, i32 0, metadata !127, i32 1294} ; [ DW_TAG_subprogram ]
!877 = metadata !{i32 786478, i32 0, metadata !712, metadata !"operator long", metadata !"operator long", metadata !"_ZNK13ap_fixed_baseILi129ELi45ELb1EL9ap_q_mode5EL9ap_o_mode3ELi0EEcvlEv", metadata !115, i32 1299, metadata !878, i1 false, i1 false, i32 0, i32 0, null, i32 256, i1 false, null, null, i32 0, metadata !127, i32 1299} ; [ DW_TAG_subprogram ]
!878 = metadata !{i32 786453, i32 0, metadata !"", i32 0, i32 0, i64 0, i64 0, i64 0, i32 0, null, metadata !879, i32 0, i32 0} ; [ DW_TAG_subroutine_type ]
!879 = metadata !{metadata !212, metadata !781}
!880 = metadata !{i32 786478, i32 0, metadata !712, metadata !"operator unsigned long", metadata !"operator unsigned long", metadata !"_ZNK13ap_fixed_baseILi129ELi45ELb1EL9ap_q_mode5EL9ap_o_mode3ELi0EEcvmEv", metadata !115, i32 1303, metadata !881, i1 false, i1 false, i32 0, i32 0, null, i32 256, i1 false, null, null, i32 0, metadata !127, i32 1303} ; [ DW_TAG_subprogram ]
!881 = metadata !{i32 786453, i32 0, metadata !"", i32 0, i32 0, i64 0, i64 0, i64 0, i32 0, null, metadata !882, i32 0, i32 0} ; [ DW_TAG_subroutine_type ]
!882 = metadata !{metadata !216, metadata !781}
!883 = metadata !{i32 786478, i32 0, metadata !712, metadata !"operator unsigned long long", metadata !"operator unsigned long long", metadata !"_ZNK13ap_fixed_baseILi129ELi45ELb1EL9ap_q_mode5EL9ap_o_mode3ELi0EEcvyEv", metadata !115, i32 1316, metadata !884, i1 false, i1 false, i32 0, i32 0, null, i32 256, i1 false, null, null, i32 0, metadata !127, i32 1316} ; [ DW_TAG_subprogram ]
!884 = metadata !{i32 786453, i32 0, metadata !"", i32 0, i32 0, i64 0, i64 0, i64 0, i32 0, null, metadata !885, i32 0, i32 0} ; [ DW_TAG_subroutine_type ]
!885 = metadata !{metadata !226, metadata !781}
!886 = metadata !{i32 786478, i32 0, metadata !712, metadata !"operator long long", metadata !"operator long long", metadata !"_ZNK13ap_fixed_baseILi129ELi45ELb1EL9ap_q_mode5EL9ap_o_mode3ELi0EEcvxEv", metadata !115, i32 1320, metadata !887, i1 false, i1 false, i32 0, i32 0, null, i32 256, i1 false, null, null, i32 0, metadata !127, i32 1320} ; [ DW_TAG_subprogram ]
!887 = metadata !{i32 786453, i32 0, metadata !"", i32 0, i32 0, i64 0, i64 0, i64 0, i32 0, null, metadata !888, i32 0, i32 0} ; [ DW_TAG_subroutine_type ]
!888 = metadata !{metadata !221, metadata !781}
!889 = metadata !{i32 786478, i32 0, metadata !712, metadata !"length", metadata !"length", metadata !"_ZNK13ap_fixed_baseILi129ELi45ELb1EL9ap_q_mode5EL9ap_o_mode3ELi0EE6lengthEv", metadata !115, i32 1324, metadata !834, i1 false, i1 false, i32 0, i32 0, null, i32 256, i1 false, null, null, i32 0, metadata !127, i32 1324} ; [ DW_TAG_subprogram ]
!890 = metadata !{i32 786478, i32 0, metadata !712, metadata !"countLeadingZeros", metadata !"countLeadingZeros", metadata !"_ZN13ap_fixed_baseILi129ELi45ELb1EL9ap_q_mode5EL9ap_o_mode3ELi0EE17countLeadingZerosEv", metadata !115, i32 1328, metadata !891, i1 false, i1 false, i32 0, i32 0, null, i32 256, i1 false, null, null, i32 0, metadata !127, i32 1328} ; [ DW_TAG_subprogram ]
!891 = metadata !{i32 786453, i32 0, metadata !"", i32 0, i32 0, i64 0, i64 0, i64 0, i32 0, null, metadata !892, i32 0, i32 0} ; [ DW_TAG_subroutine_type ]
!892 = metadata !{metadata !131, metadata !729}
!893 = metadata !{i32 786478, i32 0, metadata !712, metadata !"operator++", metadata !"operator++", metadata !"_ZN13ap_fixed_baseILi129ELi45ELb1EL9ap_q_mode5EL9ap_o_mode3ELi0EEppEv", metadata !115, i32 1429, metadata !894, i1 false, i1 false, i32 0, i32 0, null, i32 256, i1 false, null, null, i32 0, metadata !127, i32 1429} ; [ DW_TAG_subprogram ]
!894 = metadata !{i32 786453, i32 0, metadata !"", i32 0, i32 0, i64 0, i64 0, i64 0, i32 0, null, metadata !895, i32 0, i32 0} ; [ DW_TAG_subroutine_type ]
!895 = metadata !{metadata !809, metadata !729}
!896 = metadata !{i32 786478, i32 0, metadata !712, metadata !"operator--", metadata !"operator--", metadata !"_ZN13ap_fixed_baseILi129ELi45ELb1EL9ap_q_mode5EL9ap_o_mode3ELi0EEmmEv", metadata !115, i32 1433, metadata !894, i1 false, i1 false, i32 0, i32 0, null, i32 256, i1 false, null, null, i32 0, metadata !127, i32 1433} ; [ DW_TAG_subprogram ]
!897 = metadata !{i32 786478, i32 0, metadata !712, metadata !"operator++", metadata !"operator++", metadata !"_ZN13ap_fixed_baseILi129ELi45ELb1EL9ap_q_mode5EL9ap_o_mode3ELi0EEppEi", metadata !115, i32 1441, metadata !898, i1 false, i1 false, i32 0, i32 0, null, i32 256, i1 false, null, null, i32 0, metadata !127, i32 1441} ; [ DW_TAG_subprogram ]
!898 = metadata !{i32 786453, i32 0, metadata !"", i32 0, i32 0, i64 0, i64 0, i64 0, i32 0, null, metadata !899, i32 0, i32 0} ; [ DW_TAG_subroutine_type ]
!899 = metadata !{metadata !711, metadata !729, metadata !131}
!900 = metadata !{i32 786478, i32 0, metadata !712, metadata !"operator--", metadata !"operator--", metadata !"_ZN13ap_fixed_baseILi129ELi45ELb1EL9ap_q_mode5EL9ap_o_mode3ELi0EEmmEi", metadata !115, i32 1447, metadata !898, i1 false, i1 false, i32 0, i32 0, null, i32 256, i1 false, null, null, i32 0, metadata !127, i32 1447} ; [ DW_TAG_subprogram ]
!901 = metadata !{i32 786478, i32 0, metadata !712, metadata !"operator+", metadata !"operator+", metadata !"_ZN13ap_fixed_baseILi129ELi45ELb1EL9ap_q_mode5EL9ap_o_mode3ELi0EEpsEv", metadata !115, i32 1455, metadata !902, i1 false, i1 false, i32 0, i32 0, null, i32 256, i1 false, null, null, i32 0, metadata !127, i32 1455} ; [ DW_TAG_subprogram ]
!902 = metadata !{i32 786453, i32 0, metadata !"", i32 0, i32 0, i64 0, i64 0, i64 0, i32 0, null, metadata !903, i32 0, i32 0} ; [ DW_TAG_subroutine_type ]
!903 = metadata !{metadata !712, metadata !729}
!904 = metadata !{i32 786478, i32 0, metadata !712, metadata !"operator-", metadata !"operator-", metadata !"_ZNK13ap_fixed_baseILi129ELi45ELb1EL9ap_q_mode5EL9ap_o_mode3ELi0EEngEv", metadata !115, i32 1459, metadata !905, i1 false, i1 false, i32 0, i32 0, null, i32 256, i1 false, null, null, i32 0, metadata !127, i32 1459} ; [ DW_TAG_subprogram ]
!905 = metadata !{i32 786453, i32 0, metadata !"", i32 0, i32 0, i64 0, i64 0, i64 0, i32 0, null, metadata !906, i32 0, i32 0} ; [ DW_TAG_subroutine_type ]
!906 = metadata !{metadata !907, metadata !781}
!907 = metadata !{i32 786434, null, metadata !"ap_fixed_base<130, 46, true, 5, 3, 0>", metadata !115, i32 512, i32 0, i32 0, i32 0, i32 4, null, null, i32 0} ; [ DW_TAG_class_type ]
!908 = metadata !{i32 786478, i32 0, metadata !712, metadata !"getNeg", metadata !"getNeg", metadata !"_ZN13ap_fixed_baseILi129ELi45ELb1EL9ap_q_mode5EL9ap_o_mode3ELi0EE6getNegEv", metadata !115, i32 1465, metadata !902, i1 false, i1 false, i32 0, i32 0, null, i32 256, i1 false, null, null, i32 0, metadata !127, i32 1465} ; [ DW_TAG_subprogram ]
!909 = metadata !{i32 786478, i32 0, metadata !712, metadata !"operator!", metadata !"operator!", metadata !"_ZNK13ap_fixed_baseILi129ELi45ELb1EL9ap_q_mode5EL9ap_o_mode3ELi0EEntEv", metadata !115, i32 1473, metadata !858, i1 false, i1 false, i32 0, i32 0, null, i32 256, i1 false, null, null, i32 0, metadata !127, i32 1473} ; [ DW_TAG_subprogram ]
!910 = metadata !{i32 786478, i32 0, metadata !712, metadata !"operator~", metadata !"operator~", metadata !"_ZNK13ap_fixed_baseILi129ELi45ELb1EL9ap_q_mode5EL9ap_o_mode3ELi0EEcoEv", metadata !115, i32 1479, metadata !911, i1 false, i1 false, i32 0, i32 0, null, i32 256, i1 false, null, null, i32 0, metadata !127, i32 1479} ; [ DW_TAG_subprogram ]
!911 = metadata !{i32 786453, i32 0, metadata !"", i32 0, i32 0, i64 0, i64 0, i64 0, i32 0, null, metadata !912, i32 0, i32 0} ; [ DW_TAG_subroutine_type ]
!912 = metadata !{metadata !712, metadata !781}
!913 = metadata !{i32 786478, i32 0, metadata !712, metadata !"operator<<", metadata !"operator<<", metadata !"_ZNK13ap_fixed_baseILi129ELi45ELb1EL9ap_q_mode5EL9ap_o_mode3ELi0EElsEi", metadata !115, i32 1502, metadata !914, i1 false, i1 false, i32 0, i32 0, null, i32 256, i1 false, null, null, i32 0, metadata !127, i32 1502} ; [ DW_TAG_subprogram ]
!914 = metadata !{i32 786453, i32 0, metadata !"", i32 0, i32 0, i64 0, i64 0, i64 0, i32 0, null, metadata !915, i32 0, i32 0} ; [ DW_TAG_subroutine_type ]
!915 = metadata !{metadata !712, metadata !781, metadata !131}
!916 = metadata !{i32 786478, i32 0, metadata !712, metadata !"operator<<", metadata !"operator<<", metadata !"_ZNK13ap_fixed_baseILi129ELi45ELb1EL9ap_q_mode5EL9ap_o_mode3ELi0EElsEj", metadata !115, i32 1561, metadata !917, i1 false, i1 false, i32 0, i32 0, null, i32 256, i1 false, null, null, i32 0, metadata !127, i32 1561} ; [ DW_TAG_subprogram ]
!917 = metadata !{i32 786453, i32 0, metadata !"", i32 0, i32 0, i64 0, i64 0, i64 0, i32 0, null, metadata !918, i32 0, i32 0} ; [ DW_TAG_subroutine_type ]
!918 = metadata !{metadata !712, metadata !781, metadata !208}
!919 = metadata !{i32 786478, i32 0, metadata !712, metadata !"operator>>", metadata !"operator>>", metadata !"_ZNK13ap_fixed_baseILi129ELi45ELb1EL9ap_q_mode5EL9ap_o_mode3ELi0EErsEi", metadata !115, i32 1605, metadata !914, i1 false, i1 false, i32 0, i32 0, null, i32 256, i1 false, null, null, i32 0, metadata !127, i32 1605} ; [ DW_TAG_subprogram ]
!920 = metadata !{i32 786478, i32 0, metadata !712, metadata !"operator>>", metadata !"operator>>", metadata !"_ZNK13ap_fixed_baseILi129ELi45ELb1EL9ap_q_mode5EL9ap_o_mode3ELi0EErsEj", metadata !115, i32 1663, metadata !917, i1 false, i1 false, i32 0, i32 0, null, i32 256, i1 false, null, null, i32 0, metadata !127, i32 1663} ; [ DW_TAG_subprogram ]
!921 = metadata !{i32 786478, i32 0, metadata !712, metadata !"operator<<=", metadata !"operator<<=", metadata !"_ZN13ap_fixed_baseILi129ELi45ELb1EL9ap_q_mode5EL9ap_o_mode3ELi0EElSEi", metadata !115, i32 1715, metadata !922, i1 false, i1 false, i32 0, i32 0, null, i32 256, i1 false, null, null, i32 0, metadata !127, i32 1715} ; [ DW_TAG_subprogram ]
!922 = metadata !{i32 786453, i32 0, metadata !"", i32 0, i32 0, i64 0, i64 0, i64 0, i32 0, null, metadata !923, i32 0, i32 0} ; [ DW_TAG_subroutine_type ]
!923 = metadata !{metadata !809, metadata !729, metadata !131}
!924 = metadata !{i32 786478, i32 0, metadata !712, metadata !"operator<<=", metadata !"operator<<=", metadata !"_ZN13ap_fixed_baseILi129ELi45ELb1EL9ap_q_mode5EL9ap_o_mode3ELi0EElSEj", metadata !115, i32 1778, metadata !925, i1 false, i1 false, i32 0, i32 0, null, i32 256, i1 false, null, null, i32 0, metadata !127, i32 1778} ; [ DW_TAG_subprogram ]
!925 = metadata !{i32 786453, i32 0, metadata !"", i32 0, i32 0, i64 0, i64 0, i64 0, i32 0, null, metadata !926, i32 0, i32 0} ; [ DW_TAG_subroutine_type ]
!926 = metadata !{metadata !809, metadata !729, metadata !208}
!927 = metadata !{i32 786478, i32 0, metadata !712, metadata !"operator>>=", metadata !"operator>>=", metadata !"_ZN13ap_fixed_baseILi129ELi45ELb1EL9ap_q_mode5EL9ap_o_mode3ELi0EErSEi", metadata !115, i32 1825, metadata !922, i1 false, i1 false, i32 0, i32 0, null, i32 256, i1 false, null, null, i32 0, metadata !127, i32 1825} ; [ DW_TAG_subprogram ]
!928 = metadata !{i32 786478, i32 0, metadata !712, metadata !"operator>>=", metadata !"operator>>=", metadata !"_ZN13ap_fixed_baseILi129ELi45ELb1EL9ap_q_mode5EL9ap_o_mode3ELi0EErSEj", metadata !115, i32 1887, metadata !925, i1 false, i1 false, i32 0, i32 0, null, i32 256, i1 false, null, null, i32 0, metadata !127, i32 1887} ; [ DW_TAG_subprogram ]
!929 = metadata !{i32 786478, i32 0, metadata !712, metadata !"operator==", metadata !"operator==", metadata !"_ZNK13ap_fixed_baseILi129ELi45ELb1EL9ap_q_mode5EL9ap_o_mode3ELi0EEeqEd", metadata !115, i32 1965, metadata !930, i1 false, i1 false, i32 0, i32 0, null, i32 256, i1 false, null, null, i32 0, metadata !127, i32 1965} ; [ DW_TAG_subprogram ]
!930 = metadata !{i32 786453, i32 0, metadata !"", i32 0, i32 0, i64 0, i64 0, i64 0, i32 0, null, metadata !931, i32 0, i32 0} ; [ DW_TAG_subroutine_type ]
!931 = metadata !{metadata !133, metadata !781, metadata !239}
!932 = metadata !{i32 786478, i32 0, metadata !712, metadata !"operator!=", metadata !"operator!=", metadata !"_ZNK13ap_fixed_baseILi129ELi45ELb1EL9ap_q_mode5EL9ap_o_mode3ELi0EEneEd", metadata !115, i32 1966, metadata !930, i1 false, i1 false, i32 0, i32 0, null, i32 256, i1 false, null, null, i32 0, metadata !127, i32 1966} ; [ DW_TAG_subprogram ]
!933 = metadata !{i32 786478, i32 0, metadata !712, metadata !"operator>", metadata !"operator>", metadata !"_ZNK13ap_fixed_baseILi129ELi45ELb1EL9ap_q_mode5EL9ap_o_mode3ELi0EEgtEd", metadata !115, i32 1967, metadata !930, i1 false, i1 false, i32 0, i32 0, null, i32 256, i1 false, null, null, i32 0, metadata !127, i32 1967} ; [ DW_TAG_subprogram ]
!934 = metadata !{i32 786478, i32 0, metadata !712, metadata !"operator>=", metadata !"operator>=", metadata !"_ZNK13ap_fixed_baseILi129ELi45ELb1EL9ap_q_mode5EL9ap_o_mode3ELi0EEgeEd", metadata !115, i32 1968, metadata !930, i1 false, i1 false, i32 0, i32 0, null, i32 256, i1 false, null, null, i32 0, metadata !127, i32 1968} ; [ DW_TAG_subprogram ]
!935 = metadata !{i32 786478, i32 0, metadata !712, metadata !"operator<", metadata !"operator<", metadata !"_ZNK13ap_fixed_baseILi129ELi45ELb1EL9ap_q_mode5EL9ap_o_mode3ELi0EEltEd", metadata !115, i32 1969, metadata !930, i1 false, i1 false, i32 0, i32 0, null, i32 256, i1 false, null, null, i32 0, metadata !127, i32 1969} ; [ DW_TAG_subprogram ]
!936 = metadata !{i32 786478, i32 0, metadata !712, metadata !"operator<=", metadata !"operator<=", metadata !"_ZNK13ap_fixed_baseILi129ELi45ELb1EL9ap_q_mode5EL9ap_o_mode3ELi0EEleEd", metadata !115, i32 1970, metadata !930, i1 false, i1 false, i32 0, i32 0, null, i32 256, i1 false, null, null, i32 0, metadata !127, i32 1970} ; [ DW_TAG_subprogram ]
!937 = metadata !{i32 786478, i32 0, metadata !712, metadata !"operator[]", metadata !"operator[]", metadata !"_ZN13ap_fixed_baseILi129ELi45ELb1EL9ap_q_mode5EL9ap_o_mode3ELi0EEixEj", metadata !115, i32 1973, metadata !938, i1 false, i1 false, i32 0, i32 0, null, i32 256, i1 false, null, null, i32 0, metadata !127, i32 1973} ; [ DW_TAG_subprogram ]
!938 = metadata !{i32 786453, i32 0, metadata !"", i32 0, i32 0, i64 0, i64 0, i64 0, i32 0, null, metadata !939, i32 0, i32 0} ; [ DW_TAG_subroutine_type ]
!939 = metadata !{metadata !940, metadata !729, metadata !208}
!940 = metadata !{i32 786434, null, metadata !"af_bit_ref<129, 45, true, 5, 3, 0>", metadata !115, i32 93, i32 0, i32 0, i32 0, i32 4, null, null, i32 0} ; [ DW_TAG_class_type ]
!941 = metadata !{i32 786478, i32 0, metadata !712, metadata !"operator[]", metadata !"operator[]", metadata !"_ZNK13ap_fixed_baseILi129ELi45ELb1EL9ap_q_mode5EL9ap_o_mode3ELi0EEixEj", metadata !115, i32 1985, metadata !942, i1 false, i1 false, i32 0, i32 0, null, i32 256, i1 false, null, null, i32 0, metadata !127, i32 1985} ; [ DW_TAG_subprogram ]
!942 = metadata !{i32 786453, i32 0, metadata !"", i32 0, i32 0, i64 0, i64 0, i64 0, i32 0, null, metadata !943, i32 0, i32 0} ; [ DW_TAG_subroutine_type ]
!943 = metadata !{metadata !133, metadata !781, metadata !208}
!944 = metadata !{i32 786478, i32 0, metadata !712, metadata !"bit", metadata !"bit", metadata !"_ZN13ap_fixed_baseILi129ELi45ELb1EL9ap_q_mode5EL9ap_o_mode3ELi0EE3bitEj", metadata !115, i32 1990, metadata !938, i1 false, i1 false, i32 0, i32 0, null, i32 256, i1 false, null, null, i32 0, metadata !127, i32 1990} ; [ DW_TAG_subprogram ]
!945 = metadata !{i32 786478, i32 0, metadata !712, metadata !"bit", metadata !"bit", metadata !"_ZNK13ap_fixed_baseILi129ELi45ELb1EL9ap_q_mode5EL9ap_o_mode3ELi0EE3bitEj", metadata !115, i32 2003, metadata !942, i1 false, i1 false, i32 0, i32 0, null, i32 256, i1 false, null, null, i32 0, metadata !127, i32 2003} ; [ DW_TAG_subprogram ]
!946 = metadata !{i32 786478, i32 0, metadata !712, metadata !"get_bit", metadata !"get_bit", metadata !"_ZNK13ap_fixed_baseILi129ELi45ELb1EL9ap_q_mode5EL9ap_o_mode3ELi0EE7get_bitEi", metadata !115, i32 2015, metadata !947, i1 false, i1 false, i32 0, i32 0, null, i32 256, i1 false, null, null, i32 0, metadata !127, i32 2015} ; [ DW_TAG_subprogram ]
!947 = metadata !{i32 786453, i32 0, metadata !"", i32 0, i32 0, i64 0, i64 0, i64 0, i32 0, null, metadata !948, i32 0, i32 0} ; [ DW_TAG_subroutine_type ]
!948 = metadata !{metadata !133, metadata !781, metadata !131}
!949 = metadata !{i32 786478, i32 0, metadata !712, metadata !"get_bit", metadata !"get_bit", metadata !"_ZN13ap_fixed_baseILi129ELi45ELb1EL9ap_q_mode5EL9ap_o_mode3ELi0EE7get_bitEi", metadata !115, i32 2021, metadata !950, i1 false, i1 false, i32 0, i32 0, null, i32 256, i1 false, null, null, i32 0, metadata !127, i32 2021} ; [ DW_TAG_subprogram ]
!950 = metadata !{i32 786453, i32 0, metadata !"", i32 0, i32 0, i64 0, i64 0, i64 0, i32 0, null, metadata !951, i32 0, i32 0} ; [ DW_TAG_subroutine_type ]
!951 = metadata !{metadata !940, metadata !729, metadata !131}
!952 = metadata !{i32 786478, i32 0, metadata !712, metadata !"range", metadata !"range", metadata !"_ZN13ap_fixed_baseILi129ELi45ELb1EL9ap_q_mode5EL9ap_o_mode3ELi0EE5rangeEii", metadata !115, i32 2036, metadata !953, i1 false, i1 false, i32 0, i32 0, null, i32 256, i1 false, null, null, i32 0, metadata !127, i32 2036} ; [ DW_TAG_subprogram ]
!953 = metadata !{i32 786453, i32 0, metadata !"", i32 0, i32 0, i64 0, i64 0, i64 0, i32 0, null, metadata !954, i32 0, i32 0} ; [ DW_TAG_subroutine_type ]
!954 = metadata !{metadata !955, metadata !729, metadata !131, metadata !131}
!955 = metadata !{i32 786434, null, metadata !"af_range_ref<129, 45, true, 5, 3, 0>", metadata !115, i32 238, i32 0, i32 0, i32 0, i32 4, null, null, i32 0} ; [ DW_TAG_class_type ]
!956 = metadata !{i32 786478, i32 0, metadata !712, metadata !"operator()", metadata !"operator()", metadata !"_ZN13ap_fixed_baseILi129ELi45ELb1EL9ap_q_mode5EL9ap_o_mode3ELi0EEclEii", metadata !115, i32 2042, metadata !953, i1 false, i1 false, i32 0, i32 0, null, i32 256, i1 false, null, null, i32 0, metadata !127, i32 2042} ; [ DW_TAG_subprogram ]
!957 = metadata !{i32 786478, i32 0, metadata !712, metadata !"range", metadata !"range", metadata !"_ZNK13ap_fixed_baseILi129ELi45ELb1EL9ap_q_mode5EL9ap_o_mode3ELi0EE5rangeEii", metadata !115, i32 2048, metadata !958, i1 false, i1 false, i32 0, i32 0, null, i32 256, i1 false, null, null, i32 0, metadata !127, i32 2048} ; [ DW_TAG_subprogram ]
!958 = metadata !{i32 786453, i32 0, metadata !"", i32 0, i32 0, i64 0, i64 0, i64 0, i32 0, null, metadata !959, i32 0, i32 0} ; [ DW_TAG_subroutine_type ]
!959 = metadata !{metadata !955, metadata !781, metadata !131, metadata !131}
!960 = metadata !{i32 786478, i32 0, metadata !712, metadata !"operator()", metadata !"operator()", metadata !"_ZNK13ap_fixed_baseILi129ELi45ELb1EL9ap_q_mode5EL9ap_o_mode3ELi0EEclEii", metadata !115, i32 2097, metadata !958, i1 false, i1 false, i32 0, i32 0, null, i32 256, i1 false, null, null, i32 0, metadata !127, i32 2097} ; [ DW_TAG_subprogram ]
!961 = metadata !{i32 786478, i32 0, metadata !712, metadata !"range", metadata !"range", metadata !"_ZN13ap_fixed_baseILi129ELi45ELb1EL9ap_q_mode5EL9ap_o_mode3ELi0EE5rangeEv", metadata !115, i32 2102, metadata !962, i1 false, i1 false, i32 0, i32 0, null, i32 256, i1 false, null, null, i32 0, metadata !127, i32 2102} ; [ DW_TAG_subprogram ]
!962 = metadata !{i32 786453, i32 0, metadata !"", i32 0, i32 0, i64 0, i64 0, i64 0, i32 0, null, metadata !963, i32 0, i32 0} ; [ DW_TAG_subroutine_type ]
!963 = metadata !{metadata !955, metadata !729}
!964 = metadata !{i32 786478, i32 0, metadata !712, metadata !"range", metadata !"range", metadata !"_ZNK13ap_fixed_baseILi129ELi45ELb1EL9ap_q_mode5EL9ap_o_mode3ELi0EE5rangeEv", metadata !115, i32 2107, metadata !965, i1 false, i1 false, i32 0, i32 0, null, i32 256, i1 false, null, null, i32 0, metadata !127, i32 2107} ; [ DW_TAG_subprogram ]
!965 = metadata !{i32 786453, i32 0, metadata !"", i32 0, i32 0, i64 0, i64 0, i64 0, i32 0, null, metadata !966, i32 0, i32 0} ; [ DW_TAG_subroutine_type ]
!966 = metadata !{metadata !955, metadata !781}
!967 = metadata !{i32 786478, i32 0, metadata !712, metadata !"is_zero", metadata !"is_zero", metadata !"_ZNK13ap_fixed_baseILi129ELi45ELb1EL9ap_q_mode5EL9ap_o_mode3ELi0EE7is_zeroEv", metadata !115, i32 2111, metadata !858, i1 false, i1 false, i32 0, i32 0, null, i32 256, i1 false, null, null, i32 0, metadata !127, i32 2111} ; [ DW_TAG_subprogram ]
!968 = metadata !{i32 786478, i32 0, metadata !712, metadata !"is_neg", metadata !"is_neg", metadata !"_ZNK13ap_fixed_baseILi129ELi45ELb1EL9ap_q_mode5EL9ap_o_mode3ELi0EE6is_negEv", metadata !115, i32 2115, metadata !858, i1 false, i1 false, i32 0, i32 0, null, i32 256, i1 false, null, null, i32 0, metadata !127, i32 2115} ; [ DW_TAG_subprogram ]
!969 = metadata !{i32 786478, i32 0, metadata !712, metadata !"wl", metadata !"wl", metadata !"_ZNK13ap_fixed_baseILi129ELi45ELb1EL9ap_q_mode5EL9ap_o_mode3ELi0EE2wlEv", metadata !115, i32 2121, metadata !834, i1 false, i1 false, i32 0, i32 0, null, i32 256, i1 false, null, null, i32 0, metadata !127, i32 2121} ; [ DW_TAG_subprogram ]
!970 = metadata !{i32 786478, i32 0, metadata !712, metadata !"iwl", metadata !"iwl", metadata !"_ZNK13ap_fixed_baseILi129ELi45ELb1EL9ap_q_mode5EL9ap_o_mode3ELi0EE3iwlEv", metadata !115, i32 2125, metadata !834, i1 false, i1 false, i32 0, i32 0, null, i32 256, i1 false, null, null, i32 0, metadata !127, i32 2125} ; [ DW_TAG_subprogram ]
!971 = metadata !{i32 786478, i32 0, metadata !712, metadata !"q_mode", metadata !"q_mode", metadata !"_ZNK13ap_fixed_baseILi129ELi45ELb1EL9ap_q_mode5EL9ap_o_mode3ELi0EE6q_modeEv", metadata !115, i32 2129, metadata !972, i1 false, i1 false, i32 0, i32 0, null, i32 256, i1 false, null, null, i32 0, metadata !127, i32 2129} ; [ DW_TAG_subprogram ]
!972 = metadata !{i32 786453, i32 0, metadata !"", i32 0, i32 0, i64 0, i64 0, i64 0, i32 0, null, metadata !973, i32 0, i32 0} ; [ DW_TAG_subroutine_type ]
!973 = metadata !{metadata !154, metadata !781}
!974 = metadata !{i32 786478, i32 0, metadata !712, metadata !"o_mode", metadata !"o_mode", metadata !"_ZNK13ap_fixed_baseILi129ELi45ELb1EL9ap_q_mode5EL9ap_o_mode3ELi0EE6o_modeEv", metadata !115, i32 2133, metadata !975, i1 false, i1 false, i32 0, i32 0, null, i32 256, i1 false, null, null, i32 0, metadata !127, i32 2133} ; [ DW_TAG_subprogram ]
!975 = metadata !{i32 786453, i32 0, metadata !"", i32 0, i32 0, i64 0, i64 0, i64 0, i32 0, null, metadata !976, i32 0, i32 0} ; [ DW_TAG_subroutine_type ]
!976 = metadata !{metadata !165, metadata !781}
!977 = metadata !{i32 786478, i32 0, metadata !712, metadata !"n_bits", metadata !"n_bits", metadata !"_ZNK13ap_fixed_baseILi129ELi45ELb1EL9ap_q_mode5EL9ap_o_mode3ELi0EE6n_bitsEv", metadata !115, i32 2137, metadata !834, i1 false, i1 false, i32 0, i32 0, null, i32 256, i1 false, null, null, i32 0, metadata !127, i32 2137} ; [ DW_TAG_subprogram ]
!978 = metadata !{i32 786478, i32 0, metadata !712, metadata !"to_string", metadata !"to_string", metadata !"_ZN13ap_fixed_baseILi129ELi45ELb1EL9ap_q_mode5EL9ap_o_mode3ELi0EE9to_stringE8BaseMode", metadata !115, i32 2141, metadata !979, i1 false, i1 false, i32 0, i32 0, null, i32 256, i1 false, null, null, i32 0, metadata !127, i32 2141} ; [ DW_TAG_subprogram ]
!979 = metadata !{i32 786453, i32 0, metadata !"", i32 0, i32 0, i64 0, i64 0, i64 0, i32 0, null, metadata !980, i32 0, i32 0} ; [ DW_TAG_subroutine_type ]
!980 = metadata !{metadata !527, metadata !729, metadata !528}
!981 = metadata !{i32 786478, i32 0, metadata !712, metadata !"to_string", metadata !"to_string", metadata !"_ZN13ap_fixed_baseILi129ELi45ELb1EL9ap_q_mode5EL9ap_o_mode3ELi0EE9to_stringEa", metadata !115, i32 2145, metadata !982, i1 false, i1 false, i32 0, i32 0, null, i32 256, i1 false, null, null, i32 0, metadata !127, i32 2145} ; [ DW_TAG_subprogram ]
!982 = metadata !{i32 786453, i32 0, metadata !"", i32 0, i32 0, i64 0, i64 0, i64 0, i32 0, null, metadata !983, i32 0, i32 0} ; [ DW_TAG_subroutine_type ]
!983 = metadata !{metadata !527, metadata !729, metadata !189}
!984 = metadata !{i32 786478, i32 0, metadata !712, metadata !"~ap_fixed_base", metadata !"~ap_fixed_base", metadata !"", metadata !115, i32 512, metadata !734, i1 false, i1 false, i32 0, i32 0, null, i32 320, i1 false, null, null, i32 0, metadata !127, i32 512} ; [ DW_TAG_subprogram ]
!985 = metadata !{metadata !986, metadata !987, metadata !725, metadata !700, metadata !701, metadata !702}
!986 = metadata !{i32 786480, null, metadata !"_AP_W", metadata !131, i64 129, null, i32 0, i32 0} ; [ DW_TAG_template_value_parameter ]
!987 = metadata !{i32 786480, null, metadata !"_AP_I", metadata !131, i64 45, null, i32 0, i32 0} ; [ DW_TAG_template_value_parameter ]
!988 = metadata !{metadata !989, metadata !990, metadata !991, metadata !153, metadata !164, metadata !172}
!989 = metadata !{i32 786480, null, metadata !"_AP_W2", metadata !131, i64 129, null, i32 0, i32 0} ; [ DW_TAG_template_value_parameter ]
!990 = metadata !{i32 786480, null, metadata !"_AP_I2", metadata !131, i64 45, null, i32 0, i32 0} ; [ DW_TAG_template_value_parameter ]
!991 = metadata !{i32 786480, null, metadata !"_AP_S2", metadata !133, i64 1, null, i32 0, i32 0} ; [ DW_TAG_template_value_parameter ]
!992 = metadata !{i32 786478, i32 0, metadata !110, metadata !"ap_ufixed", metadata !"ap_ufixed", metadata !"", metadata !111, i32 490, metadata !993, i1 false, i1 false, i32 0, i32 0, null, i32 256, i1 false, null, null, i32 0, metadata !127, i32 490} ; [ DW_TAG_subprogram ]
!993 = metadata !{i32 786453, i32 0, metadata !"", i32 0, i32 0, i64 0, i64 0, i64 0, i32 0, null, metadata !994, i32 0, i32 0} ; [ DW_TAG_subroutine_type ]
!994 = metadata !{null, metadata !706, metadata !133}
!995 = metadata !{i32 786478, i32 0, metadata !110, metadata !"ap_ufixed", metadata !"ap_ufixed", metadata !"", metadata !111, i32 491, metadata !996, i1 false, i1 false, i32 0, i32 0, null, i32 256, i1 false, null, null, i32 0, metadata !127, i32 491} ; [ DW_TAG_subprogram ]
!996 = metadata !{i32 786453, i32 0, metadata !"", i32 0, i32 0, i64 0, i64 0, i64 0, i32 0, null, metadata !997, i32 0, i32 0} ; [ DW_TAG_subroutine_type ]
!997 = metadata !{null, metadata !706, metadata !189}
!998 = metadata !{i32 786478, i32 0, metadata !110, metadata !"ap_ufixed", metadata !"ap_ufixed", metadata !"", metadata !111, i32 492, metadata !999, i1 false, i1 false, i32 0, i32 0, null, i32 256, i1 false, null, null, i32 0, metadata !127, i32 492} ; [ DW_TAG_subprogram ]
!999 = metadata !{i32 786453, i32 0, metadata !"", i32 0, i32 0, i64 0, i64 0, i64 0, i32 0, null, metadata !1000, i32 0, i32 0} ; [ DW_TAG_subroutine_type ]
!1000 = metadata !{null, metadata !706, metadata !193}
!1001 = metadata !{i32 786478, i32 0, metadata !110, metadata !"ap_ufixed", metadata !"ap_ufixed", metadata !"", metadata !111, i32 493, metadata !1002, i1 false, i1 false, i32 0, i32 0, null, i32 256, i1 false, null, null, i32 0, metadata !127, i32 493} ; [ DW_TAG_subprogram ]
!1002 = metadata !{i32 786453, i32 0, metadata !"", i32 0, i32 0, i64 0, i64 0, i64 0, i32 0, null, metadata !1003, i32 0, i32 0} ; [ DW_TAG_subroutine_type ]
!1003 = metadata !{null, metadata !706, metadata !197}
!1004 = metadata !{i32 786478, i32 0, metadata !110, metadata !"ap_ufixed", metadata !"ap_ufixed", metadata !"", metadata !111, i32 494, metadata !1005, i1 false, i1 false, i32 0, i32 0, null, i32 256, i1 false, null, null, i32 0, metadata !127, i32 494} ; [ DW_TAG_subprogram ]
!1005 = metadata !{i32 786453, i32 0, metadata !"", i32 0, i32 0, i64 0, i64 0, i64 0, i32 0, null, metadata !1006, i32 0, i32 0} ; [ DW_TAG_subroutine_type ]
!1006 = metadata !{null, metadata !706, metadata !201}
!1007 = metadata !{i32 786478, i32 0, metadata !110, metadata !"ap_ufixed", metadata !"ap_ufixed", metadata !"", metadata !111, i32 495, metadata !1008, i1 false, i1 false, i32 0, i32 0, null, i32 256, i1 false, null, null, i32 0, metadata !127, i32 495} ; [ DW_TAG_subprogram ]
!1008 = metadata !{i32 786453, i32 0, metadata !"", i32 0, i32 0, i64 0, i64 0, i64 0, i32 0, null, metadata !1009, i32 0, i32 0} ; [ DW_TAG_subroutine_type ]
!1009 = metadata !{null, metadata !706, metadata !131}
!1010 = metadata !{i32 786478, i32 0, metadata !110, metadata !"ap_ufixed", metadata !"ap_ufixed", metadata !"", metadata !111, i32 496, metadata !1011, i1 false, i1 false, i32 0, i32 0, null, i32 256, i1 false, null, null, i32 0, metadata !127, i32 496} ; [ DW_TAG_subprogram ]
!1011 = metadata !{i32 786453, i32 0, metadata !"", i32 0, i32 0, i64 0, i64 0, i64 0, i32 0, null, metadata !1012, i32 0, i32 0} ; [ DW_TAG_subroutine_type ]
!1012 = metadata !{null, metadata !706, metadata !208}
!1013 = metadata !{i32 786478, i32 0, metadata !110, metadata !"ap_ufixed", metadata !"ap_ufixed", metadata !"", metadata !111, i32 497, metadata !1014, i1 false, i1 false, i32 0, i32 0, null, i32 256, i1 false, null, null, i32 0, metadata !127, i32 497} ; [ DW_TAG_subprogram ]
!1014 = metadata !{i32 786453, i32 0, metadata !"", i32 0, i32 0, i64 0, i64 0, i64 0, i32 0, null, metadata !1015, i32 0, i32 0} ; [ DW_TAG_subroutine_type ]
!1015 = metadata !{null, metadata !706, metadata !212}
!1016 = metadata !{i32 786478, i32 0, metadata !110, metadata !"ap_ufixed", metadata !"ap_ufixed", metadata !"", metadata !111, i32 498, metadata !1017, i1 false, i1 false, i32 0, i32 0, null, i32 256, i1 false, null, null, i32 0, metadata !127, i32 498} ; [ DW_TAG_subprogram ]
!1017 = metadata !{i32 786453, i32 0, metadata !"", i32 0, i32 0, i64 0, i64 0, i64 0, i32 0, null, metadata !1018, i32 0, i32 0} ; [ DW_TAG_subroutine_type ]
!1018 = metadata !{null, metadata !706, metadata !216}
!1019 = metadata !{i32 786478, i32 0, metadata !110, metadata !"ap_ufixed", metadata !"ap_ufixed", metadata !"", metadata !111, i32 499, metadata !1020, i1 false, i1 false, i32 0, i32 0, null, i32 256, i1 false, null, null, i32 0, metadata !127, i32 499} ; [ DW_TAG_subprogram ]
!1020 = metadata !{i32 786453, i32 0, metadata !"", i32 0, i32 0, i64 0, i64 0, i64 0, i32 0, null, metadata !1021, i32 0, i32 0} ; [ DW_TAG_subroutine_type ]
!1021 = metadata !{null, metadata !706, metadata !226}
!1022 = metadata !{i32 786478, i32 0, metadata !110, metadata !"ap_ufixed", metadata !"ap_ufixed", metadata !"", metadata !111, i32 500, metadata !1023, i1 false, i1 false, i32 0, i32 0, null, i32 256, i1 false, null, null, i32 0, metadata !127, i32 500} ; [ DW_TAG_subprogram ]
!1023 = metadata !{i32 786453, i32 0, metadata !"", i32 0, i32 0, i64 0, i64 0, i64 0, i32 0, null, metadata !1024, i32 0, i32 0} ; [ DW_TAG_subroutine_type ]
!1024 = metadata !{null, metadata !706, metadata !221}
!1025 = metadata !{i32 786478, i32 0, metadata !110, metadata !"ap_ufixed", metadata !"ap_ufixed", metadata !"", metadata !111, i32 501, metadata !1026, i1 false, i1 false, i32 0, i32 0, null, i32 256, i1 false, null, null, i32 0, metadata !127, i32 501} ; [ DW_TAG_subprogram ]
!1026 = metadata !{i32 786453, i32 0, metadata !"", i32 0, i32 0, i64 0, i64 0, i64 0, i32 0, null, metadata !1027, i32 0, i32 0} ; [ DW_TAG_subroutine_type ]
!1027 = metadata !{null, metadata !706, metadata !247}
!1028 = metadata !{i32 786478, i32 0, metadata !110, metadata !"ap_ufixed", metadata !"ap_ufixed", metadata !"", metadata !111, i32 502, metadata !1029, i1 false, i1 false, i32 0, i32 0, null, i32 256, i1 false, null, null, i32 0, metadata !127, i32 502} ; [ DW_TAG_subprogram ]
!1029 = metadata !{i32 786453, i32 0, metadata !"", i32 0, i32 0, i64 0, i64 0, i64 0, i32 0, null, metadata !1030, i32 0, i32 0} ; [ DW_TAG_subroutine_type ]
!1030 = metadata !{null, metadata !706, metadata !243}
!1031 = metadata !{i32 786478, i32 0, metadata !110, metadata !"ap_ufixed", metadata !"ap_ufixed", metadata !"", metadata !111, i32 503, metadata !1032, i1 false, i1 false, i32 0, i32 0, null, i32 256, i1 false, null, null, i32 0, metadata !127, i32 503} ; [ DW_TAG_subprogram ]
!1032 = metadata !{i32 786453, i32 0, metadata !"", i32 0, i32 0, i64 0, i64 0, i64 0, i32 0, null, metadata !1033, i32 0, i32 0} ; [ DW_TAG_subroutine_type ]
!1033 = metadata !{null, metadata !706, metadata !239}
!1034 = metadata !{i32 786478, i32 0, metadata !110, metadata !"ap_ufixed", metadata !"ap_ufixed", metadata !"", metadata !111, i32 505, metadata !1035, i1 false, i1 false, i32 0, i32 0, null, i32 256, i1 false, null, null, i32 0, metadata !127, i32 505} ; [ DW_TAG_subprogram ]
!1035 = metadata !{i32 786453, i32 0, metadata !"", i32 0, i32 0, i64 0, i64 0, i64 0, i32 0, null, metadata !1036, i32 0, i32 0} ; [ DW_TAG_subroutine_type ]
!1036 = metadata !{null, metadata !706, metadata !230}
!1037 = metadata !{i32 786478, i32 0, metadata !110, metadata !"ap_ufixed", metadata !"ap_ufixed", metadata !"", metadata !111, i32 506, metadata !1038, i1 false, i1 false, i32 0, i32 0, null, i32 256, i1 false, null, null, i32 0, metadata !127, i32 506} ; [ DW_TAG_subprogram ]
!1038 = metadata !{i32 786453, i32 0, metadata !"", i32 0, i32 0, i64 0, i64 0, i64 0, i32 0, null, metadata !1039, i32 0, i32 0} ; [ DW_TAG_subroutine_type ]
!1039 = metadata !{null, metadata !706, metadata !230, metadata !189}
!1040 = metadata !{i32 786478, i32 0, metadata !110, metadata !"operator=", metadata !"operator=", metadata !"_ZN9ap_ufixedILi32ELi1EL9ap_q_mode5EL9ap_o_mode3ELi0EEaSERKS2_", metadata !111, i32 509, metadata !1041, i1 false, i1 false, i32 0, i32 0, null, i32 256, i1 false, null, null, i32 0, metadata !127, i32 509} ; [ DW_TAG_subprogram ]
!1041 = metadata !{i32 786453, i32 0, metadata !"", i32 0, i32 0, i64 0, i64 0, i64 0, i32 0, null, metadata !1042, i32 0, i32 0} ; [ DW_TAG_subroutine_type ]
!1042 = metadata !{metadata !1043, metadata !706, metadata !1044}
!1043 = metadata !{i32 786448, null, null, null, i32 0, i64 0, i64 0, i64 0, i32 0, metadata !110} ; [ DW_TAG_reference_type ]
!1044 = metadata !{i32 786448, null, null, null, i32 0, i64 0, i64 0, i64 0, i32 0, metadata !1045} ; [ DW_TAG_reference_type ]
!1045 = metadata !{i32 786470, null, metadata !"", null, i32 0, i64 0, i64 0, i64 0, i32 0, metadata !110} ; [ DW_TAG_const_type ]
!1046 = metadata !{i32 786478, i32 0, metadata !110, metadata !"operator=", metadata !"operator=", metadata !"_ZN9ap_ufixedILi32ELi1EL9ap_q_mode5EL9ap_o_mode3ELi0EEaSERVKS2_", metadata !111, i32 515, metadata !1047, i1 false, i1 false, i32 0, i32 0, null, i32 256, i1 false, null, null, i32 0, metadata !127, i32 515} ; [ DW_TAG_subprogram ]
!1047 = metadata !{i32 786453, i32 0, metadata !"", i32 0, i32 0, i64 0, i64 0, i64 0, i32 0, null, metadata !1048, i32 0, i32 0} ; [ DW_TAG_subroutine_type ]
!1048 = metadata !{metadata !1043, metadata !706, metadata !1049}
!1049 = metadata !{i32 786448, null, null, null, i32 0, i64 0, i64 0, i64 0, i32 0, metadata !1050} ; [ DW_TAG_reference_type ]
!1050 = metadata !{i32 786470, null, metadata !"", null, i32 0, i64 0, i64 0, i64 0, i32 0, metadata !1051} ; [ DW_TAG_const_type ]
!1051 = metadata !{i32 786485, null, metadata !"", null, i32 0, i64 0, i64 0, i64 0, i32 0, metadata !110} ; [ DW_TAG_volatile_type ]
!1052 = metadata !{i32 786478, i32 0, metadata !110, metadata !"operator=", metadata !"operator=", metadata !"_ZNV9ap_ufixedILi32ELi1EL9ap_q_mode5EL9ap_o_mode3ELi0EEaSERKS2_", metadata !111, i32 521, metadata !1053, i1 false, i1 false, i32 0, i32 0, null, i32 256, i1 false, null, null, i32 0, metadata !127, i32 521} ; [ DW_TAG_subprogram ]
!1053 = metadata !{i32 786453, i32 0, metadata !"", i32 0, i32 0, i64 0, i64 0, i64 0, i32 0, null, metadata !1054, i32 0, i32 0} ; [ DW_TAG_subroutine_type ]
!1054 = metadata !{null, metadata !1055, metadata !1044}
!1055 = metadata !{i32 786447, i32 0, metadata !"", i32 0, i32 0, i64 64, i64 64, i64 0, i32 64, metadata !1051} ; [ DW_TAG_pointer_type ]
!1056 = metadata !{i32 786478, i32 0, metadata !110, metadata !"operator=", metadata !"operator=", metadata !"_ZNV9ap_ufixedILi32ELi1EL9ap_q_mode5EL9ap_o_mode3ELi0EEaSERVKS2_", metadata !111, i32 526, metadata !1057, i1 false, i1 false, i32 0, i32 0, null, i32 256, i1 false, null, null, i32 0, metadata !127, i32 526} ; [ DW_TAG_subprogram ]
!1057 = metadata !{i32 786453, i32 0, metadata !"", i32 0, i32 0, i64 0, i64 0, i64 0, i32 0, null, metadata !1058, i32 0, i32 0} ; [ DW_TAG_subroutine_type ]
!1058 = metadata !{null, metadata !1055, metadata !1049}
!1059 = metadata !{i32 786478, i32 0, metadata !110, metadata !"~ap_ufixed", metadata !"~ap_ufixed", metadata !"", metadata !111, i32 413, metadata !704, i1 false, i1 false, i32 0, i32 0, null, i32 320, i1 false, null, null, i32 0, metadata !127, i32 413} ; [ DW_TAG_subprogram ]
!1060 = metadata !{metadata !698, metadata !699, metadata !700, metadata !701, metadata !702}
!1061 = metadata !{i32 786433, null, metadata !"", null, i32 0, i64 128, i64 32, i32 0, i32 0, metadata !1062, metadata !1068, i32 0, i32 0} ; [ DW_TAG_array_type ]
!1062 = metadata !{i32 786438, null, metadata !"ap_ufixed<32, 1, 5, 3, 0>", metadata !111, i32 413, i64 32, i64 32, i32 0, i32 0, null, metadata !1063, i32 0, null, metadata !1060} ; [ DW_TAG_class_field_type ]
!1063 = metadata !{metadata !1064}
!1064 = metadata !{i32 786438, null, metadata !"ap_fixed_base<32, 1, false, 5, 3, 0>", metadata !115, i32 512, i64 32, i64 32, i32 0, i32 0, null, metadata !1065, i32 0, null, metadata !697} ; [ DW_TAG_class_field_type ]
!1065 = metadata !{metadata !1066}
!1066 = metadata !{i32 786438, null, metadata !"ssdm_int<32 + 1024 * 0, false>", metadata !119, i32 34, i64 32, i64 32, i32 0, i32 0, null, metadata !1067, i32 0, null, metadata !129} ; [ DW_TAG_class_field_type ]
!1067 = metadata !{metadata !121}
!1068 = metadata !{metadata !1069}
!1069 = metadata !{i32 786465, i64 0, i64 3}      ; [ DW_TAG_subrange_type ]
!1070 = metadata !{i32 76, i32 16, metadata !104, null}
!1071 = metadata !{i32 790531, metadata !1072, metadata !"m.V", null, i32 76, metadata !1073, i32 0, i32 0} ; [ DW_TAG_arg_variable_field ]
!1072 = metadata !{i32 786689, metadata !104, metadata !"m", metadata !105, i32 33554508, metadata !108, i32 0, i32 0} ; [ DW_TAG_arg_variable ]
!1073 = metadata !{i32 786433, null, metadata !"", null, i32 0, i64 131072, i64 32, i32 0, i32 0, metadata !1062, metadata !1074, i32 0, i32 0} ; [ DW_TAG_array_type ]
!1074 = metadata !{metadata !1075}
!1075 = metadata !{i32 786465, i64 0, i64 4095}   ; [ DW_TAG_subrange_type ]
!1076 = metadata !{i32 76, i32 31, metadata !104, null}
!1077 = metadata !{i32 77, i32 1, metadata !1078, null}
!1078 = metadata !{i32 786443, metadata !104, i32 76, i32 40, metadata !105, i32 0} ; [ DW_TAG_lexical_block ]
!1079 = metadata !{i32 80, i32 1, metadata !1078, null}
!1080 = metadata !{i32 790531, metadata !1081, metadata !"op.V", null, i32 306, metadata !1061, i32 0, i32 0} ; [ DW_TAG_arg_variable_field ]
!1081 = metadata !{i32 786689, metadata !1082, metadata !"op", metadata !111, i32 33554738, metadata !1044, i32 0, i32 0} ; [ DW_TAG_arg_variable ]
!1082 = metadata !{i32 786478, i32 0, null, metadata !"ap_fixed<32, 1, 5, 3, 0>", metadata !"ap_fixed<32, 1, 5, 3, 0>", metadata !"_ZN8ap_fixedILi32ELi4EL9ap_q_mode5EL9ap_o_mode3ELi0EEC1ILi32ELi1ELS0_5ELS1_3ELi0EEERK9ap_ufixedIXT_EXT0_EXT1_EXT2_EXT3_EE", metadata !111, i32 305, metadata !1083, i1 false, i1 true, i32 0, i32 0, null, i32 256, i1 false, null, metadata !1460, null, metadata !127, i32 307} ; [ DW_TAG_subprogram ]
!1083 = metadata !{i32 786453, i32 0, metadata !"", i32 0, i32 0, i64 0, i64 0, i64 0, i32 0, null, metadata !1084, i32 0, i32 0} ; [ DW_TAG_subroutine_type ]
!1084 = metadata !{null, metadata !1085, metadata !1044}
!1085 = metadata !{i32 786447, i32 0, metadata !"", i32 0, i32 0, i64 64, i64 64, i64 0, i32 64, metadata !1086} ; [ DW_TAG_pointer_type ]
!1086 = metadata !{i32 786434, null, metadata !"ap_fixed<32, 4, 5, 3, 0>", metadata !111, i32 292, i64 32, i64 32, i32 0, i32 0, null, metadata !1087, i32 0, null, metadata !1459} ; [ DW_TAG_class_type ]
!1087 = metadata !{metadata !1088, metadata !1377, metadata !1380, metadata !1386, metadata !1392, metadata !1395, metadata !1398, metadata !1401, metadata !1404, metadata !1407, metadata !1410, metadata !1413, metadata !1416, metadata !1419, metadata !1422, metadata !1425, metadata !1428, metadata !1431, metadata !1434, metadata !1437, metadata !1440, metadata !1443, metadata !1447, metadata !1450, metadata !1454, metadata !1457, metadata !1458}
!1088 = metadata !{i32 786460, metadata !1086, null, metadata !111, i32 0, i64 0, i64 0, i64 0, i32 0, metadata !1089} ; [ DW_TAG_inheritance ]
!1089 = metadata !{i32 786434, null, metadata !"ap_fixed_base<32, 4, true, 5, 3, 0>", metadata !115, i32 512, i64 32, i64 32, i32 0, i32 0, null, metadata !1090, i32 0, null, metadata !1375} ; [ DW_TAG_class_type ]
!1090 = metadata !{metadata !1091, metadata !1106, metadata !1110, metadata !1113, metadata !1116, metadata !1123, metadata !1129, metadata !1132, metadata !1135, metadata !1138, metadata !1141, metadata !1144, metadata !1147, metadata !1150, metadata !1153, metadata !1156, metadata !1159, metadata !1162, metadata !1165, metadata !1168, metadata !1171, metadata !1175, metadata !1178, metadata !1181, metadata !1184, metadata !1187, metadata !1190, metadata !1193, metadata !1196, metadata !1199, metadata !1203, metadata !1206, metadata !1210, metadata !1213, metadata !1216, metadata !1219, metadata !1223, metadata !1226, metadata !1229, metadata !1232, metadata !1235, metadata !1238, metadata !1241, metadata !1244, metadata !1245, metadata !1246, metadata !1247, metadata !1250, metadata !1253, metadata !1256, metadata !1259, metadata !1262, metadata !1265, metadata !1266, metadata !1267, metadata !1270, metadata !1273, metadata !1276, metadata !1279, metadata !1280, metadata !1283, metadata !1286, metadata !1287, metadata !1290, metadata !1291, metadata !1294, metadata !1298, metadata !1299, metadata !1300, metadata !1303, metadata !1306, metadata !1309, metadata !1310, metadata !1311, metadata !1314, metadata !1317, metadata !1318, metadata !1319, metadata !1322, metadata !1323, metadata !1324, metadata !1325, metadata !1326, metadata !1327, metadata !1331, metadata !1334, metadata !1335, metadata !1336, metadata !1339, metadata !1342, metadata !1346, metadata !1347, metadata !1350, metadata !1351, metadata !1354, metadata !1357, metadata !1358, metadata !1359, metadata !1360, metadata !1361, metadata !1364, metadata !1367, metadata !1368, metadata !1371, metadata !1374}
!1091 = metadata !{i32 786460, metadata !1089, null, metadata !115, i32 0, i64 0, i64 0, i64 0, i32 0, metadata !1092} ; [ DW_TAG_inheritance ]
!1092 = metadata !{i32 786434, null, metadata !"ssdm_int<32 + 1024 * 0, true>", metadata !119, i32 34, i64 32, i64 32, i32 0, i32 0, null, metadata !1093, i32 0, null, metadata !1105} ; [ DW_TAG_class_type ]
!1093 = metadata !{metadata !1094, metadata !1096, metadata !1100}
!1094 = metadata !{i32 786445, metadata !1092, metadata !"V", metadata !119, i32 34, i64 32, i64 32, i64 0, i32 0, metadata !1095} ; [ DW_TAG_member ]
!1095 = metadata !{i32 786468, null, metadata !"int32", null, i32 0, i64 32, i64 32, i64 0, i32 0, i32 5} ; [ DW_TAG_base_type ]
!1096 = metadata !{i32 786478, i32 0, metadata !1092, metadata !"ssdm_int", metadata !"ssdm_int", metadata !"", metadata !119, i32 34, metadata !1097, i1 false, i1 false, i32 0, i32 0, null, i32 256, i1 false, null, null, i32 0, metadata !127, i32 34} ; [ DW_TAG_subprogram ]
!1097 = metadata !{i32 786453, i32 0, metadata !"", i32 0, i32 0, i64 0, i64 0, i64 0, i32 0, null, metadata !1098, i32 0, i32 0} ; [ DW_TAG_subroutine_type ]
!1098 = metadata !{null, metadata !1099}
!1099 = metadata !{i32 786447, i32 0, metadata !"", i32 0, i32 0, i64 64, i64 64, i64 0, i32 64, metadata !1092} ; [ DW_TAG_pointer_type ]
!1100 = metadata !{i32 786478, i32 0, metadata !1092, metadata !"ssdm_int", metadata !"ssdm_int", metadata !"", metadata !119, i32 34, metadata !1101, i1 false, i1 false, i32 0, i32 0, null, i32 320, i1 false, null, null, i32 0, metadata !127, i32 34} ; [ DW_TAG_subprogram ]
!1101 = metadata !{i32 786453, i32 0, metadata !"", i32 0, i32 0, i64 0, i64 0, i64 0, i32 0, null, metadata !1102, i32 0, i32 0} ; [ DW_TAG_subroutine_type ]
!1102 = metadata !{null, metadata !1099, metadata !1103}
!1103 = metadata !{i32 786448, null, null, null, i32 0, i64 0, i64 0, i64 0, i32 0, metadata !1104} ; [ DW_TAG_reference_type ]
!1104 = metadata !{i32 786470, null, metadata !"", null, i32 0, i64 0, i64 0, i64 0, i32 0, metadata !1092} ; [ DW_TAG_const_type ]
!1105 = metadata !{metadata !130, metadata !725}
!1106 = metadata !{i32 786478, i32 0, metadata !1089, metadata !"overflow_adjust", metadata !"overflow_adjust", metadata !"_ZN13ap_fixed_baseILi32ELi4ELb1EL9ap_q_mode5EL9ap_o_mode3ELi0EE15overflow_adjustEbbbb", metadata !115, i32 522, metadata !1107, i1 false, i1 false, i32 0, i32 0, null, i32 256, i1 false, null, null, i32 0, metadata !127, i32 522} ; [ DW_TAG_subprogram ]
!1107 = metadata !{i32 786453, i32 0, metadata !"", i32 0, i32 0, i64 0, i64 0, i64 0, i32 0, null, metadata !1108, i32 0, i32 0} ; [ DW_TAG_subroutine_type ]
!1108 = metadata !{null, metadata !1109, metadata !133, metadata !133, metadata !133, metadata !133}
!1109 = metadata !{i32 786447, i32 0, metadata !"", i32 0, i32 0, i64 64, i64 64, i64 0, i32 64, metadata !1089} ; [ DW_TAG_pointer_type ]
!1110 = metadata !{i32 786478, i32 0, metadata !1089, metadata !"quantization_adjust", metadata !"quantization_adjust", metadata !"_ZN13ap_fixed_baseILi32ELi4ELb1EL9ap_q_mode5EL9ap_o_mode3ELi0EE19quantization_adjustEbbb", metadata !115, i32 595, metadata !1111, i1 false, i1 false, i32 0, i32 0, null, i32 256, i1 false, null, null, i32 0, metadata !127, i32 595} ; [ DW_TAG_subprogram ]
!1111 = metadata !{i32 786453, i32 0, metadata !"", i32 0, i32 0, i64 0, i64 0, i64 0, i32 0, null, metadata !1112, i32 0, i32 0} ; [ DW_TAG_subroutine_type ]
!1112 = metadata !{metadata !133, metadata !1109, metadata !133, metadata !133, metadata !133}
!1113 = metadata !{i32 786478, i32 0, metadata !1089, metadata !"ap_fixed_base", metadata !"ap_fixed_base", metadata !"", metadata !115, i32 653, metadata !1114, i1 false, i1 false, i32 0, i32 0, null, i32 256, i1 false, null, null, i32 0, metadata !127, i32 653} ; [ DW_TAG_subprogram ]
!1114 = metadata !{i32 786453, i32 0, metadata !"", i32 0, i32 0, i64 0, i64 0, i64 0, i32 0, null, metadata !1115, i32 0, i32 0} ; [ DW_TAG_subroutine_type ]
!1115 = metadata !{null, metadata !1109}
!1116 = metadata !{i32 786478, i32 0, metadata !1089, metadata !"ap_fixed_base<32, 4, true, 5, 3, 0>", metadata !"ap_fixed_base<32, 4, true, 5, 3, 0>", metadata !"", metadata !115, i32 663, metadata !1117, i1 false, i1 false, i32 0, i32 0, null, i32 256, i1 false, null, metadata !1121, i32 0, metadata !127, i32 663} ; [ DW_TAG_subprogram ]
!1117 = metadata !{i32 786453, i32 0, metadata !"", i32 0, i32 0, i64 0, i64 0, i64 0, i32 0, null, metadata !1118, i32 0, i32 0} ; [ DW_TAG_subroutine_type ]
!1118 = metadata !{null, metadata !1109, metadata !1119}
!1119 = metadata !{i32 786448, null, null, null, i32 0, i64 0, i64 0, i64 0, i32 0, metadata !1120} ; [ DW_TAG_reference_type ]
!1120 = metadata !{i32 786470, null, metadata !"", null, i32 0, i64 0, i64 0, i64 0, i32 0, metadata !1089} ; [ DW_TAG_const_type ]
!1121 = metadata !{metadata !150, metadata !1122, metadata !991, metadata !153, metadata !164, metadata !172}
!1122 = metadata !{i32 786480, null, metadata !"_AP_I2", metadata !131, i64 4, null, i32 0, i32 0} ; [ DW_TAG_template_value_parameter ]
!1123 = metadata !{i32 786478, i32 0, metadata !1089, metadata !"ap_fixed_base<32, 4, true, 5, 3, 0>", metadata !"ap_fixed_base<32, 4, true, 5, 3, 0>", metadata !"", metadata !115, i32 777, metadata !1124, i1 false, i1 false, i32 0, i32 0, null, i32 256, i1 false, null, metadata !1121, i32 0, metadata !127, i32 777} ; [ DW_TAG_subprogram ]
!1124 = metadata !{i32 786453, i32 0, metadata !"", i32 0, i32 0, i64 0, i64 0, i64 0, i32 0, null, metadata !1125, i32 0, i32 0} ; [ DW_TAG_subroutine_type ]
!1125 = metadata !{null, metadata !1109, metadata !1126}
!1126 = metadata !{i32 786448, null, null, null, i32 0, i64 0, i64 0, i64 0, i32 0, metadata !1127} ; [ DW_TAG_reference_type ]
!1127 = metadata !{i32 786470, null, metadata !"", null, i32 0, i64 0, i64 0, i64 0, i32 0, metadata !1128} ; [ DW_TAG_const_type ]
!1128 = metadata !{i32 786485, null, metadata !"", null, i32 0, i64 0, i64 0, i64 0, i32 0, metadata !1089} ; [ DW_TAG_volatile_type ]
!1129 = metadata !{i32 786478, i32 0, metadata !1089, metadata !"ap_fixed_base", metadata !"ap_fixed_base", metadata !"", metadata !115, i32 789, metadata !1130, i1 false, i1 false, i32 0, i32 0, null, i32 256, i1 false, null, null, i32 0, metadata !127, i32 789} ; [ DW_TAG_subprogram ]
!1130 = metadata !{i32 786453, i32 0, metadata !"", i32 0, i32 0, i64 0, i64 0, i64 0, i32 0, null, metadata !1131, i32 0, i32 0} ; [ DW_TAG_subroutine_type ]
!1131 = metadata !{null, metadata !1109, metadata !133}
!1132 = metadata !{i32 786478, i32 0, metadata !1089, metadata !"ap_fixed_base", metadata !"ap_fixed_base", metadata !"", metadata !115, i32 790, metadata !1133, i1 false, i1 false, i32 0, i32 0, null, i32 256, i1 false, null, null, i32 0, metadata !127, i32 790} ; [ DW_TAG_subprogram ]
!1133 = metadata !{i32 786453, i32 0, metadata !"", i32 0, i32 0, i64 0, i64 0, i64 0, i32 0, null, metadata !1134, i32 0, i32 0} ; [ DW_TAG_subroutine_type ]
!1134 = metadata !{null, metadata !1109, metadata !185}
!1135 = metadata !{i32 786478, i32 0, metadata !1089, metadata !"ap_fixed_base", metadata !"ap_fixed_base", metadata !"", metadata !115, i32 791, metadata !1136, i1 false, i1 false, i32 0, i32 0, null, i32 256, i1 false, null, null, i32 0, metadata !127, i32 791} ; [ DW_TAG_subprogram ]
!1136 = metadata !{i32 786453, i32 0, metadata !"", i32 0, i32 0, i64 0, i64 0, i64 0, i32 0, null, metadata !1137, i32 0, i32 0} ; [ DW_TAG_subroutine_type ]
!1137 = metadata !{null, metadata !1109, metadata !189}
!1138 = metadata !{i32 786478, i32 0, metadata !1089, metadata !"ap_fixed_base", metadata !"ap_fixed_base", metadata !"", metadata !115, i32 792, metadata !1139, i1 false, i1 false, i32 0, i32 0, null, i32 256, i1 false, null, null, i32 0, metadata !127, i32 792} ; [ DW_TAG_subprogram ]
!1139 = metadata !{i32 786453, i32 0, metadata !"", i32 0, i32 0, i64 0, i64 0, i64 0, i32 0, null, metadata !1140, i32 0, i32 0} ; [ DW_TAG_subroutine_type ]
!1140 = metadata !{null, metadata !1109, metadata !193}
!1141 = metadata !{i32 786478, i32 0, metadata !1089, metadata !"ap_fixed_base", metadata !"ap_fixed_base", metadata !"", metadata !115, i32 793, metadata !1142, i1 false, i1 false, i32 0, i32 0, null, i32 256, i1 false, null, null, i32 0, metadata !127, i32 793} ; [ DW_TAG_subprogram ]
!1142 = metadata !{i32 786453, i32 0, metadata !"", i32 0, i32 0, i64 0, i64 0, i64 0, i32 0, null, metadata !1143, i32 0, i32 0} ; [ DW_TAG_subroutine_type ]
!1143 = metadata !{null, metadata !1109, metadata !197}
!1144 = metadata !{i32 786478, i32 0, metadata !1089, metadata !"ap_fixed_base", metadata !"ap_fixed_base", metadata !"", metadata !115, i32 794, metadata !1145, i1 false, i1 false, i32 0, i32 0, null, i32 256, i1 false, null, null, i32 0, metadata !127, i32 794} ; [ DW_TAG_subprogram ]
!1145 = metadata !{i32 786453, i32 0, metadata !"", i32 0, i32 0, i64 0, i64 0, i64 0, i32 0, null, metadata !1146, i32 0, i32 0} ; [ DW_TAG_subroutine_type ]
!1146 = metadata !{null, metadata !1109, metadata !201}
!1147 = metadata !{i32 786478, i32 0, metadata !1089, metadata !"ap_fixed_base", metadata !"ap_fixed_base", metadata !"", metadata !115, i32 795, metadata !1148, i1 false, i1 false, i32 0, i32 0, null, i32 256, i1 false, null, null, i32 0, metadata !127, i32 795} ; [ DW_TAG_subprogram ]
!1148 = metadata !{i32 786453, i32 0, metadata !"", i32 0, i32 0, i64 0, i64 0, i64 0, i32 0, null, metadata !1149, i32 0, i32 0} ; [ DW_TAG_subroutine_type ]
!1149 = metadata !{null, metadata !1109, metadata !131}
!1150 = metadata !{i32 786478, i32 0, metadata !1089, metadata !"ap_fixed_base", metadata !"ap_fixed_base", metadata !"", metadata !115, i32 796, metadata !1151, i1 false, i1 false, i32 0, i32 0, null, i32 256, i1 false, null, null, i32 0, metadata !127, i32 796} ; [ DW_TAG_subprogram ]
!1151 = metadata !{i32 786453, i32 0, metadata !"", i32 0, i32 0, i64 0, i64 0, i64 0, i32 0, null, metadata !1152, i32 0, i32 0} ; [ DW_TAG_subroutine_type ]
!1152 = metadata !{null, metadata !1109, metadata !208}
!1153 = metadata !{i32 786478, i32 0, metadata !1089, metadata !"ap_fixed_base", metadata !"ap_fixed_base", metadata !"", metadata !115, i32 798, metadata !1154, i1 false, i1 false, i32 0, i32 0, null, i32 256, i1 false, null, null, i32 0, metadata !127, i32 798} ; [ DW_TAG_subprogram ]
!1154 = metadata !{i32 786453, i32 0, metadata !"", i32 0, i32 0, i64 0, i64 0, i64 0, i32 0, null, metadata !1155, i32 0, i32 0} ; [ DW_TAG_subroutine_type ]
!1155 = metadata !{null, metadata !1109, metadata !212}
!1156 = metadata !{i32 786478, i32 0, metadata !1089, metadata !"ap_fixed_base", metadata !"ap_fixed_base", metadata !"", metadata !115, i32 799, metadata !1157, i1 false, i1 false, i32 0, i32 0, null, i32 256, i1 false, null, null, i32 0, metadata !127, i32 799} ; [ DW_TAG_subprogram ]
!1157 = metadata !{i32 786453, i32 0, metadata !"", i32 0, i32 0, i64 0, i64 0, i64 0, i32 0, null, metadata !1158, i32 0, i32 0} ; [ DW_TAG_subroutine_type ]
!1158 = metadata !{null, metadata !1109, metadata !216}
!1159 = metadata !{i32 786478, i32 0, metadata !1089, metadata !"ap_fixed_base", metadata !"ap_fixed_base", metadata !"", metadata !115, i32 804, metadata !1160, i1 false, i1 false, i32 0, i32 0, null, i32 256, i1 false, null, null, i32 0, metadata !127, i32 804} ; [ DW_TAG_subprogram ]
!1160 = metadata !{i32 786453, i32 0, metadata !"", i32 0, i32 0, i64 0, i64 0, i64 0, i32 0, null, metadata !1161, i32 0, i32 0} ; [ DW_TAG_subroutine_type ]
!1161 = metadata !{null, metadata !1109, metadata !220}
!1162 = metadata !{i32 786478, i32 0, metadata !1089, metadata !"ap_fixed_base", metadata !"ap_fixed_base", metadata !"", metadata !115, i32 805, metadata !1163, i1 false, i1 false, i32 0, i32 0, null, i32 256, i1 false, null, null, i32 0, metadata !127, i32 805} ; [ DW_TAG_subprogram ]
!1163 = metadata !{i32 786453, i32 0, metadata !"", i32 0, i32 0, i64 0, i64 0, i64 0, i32 0, null, metadata !1164, i32 0, i32 0} ; [ DW_TAG_subroutine_type ]
!1164 = metadata !{null, metadata !1109, metadata !225}
!1165 = metadata !{i32 786478, i32 0, metadata !1089, metadata !"ap_fixed_base", metadata !"ap_fixed_base", metadata !"", metadata !115, i32 806, metadata !1166, i1 false, i1 false, i32 0, i32 0, null, i32 256, i1 false, null, null, i32 0, metadata !127, i32 806} ; [ DW_TAG_subprogram ]
!1166 = metadata !{i32 786453, i32 0, metadata !"", i32 0, i32 0, i64 0, i64 0, i64 0, i32 0, null, metadata !1167, i32 0, i32 0} ; [ DW_TAG_subroutine_type ]
!1167 = metadata !{null, metadata !1109, metadata !230}
!1168 = metadata !{i32 786478, i32 0, metadata !1089, metadata !"ap_fixed_base", metadata !"ap_fixed_base", metadata !"", metadata !115, i32 813, metadata !1169, i1 false, i1 false, i32 0, i32 0, null, i32 256, i1 false, null, null, i32 0, metadata !127, i32 813} ; [ DW_TAG_subprogram ]
!1169 = metadata !{i32 786453, i32 0, metadata !"", i32 0, i32 0, i64 0, i64 0, i64 0, i32 0, null, metadata !1170, i32 0, i32 0} ; [ DW_TAG_subroutine_type ]
!1170 = metadata !{null, metadata !1109, metadata !230, metadata !189}
!1171 = metadata !{i32 786478, i32 0, metadata !1089, metadata !"doubleToRawBits", metadata !"doubleToRawBits", metadata !"_ZNK13ap_fixed_baseILi32ELi4ELb1EL9ap_q_mode5EL9ap_o_mode3ELi0EE15doubleToRawBitsEd", metadata !115, i32 849, metadata !1172, i1 false, i1 false, i32 0, i32 0, null, i32 256, i1 false, null, null, i32 0, metadata !127, i32 849} ; [ DW_TAG_subprogram ]
!1172 = metadata !{i32 786453, i32 0, metadata !"", i32 0, i32 0, i64 0, i64 0, i64 0, i32 0, null, metadata !1173, i32 0, i32 0} ; [ DW_TAG_subroutine_type ]
!1173 = metadata !{metadata !226, metadata !1174, metadata !239}
!1174 = metadata !{i32 786447, i32 0, metadata !"", i32 0, i32 0, i64 64, i64 64, i64 0, i32 64, metadata !1120} ; [ DW_TAG_pointer_type ]
!1175 = metadata !{i32 786478, i32 0, metadata !1089, metadata !"floatToRawBits", metadata !"floatToRawBits", metadata !"_ZNK13ap_fixed_baseILi32ELi4ELb1EL9ap_q_mode5EL9ap_o_mode3ELi0EE14floatToRawBitsEf", metadata !115, i32 857, metadata !1176, i1 false, i1 false, i32 0, i32 0, null, i32 256, i1 false, null, null, i32 0, metadata !127, i32 857} ; [ DW_TAG_subprogram ]
!1176 = metadata !{i32 786453, i32 0, metadata !"", i32 0, i32 0, i64 0, i64 0, i64 0, i32 0, null, metadata !1177, i32 0, i32 0} ; [ DW_TAG_subroutine_type ]
!1177 = metadata !{metadata !208, metadata !1174, metadata !243}
!1178 = metadata !{i32 786478, i32 0, metadata !1089, metadata !"halfToRawBits", metadata !"halfToRawBits", metadata !"_ZNK13ap_fixed_baseILi32ELi4ELb1EL9ap_q_mode5EL9ap_o_mode3ELi0EE13halfToRawBitsEDh", metadata !115, i32 865, metadata !1179, i1 false, i1 false, i32 0, i32 0, null, i32 256, i1 false, null, null, i32 0, metadata !127, i32 865} ; [ DW_TAG_subprogram ]
!1179 = metadata !{i32 786453, i32 0, metadata !"", i32 0, i32 0, i64 0, i64 0, i64 0, i32 0, null, metadata !1180, i32 0, i32 0} ; [ DW_TAG_subroutine_type ]
!1180 = metadata !{metadata !201, metadata !1174, metadata !247}
!1181 = metadata !{i32 786478, i32 0, metadata !1089, metadata !"rawBitsToDouble", metadata !"rawBitsToDouble", metadata !"_ZNK13ap_fixed_baseILi32ELi4ELb1EL9ap_q_mode5EL9ap_o_mode3ELi0EE15rawBitsToDoubleEy", metadata !115, i32 874, metadata !1182, i1 false, i1 false, i32 0, i32 0, null, i32 256, i1 false, null, null, i32 0, metadata !127, i32 874} ; [ DW_TAG_subprogram ]
!1182 = metadata !{i32 786453, i32 0, metadata !"", i32 0, i32 0, i64 0, i64 0, i64 0, i32 0, null, metadata !1183, i32 0, i32 0} ; [ DW_TAG_subroutine_type ]
!1183 = metadata !{metadata !239, metadata !1174, metadata !226}
!1184 = metadata !{i32 786478, i32 0, metadata !1089, metadata !"rawBitsToFloat", metadata !"rawBitsToFloat", metadata !"_ZNK13ap_fixed_baseILi32ELi4ELb1EL9ap_q_mode5EL9ap_o_mode3ELi0EE14rawBitsToFloatEj", metadata !115, i32 883, metadata !1185, i1 false, i1 false, i32 0, i32 0, null, i32 256, i1 false, null, null, i32 0, metadata !127, i32 883} ; [ DW_TAG_subprogram ]
!1185 = metadata !{i32 786453, i32 0, metadata !"", i32 0, i32 0, i64 0, i64 0, i64 0, i32 0, null, metadata !1186, i32 0, i32 0} ; [ DW_TAG_subroutine_type ]
!1186 = metadata !{metadata !243, metadata !1174, metadata !208}
!1187 = metadata !{i32 786478, i32 0, metadata !1089, metadata !"rawBitsToHalf", metadata !"rawBitsToHalf", metadata !"_ZNK13ap_fixed_baseILi32ELi4ELb1EL9ap_q_mode5EL9ap_o_mode3ELi0EE13rawBitsToHalfEt", metadata !115, i32 892, metadata !1188, i1 false, i1 false, i32 0, i32 0, null, i32 256, i1 false, null, null, i32 0, metadata !127, i32 892} ; [ DW_TAG_subprogram ]
!1188 = metadata !{i32 786453, i32 0, metadata !"", i32 0, i32 0, i64 0, i64 0, i64 0, i32 0, null, metadata !1189, i32 0, i32 0} ; [ DW_TAG_subroutine_type ]
!1189 = metadata !{metadata !247, metadata !1174, metadata !201}
!1190 = metadata !{i32 786478, i32 0, metadata !1089, metadata !"ap_fixed_base", metadata !"ap_fixed_base", metadata !"", metadata !115, i32 901, metadata !1191, i1 false, i1 false, i32 0, i32 0, null, i32 256, i1 false, null, null, i32 0, metadata !127, i32 901} ; [ DW_TAG_subprogram ]
!1191 = metadata !{i32 786453, i32 0, metadata !"", i32 0, i32 0, i64 0, i64 0, i64 0, i32 0, null, metadata !1192, i32 0, i32 0} ; [ DW_TAG_subroutine_type ]
!1192 = metadata !{null, metadata !1109, metadata !239}
!1193 = metadata !{i32 786478, i32 0, metadata !1089, metadata !"ap_fixed_base", metadata !"ap_fixed_base", metadata !"", metadata !115, i32 1014, metadata !1194, i1 false, i1 false, i32 0, i32 0, null, i32 256, i1 false, null, null, i32 0, metadata !127, i32 1014} ; [ DW_TAG_subprogram ]
!1194 = metadata !{i32 786453, i32 0, metadata !"", i32 0, i32 0, i64 0, i64 0, i64 0, i32 0, null, metadata !1195, i32 0, i32 0} ; [ DW_TAG_subroutine_type ]
!1195 = metadata !{null, metadata !1109, metadata !243}
!1196 = metadata !{i32 786478, i32 0, metadata !1089, metadata !"ap_fixed_base", metadata !"ap_fixed_base", metadata !"", metadata !115, i32 1018, metadata !1197, i1 false, i1 false, i32 0, i32 0, null, i32 256, i1 false, null, null, i32 0, metadata !127, i32 1018} ; [ DW_TAG_subprogram ]
!1197 = metadata !{i32 786453, i32 0, metadata !"", i32 0, i32 0, i64 0, i64 0, i64 0, i32 0, null, metadata !1198, i32 0, i32 0} ; [ DW_TAG_subroutine_type ]
!1198 = metadata !{null, metadata !1109, metadata !247}
!1199 = metadata !{i32 786478, i32 0, metadata !1089, metadata !"operator=", metadata !"operator=", metadata !"_ZN13ap_fixed_baseILi32ELi4ELb1EL9ap_q_mode5EL9ap_o_mode3ELi0EEaSERKS2_", metadata !115, i32 1022, metadata !1200, i1 false, i1 false, i32 0, i32 0, null, i32 256, i1 false, null, null, i32 0, metadata !127, i32 1022} ; [ DW_TAG_subprogram ]
!1200 = metadata !{i32 786453, i32 0, metadata !"", i32 0, i32 0, i64 0, i64 0, i64 0, i32 0, null, metadata !1201, i32 0, i32 0} ; [ DW_TAG_subroutine_type ]
!1201 = metadata !{metadata !1202, metadata !1109, metadata !1119}
!1202 = metadata !{i32 786448, null, null, null, i32 0, i64 0, i64 0, i64 0, i32 0, metadata !1089} ; [ DW_TAG_reference_type ]
!1203 = metadata !{i32 786478, i32 0, metadata !1089, metadata !"operator=", metadata !"operator=", metadata !"_ZN13ap_fixed_baseILi32ELi4ELb1EL9ap_q_mode5EL9ap_o_mode3ELi0EEaSERVKS2_", metadata !115, i32 1029, metadata !1204, i1 false, i1 false, i32 0, i32 0, null, i32 256, i1 false, null, null, i32 0, metadata !127, i32 1029} ; [ DW_TAG_subprogram ]
!1204 = metadata !{i32 786453, i32 0, metadata !"", i32 0, i32 0, i64 0, i64 0, i64 0, i32 0, null, metadata !1205, i32 0, i32 0} ; [ DW_TAG_subroutine_type ]
!1205 = metadata !{metadata !1202, metadata !1109, metadata !1126}
!1206 = metadata !{i32 786478, i32 0, metadata !1089, metadata !"operator=", metadata !"operator=", metadata !"_ZNV13ap_fixed_baseILi32ELi4ELb1EL9ap_q_mode5EL9ap_o_mode3ELi0EEaSERKS2_", metadata !115, i32 1036, metadata !1207, i1 false, i1 false, i32 0, i32 0, null, i32 256, i1 false, null, null, i32 0, metadata !127, i32 1036} ; [ DW_TAG_subprogram ]
!1207 = metadata !{i32 786453, i32 0, metadata !"", i32 0, i32 0, i64 0, i64 0, i64 0, i32 0, null, metadata !1208, i32 0, i32 0} ; [ DW_TAG_subroutine_type ]
!1208 = metadata !{null, metadata !1209, metadata !1119}
!1209 = metadata !{i32 786447, i32 0, metadata !"", i32 0, i32 0, i64 64, i64 64, i64 0, i32 64, metadata !1128} ; [ DW_TAG_pointer_type ]
!1210 = metadata !{i32 786478, i32 0, metadata !1089, metadata !"operator=", metadata !"operator=", metadata !"_ZNV13ap_fixed_baseILi32ELi4ELb1EL9ap_q_mode5EL9ap_o_mode3ELi0EEaSERVKS2_", metadata !115, i32 1042, metadata !1211, i1 false, i1 false, i32 0, i32 0, null, i32 256, i1 false, null, null, i32 0, metadata !127, i32 1042} ; [ DW_TAG_subprogram ]
!1211 = metadata !{i32 786453, i32 0, metadata !"", i32 0, i32 0, i64 0, i64 0, i64 0, i32 0, null, metadata !1212, i32 0, i32 0} ; [ DW_TAG_subroutine_type ]
!1212 = metadata !{null, metadata !1209, metadata !1126}
!1213 = metadata !{i32 786478, i32 0, metadata !1089, metadata !"setBits", metadata !"setBits", metadata !"_ZN13ap_fixed_baseILi32ELi4ELb1EL9ap_q_mode5EL9ap_o_mode3ELi0EE7setBitsEy", metadata !115, i32 1051, metadata !1214, i1 false, i1 false, i32 0, i32 0, null, i32 256, i1 false, null, null, i32 0, metadata !127, i32 1051} ; [ DW_TAG_subprogram ]
!1214 = metadata !{i32 786453, i32 0, metadata !"", i32 0, i32 0, i64 0, i64 0, i64 0, i32 0, null, metadata !1215, i32 0, i32 0} ; [ DW_TAG_subroutine_type ]
!1215 = metadata !{metadata !1202, metadata !1109, metadata !226}
!1216 = metadata !{i32 786478, i32 0, metadata !1089, metadata !"bitsToFixed", metadata !"bitsToFixed", metadata !"_ZN13ap_fixed_baseILi32ELi4ELb1EL9ap_q_mode5EL9ap_o_mode3ELi0EE11bitsToFixedEy", metadata !115, i32 1057, metadata !1217, i1 false, i1 false, i32 0, i32 0, null, i32 256, i1 false, null, null, i32 0, metadata !127, i32 1057} ; [ DW_TAG_subprogram ]
!1217 = metadata !{i32 786453, i32 0, metadata !"", i32 0, i32 0, i64 0, i64 0, i64 0, i32 0, null, metadata !1218, i32 0, i32 0} ; [ DW_TAG_subroutine_type ]
!1218 = metadata !{metadata !1089, metadata !226}
!1219 = metadata !{i32 786478, i32 0, metadata !1089, metadata !"to_ap_int_base", metadata !"to_ap_int_base", metadata !"_ZNK13ap_fixed_baseILi32ELi4ELb1EL9ap_q_mode5EL9ap_o_mode3ELi0EE14to_ap_int_baseEb", metadata !115, i32 1066, metadata !1220, i1 false, i1 false, i32 0, i32 0, null, i32 256, i1 false, null, null, i32 0, metadata !127, i32 1066} ; [ DW_TAG_subprogram ]
!1220 = metadata !{i32 786453, i32 0, metadata !"", i32 0, i32 0, i64 0, i64 0, i64 0, i32 0, null, metadata !1221, i32 0, i32 0} ; [ DW_TAG_subroutine_type ]
!1221 = metadata !{metadata !1222, metadata !1174, metadata !133}
!1222 = metadata !{i32 786434, null, metadata !"ap_int_base<4, true, true>", metadata !155, i32 651, i32 0, i32 0, i32 0, i32 4, null, null, i32 0} ; [ DW_TAG_class_type ]
!1223 = metadata !{i32 786478, i32 0, metadata !1089, metadata !"to_int", metadata !"to_int", metadata !"_ZNK13ap_fixed_baseILi32ELi4ELb1EL9ap_q_mode5EL9ap_o_mode3ELi0EE6to_intEv", metadata !115, i32 1101, metadata !1224, i1 false, i1 false, i32 0, i32 0, null, i32 256, i1 false, null, null, i32 0, metadata !127, i32 1101} ; [ DW_TAG_subprogram ]
!1224 = metadata !{i32 786453, i32 0, metadata !"", i32 0, i32 0, i64 0, i64 0, i64 0, i32 0, null, metadata !1225, i32 0, i32 0} ; [ DW_TAG_subroutine_type ]
!1225 = metadata !{metadata !131, metadata !1174}
!1226 = metadata !{i32 786478, i32 0, metadata !1089, metadata !"to_uint", metadata !"to_uint", metadata !"_ZNK13ap_fixed_baseILi32ELi4ELb1EL9ap_q_mode5EL9ap_o_mode3ELi0EE7to_uintEv", metadata !115, i32 1104, metadata !1227, i1 false, i1 false, i32 0, i32 0, null, i32 256, i1 false, null, null, i32 0, metadata !127, i32 1104} ; [ DW_TAG_subprogram ]
!1227 = metadata !{i32 786453, i32 0, metadata !"", i32 0, i32 0, i64 0, i64 0, i64 0, i32 0, null, metadata !1228, i32 0, i32 0} ; [ DW_TAG_subroutine_type ]
!1228 = metadata !{metadata !208, metadata !1174}
!1229 = metadata !{i32 786478, i32 0, metadata !1089, metadata !"to_int64", metadata !"to_int64", metadata !"_ZNK13ap_fixed_baseILi32ELi4ELb1EL9ap_q_mode5EL9ap_o_mode3ELi0EE8to_int64Ev", metadata !115, i32 1107, metadata !1230, i1 false, i1 false, i32 0, i32 0, null, i32 256, i1 false, null, null, i32 0, metadata !127, i32 1107} ; [ DW_TAG_subprogram ]
!1230 = metadata !{i32 786453, i32 0, metadata !"", i32 0, i32 0, i64 0, i64 0, i64 0, i32 0, null, metadata !1231, i32 0, i32 0} ; [ DW_TAG_subroutine_type ]
!1231 = metadata !{metadata !220, metadata !1174}
!1232 = metadata !{i32 786478, i32 0, metadata !1089, metadata !"to_uint64", metadata !"to_uint64", metadata !"_ZNK13ap_fixed_baseILi32ELi4ELb1EL9ap_q_mode5EL9ap_o_mode3ELi0EE9to_uint64Ev", metadata !115, i32 1110, metadata !1233, i1 false, i1 false, i32 0, i32 0, null, i32 256, i1 false, null, null, i32 0, metadata !127, i32 1110} ; [ DW_TAG_subprogram ]
!1233 = metadata !{i32 786453, i32 0, metadata !"", i32 0, i32 0, i64 0, i64 0, i64 0, i32 0, null, metadata !1234, i32 0, i32 0} ; [ DW_TAG_subroutine_type ]
!1234 = metadata !{metadata !225, metadata !1174}
!1235 = metadata !{i32 786478, i32 0, metadata !1089, metadata !"to_double", metadata !"to_double", metadata !"_ZNK13ap_fixed_baseILi32ELi4ELb1EL9ap_q_mode5EL9ap_o_mode3ELi0EE9to_doubleEv", metadata !115, i32 1113, metadata !1236, i1 false, i1 false, i32 0, i32 0, null, i32 256, i1 false, null, null, i32 0, metadata !127, i32 1113} ; [ DW_TAG_subprogram ]
!1236 = metadata !{i32 786453, i32 0, metadata !"", i32 0, i32 0, i64 0, i64 0, i64 0, i32 0, null, metadata !1237, i32 0, i32 0} ; [ DW_TAG_subroutine_type ]
!1237 = metadata !{metadata !239, metadata !1174}
!1238 = metadata !{i32 786478, i32 0, metadata !1089, metadata !"to_float", metadata !"to_float", metadata !"_ZNK13ap_fixed_baseILi32ELi4ELb1EL9ap_q_mode5EL9ap_o_mode3ELi0EE8to_floatEv", metadata !115, i32 1166, metadata !1239, i1 false, i1 false, i32 0, i32 0, null, i32 256, i1 false, null, null, i32 0, metadata !127, i32 1166} ; [ DW_TAG_subprogram ]
!1239 = metadata !{i32 786453, i32 0, metadata !"", i32 0, i32 0, i64 0, i64 0, i64 0, i32 0, null, metadata !1240, i32 0, i32 0} ; [ DW_TAG_subroutine_type ]
!1240 = metadata !{metadata !243, metadata !1174}
!1241 = metadata !{i32 786478, i32 0, metadata !1089, metadata !"to_half", metadata !"to_half", metadata !"_ZNK13ap_fixed_baseILi32ELi4ELb1EL9ap_q_mode5EL9ap_o_mode3ELi0EE7to_halfEv", metadata !115, i32 1204, metadata !1242, i1 false, i1 false, i32 0, i32 0, null, i32 256, i1 false, null, null, i32 0, metadata !127, i32 1204} ; [ DW_TAG_subprogram ]
!1242 = metadata !{i32 786453, i32 0, metadata !"", i32 0, i32 0, i64 0, i64 0, i64 0, i32 0, null, metadata !1243, i32 0, i32 0} ; [ DW_TAG_subroutine_type ]
!1243 = metadata !{metadata !247, metadata !1174}
