; ModuleID = '/home/brennan/Documents/pynq-copter/pynqcopter/ip/pwm/pwm/pwm/.autopilot/db/a.o.bc'
target datalayout = "e-p:64:64:64-i1:8:8-i8:8:8-i16:16:16-i32:32:32-i64:64:64-f32:32:32-f64:64:64-v64:64:64-v128:128:128-a0:0:64-s0:64:64-f80:128:128-n8:16:32:64-S128"
target triple = "x86_64-unknown-linux-gnu"

%struct.ap_uint.1 = type { %struct.ap_int_base.2 }
%struct.ap_int_base.2 = type { %struct.ssdm_int }
%struct.ssdm_int = type { i32 }
%struct.ap_uint = type { %struct.ap_int_base }
%struct.ap_int_base = type { %struct.ssdm_int.0 }
%struct.ssdm_int.0 = type { i6 }
%struct.ap_fixed_base.3 = type { %struct.ssdm_int.4 }
%struct.ssdm_int.4 = type { i66 }
%struct.ap_fixed_base.5 = type { %struct.ssdm_int.6 }
%struct.ssdm_int.6 = type { i65 }
%struct.ap_int_base.7 = type { %struct.ssdm_int.8 }
%struct.ssdm_int.8 = type { i33 }
%struct.ap_int_base.18 = type { %struct.ssdm_int.19 }
%struct.ssdm_int.19 = type { i1 }
%struct.ap_int_base.22 = type { %struct.ssdm_int.23 }
%struct.ssdm_int.23 = type { i35 }

@.str = private unnamed_addr constant [10 x i8] c"s_axilite\00", align 1 ; [#uses=1 type=[10 x i8]*]
@.str1 = private unnamed_addr constant [1 x i8] zeroinitializer, align 1 ; [#uses=1 type=[1 x i8]*]
@.str2 = private unnamed_addr constant [5 x i8] c"ctrl\00", align 1 ; [#uses=1 type=[5 x i8]*]
@.str3 = private unnamed_addr constant [8 x i8] c"ap_none\00", align 1 ; [#uses=1 type=[8 x i8]*]
@_ZZ3pwm7ap_uintILi32EES0_S0_P9ap_ufixedILi32ELi1EL9ap_q_mode5EL9ap_o_mode3ELi0EERS_ILi6EEE11accumulator = internal global %struct.ap_uint.1 zeroinitializer, align 4 ; [#uses=3 type=%struct.ap_uint.1*]
@_ZGVZ3pwm7ap_uintILi32EES0_S0_P9ap_ufixedILi32ELi1EL9ap_q_mode5EL9ap_o_mode3ELi0EERS_ILi6EEE11accumulator = internal global i8 0 ; [#uses=2 type=i8*]
@_ZZ3pwm7ap_uintILi32EES0_S0_P9ap_ufixedILi32ELi1EL9ap_q_mode5EL9ap_o_mode3ELi0EERS_ILi6EEE4in_p = internal global [6 x %struct.ap_uint.1] zeroinitializer, align 16 ; [#uses=4 type=[6 x %struct.ap_uint.1]*]
@_ZGVZ3pwm7ap_uintILi32EES0_S0_P9ap_ufixedILi32ELi1EL9ap_q_mode5EL9ap_o_mode3ELi0EERS_ILi6EEE4in_p = internal global i8 0 ; [#uses=2 type=i8*]
@_ZZ3pwm7ap_uintILi32EES0_S0_P9ap_ufixedILi32ELi1EL9ap_q_mode5EL9ap_o_mode3ELi0EERS_ILi6EEE5out_p = internal global %struct.ap_uint zeroinitializer, align 1 ; [#uses=6 type=%struct.ap_uint*]
@_ZGVZ3pwm7ap_uintILi32EES0_S0_P9ap_ufixedILi32ELi1EL9ap_q_mode5EL9ap_o_mode3ELi0EERS_ILi6EEE5out_p = internal global i8 0 ; [#uses=2 type=i8*]
@llvm.global_ctors = appending global [0 x { i32, void ()* }] zeroinitializer ; [#uses=0 type=[0 x { i32, void ()* }]*]

; [#uses=0]
define void @_Z3pwm7ap_uintILi32EES0_S0_P9ap_ufixedILi32ELi1EL9ap_q_mode5EL9ap_o_mode3ELi0EERS_ILi6EE(%struct.ap_uint.1* byval align 8 %min_duty, %struct.ap_uint.1* byval align 8 %max_duty, %struct.ap_uint.1* byval align 8 %period, %struct.ap_uint.1* %m, %struct.ap_uint* %out) nounwind uwtable {
  %1 = alloca %struct.ap_uint.1*, align 8         ; [#uses=4 type=%struct.ap_uint.1**]
  %2 = alloca %struct.ap_uint*, align 8           ; [#uses=3 type=%struct.ap_uint**]
  %u = alloca i8, align 1                         ; [#uses=6 type=i8*]
  %3 = alloca %struct.ap_uint.1, align 4          ; [#uses=2 type=%struct.ap_uint.1*]
  %4 = alloca %struct.ap_fixed_base.3, align 8    ; [#uses=2 type=%struct.ap_fixed_base.3*]
  %5 = alloca %struct.ap_fixed_base.5, align 8    ; [#uses=2 type=%struct.ap_fixed_base.5*]
  %6 = alloca %struct.ap_int_base.7, align 8      ; [#uses=2 type=%struct.ap_int_base.7*]
  %7 = alloca %struct.ap_uint, align 1            ; [#uses=2 type=%struct.ap_uint*]
  %u1 = alloca i32, align 4                       ; [#uses=6 type=i32*]
  %8 = alloca %struct.ap_uint, align 1            ; [#uses=2 type=%struct.ap_uint*]
  %9 = alloca %struct.ap_uint, align 1            ; [#uses=2 type=%struct.ap_uint*]
  %10 = alloca %struct.ap_uint.1, align 4         ; [#uses=2 type=%struct.ap_uint.1*]
  %11 = alloca %struct.ap_int_base.2, align 4     ; [#uses=1 type=%struct.ap_int_base.2*]
  call void @llvm.dbg.declare(metadata !{%struct.ap_uint.1* %min_duty}, metadata !12491), !dbg !12492 ; [debug line = 43:14] [debug variable = min_duty]
  call void @llvm.dbg.declare(metadata !{%struct.ap_uint.1* %max_duty}, metadata !12493), !dbg !12494 ; [debug line = 43:27] [debug variable = max_duty]
  call void @llvm.dbg.declare(metadata !{%struct.ap_uint.1* %period}, metadata !12495), !dbg !12496 ; [debug line = 43:41] [debug variable = period]
  store %struct.ap_uint.1* %m, %struct.ap_uint.1** %1, align 8
  call void @llvm.dbg.declare(metadata !{%struct.ap_uint.1** %1}, metadata !12497), !dbg !12498 ; [debug line = 43:52] [debug variable = m]
  store %struct.ap_uint* %out, %struct.ap_uint** %2, align 8
  call void @llvm.dbg.declare(metadata !{%struct.ap_uint** %2}, metadata !12499), !dbg !12500 ; [debug line = 43:64] [debug variable = out]
  %12 = load %struct.ap_uint.1** %1, align 8, !dbg !12501 ; [#uses=1 type=%struct.ap_uint.1*] [debug line = 43:70]
  call void (...)* @_ssdm_SpecArrayDimSize(%struct.ap_uint.1* %12, i32 6) nounwind, !dbg !12501 ; [debug line = 43:70]
  call void (...)* @_ssdm_op_SpecInterface(%struct.ap_uint.1* %min_duty, i8* getelementptr inbounds ([10 x i8]* @.str, i32 0, i32 0), i32 0, i32 0, i8* getelementptr inbounds ([1 x i8]* @.str1, i32 0, i32 0), i32 0, i32 0, i8* getelementptr inbounds ([5 x i8]* @.str2, i32 0, i32 0), i8* getelementptr inbounds ([1 x i8]* @.str1, i32 0, i32 0), i8* getelementptr inbounds ([1 x i8]* @.str1, i32 0, i32 0), i32 0, i32 0, i32 0, i32 0, i8* getelementptr inbounds ([1 x i8]* @.str1, i32 0, i32 0), i8* getelementptr inbounds ([1 x i8]* @.str1, i32 0, i32 0)) nounwind, !dbg !12503 ; [debug line = 44:1]
  call void (...)* @_ssdm_op_SpecInterface(%struct.ap_uint.1* %max_duty, i8* getelementptr inbounds ([10 x i8]* @.str, i32 0, i32 0), i32 0, i32 0, i8* getelementptr inbounds ([1 x i8]* @.str1, i32 0, i32 0), i32 0, i32 0, i8* getelementptr inbounds ([5 x i8]* @.str2, i32 0, i32 0), i8* getelementptr inbounds ([1 x i8]* @.str1, i32 0, i32 0), i8* getelementptr inbounds ([1 x i8]* @.str1, i32 0, i32 0), i32 0, i32 0, i32 0, i32 0, i8* getelementptr inbounds ([1 x i8]* @.str1, i32 0, i32 0), i8* getelementptr inbounds ([1 x i8]* @.str1, i32 0, i32 0)) nounwind, !dbg !12504 ; [debug line = 45:1]
  call void (...)* @_ssdm_op_SpecInterface(%struct.ap_uint.1* %period, i8* getelementptr inbounds ([10 x i8]* @.str, i32 0, i32 0), i32 0, i32 0, i8* getelementptr inbounds ([1 x i8]* @.str1, i32 0, i32 0), i32 0, i32 0, i8* getelementptr inbounds ([5 x i8]* @.str2, i32 0, i32 0), i8* getelementptr inbounds ([1 x i8]* @.str1, i32 0, i32 0), i8* getelementptr inbounds ([1 x i8]* @.str1, i32 0, i32 0), i32 0, i32 0, i32 0, i32 0, i8* getelementptr inbounds ([1 x i8]* @.str1, i32 0, i32 0), i8* getelementptr inbounds ([1 x i8]* @.str1, i32 0, i32 0)) nounwind, !dbg !12505 ; [debug line = 46:1]
  %13 = load %struct.ap_uint.1** %1, align 8, !dbg !12506 ; [#uses=1 type=%struct.ap_uint.1*] [debug line = 47:1]
  call void (...)* @_ssdm_op_SpecInterface(%struct.ap_uint.1* %13, i8* getelementptr inbounds ([10 x i8]* @.str, i32 0, i32 0), i32 0, i32 0, i8* getelementptr inbounds ([1 x i8]* @.str1, i32 0, i32 0), i32 0, i32 0, i8* getelementptr inbounds ([5 x i8]* @.str2, i32 0, i32 0), i8* getelementptr inbounds ([1 x i8]* @.str1, i32 0, i32 0), i8* getelementptr inbounds ([1 x i8]* @.str1, i32 0, i32 0), i32 0, i32 0, i32 0, i32 0, i8* getelementptr inbounds ([1 x i8]* @.str1, i32 0, i32 0), i8* getelementptr inbounds ([1 x i8]* @.str1, i32 0, i32 0)) nounwind, !dbg !12506 ; [debug line = 47:1]
  %14 = load %struct.ap_uint** %2, align 8, !dbg !12507 ; [#uses=1 type=%struct.ap_uint*] [debug line = 48:1]
  call void (...)* @_ssdm_op_SpecInterface(%struct.ap_uint* %14, i8* getelementptr inbounds ([8 x i8]* @.str3, i32 0, i32 0), i32 0, i32 0, i8* getelementptr inbounds ([1 x i8]* @.str1, i32 0, i32 0), i32 0, i32 0, i8* getelementptr inbounds ([1 x i8]* @.str1, i32 0, i32 0), i8* getelementptr inbounds ([1 x i8]* @.str1, i32 0, i32 0), i8* getelementptr inbounds ([1 x i8]* @.str1, i32 0, i32 0), i32 0, i32 0, i32 0, i32 0, i8* getelementptr inbounds ([1 x i8]* @.str1, i32 0, i32 0), i8* getelementptr inbounds ([1 x i8]* @.str1, i32 0, i32 0)) nounwind, !dbg !12507 ; [debug line = 48:1]
  call void (...)* @_ssdm_op_SpecInterface(i32 0, i8* getelementptr inbounds ([10 x i8]* @.str, i32 0, i32 0), i32 0, i32 0, i8* getelementptr inbounds ([1 x i8]* @.str1, i32 0, i32 0), i32 0, i32 0, i8* getelementptr inbounds ([5 x i8]* @.str2, i32 0, i32 0), i8* getelementptr inbounds ([1 x i8]* @.str1, i32 0, i32 0), i8* getelementptr inbounds ([1 x i8]* @.str1, i32 0, i32 0), i32 0, i32 0, i32 0, i32 0, i8* getelementptr inbounds ([1 x i8]* @.str1, i32 0, i32 0), i8* getelementptr inbounds ([1 x i8]* @.str1, i32 0, i32 0)) nounwind, !dbg !12508 ; [debug line = 49:1]
  call void (...)* @_ssdm_op_SpecPipeline(i32 -1, i32 1, i32 1, i32 0, i8* getelementptr inbounds ([1 x i8]* @.str1, i32 0, i32 0)) nounwind, !dbg !12509 ; [debug line = 50:1]
  %15 = load i8* @_ZGVZ3pwm7ap_uintILi32EES0_S0_P9ap_ufixedILi32ELi1EL9ap_q_mode5EL9ap_o_mode3ELi0EERS_ILi6EEE11accumulator, align 1, !dbg !12510 ; [#uses=1 type=i8] [debug line = 51:26]
  %16 = icmp eq i8 %15, 0, !dbg !12510            ; [#uses=1 type=i1] [debug line = 51:26]
  br i1 %16, label %17, label %18, !dbg !12510    ; [debug line = 51:26]

; <label>:17                                      ; preds = %0
  call void @_ZN7ap_uintILi32EEC1Ei(%struct.ap_uint.1* @_ZZ3pwm7ap_uintILi32EES0_S0_P9ap_ufixedILi32ELi1EL9ap_q_mode5EL9ap_o_mode3ELi0EERS_ILi6EEE11accumulator, i32 0), !dbg !12510 ; [debug line = 51:26]
  store i8 1, i8* @_ZGVZ3pwm7ap_uintILi32EES0_S0_P9ap_ufixedILi32ELi1EL9ap_q_mode5EL9ap_o_mode3ELi0EERS_ILi6EEE11accumulator, !dbg !12510 ; [debug line = 51:26]
  br label %18, !dbg !12510                       ; [debug line = 51:26]

; <label>:18                                      ; preds = %17, %0
  %19 = load i8* @_ZGVZ3pwm7ap_uintILi32EES0_S0_P9ap_ufixedILi32ELi1EL9ap_q_mode5EL9ap_o_mode3ELi0EERS_ILi6EEE4in_p, align 1, !dbg !12511 ; [#uses=1 type=i8] [debug line = 53:20]
  %20 = icmp eq i8 %19, 0, !dbg !12511            ; [#uses=1 type=i1] [debug line = 53:20]
  br i1 %20, label %21, label %27, !dbg !12511    ; [debug line = 53:20]

; <label>:21                                      ; preds = %18
  br label %22, !dbg !12511                       ; [debug line = 53:20]

; <label>:22                                      ; preds = %22, %21
  %23 = phi %struct.ap_uint.1* [ getelementptr inbounds ([6 x %struct.ap_uint.1]* @_ZZ3pwm7ap_uintILi32EES0_S0_P9ap_ufixedILi32ELi1EL9ap_q_mode5EL9ap_o_mode3ELi0EERS_ILi6EEE4in_p, i32 0, i32 0), %21 ], [ %24, %22 ], !dbg !12511 ; [#uses=2 type=%struct.ap_uint.1*] [debug line = 53:20]
  call void @_ZN7ap_uintILi32EEC1Ev(%struct.ap_uint.1* %23), !dbg !12511 ; [debug line = 53:20]
  %24 = getelementptr inbounds %struct.ap_uint.1* %23, i64 1, !dbg !12511 ; [#uses=2 type=%struct.ap_uint.1*] [debug line = 53:20]
  %25 = icmp eq %struct.ap_uint.1* %24, getelementptr inbounds ([6 x %struct.ap_uint.1]* @_ZZ3pwm7ap_uintILi32EES0_S0_P9ap_ufixedILi32ELi1EL9ap_q_mode5EL9ap_o_mode3ELi0EERS_ILi6EEE4in_p, i64 1, i64 0), !dbg !12511 ; [#uses=1 type=i1] [debug line = 53:20]
  br i1 %25, label %26, label %22, !dbg !12511    ; [debug line = 53:20]

; <label>:26                                      ; preds = %22
  store i8 1, i8* @_ZGVZ3pwm7ap_uintILi32EES0_S0_P9ap_ufixedILi32ELi1EL9ap_q_mode5EL9ap_o_mode3ELi0EERS_ILi6EEE4in_p, !dbg !12511 ; [debug line = 53:20]
  br label %27, !dbg !12511                       ; [debug line = 53:20]

; <label>:27                                      ; preds = %26, %18
  %28 = load i8* @_ZGVZ3pwm7ap_uintILi32EES0_S0_P9ap_ufixedILi32ELi1EL9ap_q_mode5EL9ap_o_mode3ELi0EERS_ILi6EEE5out_p, align 1, !dbg !12512 ; [#uses=1 type=i8] [debug line = 54:23]
  %29 = icmp eq i8 %28, 0, !dbg !12512            ; [#uses=1 type=i1] [debug line = 54:23]
  br i1 %29, label %30, label %31, !dbg !12512    ; [debug line = 54:23]

; <label>:30                                      ; preds = %27
  call void @_ZN7ap_uintILi6EEC1Ei(%struct.ap_uint* @_ZZ3pwm7ap_uintILi32EES0_S0_P9ap_ufixedILi32ELi1EL9ap_q_mode5EL9ap_o_mode3ELi0EERS_ILi6EEE5out_p, i32 63), !dbg !12512 ; [debug line = 54:23]
  store i8 1, i8* @_ZGVZ3pwm7ap_uintILi32EES0_S0_P9ap_ufixedILi32ELi1EL9ap_q_mode5EL9ap_o_mode3ELi0EERS_ILi6EEE5out_p, !dbg !12512 ; [debug line = 54:23]
  br label %31, !dbg !12512                       ; [debug line = 54:23]

; <label>:31                                      ; preds = %30, %27
  call void @llvm.dbg.declare(metadata !{i8* %u}, metadata !12513), !dbg !12515 ; [debug line = 56:11] [debug variable = u]
  store i8 0, i8* %u, align 1, !dbg !12516        ; [debug line = 56:15]
  br label %32, !dbg !12516                       ; [debug line = 56:15]

; <label>:32                                      ; preds = %49, %31
  %33 = load i8* %u, align 1, !dbg !12516         ; [#uses=1 type=i8] [debug line = 56:15]
  %34 = sext i8 %33 to i32, !dbg !12516           ; [#uses=1 type=i32] [debug line = 56:15]
  %35 = icmp slt i32 %34, 6, !dbg !12516          ; [#uses=1 type=i1] [debug line = 56:15]
  br i1 %35, label %36, label %52, !dbg !12516    ; [debug line = 56:15]

; <label>:36                                      ; preds = %32
  %37 = load i8* %u, align 1, !dbg !12517         ; [#uses=1 type=i8] [debug line = 57:3]
  %38 = sext i8 %37 to i64, !dbg !12517           ; [#uses=1 type=i64] [debug line = 57:3]
  %39 = getelementptr inbounds [6 x %struct.ap_uint.1]* @_ZZ3pwm7ap_uintILi32EES0_S0_P9ap_ufixedILi32ELi1EL9ap_q_mode5EL9ap_o_mode3ELi0EERS_ILi6EEE4in_p, i32 0, i64 %38, !dbg !12517 ; [#uses=1 type=%struct.ap_uint.1*] [debug line = 57:3]
  %40 = bitcast %struct.ap_uint.1* %max_duty to %struct.ap_int_base.2*, !dbg !12519 ; [#uses=1 type=%struct.ap_int_base.2*] [debug line = 57:12]
  %41 = bitcast %struct.ap_uint.1* %min_duty to %struct.ap_int_base.2*, !dbg !12519 ; [#uses=1 type=%struct.ap_int_base.2*] [debug line = 57:12]
  call void @_ZmiILi32ELb0ELi32ELb0EEN11ap_int_baseIXT_EXT0_EXleT_Li64EEE5RTypeIXT1_EXT2_EE5minusERKS1_RKS0_IXT1_EXT2_EXleT1_Li64EEE(%struct.ap_int_base.7* sret %6, %struct.ap_int_base.2* %40, %struct.ap_int_base.2* %41), !dbg !12519 ; [debug line = 57:12]
  %42 = load i8* %u, align 1, !dbg !12519         ; [#uses=1 type=i8] [debug line = 57:12]
  %43 = sext i8 %42 to i64, !dbg !12519           ; [#uses=1 type=i64] [debug line = 57:12]
  %44 = load %struct.ap_uint.1** %1, align 8, !dbg !12519 ; [#uses=1 type=%struct.ap_uint.1*] [debug line = 57:12]
  %45 = getelementptr inbounds %struct.ap_uint.1* %44, i64 %43, !dbg !12519 ; [#uses=1 type=%struct.ap_uint.1*] [debug line = 57:12]
  %46 = bitcast %struct.ap_uint.1* %45 to %struct.ap_int_base.2*, !dbg !12519 ; [#uses=1 type=%struct.ap_int_base.2*] [debug line = 57:12]
  call void @_ZmlILi32ELi1ELb0EL9ap_q_mode5EL9ap_o_mode3ELi0ELi33ELb1EEN13ap_fixed_baseIXT5_EXT5_EXT6_ELS0_5ELS1_3ELi0EE5RTypeIXT_EXT0_EXT1_EE4multERK11ap_int_baseIXT5_EXT6_EXleT5_Li64EEERKS2_IXT_EXT0_EXT1_EXT2_EXT3_EXT4_EE(%struct.ap_fixed_base.5* sret %5, %struct.ap_int_base.7* %6, %struct.ap_int_base.2* %46), !dbg !12519 ; [debug line = 57:12]
  %47 = bitcast %struct.ap_uint.1* %min_duty to %struct.ap_int_base.2*, !dbg !12519 ; [#uses=1 type=%struct.ap_int_base.2*] [debug line = 57:12]
  call void @_ZplILi65ELi34ELb1EL9ap_q_mode5EL9ap_o_mode3ELi0ELi32ELb0EEN13ap_fixed_baseIXT_EXT0_EXT1_ELS0_5ELS1_3ELi0EE5RTypeIXT5_EXT5_EXT6_EE4plusERKS2_IXT_EXT0_EXT1_EXT2_EXT3_EXT4_EERK11ap_int_baseIXT5_EXT6_EXleT5_Li64EEE(%struct.ap_fixed_base.3* sret %4, %struct.ap_fixed_base.5* %5, %struct.ap_int_base.2* %47), !dbg !12519 ; [debug line = 57:12]
  call void @_ZN7ap_uintILi32EEC1ILi66ELi35ELb1EL9ap_q_mode5EL9ap_o_mode3ELi0EEERK13ap_fixed_baseIXT_EXT0_EXT1_EXT2_EXT3_EXT4_EE(%struct.ap_uint.1* %3, %struct.ap_fixed_base.3* %4), !dbg !12519 ; [debug line = 57:12]
  %48 = call %struct.ap_uint.1* @_ZN7ap_uintILi32EEaSERKS0_(%struct.ap_uint.1* %39, %struct.ap_uint.1* %3), !dbg !12519 ; [#uses=0 type=%struct.ap_uint.1*] [debug line = 57:12]
  br label %49, !dbg !12520                       ; [debug line = 58:2]

; <label>:49                                      ; preds = %36
  %50 = load i8* %u, align 1, !dbg !12521         ; [#uses=1 type=i8] [debug line = 56:23]
  %51 = add i8 %50, 1, !dbg !12521                ; [#uses=1 type=i8] [debug line = 56:23]
  store i8 %51, i8* %u, align 1, !dbg !12521      ; [debug line = 56:23]
  br label %32, !dbg !12521                       ; [debug line = 56:23]

; <label>:52                                      ; preds = %32
  %53 = bitcast %struct.ap_uint.1* %min_duty to %struct.ap_int_base.2*, !dbg !12522 ; [#uses=1 type=%struct.ap_int_base.2*] [debug line = 60:5]
  %54 = call zeroext i1 @_ZNK11ap_int_baseILi32ELb0ELb1EEltILi32ELb0EEEbRKS_IXT_EXT0_EXleT_Li64EEE(%struct.ap_int_base.2* getelementptr inbounds (%struct.ap_uint.1* @_ZZ3pwm7ap_uintILi32EES0_S0_P9ap_ufixedILi32ELi1EL9ap_q_mode5EL9ap_o_mode3ELi0EERS_ILi6EEE11accumulator, i32 0, i32 0), %struct.ap_int_base.2* %53), !dbg !12522 ; [#uses=1 type=i1] [debug line = 60:5]
  br i1 %54, label %55, label %57, !dbg !12522    ; [debug line = 60:5]

; <label>:55                                      ; preds = %52
  call void @_ZN7ap_uintILi6EEC1Ei(%struct.ap_uint* %7, i32 63), !dbg !12523 ; [debug line = 61:3]
  %56 = call %struct.ap_uint* @_ZN7ap_uintILi6EEaSERKS0_(%struct.ap_uint* @_ZZ3pwm7ap_uintILi32EES0_S0_P9ap_ufixedILi32ELi1EL9ap_q_mode5EL9ap_o_mode3ELi0EERS_ILi6EEE5out_p, %struct.ap_uint* %7), !dbg !12523 ; [#uses=0 type=%struct.ap_uint*] [debug line = 61:3]
  br label %57, !dbg !12525                       ; [debug line = 62:2]

; <label>:57                                      ; preds = %55, %52
  %58 = bitcast %struct.ap_uint.1* %min_duty to %struct.ap_int_base.2*, !dbg !12526 ; [#uses=1 type=%struct.ap_int_base.2*] [debug line = 63:5]
  %59 = call zeroext i1 @_ZNK11ap_int_baseILi32ELb0ELb1EEltILi32ELb0EEEbRKS_IXT_EXT0_EXleT_Li64EEE(%struct.ap_int_base.2* %58, %struct.ap_int_base.2* getelementptr inbounds (%struct.ap_uint.1* @_ZZ3pwm7ap_uintILi32EES0_S0_P9ap_ufixedILi32ELi1EL9ap_q_mode5EL9ap_o_mode3ELi0EERS_ILi6EEE11accumulator, i32 0, i32 0)), !dbg !12526 ; [#uses=1 type=i1] [debug line = 63:5]
  br i1 %59, label %60, label %82, !dbg !12526    ; [debug line = 63:5]

; <label>:60                                      ; preds = %57
  %61 = bitcast %struct.ap_uint.1* %max_duty to %struct.ap_int_base.2*, !dbg !12527 ; [#uses=1 type=%struct.ap_int_base.2*] [debug line = 63:30]
  %62 = call zeroext i1 @_ZNK11ap_int_baseILi32ELb0ELb1EEltILi32ELb0EEEbRKS_IXT_EXT0_EXleT_Li64EEE(%struct.ap_int_base.2* getelementptr inbounds (%struct.ap_uint.1* @_ZZ3pwm7ap_uintILi32EES0_S0_P9ap_ufixedILi32ELi1EL9ap_q_mode5EL9ap_o_mode3ELi0EERS_ILi6EEE11accumulator, i32 0, i32 0), %struct.ap_int_base.2* %61), !dbg !12527 ; [#uses=1 type=i1] [debug line = 63:30]
  br i1 %62, label %63, label %82, !dbg !12527    ; [debug line = 63:30]

; <label>:63                                      ; preds = %60
  call void @llvm.dbg.declare(metadata !{i32* %u1}, metadata !12528), !dbg !12531 ; [debug line = 64:11] [debug variable = u]
  store i32 0, i32* %u1, align 4, !dbg !12532     ; [debug line = 64:15]
  br label %64, !dbg !12532                       ; [debug line = 64:15]

; <label>:64                                      ; preds = %78, %63
  %65 = load i32* %u1, align 4, !dbg !12532       ; [#uses=1 type=i32] [debug line = 64:15]
  %66 = icmp slt i32 %65, 6, !dbg !12532          ; [#uses=1 type=i1] [debug line = 64:15]
  br i1 %66, label %67, label %81, !dbg !12532    ; [debug line = 64:15]

; <label>:67                                      ; preds = %64
  %68 = load i32* %u1, align 4, !dbg !12533       ; [#uses=1 type=i32] [debug line = 65:14]
  %69 = sext i32 %68 to i64, !dbg !12533          ; [#uses=1 type=i64] [debug line = 65:14]
  %70 = getelementptr inbounds [6 x %struct.ap_uint.1]* @_ZZ3pwm7ap_uintILi32EES0_S0_P9ap_ufixedILi32ELi1EL9ap_q_mode5EL9ap_o_mode3ELi0EERS_ILi6EEE4in_p, i32 0, i64 %69, !dbg !12533 ; [#uses=1 type=%struct.ap_uint.1*] [debug line = 65:14]
  %71 = bitcast %struct.ap_uint.1* %70 to %struct.ap_int_base.2*, !dbg !12533 ; [#uses=1 type=%struct.ap_int_base.2*] [debug line = 65:14]
  %72 = call zeroext i1 @_ZNK11ap_int_baseILi32ELb0ELb1EEgtILi32ELb0EEEbRKS_IXT_EXT0_EXleT_Li64EEE(%struct.ap_int_base.2* getelementptr inbounds (%struct.ap_uint.1* @_ZZ3pwm7ap_uintILi32EES0_S0_P9ap_ufixedILi32ELi1EL9ap_q_mode5EL9ap_o_mode3ELi0EERS_ILi6EEE11accumulator, i32 0, i32 0), %struct.ap_int_base.2* %71), !dbg !12533 ; [#uses=1 type=i1] [debug line = 65:14]
  %73 = zext i1 %72 to i32, !dbg !12533           ; [#uses=1 type=i32] [debug line = 65:14]
  %74 = load i32* %u1, align 4, !dbg !12533       ; [#uses=1 type=i32] [debug line = 65:14]
  %75 = shl i32 %73, %74, !dbg !12533             ; [#uses=1 type=i32] [debug line = 65:14]
  %76 = xor i32 %75, -1, !dbg !12533              ; [#uses=1 type=i32] [debug line = 65:14]
  %77 = call %struct.ap_int_base* @_ZaNILi6ELb0EER11ap_int_baseIXT_EXT0_EXleT_Li64EEES2_i(%struct.ap_int_base* getelementptr inbounds (%struct.ap_uint* @_ZZ3pwm7ap_uintILi32EES0_S0_P9ap_ufixedILi32ELi1EL9ap_q_mode5EL9ap_o_mode3ELi0EERS_ILi6EEE5out_p, i32 0, i32 0), i32 %76), !dbg !12533 ; [#uses=0 type=%struct.ap_int_base*] [debug line = 65:14]
  br label %78, !dbg !12535                       ; [debug line = 66:3]

; <label>:78                                      ; preds = %67
  %79 = load i32* %u1, align 4, !dbg !12536       ; [#uses=1 type=i32] [debug line = 64:23]
  %80 = add nsw i32 %79, 1, !dbg !12536           ; [#uses=1 type=i32] [debug line = 64:23]
  store i32 %80, i32* %u1, align 4, !dbg !12536   ; [debug line = 64:23]
  br label %64, !dbg !12536                       ; [debug line = 64:23]

; <label>:81                                      ; preds = %64
  br label %82, !dbg !12537                       ; [debug line = 67:2]

; <label>:82                                      ; preds = %81, %60, %57
  %83 = bitcast %struct.ap_uint.1* %max_duty to %struct.ap_int_base.2*, !dbg !12538 ; [#uses=1 type=%struct.ap_int_base.2*] [debug line = 68:5]
  %84 = call zeroext i1 @_ZNK11ap_int_baseILi32ELb0ELb1EEltILi32ELb0EEEbRKS_IXT_EXT0_EXleT_Li64EEE(%struct.ap_int_base.2* %83, %struct.ap_int_base.2* getelementptr inbounds (%struct.ap_uint.1* @_ZZ3pwm7ap_uintILi32EES0_S0_P9ap_ufixedILi32ELi1EL9ap_q_mode5EL9ap_o_mode3ELi0EERS_ILi6EEE11accumulator, i32 0, i32 0)), !dbg !12538 ; [#uses=1 type=i1] [debug line = 68:5]
  br i1 %84, label %85, label %90, !dbg !12538    ; [debug line = 68:5]

; <label>:85                                      ; preds = %82
  %86 = bitcast %struct.ap_uint.1* %period to %struct.ap_int_base.2*, !dbg !12539 ; [#uses=1 type=%struct.ap_int_base.2*] [debug line = 68:30]
  %87 = call zeroext i1 @_ZNK11ap_int_baseILi32ELb0ELb1EEltILi32ELb0EEEbRKS_IXT_EXT0_EXleT_Li64EEE(%struct.ap_int_base.2* getelementptr inbounds (%struct.ap_uint.1* @_ZZ3pwm7ap_uintILi32EES0_S0_P9ap_ufixedILi32ELi1EL9ap_q_mode5EL9ap_o_mode3ELi0EERS_ILi6EEE11accumulator, i32 0, i32 0), %struct.ap_int_base.2* %86), !dbg !12539 ; [#uses=1 type=i1] [debug line = 68:30]
  br i1 %87, label %88, label %90, !dbg !12539    ; [debug line = 68:30]

; <label>:88                                      ; preds = %85
  call void @_ZN7ap_uintILi6EEC1Ei(%struct.ap_uint* %8, i32 0), !dbg !12540 ; [debug line = 69:3]
  %89 = call %struct.ap_uint* @_ZN7ap_uintILi6EEaSERKS0_(%struct.ap_uint* @_ZZ3pwm7ap_uintILi32EES0_S0_P9ap_ufixedILi32ELi1EL9ap_q_mode5EL9ap_o_mode3ELi0EERS_ILi6EEE5out_p, %struct.ap_uint* %8), !dbg !12540 ; [#uses=0 type=%struct.ap_uint*] [debug line = 69:3]
  br label %90, !dbg !12542                       ; [debug line = 70:2]

; <label>:90                                      ; preds = %88, %85, %82
  %91 = bitcast %struct.ap_uint.1* %period to %struct.ap_int_base.2*, !dbg !12543 ; [#uses=1 type=%struct.ap_int_base.2*] [debug line = 73:5]
  %92 = call zeroext i1 @_ZNK11ap_int_baseILi32ELb0ELb1EEltILi32ELb0EEEbRKS_IXT_EXT0_EXleT_Li64EEE(%struct.ap_int_base.2* %91, %struct.ap_int_base.2* getelementptr inbounds (%struct.ap_uint.1* @_ZZ3pwm7ap_uintILi32EES0_S0_P9ap_ufixedILi32ELi1EL9ap_q_mode5EL9ap_o_mode3ELi0EERS_ILi6EEE11accumulator, i32 0, i32 0)), !dbg !12543 ; [#uses=1 type=i1] [debug line = 73:5]
  br i1 %92, label %93, label %96, !dbg !12543    ; [debug line = 73:5]

; <label>:93                                      ; preds = %90
  call void @_ZN7ap_uintILi6EEC1Ei(%struct.ap_uint* %9, i32 63), !dbg !12544 ; [debug line = 74:3]
  %94 = call %struct.ap_uint* @_ZN7ap_uintILi6EEaSERKS0_(%struct.ap_uint* @_ZZ3pwm7ap_uintILi32EES0_S0_P9ap_ufixedILi32ELi1EL9ap_q_mode5EL9ap_o_mode3ELi0EERS_ILi6EEE5out_p, %struct.ap_uint* %9), !dbg !12544 ; [#uses=0 type=%struct.ap_uint*] [debug line = 74:3]
  call void @_ZN7ap_uintILi32EEC1Ei(%struct.ap_uint.1* %10, i32 0), !dbg !12546 ; [debug line = 75:3]
  %95 = call %struct.ap_uint.1* @_ZN7ap_uintILi32EEaSERKS0_(%struct.ap_uint.1* @_ZZ3pwm7ap_uintILi32EES0_S0_P9ap_ufixedILi32ELi1EL9ap_q_mode5EL9ap_o_mode3ELi0EERS_ILi6EEE11accumulator, %struct.ap_uint.1* %10), !dbg !12546 ; [#uses=0 type=%struct.ap_uint.1*] [debug line = 75:3]
  br label %96, !dbg !12547                       ; [debug line = 76:2]

; <label>:96                                      ; preds = %93, %90
  call void @_ZN11ap_int_baseILi32ELb0ELb1EEppEi(%struct.ap_int_base.2* sret %11, %struct.ap_int_base.2* getelementptr inbounds (%struct.ap_uint.1* @_ZZ3pwm7ap_uintILi32EES0_S0_P9ap_ufixedILi32ELi1EL9ap_q_mode5EL9ap_o_mode3ELi0EERS_ILi6EEE11accumulator, i32 0, i32 0), i32 0), !dbg !12548 ; [debug line = 80:2]
  %97 = load %struct.ap_uint** %2, align 8, !dbg !12549 ; [#uses=1 type=%struct.ap_uint*] [debug line = 82:2]
  %98 = call %struct.ap_uint* @_ZN7ap_uintILi6EEaSERKS0_(%struct.ap_uint* %97, %struct.ap_uint* @_ZZ3pwm7ap_uintILi32EES0_S0_P9ap_ufixedILi32ELi1EL9ap_q_mode5EL9ap_o_mode3ELi0EERS_ILi6EEE5out_p), !dbg !12549 ; [#uses=0 type=%struct.ap_uint*] [debug line = 82:2]
  ret void, !dbg !12550                           ; [debug line = 84:1]
}

; [#uses=142]
declare void @llvm.dbg.declare(metadata, metadata) nounwind readnone

; [#uses=1]
declare void @_ssdm_SpecArrayDimSize(...) nounwind

; [#uses=6]
declare void @_ssdm_op_SpecInterface(...) nounwind

; [#uses=1]
declare void @_ssdm_op_SpecPipeline(...) nounwind

; [#uses=2]
define internal void @_ZN7ap_uintILi32EEC1Ei(%struct.ap_uint.1* %this, i32 %val) unnamed_addr nounwind uwtable inlinehint alwaysinline align 2 {
  %1 = alloca %struct.ap_uint.1*, align 8         ; [#uses=2 type=%struct.ap_uint.1**]
  %2 = alloca i32, align 4                        ; [#uses=2 type=i32*]
  store %struct.ap_uint.1* %this, %struct.ap_uint.1** %1, align 8
  call void @llvm.dbg.declare(metadata !{%struct.ap_uint.1** %1}, metadata !12551), !dbg !12553 ; [debug line = 253:41] [debug variable = this]
  store i32 %val, i32* %2, align 4
  call void @llvm.dbg.declare(metadata !{i32* %2}, metadata !12554), !dbg !12555 ; [debug line = 253:53] [debug variable = val]
  %3 = load %struct.ap_uint.1** %1                ; [#uses=1 type=%struct.ap_uint.1*]
  %4 = load i32* %2, align 4, !dbg !12556         ; [#uses=1 type=i32] [debug line = 253:75]
  call void @_ZN7ap_uintILi32EEC2Ei(%struct.ap_uint.1* %3, i32 %4), !dbg !12556 ; [debug line = 253:75]
  ret void, !dbg !12556                           ; [debug line = 253:75]
}

; [#uses=1]
define internal void @_ZN7ap_uintILi32EEC1Ev(%struct.ap_uint.1* %this) unnamed_addr nounwind uwtable inlinehint alwaysinline align 2 {
  %1 = alloca %struct.ap_uint.1*, align 8         ; [#uses=2 type=%struct.ap_uint.1**]
  store %struct.ap_uint.1* %this, %struct.ap_uint.1** %1, align 8
  call void @llvm.dbg.declare(metadata !{%struct.ap_uint.1** %1}, metadata !12557), !dbg !12558 ; [debug line = 186:41] [debug variable = this]
  %2 = load %struct.ap_uint.1** %1                ; [#uses=1 type=%struct.ap_uint.1*]
  call void @_ZN7ap_uintILi32EEC2Ev(%struct.ap_uint.1* %2), !dbg !12559 ; [debug line = 186:60]
  ret void, !dbg !12559                           ; [debug line = 186:60]
}

; [#uses=4]
define internal void @_ZN7ap_uintILi6EEC1Ei(%struct.ap_uint* %this, i32 %val) unnamed_addr nounwind uwtable inlinehint alwaysinline align 2 {
  %1 = alloca %struct.ap_uint*, align 8           ; [#uses=2 type=%struct.ap_uint**]
  %2 = alloca i32, align 4                        ; [#uses=2 type=i32*]
  store %struct.ap_uint* %this, %struct.ap_uint** %1, align 8
  call void @llvm.dbg.declare(metadata !{%struct.ap_uint** %1}, metadata !12560), !dbg !12562 ; [debug line = 253:41] [debug variable = this]
  store i32 %val, i32* %2, align 4
  call void @llvm.dbg.declare(metadata !{i32* %2}, metadata !12563), !dbg !12564 ; [debug line = 253:53] [debug variable = val]
  %3 = load %struct.ap_uint** %1                  ; [#uses=1 type=%struct.ap_uint*]
  %4 = load i32* %2, align 4, !dbg !12565         ; [#uses=1 type=i32] [debug line = 253:75]
  call void @_ZN7ap_uintILi6EEC2Ei(%struct.ap_uint* %3, i32 %4), !dbg !12565 ; [debug line = 253:75]
  ret void, !dbg !12565                           ; [debug line = 253:75]
}

; [#uses=2]
define internal %struct.ap_uint.1* @_ZN7ap_uintILi32EEaSERKS0_(%struct.ap_uint.1* %this, %struct.ap_uint.1* %op2) nounwind uwtable inlinehint alwaysinline align 2 {
  %1 = alloca %struct.ap_uint.1*, align 8         ; [#uses=2 type=%struct.ap_uint.1**]
  %2 = alloca %struct.ap_uint.1*, align 8         ; [#uses=2 type=%struct.ap_uint.1**]
  store %struct.ap_uint.1* %this, %struct.ap_uint.1** %1, align 8
  call void @llvm.dbg.declare(metadata !{%struct.ap_uint.1** %1}, metadata !12566), !dbg !12567 ; [debug line = 280:50] [debug variable = this]
  store %struct.ap_uint.1* %op2, %struct.ap_uint.1** %2, align 8
  call void @llvm.dbg.declare(metadata !{%struct.ap_uint.1** %2}, metadata !12568), !dbg !12569 ; [debug line = 280:84] [debug variable = op2]
  %3 = load %struct.ap_uint.1** %1                ; [#uses=2 type=%struct.ap_uint.1*]
  %4 = load %struct.ap_uint.1** %2, align 8, !dbg !12570 ; [#uses=1 type=%struct.ap_uint.1*] [debug line = 281:5]
  %5 = bitcast %struct.ap_uint.1* %4 to %struct.ssdm_int*, !dbg !12570 ; [#uses=1 type=%struct.ssdm_int*] [debug line = 281:5]
  %6 = getelementptr inbounds %struct.ssdm_int* %5, i32 0, i32 0, !dbg !12570 ; [#uses=1 type=i32*] [debug line = 281:5]
  %7 = load i32* %6, align 4, !dbg !12570         ; [#uses=1 type=i32] [debug line = 281:5]
  %8 = bitcast %struct.ap_uint.1* %3 to %struct.ap_int_base.2*, !dbg !12570 ; [#uses=1 type=%struct.ap_int_base.2*] [debug line = 281:5]
  %9 = bitcast %struct.ap_int_base.2* %8 to %struct.ssdm_int*, !dbg !12570 ; [#uses=1 type=%struct.ssdm_int*] [debug line = 281:5]
  %10 = getelementptr inbounds %struct.ssdm_int* %9, i32 0, i32 0, !dbg !12570 ; [#uses=1 type=i32*] [debug line = 281:5]
  store i32 %7, i32* %10, align 4, !dbg !12570    ; [debug line = 281:5]
  ret %struct.ap_uint.1* %3, !dbg !12572          ; [debug line = 282:5]
}

; [#uses=1]
define internal void @_ZN7ap_uintILi32EEC1ILi66ELi35ELb1EL9ap_q_mode5EL9ap_o_mode3ELi0EEERK13ap_fixed_baseIXT_EXT0_EXT1_EXT2_EXT3_EXT4_EE(%struct.ap_uint.1* %this, %struct.ap_fixed_base.3* %op) unnamed_addr nounwind uwtable inlinehint alwaysinline align 2 {
  %1 = alloca %struct.ap_uint.1*, align 8         ; [#uses=2 type=%struct.ap_uint.1**]
  %2 = alloca %struct.ap_fixed_base.3*, align 8   ; [#uses=2 type=%struct.ap_fixed_base.3**]
  store %struct.ap_uint.1* %this, %struct.ap_uint.1** %1, align 8
  call void @llvm.dbg.declare(metadata !{%struct.ap_uint.1** %1}, metadata !12573), !dbg !12574 ; [debug line = 243:41] [debug variable = this]
  store %struct.ap_fixed_base.3* %op, %struct.ap_fixed_base.3** %2, align 8
  call void @llvm.dbg.declare(metadata !{%struct.ap_fixed_base.3** %2}, metadata !12575), !dbg !12576 ; [debug line = 244:29] [debug variable = op]
  %3 = load %struct.ap_uint.1** %1                ; [#uses=1 type=%struct.ap_uint.1*]
  %4 = load %struct.ap_fixed_base.3** %2, !dbg !12577 ; [#uses=1 type=%struct.ap_fixed_base.3*] [debug line = 244:43]
  call void @_ZN7ap_uintILi32EEC2ILi66ELi35ELb1EL9ap_q_mode5EL9ap_o_mode3ELi0EEERK13ap_fixed_baseIXT_EXT0_EXT1_EXT2_EXT3_EXT4_EE(%struct.ap_uint.1* %3, %struct.ap_fixed_base.3* %4), !dbg !12577 ; [debug line = 244:43]
  ret void, !dbg !12577                           ; [debug line = 244:43]
}

; [#uses=1]
define internal void @_ZplILi65ELi34ELb1EL9ap_q_mode5EL9ap_o_mode3ELi0ELi32ELb0EEN13ap_fixed_baseIXT_EXT0_EXT1_ELS0_5ELS1_3ELi0EE5RTypeIXT5_EXT5_EXT6_EE4plusERKS2_IXT_EXT0_EXT1_EXT2_EXT3_EXT4_EERK11ap_int_baseIXT5_EXT6_EXleT5_Li64EEE(%struct.ap_fixed_base.3* noalias sret %agg.result, %struct.ap_fixed_base.5* %op, %struct.ap_int_base.2* %i_op) nounwind uwtable inlinehint alwaysinline {
  %1 = alloca %struct.ap_fixed_base.5*, align 8   ; [#uses=2 type=%struct.ap_fixed_base.5**]
  %2 = alloca %struct.ap_int_base.2*, align 8     ; [#uses=2 type=%struct.ap_int_base.2**]
  %3 = alloca %struct.ap_int_base.2, align 4      ; [#uses=2 type=%struct.ap_int_base.2*]
  store %struct.ap_fixed_base.5* %op, %struct.ap_fixed_base.5** %1, align 8
  call void @llvm.dbg.declare(metadata !{%struct.ap_fixed_base.5** %1}, metadata !12578), !dbg !12579 ; [debug line = 2394:0] [debug variable = op]
  store %struct.ap_int_base.2* %i_op, %struct.ap_int_base.2** %2, align 8
  call void @llvm.dbg.declare(metadata !{%struct.ap_int_base.2** %2}, metadata !12580), !dbg !12579 ; [debug line = 2394:0] [debug variable = i_op]
  %4 = load %struct.ap_fixed_base.5** %1, align 8, !dbg !12581 ; [#uses=1 type=%struct.ap_fixed_base.5*] [debug line = 2394:0]
  %5 = load %struct.ap_int_base.2** %2, align 8, !dbg !12581 ; [#uses=1 type=%struct.ap_int_base.2*] [debug line = 2394:0]
  call void @_ZN13ap_fixed_baseILi32ELi32ELb0EL9ap_q_mode5EL9ap_o_mode3ELi0EEC1ILi32ELb0EEERK11ap_int_baseIXT_EXT0_EXleT_Li64EEE(%struct.ap_int_base.2* %3, %struct.ap_int_base.2* %5), !dbg !12581 ; [debug line = 2394:0]
  call void @_ZNK13ap_fixed_baseILi65ELi34ELb1EL9ap_q_mode5EL9ap_o_mode3ELi0EEplILi32ELi32ELb0ELS0_5ELS1_3ELi0EEENS2_5RTypeIXT_EXT0_EXT1_EE4plusERKS_IXT_EXT0_EXT1_EXT2_EXT3_EXT4_EE(%struct.ap_fixed_base.3* sret %agg.result, %struct.ap_fixed_base.5* %4, %struct.ap_int_base.2* %3), !dbg !12581 ; [debug line = 2394:0]
  ret void, !dbg !12581                           ; [debug line = 2394:0]
}

; [#uses=1]
define internal void @_ZmlILi32ELi1ELb0EL9ap_q_mode5EL9ap_o_mode3ELi0ELi33ELb1EEN13ap_fixed_baseIXT5_EXT5_EXT6_ELS0_5ELS1_3ELi0EE5RTypeIXT_EXT0_EXT1_EE4multERK11ap_int_baseIXT5_EXT6_EXleT5_Li64EEERKS2_IXT_EXT0_EXT1_EXT2_EXT3_EXT4_EE(%struct.ap_fixed_base.5* noalias sret %agg.result, %struct.ap_int_base.7* %i_op, %struct.ap_int_base.2* %op) nounwind uwtable inlinehint alwaysinline {
  %1 = alloca %struct.ap_int_base.7*, align 8     ; [#uses=2 type=%struct.ap_int_base.7**]
  %2 = alloca %struct.ap_int_base.2*, align 8     ; [#uses=2 type=%struct.ap_int_base.2**]
  %3 = alloca %struct.ap_int_base.7, align 8      ; [#uses=2 type=%struct.ap_int_base.7*]
  store %struct.ap_int_base.7* %i_op, %struct.ap_int_base.7** %1, align 8
  call void @llvm.dbg.declare(metadata !{%struct.ap_int_base.7** %1}, metadata !12583), !dbg !12584 ; [debug line = 2396:0] [debug variable = i_op]
  store %struct.ap_int_base.2* %op, %struct.ap_int_base.2** %2, align 8
  call void @llvm.dbg.declare(metadata !{%struct.ap_int_base.2** %2}, metadata !12585), !dbg !12584 ; [debug line = 2396:0] [debug variable = op]
  %4 = load %struct.ap_int_base.7** %1, align 8, !dbg !12586 ; [#uses=1 type=%struct.ap_int_base.7*] [debug line = 2396:0]
  call void @_ZN13ap_fixed_baseILi33ELi33ELb1EL9ap_q_mode5EL9ap_o_mode3ELi0EEC1ILi33ELb1EEERK11ap_int_baseIXT_EXT0_EXleT_Li64EEE(%struct.ap_int_base.7* %3, %struct.ap_int_base.7* %4), !dbg !12586 ; [debug line = 2396:0]
  %5 = load %struct.ap_int_base.2** %2, align 8, !dbg !12586 ; [#uses=1 type=%struct.ap_int_base.2*] [debug line = 2396:0]
  call void @_ZNK13ap_fixed_baseILi33ELi33ELb1EL9ap_q_mode5EL9ap_o_mode3ELi0EEmlILi32ELi1ELb0ELS0_5ELS1_3ELi0EEENS2_5RTypeIXT_EXT0_EXT1_EE4multERKS_IXT_EXT0_EXT1_EXT2_EXT3_EXT4_EE(%struct.ap_fixed_base.5* sret %agg.result, %struct.ap_int_base.7* %3, %struct.ap_int_base.2* %5), !dbg !12586 ; [debug line = 2396:0]
  ret void, !dbg !12586                           ; [debug line = 2396:0]
}

; [#uses=1]
define internal void @_ZmiILi32ELb0ELi32ELb0EEN11ap_int_baseIXT_EXT0_EXleT_Li64EEE5RTypeIXT1_EXT2_EE5minusERKS1_RKS0_IXT1_EXT2_EXleT1_Li64EEE(%struct.ap_int_base.7* noalias sret %agg.result, %struct.ap_int_base.2* %op, %struct.ap_int_base.2* %op2) nounwind uwtable inlinehint alwaysinline {
  %1 = alloca %struct.ap_int_base.2*, align 8     ; [#uses=2 type=%struct.ap_int_base.2**]
  %2 = alloca %struct.ap_int_base.2*, align 8     ; [#uses=2 type=%struct.ap_int_base.2**]
  %lhs = alloca %struct.ap_int_base.7, align 8    ; [#uses=2 type=%struct.ap_int_base.7*]
  %rhs = alloca %struct.ap_int_base.7, align 8    ; [#uses=2 type=%struct.ap_int_base.7*]
  store %struct.ap_int_base.2* %op, %struct.ap_int_base.2** %1, align 8
  call void @llvm.dbg.declare(metadata !{%struct.ap_int_base.2** %1}, metadata !12588), !dbg !12589 ; [debug line = 3425:213] [debug variable = op]
  store %struct.ap_int_base.2* %op2, %struct.ap_int_base.2** %2, align 8
  call void @llvm.dbg.declare(metadata !{%struct.ap_int_base.2** %2}, metadata !12590), !dbg !12591 ; [debug line = 3425:251] [debug variable = op2]
  call void @llvm.dbg.declare(metadata !{%struct.ap_int_base.7* %lhs}, metadata !12592), !dbg !12594 ; [debug line = 3425:0] [debug variable = lhs]
  %3 = load %struct.ap_int_base.2** %1, align 8, !dbg !12594 ; [#uses=1 type=%struct.ap_int_base.2*] [debug line = 3425:0]
  call void @_ZN11ap_int_baseILi33ELb1ELb1EEC1ILi32ELb0EEERKS_IXT_EXT0_EXleT_Li64EEE(%struct.ap_int_base.7* %lhs, %struct.ap_int_base.2* %3), !dbg !12594 ; [debug line = 3425:0]
  call void @llvm.dbg.declare(metadata !{%struct.ap_int_base.7* %rhs}, metadata !12595), !dbg !12594 ; [debug line = 3425:0] [debug variable = rhs]
  %4 = load %struct.ap_int_base.2** %2, align 8, !dbg !12594 ; [#uses=1 type=%struct.ap_int_base.2*] [debug line = 3425:0]
  call void @_ZN11ap_int_baseILi33ELb1ELb1EEC1ILi32ELb0EEERKS_IXT_EXT0_EXleT_Li64EEE(%struct.ap_int_base.7* %rhs, %struct.ap_int_base.2* %4), !dbg !12594 ; [debug line = 3425:0]
  call void @llvm.dbg.declare(metadata !{%struct.ap_int_base.7* %agg.result}, metadata !12596), !dbg !12594 ; [debug line = 3425:0] [debug variable = r]
  call void @_ZN11ap_int_baseILi33ELb1ELb1EEC1Ev(%struct.ap_int_base.7* %agg.result), !dbg !12594 ; [debug line = 3425:0]
  %5 = bitcast %struct.ap_int_base.7* %lhs to %struct.ssdm_int.8*, !dbg !12594 ; [#uses=1 type=%struct.ssdm_int.8*] [debug line = 3425:0]
  %6 = getelementptr inbounds %struct.ssdm_int.8* %5, i32 0, i32 0, !dbg !12594 ; [#uses=1 type=i33*] [debug line = 3425:0]
  %7 = load i33* %6, align 8, !dbg !12594         ; [#uses=1 type=i33] [debug line = 3425:0]
  %8 = bitcast %struct.ap_int_base.7* %rhs to %struct.ssdm_int.8*, !dbg !12594 ; [#uses=1 type=%struct.ssdm_int.8*] [debug line = 3425:0]
  %9 = getelementptr inbounds %struct.ssdm_int.8* %8, i32 0, i32 0, !dbg !12594 ; [#uses=1 type=i33*] [debug line = 3425:0]
  %10 = load i33* %9, align 8, !dbg !12594        ; [#uses=1 type=i33] [debug line = 3425:0]
  %11 = sub nsw i33 %7, %10, !dbg !12594          ; [#uses=1 type=i33] [debug line = 3425:0]
  %12 = bitcast %struct.ap_int_base.7* %agg.result to %struct.ssdm_int.8*, !dbg !12594 ; [#uses=1 type=%struct.ssdm_int.8*] [debug line = 3425:0]
  %13 = getelementptr inbounds %struct.ssdm_int.8* %12, i32 0, i32 0, !dbg !12594 ; [#uses=1 type=i33*] [debug line = 3425:0]
  store i33 %11, i33* %13, align 8, !dbg !12594   ; [debug line = 3425:0]
  ret void, !dbg !12594                           ; [debug line = 3425:0]
}

; [#uses=6]
define internal zeroext i1 @_ZNK11ap_int_baseILi32ELb0ELb1EEltILi32ELb0EEEbRKS_IXT_EXT0_EXleT_Li64EEE(%struct.ap_int_base.2* %this, %struct.ap_int_base.2* %op2) nounwind uwtable inlinehint alwaysinline align 2 {
  %1 = alloca %struct.ap_int_base.2*, align 8     ; [#uses=2 type=%struct.ap_int_base.2**]
  %2 = alloca %struct.ap_int_base.2*, align 8     ; [#uses=2 type=%struct.ap_int_base.2**]
  store %struct.ap_int_base.2* %this, %struct.ap_int_base.2** %1, align 8
  call void @llvm.dbg.declare(metadata !{%struct.ap_int_base.2** %1}, metadata !12598), !dbg !12600 ; [debug line = 2041:46] [debug variable = this]
  store %struct.ap_int_base.2* %op2, %struct.ap_int_base.2** %2, align 8
  call void @llvm.dbg.declare(metadata !{%struct.ap_int_base.2** %2}, metadata !12601), !dbg !12602 ; [debug line = 2041:93] [debug variable = op2]
  %3 = load %struct.ap_int_base.2** %1            ; [#uses=1 type=%struct.ap_int_base.2*]
  %4 = bitcast %struct.ap_int_base.2* %3 to %struct.ssdm_int*, !dbg !12603 ; [#uses=1 type=%struct.ssdm_int*] [debug line = 2042:5]
  %5 = getelementptr inbounds %struct.ssdm_int* %4, i32 0, i32 0, !dbg !12603 ; [#uses=1 type=i32*] [debug line = 2042:5]
  %6 = load i32* %5, align 4, !dbg !12603         ; [#uses=1 type=i32] [debug line = 2042:5]
  %7 = load %struct.ap_int_base.2** %2, align 8, !dbg !12603 ; [#uses=1 type=%struct.ap_int_base.2*] [debug line = 2042:5]
  %8 = bitcast %struct.ap_int_base.2* %7 to %struct.ssdm_int*, !dbg !12603 ; [#uses=1 type=%struct.ssdm_int*] [debug line = 2042:5]
  %9 = getelementptr inbounds %struct.ssdm_int* %8, i32 0, i32 0, !dbg !12603 ; [#uses=1 type=i32*] [debug line = 2042:5]
  %10 = load i32* %9, align 4, !dbg !12603        ; [#uses=1 type=i32] [debug line = 2042:5]
  %11 = icmp ult i32 %6, %10, !dbg !12603         ; [#uses=1 type=i1] [debug line = 2042:5]
  ret i1 %11, !dbg !12603                         ; [debug line = 2042:5]
}

; [#uses=4]
define internal %struct.ap_uint* @_ZN7ap_uintILi6EEaSERKS0_(%struct.ap_uint* %this, %struct.ap_uint* %op2) nounwind uwtable inlinehint alwaysinline align 2 {
  %1 = alloca %struct.ap_uint*, align 8           ; [#uses=2 type=%struct.ap_uint**]
  %2 = alloca %struct.ap_uint*, align 8           ; [#uses=2 type=%struct.ap_uint**]
  store %struct.ap_uint* %this, %struct.ap_uint** %1, align 8
  call void @llvm.dbg.declare(metadata !{%struct.ap_uint** %1}, metadata !12605), !dbg !12606 ; [debug line = 280:50] [debug variable = this]
  store %struct.ap_uint* %op2, %struct.ap_uint** %2, align 8
  call void @llvm.dbg.declare(metadata !{%struct.ap_uint** %2}, metadata !12607), !dbg !12608 ; [debug line = 280:84] [debug variable = op2]
  %3 = load %struct.ap_uint** %1                  ; [#uses=2 type=%struct.ap_uint*]
  %4 = load %struct.ap_uint** %2, align 8, !dbg !12609 ; [#uses=1 type=%struct.ap_uint*] [debug line = 281:5]
  %5 = bitcast %struct.ap_uint* %4 to %struct.ssdm_int.0*, !dbg !12609 ; [#uses=1 type=%struct.ssdm_int.0*] [debug line = 281:5]
  %6 = getelementptr inbounds %struct.ssdm_int.0* %5, i32 0, i32 0, !dbg !12609 ; [#uses=1 type=i6*] [debug line = 281:5]
  %7 = load i6* %6, align 1, !dbg !12609          ; [#uses=1 type=i6] [debug line = 281:5]
  %8 = bitcast %struct.ap_uint* %3 to %struct.ap_int_base*, !dbg !12609 ; [#uses=1 type=%struct.ap_int_base*] [debug line = 281:5]
  %9 = bitcast %struct.ap_int_base* %8 to %struct.ssdm_int.0*, !dbg !12609 ; [#uses=1 type=%struct.ssdm_int.0*] [debug line = 281:5]
  %10 = getelementptr inbounds %struct.ssdm_int.0* %9, i32 0, i32 0, !dbg !12609 ; [#uses=1 type=i6*] [debug line = 281:5]
  store i6 %7, i6* %10, align 1, !dbg !12609      ; [debug line = 281:5]
  ret %struct.ap_uint* %3, !dbg !12611            ; [debug line = 282:5]
}

; [#uses=1]
define internal %struct.ap_int_base* @_ZaNILi6ELb0EER11ap_int_baseIXT_EXT0_EXleT_Li64EEES2_i(%struct.ap_int_base* %op, i32 %op2) nounwind uwtable inlinehint alwaysinline {
  %1 = alloca %struct.ap_int_base*, align 8       ; [#uses=2 type=%struct.ap_int_base**]
  %2 = alloca i32, align 4                        ; [#uses=2 type=i32*]
  %3 = alloca %struct.ap_int_base.2, align 4      ; [#uses=2 type=%struct.ap_int_base.2*]
  store %struct.ap_int_base* %op, %struct.ap_int_base** %1, align 8
  call void @llvm.dbg.declare(metadata !{%struct.ap_int_base** %1}, metadata !12612), !dbg !12613 ; [debug line = 3595:0] [debug variable = op]
  store i32 %op2, i32* %2, align 4
  call void @llvm.dbg.declare(metadata !{i32* %2}, metadata !12614), !dbg !12613 ; [debug line = 3595:0] [debug variable = op2]
  %4 = load %struct.ap_int_base** %1, align 8, !dbg !12615 ; [#uses=1 type=%struct.ap_int_base*] [debug line = 3595:0]
  %5 = load i32* %2, align 4, !dbg !12615         ; [#uses=1 type=i32] [debug line = 3595:0]
  call void @_ZN11ap_int_baseILi32ELb1ELb1EEC1Ei(%struct.ap_int_base.2* %3, i32 %5), !dbg !12615 ; [debug line = 3595:0]
  %6 = call %struct.ap_int_base* @_ZN11ap_int_baseILi6ELb0ELb1EEaNILi32ELb1EEERS0_RKS_IXT_EXT0_EXleT_Li64EEE(%struct.ap_int_base* %4, %struct.ap_int_base.2* %3), !dbg !12615 ; [#uses=1 type=%struct.ap_int_base*] [debug line = 3595:0]
  ret %struct.ap_int_base* %6, !dbg !12615        ; [debug line = 3595:0]
}

; [#uses=1]
define internal zeroext i1 @_ZNK11ap_int_baseILi32ELb0ELb1EEgtILi32ELb0EEEbRKS_IXT_EXT0_EXleT_Li64EEE(%struct.ap_int_base.2* %this, %struct.ap_int_base.2* %op2) nounwind uwtable inlinehint alwaysinline align 2 {
  %1 = alloca %struct.ap_int_base.2*, align 8     ; [#uses=2 type=%struct.ap_int_base.2**]
  %2 = alloca %struct.ap_int_base.2*, align 8     ; [#uses=2 type=%struct.ap_int_base.2**]
  store %struct.ap_int_base.2* %this, %struct.ap_int_base.2** %1, align 8
  call void @llvm.dbg.declare(metadata !{%struct.ap_int_base.2** %1}, metadata !12617), !dbg !12618 ; [debug line = 2049:46] [debug variable = this]
  store %struct.ap_int_base.2* %op2, %struct.ap_int_base.2** %2, align 8
  call void @llvm.dbg.declare(metadata !{%struct.ap_int_base.2** %2}, metadata !12619), !dbg !12620 ; [debug line = 2049:93] [debug variable = op2]
  %3 = load %struct.ap_int_base.2** %1            ; [#uses=1 type=%struct.ap_int_base.2*]
  %4 = bitcast %struct.ap_int_base.2* %3 to %struct.ssdm_int*, !dbg !12621 ; [#uses=1 type=%struct.ssdm_int*] [debug line = 2050:5]
  %5 = getelementptr inbounds %struct.ssdm_int* %4, i32 0, i32 0, !dbg !12621 ; [#uses=1 type=i32*] [debug line = 2050:5]
  %6 = load i32* %5, align 4, !dbg !12621         ; [#uses=1 type=i32] [debug line = 2050:5]
  %7 = load %struct.ap_int_base.2** %2, align 8, !dbg !12621 ; [#uses=1 type=%struct.ap_int_base.2*] [debug line = 2050:5]
  %8 = bitcast %struct.ap_int_base.2* %7 to %struct.ssdm_int*, !dbg !12621 ; [#uses=1 type=%struct.ssdm_int*] [debug line = 2050:5]
  %9 = getelementptr inbounds %struct.ssdm_int* %8, i32 0, i32 0, !dbg !12621 ; [#uses=1 type=i32*] [debug line = 2050:5]
  %10 = load i32* %9, align 4, !dbg !12621        ; [#uses=1 type=i32] [debug line = 2050:5]
  %11 = icmp ugt i32 %6, %10, !dbg !12621         ; [#uses=1 type=i1] [debug line = 2050:5]
  ret i1 %11, !dbg !12621                         ; [debug line = 2050:5]
}

; [#uses=1]
define internal void @_ZN11ap_int_baseILi32ELb0ELb1EEppEi(%struct.ap_int_base.2* noalias sret %agg.result, %struct.ap_int_base.2* %this, i32) nounwind uwtable inlinehint alwaysinline align 2 {
  %2 = alloca %struct.ap_int_base.2*, align 8     ; [#uses=2 type=%struct.ap_int_base.2**]
  %3 = alloca i32, align 4                        ; [#uses=1 type=i32*]
  %4 = alloca %struct.ap_int_base.18, align 1     ; [#uses=2 type=%struct.ap_int_base.18*]
  store %struct.ap_int_base.2* %this, %struct.ap_int_base.2** %2, align 8
  call void @llvm.dbg.declare(metadata !{%struct.ap_int_base.2** %2}, metadata !12623), !dbg !12624 ; [debug line = 1907:59] [debug variable = this]
  store i32 %0, i32* %3, align 4
  %5 = load %struct.ap_int_base.2** %2            ; [#uses=3 type=%struct.ap_int_base.2*]
  call void @llvm.dbg.declare(metadata !{%struct.ap_int_base.2* %agg.result}, metadata !12625), !dbg !12627 ; [debug line = 1908:17] [debug variable = t]
  %6 = bitcast %struct.ap_int_base.2* %agg.result to i8*, !dbg !12628 ; [#uses=0 type=i8*] [debug line = 1908:26]
  %7 = bitcast %struct.ap_int_base.2* %5 to i8*, !dbg !12628 ; [#uses=0 type=i8*] [debug line = 1908:26]
  %8 = getelementptr inbounds %struct.ap_int_base.2* %agg.result, i32 0, i32 0, !dbg !12628 ; [#uses=1 type=%struct.ssdm_int*] [debug line = 1908:26]
  %9 = getelementptr inbounds %struct.ap_int_base.2* %5, i32 0, i32 0, !dbg !12628 ; [#uses=1 type=%struct.ssdm_int*] [debug line = 1908:26]
  %10 = getelementptr inbounds %struct.ssdm_int* %8, i32 0, i32 0, !dbg !12628 ; [#uses=1 type=i32*] [debug line = 1908:26]
  %11 = getelementptr inbounds %struct.ssdm_int* %9, i32 0, i32 0, !dbg !12628 ; [#uses=1 type=i32*] [debug line = 1908:26]
  %12 = load i32* %11, !dbg !12628                ; [#uses=1 type=i32] [debug line = 1908:26]
  store i32 %12, i32* %10, !dbg !12628            ; [debug line = 1908:26]
  call void @_ZN11ap_int_baseILi1ELb0ELb1EEC1Ei(%struct.ap_int_base.18* %4, i32 1), !dbg !12629 ; [debug line = 1909:5]
  %13 = call %struct.ap_int_base.2* @_ZN11ap_int_baseILi32ELb0ELb1EEpLILi1ELb0EEERS0_RKS_IXT_EXT0_EXleT_Li64EEE(%struct.ap_int_base.2* %5, %struct.ap_int_base.18* %4), !dbg !12629 ; [#uses=0 type=%struct.ap_int_base.2*] [debug line = 1909:5]
  ret void, !dbg !12630                           ; [debug line = 1910:5]
}

; [#uses=1]
define internal %struct.ap_int_base.2* @_ZN11ap_int_baseILi32ELb0ELb1EEpLILi1ELb0EEERS0_RKS_IXT_EXT0_EXleT_Li64EEE(%struct.ap_int_base.2* %this, %struct.ap_int_base.18* %op2) nounwind uwtable inlinehint alwaysinline align 2 {
  %1 = alloca %struct.ap_int_base.2*, align 8     ; [#uses=2 type=%struct.ap_int_base.2**]
  %2 = alloca %struct.ap_int_base.18*, align 8    ; [#uses=2 type=%struct.ap_int_base.18**]
  store %struct.ap_int_base.2* %this, %struct.ap_int_base.2** %1, align 8
  call void @llvm.dbg.declare(metadata !{%struct.ap_int_base.2** %1}, metadata !12631), !dbg !12632 ; [debug line = 1879:88] [debug variable = this]
  store %struct.ap_int_base.18* %op2, %struct.ap_int_base.18** %2, align 8
  call void @llvm.dbg.declare(metadata !{%struct.ap_int_base.18** %2}, metadata !12633), !dbg !12634 ; [debug line = 1879:136] [debug variable = op2]
  %3 = load %struct.ap_int_base.2** %1            ; [#uses=2 type=%struct.ap_int_base.2*]
  %4 = load %struct.ap_int_base.18** %2, align 8, !dbg !12635 ; [#uses=1 type=%struct.ap_int_base.18*] [debug line = 1879:145]
  %5 = bitcast %struct.ap_int_base.18* %4 to %struct.ssdm_int.19*, !dbg !12635 ; [#uses=1 type=%struct.ssdm_int.19*] [debug line = 1879:145]
  %6 = getelementptr inbounds %struct.ssdm_int.19* %5, i32 0, i32 0, !dbg !12635 ; [#uses=1 type=i1*] [debug line = 1879:145]
  %7 = load i1* %6, align 1, !dbg !12635          ; [#uses=1 type=i1] [debug line = 1879:145]
  %8 = zext i1 %7 to i32, !dbg !12635             ; [#uses=1 type=i32] [debug line = 1879:145]
  %9 = bitcast %struct.ap_int_base.2* %3 to %struct.ssdm_int*, !dbg !12635 ; [#uses=1 type=%struct.ssdm_int*] [debug line = 1879:145]
  %10 = getelementptr inbounds %struct.ssdm_int* %9, i32 0, i32 0, !dbg !12635 ; [#uses=2 type=i32*] [debug line = 1879:145]
  %11 = load i32* %10, align 4, !dbg !12635       ; [#uses=1 type=i32] [debug line = 1879:145]
  %12 = add i32 %11, %8, !dbg !12635              ; [#uses=1 type=i32] [debug line = 1879:145]
  store i32 %12, i32* %10, align 4, !dbg !12635   ; [debug line = 1879:145]
  ret %struct.ap_int_base.2* %3, !dbg !12637      ; [debug line = 1879:163]
}

; [#uses=1]
define internal void @_ZN11ap_int_baseILi1ELb0ELb1EEC1Ei(%struct.ap_int_base.18* %this, i32 %op) unnamed_addr nounwind uwtable inlinehint alwaysinline align 2 {
  %1 = alloca %struct.ap_int_base.18*, align 8    ; [#uses=2 type=%struct.ap_int_base.18**]
  %2 = alloca i32, align 4                        ; [#uses=2 type=i32*]
  store %struct.ap_int_base.18* %this, %struct.ap_int_base.18** %1, align 8
  call void @llvm.dbg.declare(metadata !{%struct.ap_int_base.18** %1}, metadata !12638), !dbg !12640 ; [debug line = 1521:50] [debug variable = this]
  store i32 %op, i32* %2, align 4
  call void @llvm.dbg.declare(metadata !{i32* %2}, metadata !12641), !dbg !12642 ; [debug line = 1521:66] [debug variable = op]
  %3 = load %struct.ap_int_base.18** %1           ; [#uses=1 type=%struct.ap_int_base.18*]
  %4 = load i32* %2, align 4, !dbg !12643         ; [#uses=1 type=i32] [debug line = 1521:86]
  call void @_ZN11ap_int_baseILi1ELb0ELb1EEC2Ei(%struct.ap_int_base.18* %3, i32 %4), !dbg !12643 ; [debug line = 1521:86]
  ret void, !dbg !12643                           ; [debug line = 1521:86]
}

; [#uses=1]
define internal void @_ZN11ap_int_baseILi1ELb0ELb1EEC2Ei(%struct.ap_int_base.18* %this, i32 %op) unnamed_addr nounwind uwtable inlinehint alwaysinline align 2 {
  %1 = alloca %struct.ap_int_base.18*, align 8    ; [#uses=2 type=%struct.ap_int_base.18**]
  %2 = alloca i32, align 4                        ; [#uses=2 type=i32*]
  store %struct.ap_int_base.18* %this, %struct.ap_int_base.18** %1, align 8
  call void @llvm.dbg.declare(metadata !{%struct.ap_int_base.18** %1}, metadata !12644), !dbg !12645 ; [debug line = 1521:50] [debug variable = this]
  store i32 %op, i32* %2, align 4
  call void @llvm.dbg.declare(metadata !{i32* %2}, metadata !12646), !dbg !12647 ; [debug line = 1521:66] [debug variable = op]
  %3 = load %struct.ap_int_base.18** %1           ; [#uses=2 type=%struct.ap_int_base.18*]
  %4 = bitcast %struct.ap_int_base.18* %3 to %struct.ssdm_int.19*, !dbg !12648 ; [#uses=1 type=%struct.ssdm_int.19*] [debug line = 1521:70]
  call void @_ZN8ssdm_intILi1ELb0EEC2Ev(%struct.ssdm_int.19* %4), !dbg !12648 ; [debug line = 1521:70]
  %5 = load i32* %2, align 4, !dbg !12649         ; [#uses=1 type=i32] [debug line = 1521:72]
  %6 = trunc i32 %5 to i1, !dbg !12649            ; [#uses=1 type=i1] [debug line = 1521:72]
  %7 = bitcast %struct.ap_int_base.18* %3 to %struct.ssdm_int.19*, !dbg !12649 ; [#uses=1 type=%struct.ssdm_int.19*] [debug line = 1521:72]
  %8 = getelementptr inbounds %struct.ssdm_int.19* %7, i32 0, i32 0, !dbg !12649 ; [#uses=1 type=i1*] [debug line = 1521:72]
  store i1 %6, i1* %8, align 1, !dbg !12649       ; [debug line = 1521:72]
  ret void, !dbg !12651                           ; [debug line = 1521:86]
}

; [#uses=1]
define internal void @_ZN8ssdm_intILi1ELb0EEC2Ev(%struct.ssdm_int.19* %this) unnamed_addr nounwind uwtable inlinehint alwaysinline align 2 {
  %1 = alloca %struct.ssdm_int.19*, align 8       ; [#uses=2 type=%struct.ssdm_int.19**]
  store %struct.ssdm_int.19* %this, %struct.ssdm_int.19** %1, align 8
  call void @llvm.dbg.declare(metadata !{%struct.ssdm_int.19** %1}, metadata !12652), !dbg !12654 ; [debug line = 3:0] [debug variable = this]
  %2 = load %struct.ssdm_int.19** %1              ; [#uses=0 type=%struct.ssdm_int.19*]
  ret void, !dbg !12655                           ; [debug line = 3:0]
}

; [#uses=1]
define internal %struct.ap_int_base* @_ZN11ap_int_baseILi6ELb0ELb1EEaNILi32ELb1EEERS0_RKS_IXT_EXT0_EXleT_Li64EEE(%struct.ap_int_base* %this, %struct.ap_int_base.2* %op2) nounwind uwtable inlinehint alwaysinline align 2 {
  %1 = alloca %struct.ap_int_base*, align 8       ; [#uses=2 type=%struct.ap_int_base**]
  %2 = alloca %struct.ap_int_base.2*, align 8     ; [#uses=2 type=%struct.ap_int_base.2**]
  store %struct.ap_int_base* %this, %struct.ap_int_base** %1, align 8
  call void @llvm.dbg.declare(metadata !{%struct.ap_int_base** %1}, metadata !12657), !dbg !12659 ; [debug line = 1887:88] [debug variable = this]
  store %struct.ap_int_base.2* %op2, %struct.ap_int_base.2** %2, align 8
  call void @llvm.dbg.declare(metadata !{%struct.ap_int_base.2** %2}, metadata !12660), !dbg !12661 ; [debug line = 1887:136] [debug variable = op2]
  %3 = load %struct.ap_int_base** %1              ; [#uses=2 type=%struct.ap_int_base*]
  %4 = load %struct.ap_int_base.2** %2, align 8, !dbg !12662 ; [#uses=1 type=%struct.ap_int_base.2*] [debug line = 1887:145]
  %5 = bitcast %struct.ap_int_base.2* %4 to %struct.ssdm_int*, !dbg !12662 ; [#uses=1 type=%struct.ssdm_int*] [debug line = 1887:145]
  %6 = getelementptr inbounds %struct.ssdm_int* %5, i32 0, i32 0, !dbg !12662 ; [#uses=1 type=i32*] [debug line = 1887:145]
  %7 = load i32* %6, align 4, !dbg !12662         ; [#uses=1 type=i32] [debug line = 1887:145]
  %8 = bitcast %struct.ap_int_base* %3 to %struct.ssdm_int.0*, !dbg !12662 ; [#uses=1 type=%struct.ssdm_int.0*] [debug line = 1887:145]
  %9 = getelementptr inbounds %struct.ssdm_int.0* %8, i32 0, i32 0, !dbg !12662 ; [#uses=2 type=i6*] [debug line = 1887:145]
  %10 = load i6* %9, align 1, !dbg !12662         ; [#uses=1 type=i6] [debug line = 1887:145]
  %11 = zext i6 %10 to i32, !dbg !12662           ; [#uses=1 type=i32] [debug line = 1887:145]
  %12 = and i32 %11, %7, !dbg !12662              ; [#uses=1 type=i32] [debug line = 1887:145]
  %13 = trunc i32 %12 to i6, !dbg !12662          ; [#uses=1 type=i6] [debug line = 1887:145]
  store i6 %13, i6* %9, align 1, !dbg !12662      ; [debug line = 1887:145]
  ret %struct.ap_int_base* %3, !dbg !12664        ; [debug line = 1887:163]
}

; [#uses=1]
define internal void @_ZN11ap_int_baseILi32ELb1ELb1EEC1Ei(%struct.ap_int_base.2* %this, i32 %op) unnamed_addr nounwind uwtable inlinehint alwaysinline align 2 {
  %1 = alloca %struct.ap_int_base.2*, align 8     ; [#uses=2 type=%struct.ap_int_base.2**]
  %2 = alloca i32, align 4                        ; [#uses=2 type=i32*]
  store %struct.ap_int_base.2* %this, %struct.ap_int_base.2** %1, align 8
  call void @llvm.dbg.declare(metadata !{%struct.ap_int_base.2** %1}, metadata !12665), !dbg !12667 ; [debug line = 1521:50] [debug variable = this]
  store i32 %op, i32* %2, align 4
  call void @llvm.dbg.declare(metadata !{i32* %2}, metadata !12668), !dbg !12669 ; [debug line = 1521:66] [debug variable = op]
  %3 = load %struct.ap_int_base.2** %1            ; [#uses=1 type=%struct.ap_int_base.2*]
  %4 = load i32* %2, align 4, !dbg !12670         ; [#uses=1 type=i32] [debug line = 1521:86]
  call void @_ZN11ap_int_baseILi32ELb1ELb1EEC2Ei(%struct.ap_int_base.2* %3, i32 %4), !dbg !12670 ; [debug line = 1521:86]
  ret void, !dbg !12670                           ; [debug line = 1521:86]
}

; [#uses=1]
define internal void @_ZN11ap_int_baseILi32ELb1ELb1EEC2Ei(%struct.ap_int_base.2* %this, i32 %op) unnamed_addr nounwind uwtable inlinehint alwaysinline align 2 {
  %1 = alloca %struct.ap_int_base.2*, align 8     ; [#uses=2 type=%struct.ap_int_base.2**]
  %2 = alloca i32, align 4                        ; [#uses=2 type=i32*]
  store %struct.ap_int_base.2* %this, %struct.ap_int_base.2** %1, align 8
  call void @llvm.dbg.declare(metadata !{%struct.ap_int_base.2** %1}, metadata !12671), !dbg !12672 ; [debug line = 1521:50] [debug variable = this]
  store i32 %op, i32* %2, align 4
  call void @llvm.dbg.declare(metadata !{i32* %2}, metadata !12673), !dbg !12674 ; [debug line = 1521:66] [debug variable = op]
  %3 = load %struct.ap_int_base.2** %1            ; [#uses=2 type=%struct.ap_int_base.2*]
  %4 = bitcast %struct.ap_int_base.2* %3 to %struct.ssdm_int*, !dbg !12675 ; [#uses=1 type=%struct.ssdm_int*] [debug line = 1521:70]
  call void @_ZN8ssdm_intILi32ELb1EEC2Ev(%struct.ssdm_int* %4), !dbg !12675 ; [debug line = 1521:70]
  %5 = load i32* %2, align 4, !dbg !12676         ; [#uses=1 type=i32] [debug line = 1521:72]
  %6 = bitcast %struct.ap_int_base.2* %3 to %struct.ssdm_int*, !dbg !12676 ; [#uses=1 type=%struct.ssdm_int*] [debug line = 1521:72]
  %7 = getelementptr inbounds %struct.ssdm_int* %6, i32 0, i32 0, !dbg !12676 ; [#uses=1 type=i32*] [debug line = 1521:72]
  store i32 %5, i32* %7, align 4, !dbg !12676     ; [debug line = 1521:72]
  ret void, !dbg !12678                           ; [debug line = 1521:86]
}

; [#uses=1]
define internal void @_ZN8ssdm_intILi32ELb1EEC2Ev(%struct.ssdm_int* %this) unnamed_addr nounwind uwtable inlinehint alwaysinline align 2 {
  %1 = alloca %struct.ssdm_int*, align 8          ; [#uses=2 type=%struct.ssdm_int**]
  store %struct.ssdm_int* %this, %struct.ssdm_int** %1, align 8
  call void @llvm.dbg.declare(metadata !{%struct.ssdm_int** %1}, metadata !12679), !dbg !12681 ; [debug line = 34:137] [debug variable = this]
  %2 = load %struct.ssdm_int** %1                 ; [#uses=0 type=%struct.ssdm_int*]
  ret void, !dbg !12682                           ; [debug line = 34:171]
}

; [#uses=1]
define internal void @_ZN7ap_uintILi32EEC2ILi66ELi35ELb1EL9ap_q_mode5EL9ap_o_mode3ELi0EEERK13ap_fixed_baseIXT_EXT0_EXT1_EXT2_EXT3_EXT4_EE(%struct.ap_uint.1* %this, %struct.ap_fixed_base.3* %op) unnamed_addr nounwind uwtable inlinehint alwaysinline align 2 {
  %1 = alloca %struct.ap_uint.1*, align 8         ; [#uses=2 type=%struct.ap_uint.1**]
  %2 = alloca %struct.ap_fixed_base.3*, align 8   ; [#uses=2 type=%struct.ap_fixed_base.3**]
  store %struct.ap_uint.1* %this, %struct.ap_uint.1** %1, align 8
  call void @llvm.dbg.declare(metadata !{%struct.ap_uint.1** %1}, metadata !12684), !dbg !12685 ; [debug line = 243:41] [debug variable = this]
  store %struct.ap_fixed_base.3* %op, %struct.ap_fixed_base.3** %2, align 8
  call void @llvm.dbg.declare(metadata !{%struct.ap_fixed_base.3** %2}, metadata !12686), !dbg !12687 ; [debug line = 244:29] [debug variable = op]
  %3 = load %struct.ap_uint.1** %1                ; [#uses=1 type=%struct.ap_uint.1*]
  %4 = bitcast %struct.ap_uint.1* %3 to %struct.ap_int_base.2*, !dbg !12688 ; [#uses=1 type=%struct.ap_int_base.2*] [debug line = 244:42]
  %5 = load %struct.ap_fixed_base.3** %2, align 8, !dbg !12688 ; [#uses=1 type=%struct.ap_fixed_base.3*] [debug line = 244:42]
  call void @_ZN11ap_int_baseILi32ELb0ELb1EEC2ILi66ELi35ELb1EL9ap_q_mode5EL9ap_o_mode3ELi0EEERK13ap_fixed_baseIXT_EXT0_EXT1_EXT2_EXT3_EXT4_EE(%struct.ap_int_base.2* %4, %struct.ap_fixed_base.3* %5), !dbg !12688 ; [debug line = 244:42]
  ret void, !dbg !12689                           ; [debug line = 244:43]
}

; [#uses=1]
define internal void @_ZN11ap_int_baseILi32ELb0ELb1EEC2ILi66ELi35ELb1EL9ap_q_mode5EL9ap_o_mode3ELi0EEERK13ap_fixed_baseIXT_EXT0_EXT1_EXT2_EXT3_EXT4_EE(%struct.ap_int_base.2* %this, %struct.ap_fixed_base.3* %op) unnamed_addr nounwind uwtable inlinehint alwaysinline align 2 {
  %1 = alloca %struct.ap_int_base.2*, align 8     ; [#uses=2 type=%struct.ap_int_base.2**]
  %2 = alloca %struct.ap_fixed_base.3*, align 8   ; [#uses=2 type=%struct.ap_fixed_base.3**]
  %3 = alloca %struct.ap_int_base.22, align 8     ; [#uses=2 type=%struct.ap_int_base.22*]
  store %struct.ap_int_base.2* %this, %struct.ap_int_base.2** %1, align 8
  call void @llvm.dbg.declare(metadata !{%struct.ap_int_base.2** %1}, metadata !12691), !dbg !12692 ; [debug line = 1532:41] [debug variable = this]
  store %struct.ap_fixed_base.3* %op, %struct.ap_fixed_base.3** %2, align 8
  call void @llvm.dbg.declare(metadata !{%struct.ap_fixed_base.3** %2}, metadata !12693), !dbg !12694 ; [debug line = 1532:118] [debug variable = op]
  %4 = load %struct.ap_int_base.2** %1            ; [#uses=2 type=%struct.ap_int_base.2*]
  %5 = bitcast %struct.ap_int_base.2* %4 to %struct.ssdm_int*, !dbg !12695 ; [#uses=1 type=%struct.ssdm_int*] [debug line = 1532:122]
  call void @_ZN8ssdm_intILi32ELb0EEC2Ev(%struct.ssdm_int* %5), !dbg !12695 ; [debug line = 1532:122]
  %6 = load %struct.ap_fixed_base.3** %2, align 8, !dbg !12696 ; [#uses=1 type=%struct.ap_fixed_base.3*] [debug line = 1533:15]
  call void @_ZNK13ap_fixed_baseILi66ELi35ELb1EL9ap_q_mode5EL9ap_o_mode3ELi0EE14to_ap_int_baseEb(%struct.ap_int_base.22* sret %3, %struct.ap_fixed_base.3* %6, i1 zeroext true), !dbg !12696 ; [debug line = 1533:15]
  %7 = bitcast %struct.ap_int_base.22* %3 to %struct.ssdm_int.23*, !dbg !12696 ; [#uses=1 type=%struct.ssdm_int.23*] [debug line = 1533:15]
  %8 = getelementptr inbounds %struct.ssdm_int.23* %7, i32 0, i32 0, !dbg !12696 ; [#uses=1 type=i35*] [debug line = 1533:15]
  %9 = load i35* %8, align 8, !dbg !12696         ; [#uses=1 type=i35] [debug line = 1533:15]
  %10 = trunc i35 %9 to i32, !dbg !12696          ; [#uses=1 type=i32] [debug line = 1533:15]
  %11 = bitcast %struct.ap_int_base.2* %4 to %struct.ssdm_int*, !dbg !12696 ; [#uses=1 type=%struct.ssdm_int*] [debug line = 1533:15]
  %12 = getelementptr inbounds %struct.ssdm_int* %11, i32 0, i32 0, !dbg !12696 ; [#uses=1 type=i32*] [debug line = 1533:15]
  store i32 %10, i32* %12, align 4, !dbg !12696   ; [debug line = 1533:15]
  ret void, !dbg !12698                           ; [debug line = 1534:3]
}

; [#uses=4]
define internal void @_ZN8ssdm_intILi32ELb0EEC2Ev(%struct.ssdm_int* %this) unnamed_addr nounwind uwtable inlinehint alwaysinline align 2 {
  %1 = alloca %struct.ssdm_int*, align 8          ; [#uses=2 type=%struct.ssdm_int**]
  store %struct.ssdm_int* %this, %struct.ssdm_int** %1, align 8
  call void @llvm.dbg.declare(metadata !{%struct.ssdm_int** %1}, metadata !12699), !dbg !12701 ; [debug line = 34:0] [debug variable = this]
  %2 = load %struct.ssdm_int** %1                 ; [#uses=0 type=%struct.ssdm_int*]
  ret void, !dbg !12702                           ; [debug line = 34:0]
}

; [#uses=1]
define internal void @_ZNK13ap_fixed_baseILi66ELi35ELb1EL9ap_q_mode5EL9ap_o_mode3ELi0EE14to_ap_int_baseEb(%struct.ap_int_base.22* noalias sret %agg.result, %struct.ap_fixed_base.3* %this, i1 zeroext %Cnative) nounwind uwtable inlinehint alwaysinline align 2 {
  %1 = alloca %struct.ap_fixed_base.3*, align 8   ; [#uses=2 type=%struct.ap_fixed_base.3**]
  %2 = alloca i1, align 1                         ; [#uses=2 type=i1*]
  %__Result__ = alloca i66, align 8               ; [#uses=4 type=i66*]
  %__Val2__ = alloca i66, align 8                 ; [#uses=3 type=i66*]
  %__Result__1 = alloca i66, align 8              ; [#uses=4 type=i66*]
  %__Val2__2 = alloca i66, align 8                ; [#uses=3 type=i66*]
  %__Result__3 = alloca i66, align 8              ; [#uses=4 type=i66*]
  %__Val2__4 = alloca i66, align 8                ; [#uses=3 type=i66*]
  store %struct.ap_fixed_base.3* %this, %struct.ap_fixed_base.3** %1, align 8
  call void @llvm.dbg.declare(metadata !{%struct.ap_fixed_base.3** %1}, metadata !12704), !dbg !12706 ; [debug line = 1066:5] [debug variable = this]
  store i1 %Cnative, i1* %2, align 1
  call void @llvm.dbg.declare(metadata !{i1* %2}, metadata !12707), !dbg !12708 ; [debug line = 1066:25] [debug variable = Cnative]
  %3 = load %struct.ap_fixed_base.3** %1          ; [#uses=3 type=%struct.ap_fixed_base.3*]
  call void @llvm.dbg.declare(metadata !{%struct.ap_int_base.22* %agg.result}, metadata !12709), !dbg !12711 ; [debug line = 1069:60] [debug variable = ret]
  call void @_ZN11ap_int_baseILi35ELb1ELb1EEC1Ei(%struct.ap_int_base.22* %agg.result, i32 0), !dbg !12712 ; [debug line = 1069:66]
  call void @llvm.dbg.declare(metadata !{i66* %__Result__}, metadata !12713), !dbg !12715 ; [debug line = 1071:79] [debug variable = __Result__]
  store i66 0, i66* %__Result__, align 8, !dbg !12716 ; [debug line = 1071:93]
  call void @llvm.dbg.declare(metadata !{i66* %__Val2__}, metadata !12717), !dbg !12718 ; [debug line = 1071:150] [debug variable = __Val2__]
  %4 = bitcast %struct.ap_fixed_base.3* %3 to %struct.ssdm_int.4*, !dbg !12719 ; [#uses=1 type=%struct.ssdm_int.4*] [debug line = 1071:203]
  %5 = getelementptr inbounds %struct.ssdm_int.4* %4, i32 0, i32 0, !dbg !12719 ; [#uses=1 type=i66*] [debug line = 1071:203]
  %6 = load i66* %5, align 8, !dbg !12719         ; [#uses=1 type=i66] [debug line = 1071:203]
  store i66 %6, i66* %__Val2__, align 8, !dbg !12719 ; [debug line = 1071:203]
  %7 = bitcast i66* %__Result__ to i8*, !dbg !12720 ; [#uses=0 type=i8*] [debug line = 1071:205]
  %8 = bitcast i66* %__Val2__ to i8*, !dbg !12720 ; [#uses=0 type=i8*] [debug line = 1071:205]
  %9 = load i66* %__Val2__, !dbg !12720           ; [#uses=1 type=i66] [debug line = 1071:205]
  %10 = call i66 @llvm.part.select.i66(i66 %9, i32 31, i32 65), !dbg !12720 ; [#uses=1 type=i66] [debug line = 1071:205]
  store i66 %10, i66* %__Result__, !dbg !12720    ; [debug line = 1071:205]
  %11 = load i66* %__Result__, align 8, !dbg !12720 ; [#uses=1 type=i66] [debug line = 1071:205]
  %12 = trunc i66 %11 to i35, !dbg !12721         ; [#uses=1 type=i35] [debug line = 1071:0]
  %13 = bitcast %struct.ap_int_base.22* %agg.result to %struct.ssdm_int.23*, !dbg !12721 ; [#uses=1 type=%struct.ssdm_int.23*] [debug line = 1071:0]
  %14 = getelementptr inbounds %struct.ssdm_int.23* %13, i32 0, i32 0, !dbg !12721 ; [#uses=1 type=i35*] [debug line = 1071:0]
  store i35 %12, i35* %14, align 8, !dbg !12721   ; [debug line = 1071:0]
  %15 = load i1* %2, align 1, !dbg !12722         ; [#uses=1 type=i1] [debug line = 1081:9]
  br i1 %15, label %16, label %43, !dbg !12722    ; [debug line = 1081:9]

; <label>:16                                      ; preds = %0
  call void @llvm.dbg.declare(metadata !{i66* %__Result__1}, metadata !12723), !dbg !12726 ; [debug line = 1083:84] [debug variable = __Result__]
  store i66 0, i66* %__Result__1, align 8, !dbg !12727 ; [debug line = 1083:98]
  call void @llvm.dbg.declare(metadata !{i66* %__Val2__2}, metadata !12728), !dbg !12729 ; [debug line = 1083:155] [debug variable = __Val2__]
  %17 = bitcast %struct.ap_fixed_base.3* %3 to %struct.ssdm_int.4*, !dbg !12730 ; [#uses=1 type=%struct.ssdm_int.4*] [debug line = 1083:208]
  %18 = getelementptr inbounds %struct.ssdm_int.4* %17, i32 0, i32 0, !dbg !12730 ; [#uses=1 type=i66*] [debug line = 1083:208]
  %19 = load i66* %18, align 8, !dbg !12730       ; [#uses=1 type=i66] [debug line = 1083:208]
  store i66 %19, i66* %__Val2__2, align 8, !dbg !12730 ; [debug line = 1083:208]
  %20 = bitcast i66* %__Result__1 to i8*, !dbg !12731 ; [#uses=0 type=i8*] [debug line = 1083:210]
  %21 = bitcast i66* %__Val2__2 to i8*, !dbg !12731 ; [#uses=0 type=i8*] [debug line = 1083:210]
  %22 = load i66* %__Val2__2, !dbg !12731         ; [#uses=1 type=i66] [debug line = 1083:210]
  %23 = call i66 @llvm.part.select.i66(i66 %22, i32 65, i32 65), !dbg !12731 ; [#uses=1 type=i66] [debug line = 1083:210]
  store i66 %23, i66* %__Result__1, !dbg !12731   ; [debug line = 1083:210]
  %24 = load i66* %__Result__1, align 8, !dbg !12731 ; [#uses=1 type=i66] [debug line = 1083:210]
  %25 = and i66 %24, 1, !dbg !12731               ; [#uses=1 type=i66] [debug line = 1083:210]
  %26 = icmp ne i66 %25, 0, !dbg !12731           ; [#uses=1 type=i1] [debug line = 1083:210]
  br i1 %26, label %27, label %42, !dbg !12732    ; [debug line = 1083:0]

; <label>:27                                      ; preds = %16
  call void @llvm.dbg.declare(metadata !{i66* %__Result__3}, metadata !12733), !dbg !12735 ; [debug line = 1085:97] [debug variable = __Result__]
  store i66 0, i66* %__Result__3, align 8, !dbg !12736 ; [debug line = 1085:111]
  call void @llvm.dbg.declare(metadata !{i66* %__Val2__4}, metadata !12737), !dbg !12738 ; [debug line = 1085:167] [debug variable = __Val2__]
  %28 = bitcast %struct.ap_fixed_base.3* %3 to %struct.ssdm_int.4*, !dbg !12739 ; [#uses=1 type=%struct.ssdm_int.4*] [debug line = 1085:219]
  %29 = getelementptr inbounds %struct.ssdm_int.4* %28, i32 0, i32 0, !dbg !12739 ; [#uses=1 type=i66*] [debug line = 1085:219]
  %30 = load i66* %29, align 8, !dbg !12739       ; [#uses=1 type=i66] [debug line = 1085:219]
  store i66 %30, i66* %__Val2__4, align 8, !dbg !12739 ; [debug line = 1085:219]
  %31 = bitcast i66* %__Result__3 to i8*, !dbg !12740 ; [#uses=0 type=i8*] [debug line = 1085:221]
  %32 = bitcast i66* %__Val2__4 to i8*, !dbg !12740 ; [#uses=0 type=i8*] [debug line = 1085:221]
  %33 = load i66* %__Val2__4, !dbg !12740         ; [#uses=1 type=i66] [debug line = 1085:221]
  %34 = call i66 @llvm.part.select.i66(i66 %33, i32 0, i32 30), !dbg !12740 ; [#uses=1 type=i66] [debug line = 1085:221]
  store i66 %34, i66* %__Result__3, !dbg !12740   ; [debug line = 1085:221]
  %35 = load i66* %__Result__3, align 8, !dbg !12740 ; [#uses=1 type=i66] [debug line = 1085:221]
  %36 = icmp ne i66 %35, 0, !dbg !12741           ; [#uses=1 type=i1] [debug line = 1085:0]
  br i1 %36, label %37, label %42, !dbg !12741    ; [debug line = 1085:0]

; <label>:37                                      ; preds = %27
  %38 = bitcast %struct.ap_int_base.22* %agg.result to %struct.ssdm_int.23*, !dbg !12742 ; [#uses=1 type=%struct.ssdm_int.23*] [debug line = 1088:17]
  %39 = getelementptr inbounds %struct.ssdm_int.23* %38, i32 0, i32 0, !dbg !12742 ; [#uses=2 type=i35*] [debug line = 1088:17]
  %40 = load i35* %39, align 8, !dbg !12742       ; [#uses=1 type=i35] [debug line = 1088:17]
  %41 = add nsw i35 %40, 1, !dbg !12742           ; [#uses=1 type=i35] [debug line = 1088:17]
  store i35 %41, i35* %39, align 8, !dbg !12742   ; [debug line = 1088:17]
  br label %42, !dbg !12742                       ; [debug line = 1088:17]

; <label>:42                                      ; preds = %37, %27, %16
  br label %44, !dbg !12743                       ; [debug line = 1089:9]

; <label>:43                                      ; preds = %0
  br label %44

; <label>:44                                      ; preds = %43, %42
  ret void, !dbg !12744                           ; [debug line = 1092:9]
}

; [#uses=1]
define internal void @_ZN11ap_int_baseILi35ELb1ELb1EEC1Ei(%struct.ap_int_base.22* %this, i32 %op) unnamed_addr nounwind uwtable inlinehint alwaysinline align 2 {
  %1 = alloca %struct.ap_int_base.22*, align 8    ; [#uses=2 type=%struct.ap_int_base.22**]
  %2 = alloca i32, align 4                        ; [#uses=2 type=i32*]
  store %struct.ap_int_base.22* %this, %struct.ap_int_base.22** %1, align 8
  call void @llvm.dbg.declare(metadata !{%struct.ap_int_base.22** %1}, metadata !12745), !dbg !12747 ; [debug line = 1521:50] [debug variable = this]
  store i32 %op, i32* %2, align 4
  call void @llvm.dbg.declare(metadata !{i32* %2}, metadata !12748), !dbg !12749 ; [debug line = 1521:66] [debug variable = op]
  %3 = load %struct.ap_int_base.22** %1           ; [#uses=1 type=%struct.ap_int_base.22*]
  %4 = load i32* %2, align 4, !dbg !12750         ; [#uses=1 type=i32] [debug line = 1521:86]
  call void @_ZN11ap_int_baseILi35ELb1ELb1EEC2Ei(%struct.ap_int_base.22* %3, i32 %4), !dbg !12750 ; [debug line = 1521:86]
  ret void, !dbg !12750                           ; [debug line = 1521:86]
}

; [#uses=3]
declare i66 @llvm.part.select.i66(i66, i32, i32) nounwind readnone

; [#uses=1]
define internal void @_ZN11ap_int_baseILi35ELb1ELb1EEC2Ei(%struct.ap_int_base.22* %this, i32 %op) unnamed_addr nounwind uwtable inlinehint alwaysinline align 2 {
  %1 = alloca %struct.ap_int_base.22*, align 8    ; [#uses=2 type=%struct.ap_int_base.22**]
  %2 = alloca i32, align 4                        ; [#uses=2 type=i32*]
  store %struct.ap_int_base.22* %this, %struct.ap_int_base.22** %1, align 8
  call void @llvm.dbg.declare(metadata !{%struct.ap_int_base.22** %1}, metadata !12751), !dbg !12752 ; [debug line = 1521:50] [debug variable = this]
  store i32 %op, i32* %2, align 4
  call void @llvm.dbg.declare(metadata !{i32* %2}, metadata !12753), !dbg !12754 ; [debug line = 1521:66] [debug variable = op]
  %3 = load %struct.ap_int_base.22** %1           ; [#uses=2 type=%struct.ap_int_base.22*]
  %4 = bitcast %struct.ap_int_base.22* %3 to %struct.ssdm_int.23*, !dbg !12755 ; [#uses=1 type=%struct.ssdm_int.23*] [debug line = 1521:70]
  call void @_ZN8ssdm_intILi35ELb1EEC2Ev(%struct.ssdm_int.23* %4), !dbg !12755 ; [debug line = 1521:70]
  %5 = load i32* %2, align 4, !dbg !12756         ; [#uses=1 type=i32] [debug line = 1521:72]
  %6 = sext i32 %5 to i35, !dbg !12756            ; [#uses=1 type=i35] [debug line = 1521:72]
  %7 = bitcast %struct.ap_int_base.22* %3 to %struct.ssdm_int.23*, !dbg !12756 ; [#uses=1 type=%struct.ssdm_int.23*] [debug line = 1521:72]
  %8 = getelementptr inbounds %struct.ssdm_int.23* %7, i32 0, i32 0, !dbg !12756 ; [#uses=1 type=i35*] [debug line = 1521:72]
  store i35 %6, i35* %8, align 8, !dbg !12756     ; [debug line = 1521:72]
  ret void, !dbg !12758                           ; [debug line = 1521:86]
}

; [#uses=1]
define internal void @_ZN8ssdm_intILi35ELb1EEC2Ev(%struct.ssdm_int.23* %this) unnamed_addr nounwind uwtable inlinehint alwaysinline align 2 {
  %1 = alloca %struct.ssdm_int.23*, align 8       ; [#uses=2 type=%struct.ssdm_int.23**]
  store %struct.ssdm_int.23* %this, %struct.ssdm_int.23** %1, align 8
  call void @llvm.dbg.declare(metadata !{%struct.ssdm_int.23** %1}, metadata !12759), !dbg !12761 ; [debug line = 37:137] [debug variable = this]
  %2 = load %struct.ssdm_int.23** %1              ; [#uses=0 type=%struct.ssdm_int.23*]
  ret void, !dbg !12762                           ; [debug line = 37:171]
}

; [#uses=1]
define internal void @_ZNK13ap_fixed_baseILi65ELi34ELb1EL9ap_q_mode5EL9ap_o_mode3ELi0EEplILi32ELi32ELb0ELS0_5ELS1_3ELi0EEENS2_5RTypeIXT_EXT0_EXT1_EE4plusERKS_IXT_EXT0_EXT1_EXT2_EXT3_EXT4_EE(%struct.ap_fixed_base.3* noalias sret %agg.result, %struct.ap_fixed_base.5* %this, %struct.ap_int_base.2* %op2) nounwind uwtable inlinehint alwaysinline align 2 {
  %1 = alloca %struct.ap_fixed_base.5*, align 8   ; [#uses=2 type=%struct.ap_fixed_base.5**]
  %2 = alloca %struct.ap_int_base.2*, align 8     ; [#uses=2 type=%struct.ap_int_base.2**]
  %lhs = alloca %struct.ap_fixed_base.3, align 8  ; [#uses=2 type=%struct.ap_fixed_base.3*]
  %rhs = alloca %struct.ap_fixed_base.3, align 8  ; [#uses=2 type=%struct.ap_fixed_base.3*]
  store %struct.ap_fixed_base.5* %this, %struct.ap_fixed_base.5** %1, align 8
  call void @llvm.dbg.declare(metadata !{%struct.ap_fixed_base.5** %1}, metadata !12764), !dbg !12766 ; [debug line = 1400:177] [debug variable = this]
  store %struct.ap_int_base.2* %op2, %struct.ap_int_base.2** %2, align 8
  call void @llvm.dbg.declare(metadata !{%struct.ap_int_base.2** %2}, metadata !12767), !dbg !12768 ; [debug line = 1400:254] [debug variable = op2]
  %3 = load %struct.ap_fixed_base.5** %1          ; [#uses=1 type=%struct.ap_fixed_base.5*]
  call void @llvm.dbg.declare(metadata !{%struct.ap_fixed_base.3* %agg.result}, metadata !12769), !dbg !12772 ; [debug line = 1400:0] [debug variable = r]
  call void @_ZN13ap_fixed_baseILi66ELi35ELb1EL9ap_q_mode5EL9ap_o_mode3ELi0EEC1Ev(%struct.ap_fixed_base.3* %agg.result), !dbg !12772 ; [debug line = 1400:0]
  call void @llvm.dbg.declare(metadata !{%struct.ap_fixed_base.3* %lhs}, metadata !12773), !dbg !12772 ; [debug line = 1400:0] [debug variable = lhs]
  call void @_ZN13ap_fixed_baseILi66ELi35ELb1EL9ap_q_mode5EL9ap_o_mode3ELi0EEC1ILi65ELi34ELb1ELS0_5ELS1_3ELi0EEERKS_IXT_EXT0_EXT1_EXT2_EXT3_EXT4_EE(%struct.ap_fixed_base.3* %lhs, %struct.ap_fixed_base.5* %3), !dbg !12772 ; [debug line = 1400:0]
  call void @llvm.dbg.declare(metadata !{%struct.ap_fixed_base.3* %rhs}, metadata !12774), !dbg !12772 ; [debug line = 1400:0] [debug variable = rhs]
  %4 = load %struct.ap_int_base.2** %2, align 8, !dbg !12772 ; [#uses=1 type=%struct.ap_int_base.2*] [debug line = 1400:0]
  call void @_ZN13ap_fixed_baseILi66ELi35ELb1EL9ap_q_mode5EL9ap_o_mode3ELi0EEC1ILi32ELi32ELb0ELS0_5ELS1_3ELi0EEERKS_IXT_EXT0_EXT1_EXT2_EXT3_EXT4_EE(%struct.ap_fixed_base.3* %rhs, %struct.ap_int_base.2* %4), !dbg !12772 ; [debug line = 1400:0]
  %5 = bitcast %struct.ap_fixed_base.3* %lhs to %struct.ssdm_int.4*, !dbg !12772 ; [#uses=1 type=%struct.ssdm_int.4*] [debug line = 1400:0]
  %6 = getelementptr inbounds %struct.ssdm_int.4* %5, i32 0, i32 0, !dbg !12772 ; [#uses=1 type=i66*] [debug line = 1400:0]
  %7 = load i66* %6, align 8, !dbg !12772         ; [#uses=1 type=i66] [debug line = 1400:0]
  %8 = bitcast %struct.ap_fixed_base.3* %rhs to %struct.ssdm_int.4*, !dbg !12772 ; [#uses=1 type=%struct.ssdm_int.4*] [debug line = 1400:0]
  %9 = getelementptr inbounds %struct.ssdm_int.4* %8, i32 0, i32 0, !dbg !12772 ; [#uses=1 type=i66*] [debug line = 1400:0]
  %10 = load i66* %9, align 8, !dbg !12772        ; [#uses=1 type=i66] [debug line = 1400:0]
  %11 = add nsw i66 %7, %10, !dbg !12772          ; [#uses=1 type=i66] [debug line = 1400:0]
  %12 = bitcast %struct.ap_fixed_base.3* %agg.result to %struct.ssdm_int.4*, !dbg !12772 ; [#uses=1 type=%struct.ssdm_int.4*] [debug line = 1400:0]
  %13 = getelementptr inbounds %struct.ssdm_int.4* %12, i32 0, i32 0, !dbg !12772 ; [#uses=1 type=i66*] [debug line = 1400:0]
  store i66 %11, i66* %13, align 8, !dbg !12772   ; [debug line = 1400:0]
  ret void, !dbg !12772                           ; [debug line = 1400:0]
}

; [#uses=1]
define internal void @_ZN13ap_fixed_baseILi32ELi32ELb0EL9ap_q_mode5EL9ap_o_mode3ELi0EEC1ILi32ELb0EEERK11ap_int_baseIXT_EXT0_EXleT_Li64EEE(%struct.ap_int_base.2* %this, %struct.ap_int_base.2* %op) unnamed_addr nounwind uwtable inlinehint alwaysinline align 2 {
  %1 = alloca %struct.ap_int_base.2*, align 8     ; [#uses=2 type=%struct.ap_int_base.2**]
  %2 = alloca %struct.ap_int_base.2*, align 8     ; [#uses=2 type=%struct.ap_int_base.2**]
  store %struct.ap_int_base.2* %this, %struct.ap_int_base.2** %1, align 8
  call void @llvm.dbg.declare(metadata !{%struct.ap_int_base.2** %1}, metadata !12775), !dbg !12777 ; [debug line = 782:43] [debug variable = this]
  store %struct.ap_int_base.2* %op, %struct.ap_int_base.2** %2, align 8
  call void @llvm.dbg.declare(metadata !{%struct.ap_int_base.2** %2}, metadata !12778), !dbg !12779 ; [debug line = 782:92] [debug variable = op]
  %3 = load %struct.ap_int_base.2** %1            ; [#uses=1 type=%struct.ap_int_base.2*]
  %4 = load %struct.ap_int_base.2** %2, !dbg !12780 ; [#uses=1 type=%struct.ap_int_base.2*] [debug line = 787:5]
  call void @_ZN13ap_fixed_baseILi32ELi32ELb0EL9ap_q_mode5EL9ap_o_mode3ELi0EEC2ILi32ELb0EEERK11ap_int_baseIXT_EXT0_EXleT_Li64EEE(%struct.ap_int_base.2* %3, %struct.ap_int_base.2* %4), !dbg !12780 ; [debug line = 787:5]
  ret void, !dbg !12780                           ; [debug line = 787:5]
}

; [#uses=1]
define internal void @_ZN13ap_fixed_baseILi32ELi32ELb0EL9ap_q_mode5EL9ap_o_mode3ELi0EEC2ILi32ELb0EEERK11ap_int_baseIXT_EXT0_EXleT_Li64EEE(%struct.ap_int_base.2* %this, %struct.ap_int_base.2* %op) unnamed_addr nounwind uwtable inlinehint alwaysinline align 2 {
  %1 = alloca %struct.ap_int_base.2*, align 8     ; [#uses=2 type=%struct.ap_int_base.2**]
  %2 = alloca %struct.ap_int_base.2*, align 8     ; [#uses=2 type=%struct.ap_int_base.2**]
  %f_op = alloca %struct.ap_int_base.2, align 4   ; [#uses=3 type=%struct.ap_int_base.2*]
  store %struct.ap_int_base.2* %this, %struct.ap_int_base.2** %1, align 8
  call void @llvm.dbg.declare(metadata !{%struct.ap_int_base.2** %1}, metadata !12781), !dbg !12782 ; [debug line = 782:43] [debug variable = this]
  store %struct.ap_int_base.2* %op, %struct.ap_int_base.2** %2, align 8
  call void @llvm.dbg.declare(metadata !{%struct.ap_int_base.2** %2}, metadata !12783), !dbg !12784 ; [debug line = 782:92] [debug variable = op]
  %3 = load %struct.ap_int_base.2** %1            ; [#uses=2 type=%struct.ap_int_base.2*]
  %4 = bitcast %struct.ap_int_base.2* %3 to %struct.ssdm_int*, !dbg !12785 ; [#uses=1 type=%struct.ssdm_int*] [debug line = 782:96]
  call void @_ZN8ssdm_intILi32ELb0EEC2Ev(%struct.ssdm_int* %4), !dbg !12785 ; [debug line = 782:96]
  call void @llvm.dbg.declare(metadata !{%struct.ap_int_base.2* %f_op}, metadata !12786), !dbg !12788 ; [debug line = 784:45] [debug variable = f_op]
  call void @_ZN13ap_fixed_baseILi32ELi32ELb0EL9ap_q_mode5EL9ap_o_mode3ELi0EEC1Ev(%struct.ap_int_base.2* %f_op), !dbg !12789 ; [debug line = 784:49]
  %5 = load %struct.ap_int_base.2** %2, align 8, !dbg !12790 ; [#uses=1 type=%struct.ap_int_base.2*] [debug line = 785:9]
  %6 = bitcast %struct.ap_int_base.2* %5 to %struct.ssdm_int*, !dbg !12790 ; [#uses=1 type=%struct.ssdm_int*] [debug line = 785:9]
  %7 = getelementptr inbounds %struct.ssdm_int* %6, i32 0, i32 0, !dbg !12790 ; [#uses=1 type=i32*] [debug line = 785:9]
  %8 = load i32* %7, align 4, !dbg !12790         ; [#uses=1 type=i32] [debug line = 785:9]
  %9 = bitcast %struct.ap_int_base.2* %f_op to %struct.ssdm_int*, !dbg !12790 ; [#uses=1 type=%struct.ssdm_int*] [debug line = 785:9]
  %10 = getelementptr inbounds %struct.ssdm_int* %9, i32 0, i32 0, !dbg !12790 ; [#uses=1 type=i32*] [debug line = 785:9]
  store i32 %8, i32* %10, align 4, !dbg !12790    ; [debug line = 785:9]
  %11 = call %struct.ap_int_base.2* @_ZN13ap_fixed_baseILi32ELi32ELb0EL9ap_q_mode5EL9ap_o_mode3ELi0EEaSERKS2_(%struct.ap_int_base.2* %3, %struct.ap_int_base.2* %f_op), !dbg !12791 ; [#uses=0 type=%struct.ap_int_base.2*] [debug line = 786:9]
  ret void, !dbg !12792                           ; [debug line = 787:5]
}

; [#uses=1]
define internal void @_ZN13ap_fixed_baseILi32ELi32ELb0EL9ap_q_mode5EL9ap_o_mode3ELi0EEC1Ev(%struct.ap_int_base.2* %this) unnamed_addr nounwind uwtable inlinehint alwaysinline align 2 {
  %1 = alloca %struct.ap_int_base.2*, align 8     ; [#uses=2 type=%struct.ap_int_base.2**]
  store %struct.ap_int_base.2* %this, %struct.ap_int_base.2** %1, align 8
  call void @llvm.dbg.declare(metadata !{%struct.ap_int_base.2** %1}, metadata !12793), !dbg !12794 ; [debug line = 653:43] [debug variable = this]
  %2 = load %struct.ap_int_base.2** %1            ; [#uses=1 type=%struct.ap_int_base.2*]
  call void @_ZN13ap_fixed_baseILi32ELi32ELb0EL9ap_q_mode5EL9ap_o_mode3ELi0EEC2Ev(%struct.ap_int_base.2* %2), !dbg !12795 ; [debug line = 660:5]
  ret void, !dbg !12795                           ; [debug line = 660:5]
}

; [#uses=1]
define internal %struct.ap_int_base.2* @_ZN13ap_fixed_baseILi32ELi32ELb0EL9ap_q_mode5EL9ap_o_mode3ELi0EEaSERKS2_(%struct.ap_int_base.2* %this, %struct.ap_int_base.2* %op) nounwind uwtable inlinehint alwaysinline align 2 {
  %1 = alloca %struct.ap_int_base.2*, align 8     ; [#uses=2 type=%struct.ap_int_base.2**]
  %2 = alloca %struct.ap_int_base.2*, align 8     ; [#uses=2 type=%struct.ap_int_base.2**]
  store %struct.ap_int_base.2* %this, %struct.ap_int_base.2** %1, align 8
  call void @llvm.dbg.declare(metadata !{%struct.ap_int_base.2** %1}, metadata !12796), !dbg !12797 ; [debug line = 1022:58] [debug variable = this]
  store %struct.ap_int_base.2* %op, %struct.ap_int_base.2** %2, align 8
  call void @llvm.dbg.declare(metadata !{%struct.ap_int_base.2** %2}, metadata !12798), !dbg !12799 ; [debug line = 1023:63] [debug variable = op]
  %3 = load %struct.ap_int_base.2** %1            ; [#uses=2 type=%struct.ap_int_base.2*]
  %4 = load %struct.ap_int_base.2** %2, align 8, !dbg !12800 ; [#uses=1 type=%struct.ap_int_base.2*] [debug line = 1025:9]
  %5 = bitcast %struct.ap_int_base.2* %4 to %struct.ssdm_int*, !dbg !12800 ; [#uses=1 type=%struct.ssdm_int*] [debug line = 1025:9]
  %6 = getelementptr inbounds %struct.ssdm_int* %5, i32 0, i32 0, !dbg !12800 ; [#uses=1 type=i32*] [debug line = 1025:9]
  %7 = load i32* %6, align 4, !dbg !12800         ; [#uses=1 type=i32] [debug line = 1025:9]
  %8 = bitcast %struct.ap_int_base.2* %3 to %struct.ssdm_int*, !dbg !12800 ; [#uses=1 type=%struct.ssdm_int*] [debug line = 1025:9]
  %9 = getelementptr inbounds %struct.ssdm_int* %8, i32 0, i32 0, !dbg !12800 ; [#uses=1 type=i32*] [debug line = 1025:9]
  store i32 %7, i32* %9, align 4, !dbg !12800     ; [debug line = 1025:9]
  ret %struct.ap_int_base.2* %3, !dbg !12802      ; [debug line = 1026:9]
}

; [#uses=1]
define internal void @_ZN13ap_fixed_baseILi32ELi32ELb0EL9ap_q_mode5EL9ap_o_mode3ELi0EEC2Ev(%struct.ap_int_base.2* %this) unnamed_addr nounwind uwtable inlinehint alwaysinline align 2 {
  %1 = alloca %struct.ap_int_base.2*, align 8     ; [#uses=2 type=%struct.ap_int_base.2**]
  store %struct.ap_int_base.2* %this, %struct.ap_int_base.2** %1, align 8
  call void @llvm.dbg.declare(metadata !{%struct.ap_int_base.2** %1}, metadata !12803), !dbg !12804 ; [debug line = 653:43] [debug variable = this]
  %2 = load %struct.ap_int_base.2** %1            ; [#uses=1 type=%struct.ap_int_base.2*]
  %3 = bitcast %struct.ap_int_base.2* %2 to %struct.ssdm_int*, !dbg !12805 ; [#uses=1 type=%struct.ssdm_int*] [debug line = 653:59]
  call void @_ZN8ssdm_intILi32ELb0EEC2Ev(%struct.ssdm_int* %3), !dbg !12805 ; [debug line = 653:59]
  ret void, !dbg !12806                           ; [debug line = 660:5]
}

; [#uses=1]
define internal void @_ZN13ap_fixed_baseILi66ELi35ELb1EL9ap_q_mode5EL9ap_o_mode3ELi0EEC1Ev(%struct.ap_fixed_base.3* %this) unnamed_addr nounwind uwtable inlinehint alwaysinline align 2 {
  %1 = alloca %struct.ap_fixed_base.3*, align 8   ; [#uses=2 type=%struct.ap_fixed_base.3**]
  store %struct.ap_fixed_base.3* %this, %struct.ap_fixed_base.3** %1, align 8
  call void @llvm.dbg.declare(metadata !{%struct.ap_fixed_base.3** %1}, metadata !12808), !dbg !12810 ; [debug line = 653:43] [debug variable = this]
  %2 = load %struct.ap_fixed_base.3** %1          ; [#uses=1 type=%struct.ap_fixed_base.3*]
  call void @_ZN13ap_fixed_baseILi66ELi35ELb1EL9ap_q_mode5EL9ap_o_mode3ELi0EEC2Ev(%struct.ap_fixed_base.3* %2), !dbg !12811 ; [debug line = 660:5]
  ret void, !dbg !12811                           ; [debug line = 660:5]
}

; [#uses=1]
define internal void @_ZN13ap_fixed_baseILi66ELi35ELb1EL9ap_q_mode5EL9ap_o_mode3ELi0EEC1ILi65ELi34ELb1ELS0_5ELS1_3ELi0EEERKS_IXT_EXT0_EXT1_EXT2_EXT3_EXT4_EE(%struct.ap_fixed_base.3* %this, %struct.ap_fixed_base.5* %op) unnamed_addr nounwind uwtable align 2 {
  %1 = alloca %struct.ap_fixed_base.3*, align 8   ; [#uses=2 type=%struct.ap_fixed_base.3**]
  %2 = alloca %struct.ap_fixed_base.5*, align 8   ; [#uses=2 type=%struct.ap_fixed_base.5**]
  store %struct.ap_fixed_base.3* %this, %struct.ap_fixed_base.3** %1, align 8
  call void @llvm.dbg.declare(metadata !{%struct.ap_fixed_base.3** %1}, metadata !12812), !dbg !12813 ; [debug line = 663:13] [debug variable = this]
  store %struct.ap_fixed_base.5* %op, %struct.ap_fixed_base.5** %2, align 8
  call void @llvm.dbg.declare(metadata !{%struct.ap_fixed_base.5** %2}, metadata !12814), !dbg !12815 ; [debug line = 663:93] [debug variable = op]
  %3 = load %struct.ap_fixed_base.3** %1          ; [#uses=1 type=%struct.ap_fixed_base.3*]
  %4 = load %struct.ap_fixed_base.5** %2, !dbg !12816 ; [#uses=1 type=%struct.ap_fixed_base.5*] [debug line = 773:5]
  call void @_ZN13ap_fixed_baseILi66ELi35ELb1EL9ap_q_mode5EL9ap_o_mode3ELi0EEC2ILi65ELi34ELb1ELS0_5ELS1_3ELi0EEERKS_IXT_EXT0_EXT1_EXT2_EXT3_EXT4_EE(%struct.ap_fixed_base.3* %3, %struct.ap_fixed_base.5* %4), !dbg !12816 ; [debug line = 773:5]
  ret void, !dbg !12816                           ; [debug line = 773:5]
}

; [#uses=1]
define internal void @_ZN13ap_fixed_baseILi66ELi35ELb1EL9ap_q_mode5EL9ap_o_mode3ELi0EEC1ILi32ELi32ELb0ELS0_5ELS1_3ELi0EEERKS_IXT_EXT0_EXT1_EXT2_EXT3_EXT4_EE(%struct.ap_fixed_base.3* %this, %struct.ap_int_base.2* %op) unnamed_addr nounwind uwtable align 2 {
  %1 = alloca %struct.ap_fixed_base.3*, align 8   ; [#uses=2 type=%struct.ap_fixed_base.3**]
  %2 = alloca %struct.ap_int_base.2*, align 8     ; [#uses=2 type=%struct.ap_int_base.2**]
  store %struct.ap_fixed_base.3* %this, %struct.ap_fixed_base.3** %1, align 8
  call void @llvm.dbg.declare(metadata !{%struct.ap_fixed_base.3** %1}, metadata !12817), !dbg !12818 ; [debug line = 663:13] [debug variable = this]
  store %struct.ap_int_base.2* %op, %struct.ap_int_base.2** %2, align 8
  call void @llvm.dbg.declare(metadata !{%struct.ap_int_base.2** %2}, metadata !12819), !dbg !12820 ; [debug line = 663:93] [debug variable = op]
  %3 = load %struct.ap_fixed_base.3** %1          ; [#uses=1 type=%struct.ap_fixed_base.3*]
  %4 = load %struct.ap_int_base.2** %2, !dbg !12821 ; [#uses=1 type=%struct.ap_int_base.2*] [debug line = 773:5]
  call void @_ZN13ap_fixed_baseILi66ELi35ELb1EL9ap_q_mode5EL9ap_o_mode3ELi0EEC2ILi32ELi32ELb0ELS0_5ELS1_3ELi0EEERKS_IXT_EXT0_EXT1_EXT2_EXT3_EXT4_EE(%struct.ap_fixed_base.3* %3, %struct.ap_int_base.2* %4), !dbg !12821 ; [debug line = 773:5]
  ret void, !dbg !12821                           ; [debug line = 773:5]
}

; [#uses=1]
define internal void @_ZN13ap_fixed_baseILi66ELi35ELb1EL9ap_q_mode5EL9ap_o_mode3ELi0EEC2ILi32ELi32ELb0ELS0_5ELS1_3ELi0EEERKS_IXT_EXT0_EXT1_EXT2_EXT3_EXT4_EE(%struct.ap_fixed_base.3* %this, %struct.ap_int_base.2* %op) unnamed_addr nounwind uwtable align 2 {
  %1 = alloca %struct.ap_fixed_base.3*, align 8   ; [#uses=2 type=%struct.ap_fixed_base.3**]
  %2 = alloca %struct.ap_int_base.2*, align 8     ; [#uses=3 type=%struct.ap_int_base.2**]
  %carry = alloca i1, align 1                     ; [#uses=1 type=i1*]
  %sh_amt = alloca i32, align 4                   ; [#uses=3 type=i32*]
  %signbit = alloca i1, align 1                   ; [#uses=2 type=i1*]
  %__Result__ = alloca i32, align 4               ; [#uses=4 type=i32*]
  %__Val2__ = alloca i32, align 4                 ; [#uses=3 type=i32*]
  %isneg = alloca i1, align 1                     ; [#uses=1 type=i1*]
  store %struct.ap_fixed_base.3* %this, %struct.ap_fixed_base.3** %1, align 8
  call void @llvm.dbg.declare(metadata !{%struct.ap_fixed_base.3** %1}, metadata !12822), !dbg !12823 ; [debug line = 663:13] [debug variable = this]
  store %struct.ap_int_base.2* %op, %struct.ap_int_base.2** %2, align 8
  call void @llvm.dbg.declare(metadata !{%struct.ap_int_base.2** %2}, metadata !12824), !dbg !12825 ; [debug line = 663:93] [debug variable = op]
  %3 = load %struct.ap_fixed_base.3** %1          ; [#uses=5 type=%struct.ap_fixed_base.3*]
  %4 = bitcast %struct.ap_fixed_base.3* %3 to %struct.ssdm_int.4*, !dbg !12826 ; [#uses=1 type=%struct.ssdm_int.4*] [debug line = 663:97]
  call void @_ZN8ssdm_intILi66ELb1EEC2Ev(%struct.ssdm_int.4* %4), !dbg !12826 ; [debug line = 663:97]
  call void (...)* @_ssdm_InlineSelf(i32 0, i8* getelementptr inbounds ([1 x i8]* @.str1, i32 0, i32 0)) nounwind, !dbg !12827 ; [debug line = 665:1]
  call void @llvm.dbg.declare(metadata !{i1* %carry}, metadata !12829), !dbg !12830 ; [debug line = 669:14] [debug variable = carry]
  store i1 false, i1* %carry, align 1, !dbg !12831 ; [debug line = 669:27]
  call void @llvm.dbg.declare(metadata !{i32* %sh_amt}, metadata !12832), !dbg !12833 ; [debug line = 674:18] [debug variable = sh_amt]
  store i32 31, i32* %sh_amt, align 4, !dbg !12834 ; [debug line = 674:65]
  call void @llvm.dbg.declare(metadata !{i1* %signbit}, metadata !12835), !dbg !12836 ; [debug line = 675:14] [debug variable = signbit]
  call void @llvm.dbg.declare(metadata !{i32* %__Result__}, metadata !12837), !dbg !12839 ; [debug line = 675:120] [debug variable = __Result__]
  store i32 0, i32* %__Result__, align 4, !dbg !12840 ; [debug line = 675:134]
  call void @llvm.dbg.declare(metadata !{i32* %__Val2__}, metadata !12841), !dbg !12842 ; [debug line = 675:229] [debug variable = __Val2__]
  %5 = load %struct.ap_int_base.2** %2, align 8, !dbg !12843 ; [#uses=1 type=%struct.ap_int_base.2*] [debug line = 675:0]
  %6 = bitcast %struct.ap_int_base.2* %5 to %struct.ssdm_int*, !dbg !12843 ; [#uses=1 type=%struct.ssdm_int*] [debug line = 675:0]
  %7 = getelementptr inbounds %struct.ssdm_int* %6, i32 0, i32 0, !dbg !12843 ; [#uses=1 type=i32*] [debug line = 675:0]
  %8 = load i32* %7, align 4, !dbg !12843         ; [#uses=1 type=i32] [debug line = 675:0]
  store i32 %8, i32* %__Val2__, align 4, !dbg !12843 ; [debug line = 675:0]
  %9 = bitcast i32* %__Result__ to i8*, !dbg !12843 ; [#uses=0 type=i8*] [debug line = 675:0]
  %10 = bitcast i32* %__Val2__ to i8*, !dbg !12843 ; [#uses=0 type=i8*] [debug line = 675:0]
  %11 = load i32* %__Val2__, !dbg !12843          ; [#uses=1 type=i32] [debug line = 675:0]
  %12 = call i32 @llvm.part.select.i32(i32 %11, i32 31, i32 31), !dbg !12843 ; [#uses=1 type=i32] [debug line = 675:0]
  store i32 %12, i32* %__Result__, !dbg !12843    ; [debug line = 675:0]
  %13 = load i32* %__Result__, align 4, !dbg !12843 ; [#uses=1 type=i32] [debug line = 675:0]
  %14 = and i32 %13, 1, !dbg !12843               ; [#uses=1 type=i32] [debug line = 675:0]
  %15 = icmp ne i32 %14, 0, !dbg !12843           ; [#uses=1 type=i1] [debug line = 675:0]
  store i1 %15, i1* %signbit, align 1, !dbg !12843 ; [debug line = 675:0]
  call void @llvm.dbg.declare(metadata !{i1* %isneg}, metadata !12844), !dbg !12845 ; [debug line = 677:14] [debug variable = isneg]
  %16 = load i1* %signbit, align 1, !dbg !12846   ; [#uses=1 type=i1] [debug line = 677:39]
  br i1 %16, label %17, label %18, !dbg !12846    ; [debug line = 677:39]

; <label>:17                                      ; preds = %0
  br label %18

; <label>:18                                      ; preds = %17, %0
  %19 = phi i1 [ false, %0 ], [ false, %17 ]      ; [#uses=1 type=i1]
  store i1 %19, i1* %isneg, align 1
  %20 = load %struct.ap_int_base.2** %2, align 8, !dbg !12847 ; [#uses=1 type=%struct.ap_int_base.2*] [debug line = 701:13]
  %21 = bitcast %struct.ap_int_base.2* %20 to %struct.ssdm_int*, !dbg !12847 ; [#uses=1 type=%struct.ssdm_int*] [debug line = 701:13]
  %22 = getelementptr inbounds %struct.ssdm_int* %21, i32 0, i32 0, !dbg !12847 ; [#uses=1 type=i32*] [debug line = 701:13]
  %23 = load i32* %22, align 4, !dbg !12847       ; [#uses=1 type=i32] [debug line = 701:13]
  %24 = zext i32 %23 to i66, !dbg !12847          ; [#uses=1 type=i66] [debug line = 701:13]
  %25 = bitcast %struct.ap_fixed_base.3* %3 to %struct.ssdm_int.4*, !dbg !12847 ; [#uses=1 type=%struct.ssdm_int.4*] [debug line = 701:13]
  %26 = getelementptr inbounds %struct.ssdm_int.4* %25, i32 0, i32 0, !dbg !12847 ; [#uses=1 type=i66*] [debug line = 701:13]
  store i66 %24, i66* %26, align 8, !dbg !12847   ; [debug line = 701:13]
  %27 = load i32* %sh_amt, align 4, !dbg !12849   ; [#uses=1 type=i32] [debug line = 702:13]
  %28 = icmp ult i32 %27, 66, !dbg !12849         ; [#uses=1 type=i1] [debug line = 702:13]
  br i1 %28, label %29, label %38, !dbg !12849    ; [debug line = 702:13]

; <label>:29                                      ; preds = %18
  %30 = bitcast %struct.ap_fixed_base.3* %3 to %struct.ssdm_int.4*, !dbg !12850 ; [#uses=1 type=%struct.ssdm_int.4*] [debug line = 703:17]
  %31 = getelementptr inbounds %struct.ssdm_int.4* %30, i32 0, i32 0, !dbg !12850 ; [#uses=1 type=i66*] [debug line = 703:17]
  %32 = load i66* %31, align 8, !dbg !12850       ; [#uses=1 type=i66] [debug line = 703:17]
  %33 = load i32* %sh_amt, align 4, !dbg !12850   ; [#uses=1 type=i32] [debug line = 703:17]
  %34 = zext i32 %33 to i66, !dbg !12850          ; [#uses=1 type=i66] [debug line = 703:17]
  %35 = shl i66 %32, %34, !dbg !12850             ; [#uses=1 type=i66] [debug line = 703:17]
  %36 = bitcast %struct.ap_fixed_base.3* %3 to %struct.ssdm_int.4*, !dbg !12850 ; [#uses=1 type=%struct.ssdm_int.4*] [debug line = 703:17]
  %37 = getelementptr inbounds %struct.ssdm_int.4* %36, i32 0, i32 0, !dbg !12850 ; [#uses=1 type=i66*] [debug line = 703:17]
  store i66 %35, i66* %37, align 8, !dbg !12850   ; [debug line = 703:17]
  br label %41, !dbg !12850                       ; [debug line = 703:17]

; <label>:38                                      ; preds = %18
  %39 = bitcast %struct.ap_fixed_base.3* %3 to %struct.ssdm_int.4*, !dbg !12851 ; [#uses=1 type=%struct.ssdm_int.4*] [debug line = 705:17]
  %40 = getelementptr inbounds %struct.ssdm_int.4* %39, i32 0, i32 0, !dbg !12851 ; [#uses=1 type=i66*] [debug line = 705:17]
  store i66 0, i66* %40, align 8, !dbg !12851     ; [debug line = 705:17]
  br label %41

; <label>:41                                      ; preds = %38, %29
  ret void, !dbg !12852                           ; [debug line = 773:5]
}

; [#uses=3]
define internal void @_ZN8ssdm_intILi66ELb1EEC2Ev(%struct.ssdm_int.4* %this) unnamed_addr nounwind uwtable inlinehint alwaysinline align 2 {
  %1 = alloca %struct.ssdm_int.4*, align 8        ; [#uses=2 type=%struct.ssdm_int.4**]
  store %struct.ssdm_int.4* %this, %struct.ssdm_int.4** %1, align 8
  call void @llvm.dbg.declare(metadata !{%struct.ssdm_int.4** %1}, metadata !12853), !dbg !12855 ; [debug line = 74:137] [debug variable = this]
  %2 = load %struct.ssdm_int.4** %1               ; [#uses=0 type=%struct.ssdm_int.4*]
  ret void, !dbg !12856                           ; [debug line = 74:171]
}

; [#uses=2]
declare void @_ssdm_InlineSelf(...) nounwind

; [#uses=1]
declare i32 @llvm.part.select.i32(i32, i32, i32) nounwind readnone

; [#uses=1]
define internal void @_ZN13ap_fixed_baseILi66ELi35ELb1EL9ap_q_mode5EL9ap_o_mode3ELi0EEC2ILi65ELi34ELb1ELS0_5ELS1_3ELi0EEERKS_IXT_EXT0_EXT1_EXT2_EXT3_EXT4_EE(%struct.ap_fixed_base.3* %this, %struct.ap_fixed_base.5* %op) unnamed_addr nounwind uwtable align 2 {
  %1 = alloca %struct.ap_fixed_base.3*, align 8   ; [#uses=2 type=%struct.ap_fixed_base.3**]
  %2 = alloca %struct.ap_fixed_base.5*, align 8   ; [#uses=3 type=%struct.ap_fixed_base.5**]
  %carry = alloca i1, align 1                     ; [#uses=1 type=i1*]
  %sh_amt = alloca i32, align 4                   ; [#uses=1 type=i32*]
  %signbit = alloca i1, align 1                   ; [#uses=2 type=i1*]
  %__Result__ = alloca i65, align 8               ; [#uses=4 type=i65*]
  %__Val2__ = alloca i65, align 8                 ; [#uses=3 type=i65*]
  %isneg = alloca i1, align 1                     ; [#uses=1 type=i1*]
  store %struct.ap_fixed_base.3* %this, %struct.ap_fixed_base.3** %1, align 8
  call void @llvm.dbg.declare(metadata !{%struct.ap_fixed_base.3** %1}, metadata !12858), !dbg !12859 ; [debug line = 663:13] [debug variable = this]
  store %struct.ap_fixed_base.5* %op, %struct.ap_fixed_base.5** %2, align 8
  call void @llvm.dbg.declare(metadata !{%struct.ap_fixed_base.5** %2}, metadata !12860), !dbg !12861 ; [debug line = 663:93] [debug variable = op]
  %3 = load %struct.ap_fixed_base.3** %1          ; [#uses=2 type=%struct.ap_fixed_base.3*]
  %4 = bitcast %struct.ap_fixed_base.3* %3 to %struct.ssdm_int.4*, !dbg !12862 ; [#uses=1 type=%struct.ssdm_int.4*] [debug line = 663:97]
  call void @_ZN8ssdm_intILi66ELb1EEC2Ev(%struct.ssdm_int.4* %4), !dbg !12862 ; [debug line = 663:97]
  call void (...)* @_ssdm_InlineSelf(i32 0, i8* getelementptr inbounds ([1 x i8]* @.str1, i32 0, i32 0)) nounwind, !dbg !12863 ; [debug line = 665:1]
  call void @llvm.dbg.declare(metadata !{i1* %carry}, metadata !12865), !dbg !12866 ; [debug line = 669:14] [debug variable = carry]
  store i1 false, i1* %carry, align 1, !dbg !12867 ; [debug line = 669:27]
  call void @llvm.dbg.declare(metadata !{i32* %sh_amt}, metadata !12868), !dbg !12869 ; [debug line = 674:18] [debug variable = sh_amt]
  store i32 0, i32* %sh_amt, align 4, !dbg !12870 ; [debug line = 674:65]
  call void @llvm.dbg.declare(metadata !{i1* %signbit}, metadata !12871), !dbg !12872 ; [debug line = 675:14] [debug variable = signbit]
  call void @llvm.dbg.declare(metadata !{i65* %__Result__}, metadata !12873), !dbg !12875 ; [debug line = 675:120] [debug variable = __Result__]
  store i65 0, i65* %__Result__, align 8, !dbg !12876 ; [debug line = 675:134]
  call void @llvm.dbg.declare(metadata !{i65* %__Val2__}, metadata !12877), !dbg !12878 ; [debug line = 675:229] [debug variable = __Val2__]
  %5 = load %struct.ap_fixed_base.5** %2, align 8, !dbg !12879 ; [#uses=1 type=%struct.ap_fixed_base.5*] [debug line = 675:0]
  %6 = bitcast %struct.ap_fixed_base.5* %5 to %struct.ssdm_int.6*, !dbg !12879 ; [#uses=1 type=%struct.ssdm_int.6*] [debug line = 675:0]
  %7 = getelementptr inbounds %struct.ssdm_int.6* %6, i32 0, i32 0, !dbg !12879 ; [#uses=1 type=i65*] [debug line = 675:0]
  %8 = load i65* %7, align 8, !dbg !12879         ; [#uses=1 type=i65] [debug line = 675:0]
  store i65 %8, i65* %__Val2__, align 8, !dbg !12879 ; [debug line = 675:0]
  %9 = bitcast i65* %__Result__ to i8*, !dbg !12879 ; [#uses=0 type=i8*] [debug line = 675:0]
  %10 = bitcast i65* %__Val2__ to i8*, !dbg !12879 ; [#uses=0 type=i8*] [debug line = 675:0]
  %11 = load i65* %__Val2__, !dbg !12879          ; [#uses=1 type=i65] [debug line = 675:0]
  %12 = call i65 @llvm.part.select.i65(i65 %11, i32 64, i32 64), !dbg !12879 ; [#uses=1 type=i65] [debug line = 675:0]
  store i65 %12, i65* %__Result__, !dbg !12879    ; [debug line = 675:0]
  %13 = load i65* %__Result__, align 8, !dbg !12879 ; [#uses=1 type=i65] [debug line = 675:0]
  %14 = and i65 %13, 1, !dbg !12879               ; [#uses=1 type=i65] [debug line = 675:0]
  %15 = icmp ne i65 %14, 0, !dbg !12879           ; [#uses=1 type=i1] [debug line = 675:0]
  store i1 %15, i1* %signbit, align 1, !dbg !12879 ; [debug line = 675:0]
  call void @llvm.dbg.declare(metadata !{i1* %isneg}, metadata !12880), !dbg !12881 ; [debug line = 677:14] [debug variable = isneg]
  %16 = load i1* %signbit, align 1, !dbg !12882   ; [#uses=1 type=i1] [debug line = 677:39]
  br i1 %16, label %17, label %18, !dbg !12882    ; [debug line = 677:39]

; <label>:17                                      ; preds = %0
  br label %18

; <label>:18                                      ; preds = %17, %0
  %19 = phi i1 [ false, %0 ], [ true, %17 ]       ; [#uses=1 type=i1]
  store i1 %19, i1* %isneg, align 1
  %20 = load %struct.ap_fixed_base.5** %2, align 8, !dbg !12883 ; [#uses=1 type=%struct.ap_fixed_base.5*] [debug line = 679:13]
  %21 = bitcast %struct.ap_fixed_base.5* %20 to %struct.ssdm_int.6*, !dbg !12883 ; [#uses=1 type=%struct.ssdm_int.6*] [debug line = 679:13]
  %22 = getelementptr inbounds %struct.ssdm_int.6* %21, i32 0, i32 0, !dbg !12883 ; [#uses=1 type=i65*] [debug line = 679:13]
  %23 = load i65* %22, align 8, !dbg !12883       ; [#uses=1 type=i65] [debug line = 679:13]
  %24 = sext i65 %23 to i66, !dbg !12883          ; [#uses=1 type=i66] [debug line = 679:13]
  %25 = bitcast %struct.ap_fixed_base.3* %3 to %struct.ssdm_int.4*, !dbg !12883 ; [#uses=1 type=%struct.ssdm_int.4*] [debug line = 679:13]
  %26 = getelementptr inbounds %struct.ssdm_int.4* %25, i32 0, i32 0, !dbg !12883 ; [#uses=1 type=i66*] [debug line = 679:13]
  store i66 %24, i66* %26, align 8, !dbg !12883   ; [debug line = 679:13]
  ret void, !dbg !12884                           ; [debug line = 773:5]
}

; [#uses=1]
declare i65 @llvm.part.select.i65(i65, i32, i32) nounwind readnone

; [#uses=1]
define internal void @_ZN13ap_fixed_baseILi66ELi35ELb1EL9ap_q_mode5EL9ap_o_mode3ELi0EEC2Ev(%struct.ap_fixed_base.3* %this) unnamed_addr nounwind uwtable inlinehint alwaysinline align 2 {
  %1 = alloca %struct.ap_fixed_base.3*, align 8   ; [#uses=2 type=%struct.ap_fixed_base.3**]
  store %struct.ap_fixed_base.3* %this, %struct.ap_fixed_base.3** %1, align 8
  call void @llvm.dbg.declare(metadata !{%struct.ap_fixed_base.3** %1}, metadata !12885), !dbg !12886 ; [debug line = 653:43] [debug variable = this]
  %2 = load %struct.ap_fixed_base.3** %1          ; [#uses=1 type=%struct.ap_fixed_base.3*]
  %3 = bitcast %struct.ap_fixed_base.3* %2 to %struct.ssdm_int.4*, !dbg !12887 ; [#uses=1 type=%struct.ssdm_int.4*] [debug line = 653:59]
  call void @_ZN8ssdm_intILi66ELb1EEC2Ev(%struct.ssdm_int.4* %3), !dbg !12887 ; [debug line = 653:59]
  ret void, !dbg !12888                           ; [debug line = 660:5]
}

; [#uses=1]
define internal void @_ZN13ap_fixed_baseILi33ELi33ELb1EL9ap_q_mode5EL9ap_o_mode3ELi0EEC1ILi33ELb1EEERK11ap_int_baseIXT_EXT0_EXleT_Li64EEE(%struct.ap_int_base.7* %this, %struct.ap_int_base.7* %op) unnamed_addr nounwind uwtable inlinehint alwaysinline align 2 {
  %1 = alloca %struct.ap_int_base.7*, align 8     ; [#uses=2 type=%struct.ap_int_base.7**]
  %2 = alloca %struct.ap_int_base.7*, align 8     ; [#uses=2 type=%struct.ap_int_base.7**]
  store %struct.ap_int_base.7* %this, %struct.ap_int_base.7** %1, align 8
  call void @llvm.dbg.declare(metadata !{%struct.ap_int_base.7** %1}, metadata !12890), !dbg !12892 ; [debug line = 782:43] [debug variable = this]
  store %struct.ap_int_base.7* %op, %struct.ap_int_base.7** %2, align 8
  call void @llvm.dbg.declare(metadata !{%struct.ap_int_base.7** %2}, metadata !12893), !dbg !12894 ; [debug line = 782:92] [debug variable = op]
  %3 = load %struct.ap_int_base.7** %1            ; [#uses=1 type=%struct.ap_int_base.7*]
  %4 = load %struct.ap_int_base.7** %2, !dbg !12895 ; [#uses=1 type=%struct.ap_int_base.7*] [debug line = 787:5]
  call void @_ZN13ap_fixed_baseILi33ELi33ELb1EL9ap_q_mode5EL9ap_o_mode3ELi0EEC2ILi33ELb1EEERK11ap_int_baseIXT_EXT0_EXleT_Li64EEE(%struct.ap_int_base.7* %3, %struct.ap_int_base.7* %4), !dbg !12895 ; [debug line = 787:5]
  ret void, !dbg !12895                           ; [debug line = 787:5]
}

; [#uses=1]
define internal void @_ZNK13ap_fixed_baseILi33ELi33ELb1EL9ap_q_mode5EL9ap_o_mode3ELi0EEmlILi32ELi1ELb0ELS0_5ELS1_3ELi0EEENS2_5RTypeIXT_EXT0_EXT1_EE4multERKS_IXT_EXT0_EXT1_EXT2_EXT3_EXT4_EE(%struct.ap_fixed_base.5* noalias sret %agg.result, %struct.ap_int_base.7* %this, %struct.ap_int_base.2* %op2) nounwind uwtable inlinehint alwaysinline align 2 {
  %1 = alloca %struct.ap_int_base.7*, align 8     ; [#uses=2 type=%struct.ap_int_base.7**]
  %2 = alloca %struct.ap_int_base.2*, align 8     ; [#uses=2 type=%struct.ap_int_base.2**]
  %OP1 = alloca %struct.ap_fixed_base.5, align 8  ; [#uses=3 type=%struct.ap_fixed_base.5*]
  %OP2 = alloca %struct.ap_fixed_base.5, align 8  ; [#uses=3 type=%struct.ap_fixed_base.5*]
  store %struct.ap_int_base.7* %this, %struct.ap_int_base.7** %1, align 8
  call void @llvm.dbg.declare(metadata !{%struct.ap_int_base.7** %1}, metadata !12896), !dbg !12898 ; [debug line = 1361:5] [debug variable = this]
  store %struct.ap_int_base.2* %op2, %struct.ap_int_base.2** %2, align 8
  call void @llvm.dbg.declare(metadata !{%struct.ap_int_base.2** %2}, metadata !12899), !dbg !12900 ; [debug line = 1361:81] [debug variable = op2]
  %3 = load %struct.ap_int_base.7** %1            ; [#uses=1 type=%struct.ap_int_base.7*]
  call void @llvm.dbg.declare(metadata !{%struct.ap_fixed_base.5* %agg.result}, metadata !12901), !dbg !12904 ; [debug line = 1362:52] [debug variable = r]
  call void @_ZN13ap_fixed_baseILi65ELi34ELb1EL9ap_q_mode5EL9ap_o_mode3ELi0EEC1Ev(%struct.ap_fixed_base.5* %agg.result), !dbg !12905 ; [debug line = 1362:53]
  call void @llvm.dbg.declare(metadata !{%struct.ap_fixed_base.5* %OP1}, metadata !12906), !dbg !12907 ; [debug line = 1363:41] [debug variable = OP1]
  call void @_ZN11ap_int_baseILi65ELb1ELb0EEC1Ev(%struct.ap_fixed_base.5* %OP1), !dbg !12908 ; [debug line = 1363:44]
  %4 = bitcast %struct.ap_int_base.7* %3 to %struct.ssdm_int.8*, !dbg !12909 ; [#uses=1 type=%struct.ssdm_int.8*] [debug line = 1364:9]
  %5 = getelementptr inbounds %struct.ssdm_int.8* %4, i32 0, i32 0, !dbg !12909 ; [#uses=1 type=i33*] [debug line = 1364:9]
  %6 = load i33* %5, align 8, !dbg !12909         ; [#uses=1 type=i33] [debug line = 1364:9]
  %7 = sext i33 %6 to i65, !dbg !12909            ; [#uses=1 type=i65] [debug line = 1364:9]
  %8 = bitcast %struct.ap_fixed_base.5* %OP1 to %struct.ssdm_int.6*, !dbg !12909 ; [#uses=1 type=%struct.ssdm_int.6*] [debug line = 1364:9]
  %9 = getelementptr inbounds %struct.ssdm_int.6* %8, i32 0, i32 0, !dbg !12909 ; [#uses=1 type=i65*] [debug line = 1364:9]
  store i65 %7, i65* %9, align 8, !dbg !12909     ; [debug line = 1364:9]
  call void @llvm.dbg.declare(metadata !{%struct.ap_fixed_base.5* %OP2}, metadata !12910), !dbg !12911 ; [debug line = 1365:42] [debug variable = OP2]
  call void @_ZN11ap_int_baseILi65ELb0ELb0EEC1Ev(%struct.ap_fixed_base.5* %OP2), !dbg !12912 ; [debug line = 1365:45]
  %10 = load %struct.ap_int_base.2** %2, align 8, !dbg !12913 ; [#uses=1 type=%struct.ap_int_base.2*] [debug line = 1366:9]
  %11 = bitcast %struct.ap_int_base.2* %10 to %struct.ssdm_int*, !dbg !12913 ; [#uses=1 type=%struct.ssdm_int*] [debug line = 1366:9]
  %12 = getelementptr inbounds %struct.ssdm_int* %11, i32 0, i32 0, !dbg !12913 ; [#uses=1 type=i32*] [debug line = 1366:9]
  %13 = load i32* %12, align 4, !dbg !12913       ; [#uses=1 type=i32] [debug line = 1366:9]
  %14 = zext i32 %13 to i65, !dbg !12913          ; [#uses=1 type=i65] [debug line = 1366:9]
  %15 = bitcast %struct.ap_fixed_base.5* %OP2 to %struct.ssdm_int.6*, !dbg !12913 ; [#uses=1 type=%struct.ssdm_int.6*] [debug line = 1366:9]
  %16 = getelementptr inbounds %struct.ssdm_int.6* %15, i32 0, i32 0, !dbg !12913 ; [#uses=1 type=i65*] [debug line = 1366:9]
  store i65 %14, i65* %16, align 8, !dbg !12913   ; [debug line = 1366:9]
  %17 = bitcast %struct.ap_fixed_base.5* %OP1 to %struct.ssdm_int.6*, !dbg !12914 ; [#uses=1 type=%struct.ssdm_int.6*] [debug line = 1367:9]
  %18 = getelementptr inbounds %struct.ssdm_int.6* %17, i32 0, i32 0, !dbg !12914 ; [#uses=1 type=i65*] [debug line = 1367:9]
  %19 = load i65* %18, align 8, !dbg !12914       ; [#uses=1 type=i65] [debug line = 1367:9]
  %20 = bitcast %struct.ap_fixed_base.5* %OP2 to %struct.ssdm_int.6*, !dbg !12914 ; [#uses=1 type=%struct.ssdm_int.6*] [debug line = 1367:9]
  %21 = getelementptr inbounds %struct.ssdm_int.6* %20, i32 0, i32 0, !dbg !12914 ; [#uses=1 type=i65*] [debug line = 1367:9]
  %22 = load i65* %21, align 8, !dbg !12914       ; [#uses=1 type=i65] [debug line = 1367:9]
  %23 = mul i65 %19, %22, !dbg !12914             ; [#uses=1 type=i65] [debug line = 1367:9]
  %24 = bitcast %struct.ap_fixed_base.5* %agg.result to %struct.ssdm_int.6*, !dbg !12914 ; [#uses=1 type=%struct.ssdm_int.6*] [debug line = 1367:9]
  %25 = getelementptr inbounds %struct.ssdm_int.6* %24, i32 0, i32 0, !dbg !12914 ; [#uses=1 type=i65*] [debug line = 1367:9]
  store i65 %23, i65* %25, align 8, !dbg !12914   ; [debug line = 1367:9]
  ret void, !dbg !12915                           ; [debug line = 1368:9]
}

; [#uses=1]
define internal void @_ZN13ap_fixed_baseILi65ELi34ELb1EL9ap_q_mode5EL9ap_o_mode3ELi0EEC1Ev(%struct.ap_fixed_base.5* %this) unnamed_addr nounwind uwtable inlinehint alwaysinline align 2 {
  %1 = alloca %struct.ap_fixed_base.5*, align 8   ; [#uses=2 type=%struct.ap_fixed_base.5**]
  store %struct.ap_fixed_base.5* %this, %struct.ap_fixed_base.5** %1, align 8
  call void @llvm.dbg.declare(metadata !{%struct.ap_fixed_base.5** %1}, metadata !12916), !dbg !12918 ; [debug line = 653:43] [debug variable = this]
  %2 = load %struct.ap_fixed_base.5** %1          ; [#uses=1 type=%struct.ap_fixed_base.5*]
  call void @_ZN13ap_fixed_baseILi65ELi34ELb1EL9ap_q_mode5EL9ap_o_mode3ELi0EEC2Ev(%struct.ap_fixed_base.5* %2), !dbg !12919 ; [debug line = 660:5]
  ret void, !dbg !12919                           ; [debug line = 660:5]
}

; [#uses=1]
define internal void @_ZN11ap_int_baseILi65ELb1ELb0EEC1Ev(%struct.ap_fixed_base.5* %this) unnamed_addr nounwind uwtable inlinehint alwaysinline align 2 {
  %1 = alloca %struct.ap_fixed_base.5*, align 8   ; [#uses=2 type=%struct.ap_fixed_base.5**]
  store %struct.ap_fixed_base.5* %this, %struct.ap_fixed_base.5** %1, align 8
  call void @llvm.dbg.declare(metadata !{%struct.ap_fixed_base.5** %1}, metadata !12920), !dbg !12921 ; [debug line = 2436:41] [debug variable = this]
  %2 = load %struct.ap_fixed_base.5** %1          ; [#uses=1 type=%struct.ap_fixed_base.5*]
  call void @_ZN11ap_int_baseILi65ELb1ELb0EEC2Ev(%struct.ap_fixed_base.5* %2), !dbg !12922 ; [debug line = 2442:3]
  ret void, !dbg !12922                           ; [debug line = 2442:3]
}

; [#uses=1]
define internal void @_ZN11ap_int_baseILi65ELb0ELb0EEC1Ev(%struct.ap_fixed_base.5* %this) unnamed_addr nounwind uwtable inlinehint alwaysinline align 2 {
  %1 = alloca %struct.ap_fixed_base.5*, align 8   ; [#uses=2 type=%struct.ap_fixed_base.5**]
  store %struct.ap_fixed_base.5* %this, %struct.ap_fixed_base.5** %1, align 8
  call void @llvm.dbg.declare(metadata !{%struct.ap_fixed_base.5** %1}, metadata !12923), !dbg !12924 ; [debug line = 2436:41] [debug variable = this]
  %2 = load %struct.ap_fixed_base.5** %1          ; [#uses=1 type=%struct.ap_fixed_base.5*]
  call void @_ZN11ap_int_baseILi65ELb0ELb0EEC2Ev(%struct.ap_fixed_base.5* %2), !dbg !12925 ; [debug line = 2442:3]
  ret void, !dbg !12925                           ; [debug line = 2442:3]
}

; [#uses=1]
define internal void @_ZN11ap_int_baseILi65ELb0ELb0EEC2Ev(%struct.ap_fixed_base.5* %this) unnamed_addr nounwind uwtable inlinehint alwaysinline align 2 {
  %1 = alloca %struct.ap_fixed_base.5*, align 8   ; [#uses=2 type=%struct.ap_fixed_base.5**]
  store %struct.ap_fixed_base.5* %this, %struct.ap_fixed_base.5** %1, align 8
  call void @llvm.dbg.declare(metadata !{%struct.ap_fixed_base.5** %1}, metadata !12926), !dbg !12927 ; [debug line = 2436:41] [debug variable = this]
  %2 = load %struct.ap_fixed_base.5** %1          ; [#uses=1 type=%struct.ap_fixed_base.5*]
  %3 = bitcast %struct.ap_fixed_base.5* %2 to %struct.ssdm_int.6*, !dbg !12928 ; [#uses=1 type=%struct.ssdm_int.6*] [debug line = 2436:55]
  call void @_ZN8ssdm_intILi65ELb0EEC2Ev(%struct.ssdm_int.6* %3), !dbg !12928 ; [debug line = 2436:55]
  ret void, !dbg !12929                           ; [debug line = 2442:3]
}

; [#uses=1]
define internal void @_ZN8ssdm_intILi65ELb0EEC2Ev(%struct.ssdm_int.6* %this) unnamed_addr nounwind uwtable inlinehint alwaysinline align 2 {
  %1 = alloca %struct.ssdm_int.6*, align 8        ; [#uses=2 type=%struct.ssdm_int.6**]
  store %struct.ssdm_int.6* %this, %struct.ssdm_int.6** %1, align 8
  call void @llvm.dbg.declare(metadata !{%struct.ssdm_int.6** %1}, metadata !12931), !dbg !12933 ; [debug line = 73:0] [debug variable = this]
  %2 = load %struct.ssdm_int.6** %1               ; [#uses=0 type=%struct.ssdm_int.6*]
  ret void, !dbg !12934                           ; [debug line = 73:0]
}

; [#uses=1]
define internal void @_ZN11ap_int_baseILi65ELb1ELb0EEC2Ev(%struct.ap_fixed_base.5* %this) unnamed_addr nounwind uwtable inlinehint alwaysinline align 2 {
  %1 = alloca %struct.ap_fixed_base.5*, align 8   ; [#uses=2 type=%struct.ap_fixed_base.5**]
  store %struct.ap_fixed_base.5* %this, %struct.ap_fixed_base.5** %1, align 8
  call void @llvm.dbg.declare(metadata !{%struct.ap_fixed_base.5** %1}, metadata !12936), !dbg !12937 ; [debug line = 2436:41] [debug variable = this]
  %2 = load %struct.ap_fixed_base.5** %1          ; [#uses=1 type=%struct.ap_fixed_base.5*]
  %3 = bitcast %struct.ap_fixed_base.5* %2 to %struct.ssdm_int.6*, !dbg !12938 ; [#uses=1 type=%struct.ssdm_int.6*] [debug line = 2436:55]
  call void @_ZN8ssdm_intILi65ELb1EEC2Ev(%struct.ssdm_int.6* %3), !dbg !12938 ; [debug line = 2436:55]
  ret void, !dbg !12939                           ; [debug line = 2442:3]
}

; [#uses=2]
define internal void @_ZN8ssdm_intILi65ELb1EEC2Ev(%struct.ssdm_int.6* %this) unnamed_addr nounwind uwtable inlinehint alwaysinline align 2 {
  %1 = alloca %struct.ssdm_int.6*, align 8        ; [#uses=2 type=%struct.ssdm_int.6**]
  store %struct.ssdm_int.6* %this, %struct.ssdm_int.6** %1, align 8
  call void @llvm.dbg.declare(metadata !{%struct.ssdm_int.6** %1}, metadata !12941), !dbg !12943 ; [debug line = 73:137] [debug variable = this]
  %2 = load %struct.ssdm_int.6** %1               ; [#uses=0 type=%struct.ssdm_int.6*]
  ret void, !dbg !12944                           ; [debug line = 73:171]
}

; [#uses=1]
define internal void @_ZN13ap_fixed_baseILi65ELi34ELb1EL9ap_q_mode5EL9ap_o_mode3ELi0EEC2Ev(%struct.ap_fixed_base.5* %this) unnamed_addr nounwind uwtable inlinehint alwaysinline align 2 {
  %1 = alloca %struct.ap_fixed_base.5*, align 8   ; [#uses=2 type=%struct.ap_fixed_base.5**]
  store %struct.ap_fixed_base.5* %this, %struct.ap_fixed_base.5** %1, align 8
  call void @llvm.dbg.declare(metadata !{%struct.ap_fixed_base.5** %1}, metadata !12946), !dbg !12947 ; [debug line = 653:43] [debug variable = this]
  %2 = load %struct.ap_fixed_base.5** %1          ; [#uses=1 type=%struct.ap_fixed_base.5*]
  %3 = bitcast %struct.ap_fixed_base.5* %2 to %struct.ssdm_int.6*, !dbg !12948 ; [#uses=1 type=%struct.ssdm_int.6*] [debug line = 653:59]
  call void @_ZN8ssdm_intILi65ELb1EEC2Ev(%struct.ssdm_int.6* %3), !dbg !12948 ; [debug line = 653:59]
  ret void, !dbg !12949                           ; [debug line = 660:5]
}

; [#uses=1]
define internal void @_ZN13ap_fixed_baseILi33ELi33ELb1EL9ap_q_mode5EL9ap_o_mode3ELi0EEC2ILi33ELb1EEERK11ap_int_baseIXT_EXT0_EXleT_Li64EEE(%struct.ap_int_base.7* %this, %struct.ap_int_base.7* %op) unnamed_addr nounwind uwtable inlinehint alwaysinline align 2 {
  %1 = alloca %struct.ap_int_base.7*, align 8     ; [#uses=2 type=%struct.ap_int_base.7**]
  %2 = alloca %struct.ap_int_base.7*, align 8     ; [#uses=2 type=%struct.ap_int_base.7**]
  %f_op = alloca %struct.ap_int_base.7, align 8   ; [#uses=3 type=%struct.ap_int_base.7*]
  store %struct.ap_int_base.7* %this, %struct.ap_int_base.7** %1, align 8
  call void @llvm.dbg.declare(metadata !{%struct.ap_int_base.7** %1}, metadata !12951), !dbg !12952 ; [debug line = 782:43] [debug variable = this]
  store %struct.ap_int_base.7* %op, %struct.ap_int_base.7** %2, align 8
  call void @llvm.dbg.declare(metadata !{%struct.ap_int_base.7** %2}, metadata !12953), !dbg !12954 ; [debug line = 782:92] [debug variable = op]
  %3 = load %struct.ap_int_base.7** %1            ; [#uses=2 type=%struct.ap_int_base.7*]
  %4 = bitcast %struct.ap_int_base.7* %3 to %struct.ssdm_int.8*, !dbg !12955 ; [#uses=1 type=%struct.ssdm_int.8*] [debug line = 782:96]
  call void @_ZN8ssdm_intILi33ELb1EEC2Ev(%struct.ssdm_int.8* %4), !dbg !12955 ; [debug line = 782:96]
  call void @llvm.dbg.declare(metadata !{%struct.ap_int_base.7* %f_op}, metadata !12956), !dbg !12958 ; [debug line = 784:45] [debug variable = f_op]
  call void @_ZN13ap_fixed_baseILi33ELi33ELb1EL9ap_q_mode5EL9ap_o_mode3ELi0EEC1Ev(%struct.ap_int_base.7* %f_op), !dbg !12959 ; [debug line = 784:49]
  %5 = load %struct.ap_int_base.7** %2, align 8, !dbg !12960 ; [#uses=1 type=%struct.ap_int_base.7*] [debug line = 785:9]
  %6 = bitcast %struct.ap_int_base.7* %5 to %struct.ssdm_int.8*, !dbg !12960 ; [#uses=1 type=%struct.ssdm_int.8*] [debug line = 785:9]
  %7 = getelementptr inbounds %struct.ssdm_int.8* %6, i32 0, i32 0, !dbg !12960 ; [#uses=1 type=i33*] [debug line = 785:9]
  %8 = load i33* %7, align 8, !dbg !12960         ; [#uses=1 type=i33] [debug line = 785:9]
  %9 = bitcast %struct.ap_int_base.7* %f_op to %struct.ssdm_int.8*, !dbg !12960 ; [#uses=1 type=%struct.ssdm_int.8*] [debug line = 785:9]
  %10 = getelementptr inbounds %struct.ssdm_int.8* %9, i32 0, i32 0, !dbg !12960 ; [#uses=1 type=i33*] [debug line = 785:9]
  store i33 %8, i33* %10, align 8, !dbg !12960    ; [debug line = 785:9]
  %11 = call %struct.ap_int_base.7* @_ZN13ap_fixed_baseILi33ELi33ELb1EL9ap_q_mode5EL9ap_o_mode3ELi0EEaSERKS2_(%struct.ap_int_base.7* %3, %struct.ap_int_base.7* %f_op), !dbg !12961 ; [#uses=0 type=%struct.ap_int_base.7*] [debug line = 786:9]
  ret void, !dbg !12962                           ; [debug line = 787:5]
}

; [#uses=4]
define internal void @_ZN8ssdm_intILi33ELb1EEC2Ev(%struct.ssdm_int.8* %this) unnamed_addr nounwind uwtable inlinehint alwaysinline align 2 {
  %1 = alloca %struct.ssdm_int.8*, align 8        ; [#uses=2 type=%struct.ssdm_int.8**]
  store %struct.ssdm_int.8* %this, %struct.ssdm_int.8** %1, align 8
  call void @llvm.dbg.declare(metadata !{%struct.ssdm_int.8** %1}, metadata !12963), !dbg !12965 ; [debug line = 35:137] [debug variable = this]
  %2 = load %struct.ssdm_int.8** %1               ; [#uses=0 type=%struct.ssdm_int.8*]
  ret void, !dbg !12966                           ; [debug line = 35:171]
}

; [#uses=1]
define internal void @_ZN13ap_fixed_baseILi33ELi33ELb1EL9ap_q_mode5EL9ap_o_mode3ELi0EEC1Ev(%struct.ap_int_base.7* %this) unnamed_addr nounwind uwtable inlinehint alwaysinline align 2 {
  %1 = alloca %struct.ap_int_base.7*, align 8     ; [#uses=2 type=%struct.ap_int_base.7**]
  store %struct.ap_int_base.7* %this, %struct.ap_int_base.7** %1, align 8
  call void @llvm.dbg.declare(metadata !{%struct.ap_int_base.7** %1}, metadata !12968), !dbg !12969 ; [debug line = 653:43] [debug variable = this]
  %2 = load %struct.ap_int_base.7** %1            ; [#uses=1 type=%struct.ap_int_base.7*]
  call void @_ZN13ap_fixed_baseILi33ELi33ELb1EL9ap_q_mode5EL9ap_o_mode3ELi0EEC2Ev(%struct.ap_int_base.7* %2), !dbg !12970 ; [debug line = 660:5]
  ret void, !dbg !12970                           ; [debug line = 660:5]
}

; [#uses=1]
define internal %struct.ap_int_base.7* @_ZN13ap_fixed_baseILi33ELi33ELb1EL9ap_q_mode5EL9ap_o_mode3ELi0EEaSERKS2_(%struct.ap_int_base.7* %this, %struct.ap_int_base.7* %op) nounwind uwtable inlinehint alwaysinline align 2 {
  %1 = alloca %struct.ap_int_base.7*, align 8     ; [#uses=2 type=%struct.ap_int_base.7**]
  %2 = alloca %struct.ap_int_base.7*, align 8     ; [#uses=2 type=%struct.ap_int_base.7**]
  store %struct.ap_int_base.7* %this, %struct.ap_int_base.7** %1, align 8
  call void @llvm.dbg.declare(metadata !{%struct.ap_int_base.7** %1}, metadata !12971), !dbg !12972 ; [debug line = 1022:58] [debug variable = this]
  store %struct.ap_int_base.7* %op, %struct.ap_int_base.7** %2, align 8
  call void @llvm.dbg.declare(metadata !{%struct.ap_int_base.7** %2}, metadata !12973), !dbg !12974 ; [debug line = 1023:63] [debug variable = op]
  %3 = load %struct.ap_int_base.7** %1            ; [#uses=2 type=%struct.ap_int_base.7*]
  %4 = load %struct.ap_int_base.7** %2, align 8, !dbg !12975 ; [#uses=1 type=%struct.ap_int_base.7*] [debug line = 1025:9]
  %5 = bitcast %struct.ap_int_base.7* %4 to %struct.ssdm_int.8*, !dbg !12975 ; [#uses=1 type=%struct.ssdm_int.8*] [debug line = 1025:9]
  %6 = getelementptr inbounds %struct.ssdm_int.8* %5, i32 0, i32 0, !dbg !12975 ; [#uses=1 type=i33*] [debug line = 1025:9]
  %7 = load i33* %6, align 8, !dbg !12975         ; [#uses=1 type=i33] [debug line = 1025:9]
  %8 = bitcast %struct.ap_int_base.7* %3 to %struct.ssdm_int.8*, !dbg !12975 ; [#uses=1 type=%struct.ssdm_int.8*] [debug line = 1025:9]
  %9 = getelementptr inbounds %struct.ssdm_int.8* %8, i32 0, i32 0, !dbg !12975 ; [#uses=1 type=i33*] [debug line = 1025:9]
  store i33 %7, i33* %9, align 8, !dbg !12975     ; [debug line = 1025:9]
  ret %struct.ap_int_base.7* %3, !dbg !12977      ; [debug line = 1026:9]
}

; [#uses=1]
define internal void @_ZN13ap_fixed_baseILi33ELi33ELb1EL9ap_q_mode5EL9ap_o_mode3ELi0EEC2Ev(%struct.ap_int_base.7* %this) unnamed_addr nounwind uwtable inlinehint alwaysinline align 2 {
  %1 = alloca %struct.ap_int_base.7*, align 8     ; [#uses=2 type=%struct.ap_int_base.7**]
  store %struct.ap_int_base.7* %this, %struct.ap_int_base.7** %1, align 8
  call void @llvm.dbg.declare(metadata !{%struct.ap_int_base.7** %1}, metadata !12978), !dbg !12979 ; [debug line = 653:43] [debug variable = this]
  %2 = load %struct.ap_int_base.7** %1            ; [#uses=1 type=%struct.ap_int_base.7*]
  %3 = bitcast %struct.ap_int_base.7* %2 to %struct.ssdm_int.8*, !dbg !12980 ; [#uses=1 type=%struct.ssdm_int.8*] [debug line = 653:59]
  call void @_ZN8ssdm_intILi33ELb1EEC2Ev(%struct.ssdm_int.8* %3), !dbg !12980 ; [debug line = 653:59]
  ret void, !dbg !12981                           ; [debug line = 660:5]
}

; [#uses=2]
define internal void @_ZN11ap_int_baseILi33ELb1ELb1EEC1ILi32ELb0EEERKS_IXT_EXT0_EXleT_Li64EEE(%struct.ap_int_base.7* %this, %struct.ap_int_base.2* %op) unnamed_addr nounwind uwtable inlinehint alwaysinline align 2 {
  %1 = alloca %struct.ap_int_base.7*, align 8     ; [#uses=2 type=%struct.ap_int_base.7**]
  %2 = alloca %struct.ap_int_base.2*, align 8     ; [#uses=2 type=%struct.ap_int_base.2**]
  store %struct.ap_int_base.7* %this, %struct.ap_int_base.7** %1, align 8
  call void @llvm.dbg.declare(metadata !{%struct.ap_int_base.7** %1}, metadata !12983), !dbg !12984 ; [debug line = 1506:41] [debug variable = this]
  store %struct.ap_int_base.2* %op, %struct.ap_int_base.2** %2, align 8
  call void @llvm.dbg.declare(metadata !{%struct.ap_int_base.2** %2}, metadata !12985), !dbg !12986 ; [debug line = 1506:87] [debug variable = op]
  %3 = load %struct.ap_int_base.7** %1            ; [#uses=1 type=%struct.ap_int_base.7*]
  %4 = load %struct.ap_int_base.2** %2, !dbg !12987 ; [#uses=1 type=%struct.ap_int_base.2*] [debug line = 1506:109]
  call void @_ZN11ap_int_baseILi33ELb1ELb1EEC2ILi32ELb0EEERKS_IXT_EXT0_EXleT_Li64EEE(%struct.ap_int_base.7* %3, %struct.ap_int_base.2* %4), !dbg !12987 ; [debug line = 1506:109]
  ret void, !dbg !12987                           ; [debug line = 1506:109]
}

; [#uses=1]
define internal void @_ZN11ap_int_baseILi33ELb1ELb1EEC1Ev(%struct.ap_int_base.7* %this) unnamed_addr nounwind uwtable inlinehint alwaysinline align 2 {
  %1 = alloca %struct.ap_int_base.7*, align 8     ; [#uses=2 type=%struct.ap_int_base.7**]
  store %struct.ap_int_base.7* %this, %struct.ap_int_base.7** %1, align 8
  call void @llvm.dbg.declare(metadata !{%struct.ap_int_base.7** %1}, metadata !12988), !dbg !12989 ; [debug line = 1494:41] [debug variable = this]
  %2 = load %struct.ap_int_base.7** %1            ; [#uses=1 type=%struct.ap_int_base.7*]
  call void @_ZN11ap_int_baseILi33ELb1ELb1EEC2Ev(%struct.ap_int_base.7* %2), !dbg !12990 ; [debug line = 1500:3]
  ret void, !dbg !12990                           ; [debug line = 1500:3]
}

; [#uses=1]
define internal void @_ZN11ap_int_baseILi33ELb1ELb1EEC2Ev(%struct.ap_int_base.7* %this) unnamed_addr nounwind uwtable inlinehint alwaysinline align 2 {
  %1 = alloca %struct.ap_int_base.7*, align 8     ; [#uses=2 type=%struct.ap_int_base.7**]
  store %struct.ap_int_base.7* %this, %struct.ap_int_base.7** %1, align 8
  call void @llvm.dbg.declare(metadata !{%struct.ap_int_base.7** %1}, metadata !12991), !dbg !12992 ; [debug line = 1494:41] [debug variable = this]
  %2 = load %struct.ap_int_base.7** %1            ; [#uses=1 type=%struct.ap_int_base.7*]
  %3 = bitcast %struct.ap_int_base.7* %2 to %struct.ssdm_int.8*, !dbg !12993 ; [#uses=1 type=%struct.ssdm_int.8*] [debug line = 1494:55]
  call void @_ZN8ssdm_intILi33ELb1EEC2Ev(%struct.ssdm_int.8* %3), !dbg !12993 ; [debug line = 1494:55]
  ret void, !dbg !12994                           ; [debug line = 1500:3]
}

; [#uses=1]
define internal void @_ZN11ap_int_baseILi33ELb1ELb1EEC2ILi32ELb0EEERKS_IXT_EXT0_EXleT_Li64EEE(%struct.ap_int_base.7* %this, %struct.ap_int_base.2* %op) unnamed_addr nounwind uwtable inlinehint alwaysinline align 2 {
  %1 = alloca %struct.ap_int_base.7*, align 8     ; [#uses=2 type=%struct.ap_int_base.7**]
  %2 = alloca %struct.ap_int_base.2*, align 8     ; [#uses=2 type=%struct.ap_int_base.2**]
  store %struct.ap_int_base.7* %this, %struct.ap_int_base.7** %1, align 8
  call void @llvm.dbg.declare(metadata !{%struct.ap_int_base.7** %1}, metadata !12996), !dbg !12997 ; [debug line = 1506:41] [debug variable = this]
  store %struct.ap_int_base.2* %op, %struct.ap_int_base.2** %2, align 8
  call void @llvm.dbg.declare(metadata !{%struct.ap_int_base.2** %2}, metadata !12998), !dbg !12999 ; [debug line = 1506:87] [debug variable = op]
  %3 = load %struct.ap_int_base.7** %1            ; [#uses=2 type=%struct.ap_int_base.7*]
  %4 = bitcast %struct.ap_int_base.7* %3 to %struct.ssdm_int.8*, !dbg !13000 ; [#uses=1 type=%struct.ssdm_int.8*] [debug line = 1506:91]
  call void @_ZN8ssdm_intILi33ELb1EEC2Ev(%struct.ssdm_int.8* %4), !dbg !13000 ; [debug line = 1506:91]
  %5 = load %struct.ap_int_base.2** %2, align 8, !dbg !13001 ; [#uses=1 type=%struct.ap_int_base.2*] [debug line = 1506:93]
  %6 = bitcast %struct.ap_int_base.2* %5 to %struct.ssdm_int*, !dbg !13001 ; [#uses=1 type=%struct.ssdm_int*] [debug line = 1506:93]
  %7 = getelementptr inbounds %struct.ssdm_int* %6, i32 0, i32 0, !dbg !13001 ; [#uses=1 type=i32*] [debug line = 1506:93]
  %8 = load i32* %7, align 4, !dbg !13001         ; [#uses=1 type=i32] [debug line = 1506:93]
  %9 = zext i32 %8 to i33, !dbg !13001            ; [#uses=1 type=i33] [debug line = 1506:93]
  %10 = bitcast %struct.ap_int_base.7* %3 to %struct.ssdm_int.8*, !dbg !13001 ; [#uses=1 type=%struct.ssdm_int.8*] [debug line = 1506:93]
  %11 = getelementptr inbounds %struct.ssdm_int.8* %10, i32 0, i32 0, !dbg !13001 ; [#uses=1 type=i33*] [debug line = 1506:93]
  store i33 %9, i33* %11, align 8, !dbg !13001    ; [debug line = 1506:93]
  ret void, !dbg !13003                           ; [debug line = 1506:109]
}

; [#uses=1]
define internal void @_ZN7ap_uintILi6EEC2Ei(%struct.ap_uint* %this, i32 %val) unnamed_addr nounwind uwtable inlinehint alwaysinline align 2 {
  %1 = alloca %struct.ap_uint*, align 8           ; [#uses=2 type=%struct.ap_uint**]
  %2 = alloca i32, align 4                        ; [#uses=2 type=i32*]
  store %struct.ap_uint* %this, %struct.ap_uint** %1, align 8
  call void @llvm.dbg.declare(metadata !{%struct.ap_uint** %1}, metadata !13004), !dbg !13005 ; [debug line = 253:41] [debug variable = this]
  store i32 %val, i32* %2, align 4
  call void @llvm.dbg.declare(metadata !{i32* %2}, metadata !13006), !dbg !13007 ; [debug line = 253:53] [debug variable = val]
  %3 = load %struct.ap_uint** %1                  ; [#uses=2 type=%struct.ap_uint*]
  %4 = bitcast %struct.ap_uint* %3 to %struct.ap_int_base*, !dbg !13008 ; [#uses=1 type=%struct.ap_int_base*] [debug line = 253:58]
  call void @_ZN11ap_int_baseILi6ELb0ELb1EEC2Ev(%struct.ap_int_base* %4), !dbg !13008 ; [debug line = 253:58]
  %5 = load i32* %2, align 4, !dbg !13009         ; [#uses=1 type=i32] [debug line = 253:60]
  %6 = trunc i32 %5 to i6, !dbg !13009            ; [#uses=1 type=i6] [debug line = 253:60]
  %7 = bitcast %struct.ap_uint* %3 to %struct.ap_int_base*, !dbg !13009 ; [#uses=1 type=%struct.ap_int_base*] [debug line = 253:60]
  %8 = bitcast %struct.ap_int_base* %7 to %struct.ssdm_int.0*, !dbg !13009 ; [#uses=1 type=%struct.ssdm_int.0*] [debug line = 253:60]
  %9 = getelementptr inbounds %struct.ssdm_int.0* %8, i32 0, i32 0, !dbg !13009 ; [#uses=1 type=i6*] [debug line = 253:60]
  store i6 %6, i6* %9, align 1, !dbg !13009       ; [debug line = 253:60]
  ret void, !dbg !13011                           ; [debug line = 253:75]
}

; [#uses=1]
define internal void @_ZN11ap_int_baseILi6ELb0ELb1EEC2Ev(%struct.ap_int_base* %this) unnamed_addr nounwind uwtable inlinehint alwaysinline align 2 {
  %1 = alloca %struct.ap_int_base*, align 8       ; [#uses=2 type=%struct.ap_int_base**]
  store %struct.ap_int_base* %this, %struct.ap_int_base** %1, align 8
  call void @llvm.dbg.declare(metadata !{%struct.ap_int_base** %1}, metadata !13012), !dbg !13013 ; [debug line = 1494:41] [debug variable = this]
  %2 = load %struct.ap_int_base** %1              ; [#uses=1 type=%struct.ap_int_base*]
  %3 = bitcast %struct.ap_int_base* %2 to %struct.ssdm_int.0*, !dbg !13014 ; [#uses=1 type=%struct.ssdm_int.0*] [debug line = 1494:55]
  call void @_ZN8ssdm_intILi6ELb0EEC2Ev(%struct.ssdm_int.0* %3), !dbg !13014 ; [debug line = 1494:55]
  ret void, !dbg !13015                           ; [debug line = 1500:3]
}

; [#uses=1]
define internal void @_ZN8ssdm_intILi6ELb0EEC2Ev(%struct.ssdm_int.0* %this) unnamed_addr nounwind uwtable inlinehint alwaysinline align 2 {
  %1 = alloca %struct.ssdm_int.0*, align 8        ; [#uses=2 type=%struct.ssdm_int.0**]
  store %struct.ssdm_int.0* %this, %struct.ssdm_int.0** %1, align 8
  call void @llvm.dbg.declare(metadata !{%struct.ssdm_int.0** %1}, metadata !13017), !dbg !13019 ; [debug line = 8:0] [debug variable = this]
  %2 = load %struct.ssdm_int.0** %1               ; [#uses=0 type=%struct.ssdm_int.0*]
  ret void, !dbg !13020                           ; [debug line = 8:0]
}

; [#uses=1]
define internal void @_ZN7ap_uintILi32EEC2Ev(%struct.ap_uint.1* %this) unnamed_addr nounwind uwtable inlinehint alwaysinline align 2 {
  %1 = alloca %struct.ap_uint.1*, align 8         ; [#uses=2 type=%struct.ap_uint.1**]
  store %struct.ap_uint.1* %this, %struct.ap_uint.1** %1, align 8
  call void @llvm.dbg.declare(metadata !{%struct.ap_uint.1** %1}, metadata !13022), !dbg !13023 ; [debug line = 186:41] [debug variable = this]
  %2 = load %struct.ap_uint.1** %1                ; [#uses=1 type=%struct.ap_uint.1*]
  %3 = bitcast %struct.ap_uint.1* %2 to %struct.ap_int_base.2*, !dbg !13024 ; [#uses=1 type=%struct.ap_int_base.2*] [debug line = 186:59]
  call void @_ZN11ap_int_baseILi32ELb0ELb1EEC2Ev(%struct.ap_int_base.2* %3), !dbg !13024 ; [debug line = 186:59]
  ret void, !dbg !13025                           ; [debug line = 186:60]
}

; [#uses=2]
define internal void @_ZN11ap_int_baseILi32ELb0ELb1EEC2Ev(%struct.ap_int_base.2* %this) unnamed_addr nounwind uwtable inlinehint alwaysinline align 2 {
  %1 = alloca %struct.ap_int_base.2*, align 8     ; [#uses=2 type=%struct.ap_int_base.2**]
  store %struct.ap_int_base.2* %this, %struct.ap_int_base.2** %1, align 8
  call void @llvm.dbg.declare(metadata !{%struct.ap_int_base.2** %1}, metadata !13027), !dbg !13028 ; [debug line = 1494:41] [debug variable = this]
  %2 = load %struct.ap_int_base.2** %1            ; [#uses=1 type=%struct.ap_int_base.2*]
  %3 = bitcast %struct.ap_int_base.2* %2 to %struct.ssdm_int*, !dbg !13029 ; [#uses=1 type=%struct.ssdm_int*] [debug line = 1494:55]
  call void @_ZN8ssdm_intILi32ELb0EEC2Ev(%struct.ssdm_int* %3), !dbg !13029 ; [debug line = 1494:55]
  ret void, !dbg !13030                           ; [debug line = 1500:3]
}

; [#uses=1]
define internal void @_ZN7ap_uintILi32EEC2Ei(%struct.ap_uint.1* %this, i32 %val) unnamed_addr nounwind uwtable inlinehint alwaysinline align 2 {
  %1 = alloca %struct.ap_uint.1*, align 8         ; [#uses=2 type=%struct.ap_uint.1**]
  %2 = alloca i32, align 4                        ; [#uses=2 type=i32*]
  store %struct.ap_uint.1* %this, %struct.ap_uint.1** %1, align 8
  call void @llvm.dbg.declare(metadata !{%struct.ap_uint.1** %1}, metadata !13032), !dbg !13033 ; [debug line = 253:41] [debug variable = this]
  store i32 %val, i32* %2, align 4
  call void @llvm.dbg.declare(metadata !{i32* %2}, metadata !13034), !dbg !13035 ; [debug line = 253:53] [debug variable = val]
  %3 = load %struct.ap_uint.1** %1                ; [#uses=2 type=%struct.ap_uint.1*]
  %4 = bitcast %struct.ap_uint.1* %3 to %struct.ap_int_base.2*, !dbg !13036 ; [#uses=1 type=%struct.ap_int_base.2*] [debug line = 253:58]
  call void @_ZN11ap_int_baseILi32ELb0ELb1EEC2Ev(%struct.ap_int_base.2* %4), !dbg !13036 ; [debug line = 253:58]
  %5 = load i32* %2, align 4, !dbg !13037         ; [#uses=1 type=i32] [debug line = 253:60]
  %6 = bitcast %struct.ap_uint.1* %3 to %struct.ap_int_base.2*, !dbg !13037 ; [#uses=1 type=%struct.ap_int_base.2*] [debug line = 253:60]
  %7 = bitcast %struct.ap_int_base.2* %6 to %struct.ssdm_int*, !dbg !13037 ; [#uses=1 type=%struct.ssdm_int*] [debug line = 253:60]
  %8 = getelementptr inbounds %struct.ssdm_int* %7, i32 0, i32 0, !dbg !13037 ; [#uses=1 type=i32*] [debug line = 253:60]
  store i32 %5, i32* %8, align 4, !dbg !13037     ; [debug line = 253:60]
  ret void, !dbg !13039                           ; [debug line = 253:75]
}

!llvm.dbg.cu = !{!0, !6967}
!opencl.kernels = !{!12350, !12357, !12363, !12365, !12366, !12372, !12375, !12381, !12382, !12383, !12384, !12386, !12388, !12390, !12391, !12393, !12394, !12395, !12398, !12399, !12400, !12401, !12402, !12404, !12407, !12408, !12409, !12411, !12412, !12413, !12414, !12415, !12416, !12417, !12419, !12420, !12421, !12422, !12425, !12427, !12428, !12429, !12430, !12431, !12432, !12433, !12434, !12435, !12437, !12438, !12440, !12441, !12442, !12443, !12445, !12446, !12447, !12448, !12449, !12451, !12452, !12453, !12454, !12455, !12456, !12457, !12458, !12459, !12460, !12463, !12459, !12459, !12383, !12465, !12381, !12382, !12467, !12469, !12469, !12457, !12458, !12456, !12401, !12471, !12471, !12474, !12476, !12476, !12459, !12478, !12478, !12480, !12481, !12459, !12459, !12452, !12453, !12483, !12483, !12484, !12485, !12485, !12486, !12486, !12488}
!hls.encrypted.func = !{}

!0 = metadata !{i32 786449, i32 0, i32 4, metadata !"/home/brennan/Documents/pynq-copter/pynqcopter/ip/pwm/pwm/pwm/.autopilot/db/pwm.pragma.2.cpp", metadata !"/home/brennan/Documents/pynq-copter/pynqcopter/ip/pwm", metadata !"clang version 3.1 ", i1 true, i1 false, metadata !"", i32 0, metadata !1, metadata !4014, metadata !4015, metadata !5189} ; [ DW_TAG_compile_unit ]
!1 = metadata !{metadata !2}
!2 = metadata !{metadata !3, metadata !26, metadata !33, metadata !42, metadata !48, metadata !953, metadata !960, metadata !969, metadata !976, metadata !976, metadata !976, metadata !4007, metadata !4007, metadata !4007}
!3 = metadata !{i32 786436, metadata !4, metadata !"_Ios_Fmtflags", metadata !5, i32 52, i64 17, i64 32, i32 0, i32 0, null, metadata !6, i32 0, i32 0} ; [ DW_TAG_enumeration_type ]
!4 = metadata !{i32 786489, null, metadata !"std", metadata !5, i32 44} ; [ DW_TAG_namespace ]
!5 = metadata !{i32 786473, metadata !"/home/brennan/Vivado/Vivado/2017.4/lnx64/tools/gcc/lib/gcc/x86_64-unknown-linux-gnu/4.6.3/../../../../include/c++/4.6.3/bits/ios_base.h", metadata !"/home/brennan/Documents/pynq-copter/pynqcopter/ip/pwm", null} ; [ DW_TAG_file_type ]
!6 = metadata !{metadata !7, metadata !8, metadata !9, metadata !10, metadata !11, metadata !12, metadata !13, metadata !14, metadata !15, metadata !16, metadata !17, metadata !18, metadata !19, metadata !20, metadata !21, metadata !22, metadata !23, metadata !24, metadata !25}
!7 = metadata !{i32 786472, metadata !"_S_boolalpha", i64 1} ; [ DW_TAG_enumerator ]
!8 = metadata !{i32 786472, metadata !"_S_dec", i64 2} ; [ DW_TAG_enumerator ]
!9 = metadata !{i32 786472, metadata !"_S_fixed", i64 4} ; [ DW_TAG_enumerator ]
!10 = metadata !{i32 786472, metadata !"_S_hex", i64 8} ; [ DW_TAG_enumerator ]
!11 = metadata !{i32 786472, metadata !"_S_internal", i64 16} ; [ DW_TAG_enumerator ]
!12 = metadata !{i32 786472, metadata !"_S_left", i64 32} ; [ DW_TAG_enumerator ]
!13 = metadata !{i32 786472, metadata !"_S_oct", i64 64} ; [ DW_TAG_enumerator ]
!14 = metadata !{i32 786472, metadata !"_S_right", i64 128} ; [ DW_TAG_enumerator ]
!15 = metadata !{i32 786472, metadata !"_S_scientific", i64 256} ; [ DW_TAG_enumerator ]
!16 = metadata !{i32 786472, metadata !"_S_showbase", i64 512} ; [ DW_TAG_enumerator ]
!17 = metadata !{i32 786472, metadata !"_S_showpoint", i64 1024} ; [ DW_TAG_enumerator ]
!18 = metadata !{i32 786472, metadata !"_S_showpos", i64 2048} ; [ DW_TAG_enumerator ]
!19 = metadata !{i32 786472, metadata !"_S_skipws", i64 4096} ; [ DW_TAG_enumerator ]
!20 = metadata !{i32 786472, metadata !"_S_unitbuf", i64 8192} ; [ DW_TAG_enumerator ]
!21 = metadata !{i32 786472, metadata !"_S_uppercase", i64 16384} ; [ DW_TAG_enumerator ]
!22 = metadata !{i32 786472, metadata !"_S_adjustfield", i64 176} ; [ DW_TAG_enumerator ]
!23 = metadata !{i32 786472, metadata !"_S_basefield", i64 74} ; [ DW_TAG_enumerator ]
!24 = metadata !{i32 786472, metadata !"_S_floatfield", i64 260} ; [ DW_TAG_enumerator ]
!25 = metadata !{i32 786472, metadata !"_S_ios_fmtflags_end", i64 65536} ; [ DW_TAG_enumerator ]
!26 = metadata !{i32 786436, metadata !4, metadata !"_Ios_Iostate", metadata !5, i32 144, i64 17, i64 32, i32 0, i32 0, null, metadata !27, i32 0, i32 0} ; [ DW_TAG_enumeration_type ]
!27 = metadata !{metadata !28, metadata !29, metadata !30, metadata !31, metadata !32}
!28 = metadata !{i32 786472, metadata !"_S_goodbit", i64 0} ; [ DW_TAG_enumerator ]
!29 = metadata !{i32 786472, metadata !"_S_badbit", i64 1} ; [ DW_TAG_enumerator ]
!30 = metadata !{i32 786472, metadata !"_S_eofbit", i64 2} ; [ DW_TAG_enumerator ]
!31 = metadata !{i32 786472, metadata !"_S_failbit", i64 4} ; [ DW_TAG_enumerator ]
!32 = metadata !{i32 786472, metadata !"_S_ios_iostate_end", i64 65536} ; [ DW_TAG_enumerator ]
!33 = metadata !{i32 786436, metadata !4, metadata !"_Ios_Openmode", metadata !5, i32 104, i64 17, i64 32, i32 0, i32 0, null, metadata !34, i32 0, i32 0} ; [ DW_TAG_enumeration_type ]
!34 = metadata !{metadata !35, metadata !36, metadata !37, metadata !38, metadata !39, metadata !40, metadata !41}
!35 = metadata !{i32 786472, metadata !"_S_app", i64 1} ; [ DW_TAG_enumerator ]
!36 = metadata !{i32 786472, metadata !"_S_ate", i64 2} ; [ DW_TAG_enumerator ]
!37 = metadata !{i32 786472, metadata !"_S_bin", i64 4} ; [ DW_TAG_enumerator ]
!38 = metadata !{i32 786472, metadata !"_S_in", i64 8} ; [ DW_TAG_enumerator ]
!39 = metadata !{i32 786472, metadata !"_S_out", i64 16} ; [ DW_TAG_enumerator ]
!40 = metadata !{i32 786472, metadata !"_S_trunc", i64 32} ; [ DW_TAG_enumerator ]
!41 = metadata !{i32 786472, metadata !"_S_ios_openmode_end", i64 65536} ; [ DW_TAG_enumerator ]
!42 = metadata !{i32 786436, metadata !4, metadata !"_Ios_Seekdir", metadata !5, i32 182, i64 17, i64 32, i32 0, i32 0, null, metadata !43, i32 0, i32 0} ; [ DW_TAG_enumeration_type ]
!43 = metadata !{metadata !44, metadata !45, metadata !46, metadata !47}
!44 = metadata !{i32 786472, metadata !"_S_beg", i64 0} ; [ DW_TAG_enumerator ]
!45 = metadata !{i32 786472, metadata !"_S_cur", i64 1} ; [ DW_TAG_enumerator ]
!46 = metadata !{i32 786472, metadata !"_S_end", i64 2} ; [ DW_TAG_enumerator ]
!47 = metadata !{i32 786472, metadata !"_S_ios_seekdir_end", i64 65536} ; [ DW_TAG_enumerator ]
!48 = metadata !{i32 786436, metadata !49, metadata !"event", metadata !5, i32 420, i64 2, i64 2, i32 0, i32 0, null, metadata !949, i32 0, i32 0} ; [ DW_TAG_enumeration_type ]
!49 = metadata !{i32 786434, metadata !4, metadata !"ios_base", metadata !5, i32 200, i64 1728, i64 64, i32 0, i32 0, null, metadata !50, i32 0, metadata !49, null} ; [ DW_TAG_class_type ]
!50 = metadata !{metadata !51, metadata !57, metadata !65, metadata !66, metadata !68, metadata !70, metadata !71, metadata !97, metadata !107, metadata !111, metadata !112, metadata !114, metadata !881, metadata !885, metadata !888, metadata !891, metadata !895, metadata !896, metadata !901, metadata !904, metadata !905, metadata !908, metadata !911, metadata !914, metadata !917, metadata !918, metadata !919, metadata !922, metadata !925, metadata !928, metadata !931, metadata !932, metadata !936, metadata !940, metadata !941, metadata !942, metadata !946}
!51 = metadata !{i32 786445, metadata !5, metadata !"_vptr$ios_base", metadata !5, i32 0, i64 64, i64 0, i64 0, i32 0, metadata !52} ; [ DW_TAG_member ]
!52 = metadata !{i32 786447, null, metadata !"", null, i32 0, i64 64, i64 0, i64 0, i32 0, metadata !53} ; [ DW_TAG_pointer_type ]
!53 = metadata !{i32 786447, null, metadata !"__vtbl_ptr_type", null, i32 0, i64 64, i64 0, i64 0, i32 0, metadata !54} ; [ DW_TAG_pointer_type ]
!54 = metadata !{i32 786453, i32 0, metadata !"", i32 0, i32 0, i64 0, i64 0, i64 0, i32 0, null, metadata !55, i32 0, i32 0} ; [ DW_TAG_subroutine_type ]
!55 = metadata !{metadata !56}
!56 = metadata !{i32 786468, null, metadata !"int", null, i32 0, i64 32, i64 32, i64 0, i32 0, i32 5} ; [ DW_TAG_base_type ]
!57 = metadata !{i32 786445, metadata !49, metadata !"_M_precision", metadata !5, i32 453, i64 64, i64 64, i64 64, i32 2, metadata !58} ; [ DW_TAG_member ]
!58 = metadata !{i32 786454, metadata !59, metadata !"streamsize", metadata !5, i32 99, i64 0, i64 0, i64 0, i32 0, metadata !61} ; [ DW_TAG_typedef ]
!59 = metadata !{i32 786489, null, metadata !"std", metadata !60, i32 69} ; [ DW_TAG_namespace ]
!60 = metadata !{i32 786473, metadata !"/home/brennan/Vivado/Vivado/2017.4/lnx64/tools/gcc/lib/gcc/x86_64-unknown-linux-gnu/4.6.3/../../../../include/c++/4.6.3/bits/postypes.h", metadata !"/home/brennan/Documents/pynq-copter/pynqcopter/ip/pwm", null} ; [ DW_TAG_file_type ]
!61 = metadata !{i32 786454, metadata !62, metadata !"ptrdiff_t", metadata !5, i32 156, i64 0, i64 0, i64 0, i32 0, metadata !64} ; [ DW_TAG_typedef ]
!62 = metadata !{i32 786489, null, metadata !"std", metadata !63, i32 153} ; [ DW_TAG_namespace ]
!63 = metadata !{i32 786473, metadata !"/home/brennan/Vivado/Vivado/2017.4/lnx64/tools/gcc/lib/gcc/x86_64-unknown-linux-gnu/4.6.3/../../../../include/c++/4.6.3/x86_64-unknown-linux-gnu/bits/c++config.h", metadata !"/home/brennan/Documents/pynq-copter/pynqcopter/ip/pwm", null} ; [ DW_TAG_file_type ]
!64 = metadata !{i32 786468, null, metadata !"long int", null, i32 0, i64 64, i64 64, i64 0, i32 0, i32 5} ; [ DW_TAG_base_type ]
!65 = metadata !{i32 786445, metadata !49, metadata !"_M_width", metadata !5, i32 454, i64 64, i64 64, i64 128, i32 2, metadata !58} ; [ DW_TAG_member ]
!66 = metadata !{i32 786445, metadata !49, metadata !"_M_flags", metadata !5, i32 455, i64 17, i64 32, i64 192, i32 2, metadata !67} ; [ DW_TAG_member ]
!67 = metadata !{i32 786454, metadata !49, metadata !"fmtflags", metadata !5, i32 256, i64 0, i64 0, i64 0, i32 0, metadata !3} ; [ DW_TAG_typedef ]
!68 = metadata !{i32 786445, metadata !49, metadata !"_M_exception", metadata !5, i32 456, i64 17, i64 32, i64 224, i32 2, metadata !69} ; [ DW_TAG_member ]
!69 = metadata !{i32 786454, metadata !49, metadata !"iostate", metadata !5, i32 331, i64 0, i64 0, i64 0, i32 0, metadata !26} ; [ DW_TAG_typedef ]
!70 = metadata !{i32 786445, metadata !49, metadata !"_M_streambuf_state", metadata !5, i32 457, i64 17, i64 32, i64 256, i32 2, metadata !69} ; [ DW_TAG_member ]
!71 = metadata !{i32 786445, metadata !49, metadata !"_M_callbacks", metadata !5, i32 491, i64 64, i64 64, i64 320, i32 2, metadata !72} ; [ DW_TAG_member ]
!72 = metadata !{i32 786447, null, metadata !"", null, i32 0, i64 64, i64 64, i64 0, i32 0, metadata !73} ; [ DW_TAG_pointer_type ]
!73 = metadata !{i32 786434, metadata !49, metadata !"_Callback_list", metadata !5, i32 461, i64 192, i64 64, i32 0, i32 0, null, metadata !74, i32 0, null, null} ; [ DW_TAG_class_type ]
!74 = metadata !{metadata !75, metadata !76, metadata !82, metadata !83, metadata !85, metadata !91, metadata !94}
!75 = metadata !{i32 786445, metadata !73, metadata !"_M_next", metadata !5, i32 464, i64 64, i64 64, i64 0, i32 0, metadata !72} ; [ DW_TAG_member ]
!76 = metadata !{i32 786445, metadata !73, metadata !"_M_fn", metadata !5, i32 465, i64 64, i64 64, i64 64, i32 0, metadata !77} ; [ DW_TAG_member ]
!77 = metadata !{i32 786454, metadata !49, metadata !"event_callback", metadata !5, i32 437, i64 0, i64 0, i64 0, i32 0, metadata !78} ; [ DW_TAG_typedef ]
!78 = metadata !{i32 786447, null, metadata !"", null, i32 0, i64 64, i64 64, i64 0, i32 0, metadata !79} ; [ DW_TAG_pointer_type ]
!79 = metadata !{i32 786453, i32 0, metadata !"", i32 0, i32 0, i64 0, i64 0, i64 0, i32 0, null, metadata !80, i32 0, i32 0} ; [ DW_TAG_subroutine_type ]
!80 = metadata !{null, metadata !48, metadata !81, metadata !56}
!81 = metadata !{i32 786448, null, null, null, i32 0, i64 0, i64 0, i64 0, i32 0, metadata !49} ; [ DW_TAG_reference_type ]
!82 = metadata !{i32 786445, metadata !73, metadata !"_M_index", metadata !5, i32 466, i64 32, i64 32, i64 128, i32 0, metadata !56} ; [ DW_TAG_member ]
!83 = metadata !{i32 786445, metadata !73, metadata !"_M_refcount", metadata !5, i32 467, i64 32, i64 32, i64 160, i32 0, metadata !84} ; [ DW_TAG_member ]
!84 = metadata !{i32 786454, null, metadata !"_Atomic_word", metadata !5, i32 32, i64 0, i64 0, i64 0, i32 0, metadata !56} ; [ DW_TAG_typedef ]
!85 = metadata !{i32 786478, i32 0, metadata !73, metadata !"_Callback_list", metadata !"_Callback_list", metadata !"", metadata !5, i32 469, metadata !86, i1 false, i1 false, i32 0, i32 0, null, i32 256, i1 false, null, null, i32 0, metadata !89, i32 469} ; [ DW_TAG_subprogram ]
!86 = metadata !{i32 786453, i32 0, metadata !"", i32 0, i32 0, i64 0, i64 0, i64 0, i32 0, null, metadata !87, i32 0, i32 0} ; [ DW_TAG_subroutine_type ]
!87 = metadata !{null, metadata !88, metadata !77, metadata !56, metadata !72}
!88 = metadata !{i32 786447, i32 0, metadata !"", i32 0, i32 0, i64 64, i64 64, i64 0, i32 64, metadata !73} ; [ DW_TAG_pointer_type ]
!89 = metadata !{metadata !90}
!90 = metadata !{i32 786468}                      ; [ DW_TAG_base_type ]
!91 = metadata !{i32 786478, i32 0, metadata !73, metadata !"_M_add_reference", metadata !"_M_add_reference", metadata !"_ZNSt8ios_base14_Callback_list16_M_add_referenceEv", metadata !5, i32 474, metadata !92, i1 false, i1 false, i32 0, i32 0, null, i32 256, i1 false, null, null, i32 0, metadata !89, i32 474} ; [ DW_TAG_subprogram ]
!92 = metadata !{i32 786453, i32 0, metadata !"", i32 0, i32 0, i64 0, i64 0, i64 0, i32 0, null, metadata !93, i32 0, i32 0} ; [ DW_TAG_subroutine_type ]
!93 = metadata !{null, metadata !88}
!94 = metadata !{i32 786478, i32 0, metadata !73, metadata !"_M_remove_reference", metadata !"_M_remove_reference", metadata !"_ZNSt8ios_base14_Callback_list19_M_remove_referenceEv", metadata !5, i32 478, metadata !95, i1 false, i1 false, i32 0, i32 0, null, i32 256, i1 false, null, null, i32 0, metadata !89, i32 478} ; [ DW_TAG_subprogram ]
!95 = metadata !{i32 786453, i32 0, metadata !"", i32 0, i32 0, i64 0, i64 0, i64 0, i32 0, null, metadata !96, i32 0, i32 0} ; [ DW_TAG_subroutine_type ]
!96 = metadata !{metadata !56, metadata !88}
!97 = metadata !{i32 786445, metadata !49, metadata !"_M_word_zero", metadata !5, i32 508, i64 128, i64 64, i64 384, i32 2, metadata !98} ; [ DW_TAG_member ]
!98 = metadata !{i32 786434, metadata !49, metadata !"_Words", metadata !5, i32 500, i64 128, i64 64, i32 0, i32 0, null, metadata !99, i32 0, null, null} ; [ DW_TAG_class_type ]
!99 = metadata !{metadata !100, metadata !102, metadata !103}
!100 = metadata !{i32 786445, metadata !98, metadata !"_M_pword", metadata !5, i32 502, i64 64, i64 64, i64 0, i32 0, metadata !101} ; [ DW_TAG_member ]
!101 = metadata !{i32 786447, null, metadata !"", null, i32 0, i64 64, i64 64, i64 0, i32 0, null} ; [ DW_TAG_pointer_type ]
!102 = metadata !{i32 786445, metadata !98, metadata !"_M_iword", metadata !5, i32 503, i64 64, i64 64, i64 64, i32 0, metadata !64} ; [ DW_TAG_member ]
!103 = metadata !{i32 786478, i32 0, metadata !98, metadata !"_Words", metadata !"_Words", metadata !"", metadata !5, i32 504, metadata !104, i1 false, i1 false, i32 0, i32 0, null, i32 256, i1 false, null, null, i32 0, metadata !89, i32 504} ; [ DW_TAG_subprogram ]
!104 = metadata !{i32 786453, i32 0, metadata !"", i32 0, i32 0, i64 0, i64 0, i64 0, i32 0, null, metadata !105, i32 0, i32 0} ; [ DW_TAG_subroutine_type ]
!105 = metadata !{null, metadata !106}
!106 = metadata !{i32 786447, i32 0, metadata !"", i32 0, i32 0, i64 64, i64 64, i64 0, i32 64, metadata !98} ; [ DW_TAG_pointer_type ]
!107 = metadata !{i32 786445, metadata !49, metadata !"_M_local_word", metadata !5, i32 513, i64 1024, i64 64, i64 512, i32 2, metadata !108} ; [ DW_TAG_member ]
!108 = metadata !{i32 786433, null, metadata !"", null, i32 0, i64 1024, i64 64, i32 0, i32 0, metadata !98, metadata !109, i32 0, i32 0} ; [ DW_TAG_array_type ]
!109 = metadata !{metadata !110}
!110 = metadata !{i32 786465, i64 0, i64 7}       ; [ DW_TAG_subrange_type ]
!111 = metadata !{i32 786445, metadata !49, metadata !"_M_word_size", metadata !5, i32 516, i64 32, i64 32, i64 1536, i32 2, metadata !56} ; [ DW_TAG_member ]
!112 = metadata !{i32 786445, metadata !49, metadata !"_M_word", metadata !5, i32 517, i64 64, i64 64, i64 1600, i32 2, metadata !113} ; [ DW_TAG_member ]
!113 = metadata !{i32 786447, null, metadata !"", null, i32 0, i64 64, i64 64, i64 0, i32 0, metadata !98} ; [ DW_TAG_pointer_type ]
!114 = metadata !{i32 786445, metadata !49, metadata !"_M_ios_locale", metadata !5, i32 523, i64 64, i64 64, i64 1664, i32 2, metadata !115} ; [ DW_TAG_member ]
!115 = metadata !{i32 786434, metadata !116, metadata !"locale", metadata !117, i32 63, i64 64, i64 64, i32 0, i32 0, null, metadata !118, i32 0, null, null} ; [ DW_TAG_class_type ]
!116 = metadata !{i32 786489, null, metadata !"std", metadata !117, i32 44} ; [ DW_TAG_namespace ]
!117 = metadata !{i32 786473, metadata !"/home/brennan/Vivado/Vivado/2017.4/lnx64/tools/gcc/lib/gcc/x86_64-unknown-linux-gnu/4.6.3/../../../../include/c++/4.6.3/bits/locale_classes.h", metadata !"/home/brennan/Documents/pynq-copter/pynqcopter/ip/pwm", null} ; [ DW_TAG_file_type ]
!118 = metadata !{metadata !119, metadata !280, metadata !284, metadata !289, metadata !292, metadata !295, metadata !298, metadata !299, metadata !302, metadata !860, metadata !863, metadata !864, metadata !867, metadata !870, metadata !873, metadata !874, metadata !875, metadata !878, metadata !879, metadata !880}
!119 = metadata !{i32 786445, metadata !115, metadata !"_M_impl", metadata !117, i32 280, i64 64, i64 64, i64 0, i32 1, metadata !120} ; [ DW_TAG_member ]
!120 = metadata !{i32 786447, null, metadata !"", null, i32 0, i64 64, i64 64, i64 0, i32 0, metadata !121} ; [ DW_TAG_pointer_type ]
!121 = metadata !{i32 786434, metadata !115, metadata !"_Impl", metadata !117, i32 475, i64 320, i64 64, i32 0, i32 0, null, metadata !122, i32 0, null, null} ; [ DW_TAG_class_type ]
!122 = metadata !{metadata !123, metadata !124, metadata !209, metadata !210, metadata !211, metadata !214, metadata !218, metadata !219, metadata !224, metadata !227, metadata !230, metadata !231, metadata !234, metadata !235, metadata !239, metadata !244, metadata !269, metadata !272, metadata !275, metadata !278, metadata !279}
!123 = metadata !{i32 786445, metadata !121, metadata !"_M_refcount", metadata !117, i32 495, i64 32, i64 32, i64 0, i32 1, metadata !84} ; [ DW_TAG_member ]
!124 = metadata !{i32 786445, metadata !121, metadata !"_M_facets", metadata !117, i32 496, i64 64, i64 64, i64 64, i32 1, metadata !125} ; [ DW_TAG_member ]
!125 = metadata !{i32 786447, null, metadata !"", null, i32 0, i64 64, i64 64, i64 0, i32 0, metadata !126} ; [ DW_TAG_pointer_type ]
!126 = metadata !{i32 786447, null, metadata !"", null, i32 0, i64 64, i64 64, i64 0, i32 0, metadata !127} ; [ DW_TAG_pointer_type ]
!127 = metadata !{i32 786470, null, metadata !"", null, i32 0, i64 0, i64 0, i64 0, i32 0, metadata !128} ; [ DW_TAG_const_type ]
!128 = metadata !{i32 786434, metadata !115, metadata !"facet", metadata !117, i32 338, i64 128, i64 64, i32 0, i32 0, null, metadata !129, i32 0, metadata !128, null} ; [ DW_TAG_class_type ]
!129 = metadata !{metadata !130, metadata !131, metadata !132, metadata !135, metadata !141, metadata !144, metadata !179, metadata !182, metadata !185, metadata !188, metadata !191, metadata !194, metadata !198, metadata !199, metadata !203, metadata !207, metadata !208}
!130 = metadata !{i32 786445, metadata !117, metadata !"_vptr$facet", metadata !117, i32 0, i64 64, i64 0, i64 0, i32 0, metadata !52} ; [ DW_TAG_member ]
!131 = metadata !{i32 786445, metadata !128, metadata !"_M_refcount", metadata !117, i32 344, i64 32, i64 32, i64 64, i32 1, metadata !84} ; [ DW_TAG_member ]
!132 = metadata !{i32 786478, i32 0, metadata !128, metadata !"_S_initialize_once", metadata !"_S_initialize_once", metadata !"_ZNSt6locale5facet18_S_initialize_onceEv", metadata !117, i32 357, metadata !133, i1 false, i1 false, i32 0, i32 0, null, i32 257, i1 false, null, null, i32 0, metadata !89, i32 357} ; [ DW_TAG_subprogram ]
!133 = metadata !{i32 786453, i32 0, metadata !"", i32 0, i32 0, i64 0, i64 0, i64 0, i32 0, null, metadata !134, i32 0, i32 0} ; [ DW_TAG_subroutine_type ]
!134 = metadata !{null}
!135 = metadata !{i32 786478, i32 0, metadata !128, metadata !"facet", metadata !"facet", metadata !"", metadata !117, i32 370, metadata !136, i1 false, i1 false, i32 0, i32 0, null, i32 386, i1 false, null, null, i32 0, metadata !89, i32 370} ; [ DW_TAG_subprogram ]
!136 = metadata !{i32 786453, i32 0, metadata !"", i32 0, i32 0, i64 0, i64 0, i64 0, i32 0, null, metadata !137, i32 0, i32 0} ; [ DW_TAG_subroutine_type ]
!137 = metadata !{null, metadata !138, metadata !139}
!138 = metadata !{i32 786447, i32 0, metadata !"", i32 0, i32 0, i64 64, i64 64, i64 0, i32 64, metadata !128} ; [ DW_TAG_pointer_type ]
!139 = metadata !{i32 786454, metadata !62, metadata !"size_t", metadata !117, i32 155, i64 0, i64 0, i64 0, i32 0, metadata !140} ; [ DW_TAG_typedef ]
!140 = metadata !{i32 786468, null, metadata !"long unsigned int", null, i32 0, i64 64, i64 64, i64 0, i32 0, i32 7} ; [ DW_TAG_base_type ]
!141 = metadata !{i32 786478, i32 0, metadata !128, metadata !"~facet", metadata !"~facet", metadata !"", metadata !117, i32 375, metadata !142, i1 false, i1 false, i32 1, i32 0, metadata !128, i32 258, i1 false, null, null, i32 0, metadata !89, i32 375} ; [ DW_TAG_subprogram ]
!142 = metadata !{i32 786453, i32 0, metadata !"", i32 0, i32 0, i64 0, i64 0, i64 0, i32 0, null, metadata !143, i32 0, i32 0} ; [ DW_TAG_subroutine_type ]
!143 = metadata !{null, metadata !138}
!144 = metadata !{i32 786478, i32 0, metadata !128, metadata !"_S_create_c_locale", metadata !"_S_create_c_locale", metadata !"_ZNSt6locale5facet18_S_create_c_localeERP15__locale_structPKcS2_", metadata !117, i32 378, metadata !145, i1 false, i1 false, i32 0, i32 0, null, i32 258, i1 false, null, null, i32 0, metadata !89, i32 378} ; [ DW_TAG_subprogram ]
!145 = metadata !{i32 786453, i32 0, metadata !"", i32 0, i32 0, i64 0, i64 0, i64 0, i32 0, null, metadata !146, i32 0, i32 0} ; [ DW_TAG_subroutine_type ]
!146 = metadata !{null, metadata !147, metadata !172, metadata !148}
!147 = metadata !{i32 786448, null, null, null, i32 0, i64 0, i64 0, i64 0, i32 0, metadata !148} ; [ DW_TAG_reference_type ]
!148 = metadata !{i32 786454, metadata !149, metadata !"__c_locale", metadata !117, i32 62, i64 0, i64 0, i64 0, i32 0, metadata !151} ; [ DW_TAG_typedef ]
!149 = metadata !{i32 786489, null, metadata !"std", metadata !150, i32 58} ; [ DW_TAG_namespace ]
!150 = metadata !{i32 786473, metadata !"/home/brennan/Vivado/Vivado/2017.4/lnx64/tools/gcc/lib/gcc/x86_64-unknown-linux-gnu/4.6.3/../../../../include/c++/4.6.3/x86_64-unknown-linux-gnu/bits/c++locale.h", metadata !"/home/brennan/Documents/pynq-copter/pynqcopter/ip/pwm", null} ; [ DW_TAG_file_type ]
!151 = metadata !{i32 786454, null, metadata !"__locale_t", metadata !117, i32 39, i64 0, i64 0, i64 0, i32 0, metadata !152} ; [ DW_TAG_typedef ]
!152 = metadata !{i32 786447, null, metadata !"", null, i32 0, i64 64, i64 64, i64 0, i32 0, metadata !153} ; [ DW_TAG_pointer_type ]
!153 = metadata !{i32 786434, null, metadata !"__locale_struct", metadata !154, i32 27, i64 1856, i64 64, i32 0, i32 0, null, metadata !155, i32 0, null, null} ; [ DW_TAG_class_type ]
!154 = metadata !{i32 786473, metadata !"/usr/include/xlocale.h", metadata !"/home/brennan/Documents/pynq-copter/pynqcopter/ip/pwm", null} ; [ DW_TAG_file_type ]
!155 = metadata !{metadata !156, metadata !162, metadata !166, metadata !169, metadata !170, metadata !175}
!156 = metadata !{i32 786445, metadata !153, metadata !"__locales", metadata !154, i32 30, i64 832, i64 64, i64 0, i32 0, metadata !157} ; [ DW_TAG_member ]
!157 = metadata !{i32 786433, null, metadata !"", null, i32 0, i64 832, i64 64, i32 0, i32 0, metadata !158, metadata !160, i32 0, i32 0} ; [ DW_TAG_array_type ]
!158 = metadata !{i32 786447, null, metadata !"", null, i32 0, i64 64, i64 64, i64 0, i32 0, metadata !159} ; [ DW_TAG_pointer_type ]
!159 = metadata !{i32 786434, null, metadata !"__locale_data", metadata !154, i32 30, i32 0, i32 0, i32 0, i32 4, null, null, i32 0} ; [ DW_TAG_class_type ]
!160 = metadata !{metadata !161}
!161 = metadata !{i32 786465, i64 0, i64 12}      ; [ DW_TAG_subrange_type ]
!162 = metadata !{i32 786445, metadata !153, metadata !"__ctype_b", metadata !154, i32 33, i64 64, i64 64, i64 832, i32 0, metadata !163} ; [ DW_TAG_member ]
!163 = metadata !{i32 786447, null, metadata !"", null, i32 0, i64 64, i64 64, i64 0, i32 0, metadata !164} ; [ DW_TAG_pointer_type ]
!164 = metadata !{i32 786470, null, metadata !"", null, i32 0, i64 0, i64 0, i64 0, i32 0, metadata !165} ; [ DW_TAG_const_type ]
!165 = metadata !{i32 786468, null, metadata !"unsigned short", null, i32 0, i64 16, i64 16, i64 0, i32 0, i32 7} ; [ DW_TAG_base_type ]
!166 = metadata !{i32 786445, metadata !153, metadata !"__ctype_tolower", metadata !154, i32 34, i64 64, i64 64, i64 896, i32 0, metadata !167} ; [ DW_TAG_member ]
!167 = metadata !{i32 786447, null, metadata !"", null, i32 0, i64 64, i64 64, i64 0, i32 0, metadata !168} ; [ DW_TAG_pointer_type ]
!168 = metadata !{i32 786470, null, metadata !"", null, i32 0, i64 0, i64 0, i64 0, i32 0, metadata !56} ; [ DW_TAG_const_type ]
!169 = metadata !{i32 786445, metadata !153, metadata !"__ctype_toupper", metadata !154, i32 35, i64 64, i64 64, i64 960, i32 0, metadata !167} ; [ DW_TAG_member ]
!170 = metadata !{i32 786445, metadata !153, metadata !"__names", metadata !154, i32 38, i64 832, i64 64, i64 1024, i32 0, metadata !171} ; [ DW_TAG_member ]
!171 = metadata !{i32 786433, null, metadata !"", null, i32 0, i64 832, i64 64, i32 0, i32 0, metadata !172, metadata !160, i32 0, i32 0} ; [ DW_TAG_array_type ]
!172 = metadata !{i32 786447, null, metadata !"", null, i32 0, i64 64, i64 64, i64 0, i32 0, metadata !173} ; [ DW_TAG_pointer_type ]
!173 = metadata !{i32 786470, null, metadata !"", null, i32 0, i64 0, i64 0, i64 0, i32 0, metadata !174} ; [ DW_TAG_const_type ]
!174 = metadata !{i32 786468, null, metadata !"char", null, i32 0, i64 8, i64 8, i64 0, i32 0, i32 6} ; [ DW_TAG_base_type ]
!175 = metadata !{i32 786478, i32 0, metadata !153, metadata !"__locale_struct", metadata !"__locale_struct", metadata !"", metadata !154, i32 41, metadata !176, i1 false, i1 false, i32 0, i32 0, null, i32 256, i1 false, null, null, i32 0, metadata !89, i32 41} ; [ DW_TAG_subprogram ]
!176 = metadata !{i32 786453, i32 0, metadata !"", i32 0, i32 0, i64 0, i64 0, i64 0, i32 0, null, metadata !177, i32 0, i32 0} ; [ DW_TAG_subroutine_type ]
!177 = metadata !{null, metadata !178}
!178 = metadata !{i32 786447, i32 0, metadata !"", i32 0, i32 0, i64 64, i64 64, i64 0, i32 64, metadata !153} ; [ DW_TAG_pointer_type ]
!179 = metadata !{i32 786478, i32 0, metadata !128, metadata !"_S_clone_c_locale", metadata !"_S_clone_c_locale", metadata !"_ZNSt6locale5facet17_S_clone_c_localeERP15__locale_struct", metadata !117, i32 382, metadata !180, i1 false, i1 false, i32 0, i32 0, null, i32 258, i1 false, null, null, i32 0, metadata !89, i32 382} ; [ DW_TAG_subprogram ]
!180 = metadata !{i32 786453, i32 0, metadata !"", i32 0, i32 0, i64 0, i64 0, i64 0, i32 0, null, metadata !181, i32 0, i32 0} ; [ DW_TAG_subroutine_type ]
!181 = metadata !{metadata !148, metadata !147}
!182 = metadata !{i32 786478, i32 0, metadata !128, metadata !"_S_destroy_c_locale", metadata !"_S_destroy_c_locale", metadata !"_ZNSt6locale5facet19_S_destroy_c_localeERP15__locale_struct", metadata !117, i32 385, metadata !183, i1 false, i1 false, i32 0, i32 0, null, i32 258, i1 false, null, null, i32 0, metadata !89, i32 385} ; [ DW_TAG_subprogram ]
!183 = metadata !{i32 786453, i32 0, metadata !"", i32 0, i32 0, i64 0, i64 0, i64 0, i32 0, null, metadata !184, i32 0, i32 0} ; [ DW_TAG_subroutine_type ]
!184 = metadata !{null, metadata !147}
!185 = metadata !{i32 786478, i32 0, metadata !128, metadata !"_S_lc_ctype_c_locale", metadata !"_S_lc_ctype_c_locale", metadata !"_ZNSt6locale5facet20_S_lc_ctype_c_localeEP15__locale_structPKc", metadata !117, i32 388, metadata !186, i1 false, i1 false, i32 0, i32 0, null, i32 258, i1 false, null, null, i32 0, metadata !89, i32 388} ; [ DW_TAG_subprogram ]
!186 = metadata !{i32 786453, i32 0, metadata !"", i32 0, i32 0, i64 0, i64 0, i64 0, i32 0, null, metadata !187, i32 0, i32 0} ; [ DW_TAG_subroutine_type ]
!187 = metadata !{metadata !148, metadata !148, metadata !172}
!188 = metadata !{i32 786478, i32 0, metadata !128, metadata !"_S_get_c_locale", metadata !"_S_get_c_locale", metadata !"_ZNSt6locale5facet15_S_get_c_localeEv", metadata !117, i32 393, metadata !189, i1 false, i1 false, i32 0, i32 0, null, i32 258, i1 false, null, null, i32 0, metadata !89, i32 393} ; [ DW_TAG_subprogram ]
!189 = metadata !{i32 786453, i32 0, metadata !"", i32 0, i32 0, i64 0, i64 0, i64 0, i32 0, null, metadata !190, i32 0, i32 0} ; [ DW_TAG_subroutine_type ]
!190 = metadata !{metadata !148}
!191 = metadata !{i32 786478, i32 0, metadata !128, metadata !"_S_get_c_name", metadata !"_S_get_c_name", metadata !"_ZNSt6locale5facet13_S_get_c_nameEv", metadata !117, i32 396, metadata !192, i1 false, i1 false, i32 0, i32 0, null, i32 258, i1 false, null, null, i32 0, metadata !89, i32 396} ; [ DW_TAG_subprogram ]
!192 = metadata !{i32 786453, i32 0, metadata !"", i32 0, i32 0, i64 0, i64 0, i64 0, i32 0, null, metadata !193, i32 0, i32 0} ; [ DW_TAG_subroutine_type ]
!193 = metadata !{metadata !172}
!194 = metadata !{i32 786478, i32 0, metadata !128, metadata !"_M_add_reference", metadata !"_M_add_reference", metadata !"_ZNKSt6locale5facet16_M_add_referenceEv", metadata !117, i32 400, metadata !195, i1 false, i1 false, i32 0, i32 0, null, i32 257, i1 false, null, null, i32 0, metadata !89, i32 400} ; [ DW_TAG_subprogram ]
!195 = metadata !{i32 786453, i32 0, metadata !"", i32 0, i32 0, i64 0, i64 0, i64 0, i32 0, null, metadata !196, i32 0, i32 0} ; [ DW_TAG_subroutine_type ]
!196 = metadata !{null, metadata !197}
!197 = metadata !{i32 786447, i32 0, metadata !"", i32 0, i32 0, i64 64, i64 64, i64 0, i32 64, metadata !127} ; [ DW_TAG_pointer_type ]
!198 = metadata !{i32 786478, i32 0, metadata !128, metadata !"_M_remove_reference", metadata !"_M_remove_reference", metadata !"_ZNKSt6locale5facet19_M_remove_referenceEv", metadata !117, i32 404, metadata !195, i1 false, i1 false, i32 0, i32 0, null, i32 257, i1 false, null, null, i32 0, metadata !89, i32 404} ; [ DW_TAG_subprogram ]
!199 = metadata !{i32 786478, i32 0, metadata !128, metadata !"facet", metadata !"facet", metadata !"", metadata !117, i32 418, metadata !200, i1 false, i1 false, i32 0, i32 0, null, i32 257, i1 false, null, null, i32 0, metadata !89, i32 418} ; [ DW_TAG_subprogram ]
!200 = metadata !{i32 786453, i32 0, metadata !"", i32 0, i32 0, i64 0, i64 0, i64 0, i32 0, null, metadata !201, i32 0, i32 0} ; [ DW_TAG_subroutine_type ]
!201 = metadata !{null, metadata !138, metadata !202}
!202 = metadata !{i32 786448, null, null, null, i32 0, i64 0, i64 0, i64 0, i32 0, metadata !127} ; [ DW_TAG_reference_type ]
!203 = metadata !{i32 786478, i32 0, metadata !128, metadata !"operator=", metadata !"operator=", metadata !"_ZNSt6locale5facetaSERKS0_", metadata !117, i32 421, metadata !204, i1 false, i1 false, i32 0, i32 0, null, i32 257, i1 false, null, null, i32 0, metadata !89, i32 421} ; [ DW_TAG_subprogram ]
!204 = metadata !{i32 786453, i32 0, metadata !"", i32 0, i32 0, i64 0, i64 0, i64 0, i32 0, null, metadata !205, i32 0, i32 0} ; [ DW_TAG_subroutine_type ]
!205 = metadata !{metadata !206, metadata !138, metadata !202}
!206 = metadata !{i32 786448, null, null, null, i32 0, i64 0, i64 0, i64 0, i32 0, metadata !128} ; [ DW_TAG_reference_type ]
!207 = metadata !{i32 786474, metadata !128, null, metadata !117, i32 0, i64 0, i64 0, i64 0, i32 0, metadata !121} ; [ DW_TAG_friend ]
!208 = metadata !{i32 786474, metadata !128, null, metadata !117, i32 0, i64 0, i64 0, i64 0, i32 0, metadata !115} ; [ DW_TAG_friend ]
!209 = metadata !{i32 786445, metadata !121, metadata !"_M_facets_size", metadata !117, i32 497, i64 64, i64 64, i64 128, i32 1, metadata !139} ; [ DW_TAG_member ]
!210 = metadata !{i32 786445, metadata !121, metadata !"_M_caches", metadata !117, i32 498, i64 64, i64 64, i64 192, i32 1, metadata !125} ; [ DW_TAG_member ]
!211 = metadata !{i32 786445, metadata !121, metadata !"_M_names", metadata !117, i32 499, i64 64, i64 64, i64 256, i32 1, metadata !212} ; [ DW_TAG_member ]
!212 = metadata !{i32 786447, null, metadata !"", null, i32 0, i64 64, i64 64, i64 0, i32 0, metadata !213} ; [ DW_TAG_pointer_type ]
!213 = metadata !{i32 786447, null, metadata !"", null, i32 0, i64 64, i64 64, i64 0, i32 0, metadata !174} ; [ DW_TAG_pointer_type ]
!214 = metadata !{i32 786478, i32 0, metadata !121, metadata !"_M_add_reference", metadata !"_M_add_reference", metadata !"_ZNSt6locale5_Impl16_M_add_referenceEv", metadata !117, i32 509, metadata !215, i1 false, i1 false, i32 0, i32 0, null, i32 257, i1 false, null, null, i32 0, metadata !89, i32 509} ; [ DW_TAG_subprogram ]
!215 = metadata !{i32 786453, i32 0, metadata !"", i32 0, i32 0, i64 0, i64 0, i64 0, i32 0, null, metadata !216, i32 0, i32 0} ; [ DW_TAG_subroutine_type ]
!216 = metadata !{null, metadata !217}
!217 = metadata !{i32 786447, i32 0, metadata !"", i32 0, i32 0, i64 64, i64 64, i64 0, i32 64, metadata !121} ; [ DW_TAG_pointer_type ]
!218 = metadata !{i32 786478, i32 0, metadata !121, metadata !"_M_remove_reference", metadata !"_M_remove_reference", metadata !"_ZNSt6locale5_Impl19_M_remove_referenceEv", metadata !117, i32 513, metadata !215, i1 false, i1 false, i32 0, i32 0, null, i32 257, i1 false, null, null, i32 0, metadata !89, i32 513} ; [ DW_TAG_subprogram ]
!219 = metadata !{i32 786478, i32 0, metadata !121, metadata !"_Impl", metadata !"_Impl", metadata !"", metadata !117, i32 527, metadata !220, i1 false, i1 false, i32 0, i32 0, null, i32 257, i1 false, null, null, i32 0, metadata !89, i32 527} ; [ DW_TAG_subprogram ]
!220 = metadata !{i32 786453, i32 0, metadata !"", i32 0, i32 0, i64 0, i64 0, i64 0, i32 0, null, metadata !221, i32 0, i32 0} ; [ DW_TAG_subroutine_type ]
!221 = metadata !{null, metadata !217, metadata !222, metadata !139}
!222 = metadata !{i32 786448, null, null, null, i32 0, i64 0, i64 0, i64 0, i32 0, metadata !223} ; [ DW_TAG_reference_type ]
!223 = metadata !{i32 786470, null, metadata !"", null, i32 0, i64 0, i64 0, i64 0, i32 0, metadata !121} ; [ DW_TAG_const_type ]
!224 = metadata !{i32 786478, i32 0, metadata !121, metadata !"_Impl", metadata !"_Impl", metadata !"", metadata !117, i32 528, metadata !225, i1 false, i1 false, i32 0, i32 0, null, i32 257, i1 false, null, null, i32 0, metadata !89, i32 528} ; [ DW_TAG_subprogram ]
!225 = metadata !{i32 786453, i32 0, metadata !"", i32 0, i32 0, i64 0, i64 0, i64 0, i32 0, null, metadata !226, i32 0, i32 0} ; [ DW_TAG_subroutine_type ]
!226 = metadata !{null, metadata !217, metadata !172, metadata !139}
!227 = metadata !{i32 786478, i32 0, metadata !121, metadata !"_Impl", metadata !"_Impl", metadata !"", metadata !117, i32 529, metadata !228, i1 false, i1 false, i32 0, i32 0, null, i32 257, i1 false, null, null, i32 0, metadata !89, i32 529} ; [ DW_TAG_subprogram ]
!228 = metadata !{i32 786453, i32 0, metadata !"", i32 0, i32 0, i64 0, i64 0, i64 0, i32 0, null, metadata !229, i32 0, i32 0} ; [ DW_TAG_subroutine_type ]
!229 = metadata !{null, metadata !217, metadata !139}
!230 = metadata !{i32 786478, i32 0, metadata !121, metadata !"~_Impl", metadata !"~_Impl", metadata !"", metadata !117, i32 531, metadata !215, i1 false, i1 false, i32 0, i32 0, null, i32 257, i1 false, null, null, i32 0, metadata !89, i32 531} ; [ DW_TAG_subprogram ]
!231 = metadata !{i32 786478, i32 0, metadata !121, metadata !"_Impl", metadata !"_Impl", metadata !"", metadata !117, i32 533, metadata !232, i1 false, i1 false, i32 0, i32 0, null, i32 257, i1 false, null, null, i32 0, metadata !89, i32 533} ; [ DW_TAG_subprogram ]
!232 = metadata !{i32 786453, i32 0, metadata !"", i32 0, i32 0, i64 0, i64 0, i64 0, i32 0, null, metadata !233, i32 0, i32 0} ; [ DW_TAG_subroutine_type ]
!233 = metadata !{null, metadata !217, metadata !222}
!234 = metadata !{i32 786478, i32 0, metadata !121, metadata !"operator=", metadata !"operator=", metadata !"_ZNSt6locale5_ImplaSERKS0_", metadata !117, i32 536, metadata !232, i1 false, i1 false, i32 0, i32 0, null, i32 257, i1 false, null, null, i32 0, metadata !89, i32 536} ; [ DW_TAG_subprogram ]
!235 = metadata !{i32 786478, i32 0, metadata !121, metadata !"_M_check_same_name", metadata !"_M_check_same_name", metadata !"_ZNSt6locale5_Impl18_M_check_same_nameEv", metadata !117, i32 539, metadata !236, i1 false, i1 false, i32 0, i32 0, null, i32 257, i1 false, null, null, i32 0, metadata !89, i32 539} ; [ DW_TAG_subprogram ]
!236 = metadata !{i32 786453, i32 0, metadata !"", i32 0, i32 0, i64 0, i64 0, i64 0, i32 0, null, metadata !237, i32 0, i32 0} ; [ DW_TAG_subroutine_type ]
!237 = metadata !{metadata !238, metadata !217}
!238 = metadata !{i32 786468, null, metadata !"bool", null, i32 0, i64 8, i64 8, i64 0, i32 0, i32 2} ; [ DW_TAG_base_type ]
!239 = metadata !{i32 786478, i32 0, metadata !121, metadata !"_M_replace_categories", metadata !"_M_replace_categories", metadata !"_ZNSt6locale5_Impl21_M_replace_categoriesEPKS0_i", metadata !117, i32 550, metadata !240, i1 false, i1 false, i32 0, i32 0, null, i32 257, i1 false, null, null, i32 0, metadata !89, i32 550} ; [ DW_TAG_subprogram ]
!240 = metadata !{i32 786453, i32 0, metadata !"", i32 0, i32 0, i64 0, i64 0, i64 0, i32 0, null, metadata !241, i32 0, i32 0} ; [ DW_TAG_subroutine_type ]
!241 = metadata !{null, metadata !217, metadata !242, metadata !243}
!242 = metadata !{i32 786447, null, metadata !"", null, i32 0, i64 64, i64 64, i64 0, i32 0, metadata !223} ; [ DW_TAG_pointer_type ]
!243 = metadata !{i32 786454, metadata !115, metadata !"category", metadata !117, i32 68, i64 0, i64 0, i64 0, i32 0, metadata !56} ; [ DW_TAG_typedef ]
!244 = metadata !{i32 786478, i32 0, metadata !121, metadata !"_M_replace_category", metadata !"_M_replace_category", metadata !"_ZNSt6locale5_Impl19_M_replace_categoryEPKS0_PKPKNS_2idE", metadata !117, i32 553, metadata !245, i1 false, i1 false, i32 0, i32 0, null, i32 257, i1 false, null, null, i32 0, metadata !89, i32 553} ; [ DW_TAG_subprogram ]
!245 = metadata !{i32 786453, i32 0, metadata !"", i32 0, i32 0, i64 0, i64 0, i64 0, i32 0, null, metadata !246, i32 0, i32 0} ; [ DW_TAG_subroutine_type ]
!246 = metadata !{null, metadata !217, metadata !242, metadata !247}
!247 = metadata !{i32 786447, null, metadata !"", null, i32 0, i64 64, i64 64, i64 0, i32 0, metadata !248} ; [ DW_TAG_pointer_type ]
!248 = metadata !{i32 786470, null, metadata !"", null, i32 0, i64 0, i64 0, i64 0, i32 0, metadata !249} ; [ DW_TAG_const_type ]
!249 = metadata !{i32 786447, null, metadata !"", null, i32 0, i64 64, i64 64, i64 0, i32 0, metadata !250} ; [ DW_TAG_pointer_type ]
!250 = metadata !{i32 786470, null, metadata !"", null, i32 0, i64 0, i64 0, i64 0, i32 0, metadata !251} ; [ DW_TAG_const_type ]
!251 = metadata !{i32 786434, metadata !115, metadata !"id", metadata !117, i32 436, i64 64, i64 64, i32 0, i32 0, null, metadata !252, i32 0, null, null} ; [ DW_TAG_class_type ]
!252 = metadata !{metadata !253, metadata !254, metadata !259, metadata !260, metadata !263, metadata !267, metadata !268}
!253 = metadata !{i32 786445, metadata !251, metadata !"_M_index", metadata !117, i32 453, i64 64, i64 64, i64 0, i32 1, metadata !139} ; [ DW_TAG_member ]
!254 = metadata !{i32 786478, i32 0, metadata !251, metadata !"operator=", metadata !"operator=", metadata !"_ZNSt6locale2idaSERKS0_", metadata !117, i32 459, metadata !255, i1 false, i1 false, i32 0, i32 0, null, i32 257, i1 false, null, null, i32 0, metadata !89, i32 459} ; [ DW_TAG_subprogram ]
!255 = metadata !{i32 786453, i32 0, metadata !"", i32 0, i32 0, i64 0, i64 0, i64 0, i32 0, null, metadata !256, i32 0, i32 0} ; [ DW_TAG_subroutine_type ]
!256 = metadata !{null, metadata !257, metadata !258}
!257 = metadata !{i32 786447, i32 0, metadata !"", i32 0, i32 0, i64 64, i64 64, i64 0, i32 64, metadata !251} ; [ DW_TAG_pointer_type ]
!258 = metadata !{i32 786448, null, null, null, i32 0, i64 0, i64 0, i64 0, i32 0, metadata !250} ; [ DW_TAG_reference_type ]
!259 = metadata !{i32 786478, i32 0, metadata !251, metadata !"id", metadata !"id", metadata !"", metadata !117, i32 461, metadata !255, i1 false, i1 false, i32 0, i32 0, null, i32 257, i1 false, null, null, i32 0, metadata !89, i32 461} ; [ DW_TAG_subprogram ]
!260 = metadata !{i32 786478, i32 0, metadata !251, metadata !"id", metadata !"id", metadata !"", metadata !117, i32 467, metadata !261, i1 false, i1 false, i32 0, i32 0, null, i32 256, i1 false, null, null, i32 0, metadata !89, i32 467} ; [ DW_TAG_subprogram ]
!261 = metadata !{i32 786453, i32 0, metadata !"", i32 0, i32 0, i64 0, i64 0, i64 0, i32 0, null, metadata !262, i32 0, i32 0} ; [ DW_TAG_subroutine_type ]
!262 = metadata !{null, metadata !257}
!263 = metadata !{i32 786478, i32 0, metadata !251, metadata !"_M_id", metadata !"_M_id", metadata !"_ZNKSt6locale2id5_M_idEv", metadata !117, i32 470, metadata !264, i1 false, i1 false, i32 0, i32 0, null, i32 256, i1 false, null, null, i32 0, metadata !89, i32 470} ; [ DW_TAG_subprogram ]
!264 = metadata !{i32 786453, i32 0, metadata !"", i32 0, i32 0, i64 0, i64 0, i64 0, i32 0, null, metadata !265, i32 0, i32 0} ; [ DW_TAG_subroutine_type ]
!265 = metadata !{metadata !139, metadata !266}
!266 = metadata !{i32 786447, i32 0, metadata !"", i32 0, i32 0, i64 64, i64 64, i64 0, i32 64, metadata !250} ; [ DW_TAG_pointer_type ]
!267 = metadata !{i32 786474, metadata !251, null, metadata !117, i32 0, i64 0, i64 0, i64 0, i32 0, metadata !121} ; [ DW_TAG_friend ]
!268 = metadata !{i32 786474, metadata !251, null, metadata !117, i32 0, i64 0, i64 0, i64 0, i32 0, metadata !115} ; [ DW_TAG_friend ]
!269 = metadata !{i32 786478, i32 0, metadata !121, metadata !"_M_replace_facet", metadata !"_M_replace_facet", metadata !"_ZNSt6locale5_Impl16_M_replace_facetEPKS0_PKNS_2idE", metadata !117, i32 556, metadata !270, i1 false, i1 false, i32 0, i32 0, null, i32 257, i1 false, null, null, i32 0, metadata !89, i32 556} ; [ DW_TAG_subprogram ]
!270 = metadata !{i32 786453, i32 0, metadata !"", i32 0, i32 0, i64 0, i64 0, i64 0, i32 0, null, metadata !271, i32 0, i32 0} ; [ DW_TAG_subroutine_type ]
!271 = metadata !{null, metadata !217, metadata !242, metadata !249}
!272 = metadata !{i32 786478, i32 0, metadata !121, metadata !"_M_install_facet", metadata !"_M_install_facet", metadata !"_ZNSt6locale5_Impl16_M_install_facetEPKNS_2idEPKNS_5facetE", metadata !117, i32 559, metadata !273, i1 false, i1 false, i32 0, i32 0, null, i32 257, i1 false, null, null, i32 0, metadata !89, i32 559} ; [ DW_TAG_subprogram ]
!273 = metadata !{i32 786453, i32 0, metadata !"", i32 0, i32 0, i64 0, i64 0, i64 0, i32 0, null, metadata !274, i32 0, i32 0} ; [ DW_TAG_subroutine_type ]
!274 = metadata !{null, metadata !217, metadata !249, metadata !126}
!275 = metadata !{i32 786478, i32 0, metadata !121, metadata !"_M_install_cache", metadata !"_M_install_cache", metadata !"_ZNSt6locale5_Impl16_M_install_cacheEPKNS_5facetEm", metadata !117, i32 567, metadata !276, i1 false, i1 false, i32 0, i32 0, null, i32 257, i1 false, null, null, i32 0, metadata !89, i32 567} ; [ DW_TAG_subprogram ]
!276 = metadata !{i32 786453, i32 0, metadata !"", i32 0, i32 0, i64 0, i64 0, i64 0, i32 0, null, metadata !277, i32 0, i32 0} ; [ DW_TAG_subroutine_type ]
!277 = metadata !{null, metadata !217, metadata !126, metadata !139}
!278 = metadata !{i32 786474, metadata !121, null, metadata !117, i32 0, i64 0, i64 0, i64 0, i32 0, metadata !128} ; [ DW_TAG_friend ]
!279 = metadata !{i32 786474, metadata !121, null, metadata !117, i32 0, i64 0, i64 0, i64 0, i32 0, metadata !115} ; [ DW_TAG_friend ]
!280 = metadata !{i32 786478, i32 0, metadata !115, metadata !"locale", metadata !"locale", metadata !"", metadata !117, i32 118, metadata !281, i1 false, i1 false, i32 0, i32 0, null, i32 256, i1 false, null, null, i32 0, metadata !89, i32 118} ; [ DW_TAG_subprogram ]
!281 = metadata !{i32 786453, i32 0, metadata !"", i32 0, i32 0, i64 0, i64 0, i64 0, i32 0, null, metadata !282, i32 0, i32 0} ; [ DW_TAG_subroutine_type ]
!282 = metadata !{null, metadata !283}
!283 = metadata !{i32 786447, i32 0, metadata !"", i32 0, i32 0, i64 64, i64 64, i64 0, i32 64, metadata !115} ; [ DW_TAG_pointer_type ]
!284 = metadata !{i32 786478, i32 0, metadata !115, metadata !"locale", metadata !"locale", metadata !"", metadata !117, i32 127, metadata !285, i1 false, i1 false, i32 0, i32 0, null, i32 256, i1 false, null, null, i32 0, metadata !89, i32 127} ; [ DW_TAG_subprogram ]
!285 = metadata !{i32 786453, i32 0, metadata !"", i32 0, i32 0, i64 0, i64 0, i64 0, i32 0, null, metadata !286, i32 0, i32 0} ; [ DW_TAG_subroutine_type ]
!286 = metadata !{null, metadata !283, metadata !287}
!287 = metadata !{i32 786448, null, null, null, i32 0, i64 0, i64 0, i64 0, i32 0, metadata !288} ; [ DW_TAG_reference_type ]
!288 = metadata !{i32 786470, null, metadata !"", null, i32 0, i64 0, i64 0, i64 0, i32 0, metadata !115} ; [ DW_TAG_const_type ]
!289 = metadata !{i32 786478, i32 0, metadata !115, metadata !"locale", metadata !"locale", metadata !"", metadata !117, i32 138, metadata !290, i1 false, i1 false, i32 0, i32 0, null, i32 384, i1 false, null, null, i32 0, metadata !89, i32 138} ; [ DW_TAG_subprogram ]
!290 = metadata !{i32 786453, i32 0, metadata !"", i32 0, i32 0, i64 0, i64 0, i64 0, i32 0, null, metadata !291, i32 0, i32 0} ; [ DW_TAG_subroutine_type ]
!291 = metadata !{null, metadata !283, metadata !172}
!292 = metadata !{i32 786478, i32 0, metadata !115, metadata !"locale", metadata !"locale", metadata !"", metadata !117, i32 152, metadata !293, i1 false, i1 false, i32 0, i32 0, null, i32 256, i1 false, null, null, i32 0, metadata !89, i32 152} ; [ DW_TAG_subprogram ]
!293 = metadata !{i32 786453, i32 0, metadata !"", i32 0, i32 0, i64 0, i64 0, i64 0, i32 0, null, metadata !294, i32 0, i32 0} ; [ DW_TAG_subroutine_type ]
!294 = metadata !{null, metadata !283, metadata !287, metadata !172, metadata !243}
!295 = metadata !{i32 786478, i32 0, metadata !115, metadata !"locale", metadata !"locale", metadata !"", metadata !117, i32 165, metadata !296, i1 false, i1 false, i32 0, i32 0, null, i32 256, i1 false, null, null, i32 0, metadata !89, i32 165} ; [ DW_TAG_subprogram ]
!296 = metadata !{i32 786453, i32 0, metadata !"", i32 0, i32 0, i64 0, i64 0, i64 0, i32 0, null, metadata !297, i32 0, i32 0} ; [ DW_TAG_subroutine_type ]
!297 = metadata !{null, metadata !283, metadata !287, metadata !287, metadata !243}
!298 = metadata !{i32 786478, i32 0, metadata !115, metadata !"~locale", metadata !"~locale", metadata !"", metadata !117, i32 181, metadata !281, i1 false, i1 false, i32 0, i32 0, null, i32 256, i1 false, null, null, i32 0, metadata !89, i32 181} ; [ DW_TAG_subprogram ]
!299 = metadata !{i32 786478, i32 0, metadata !115, metadata !"operator=", metadata !"operator=", metadata !"_ZNSt6localeaSERKS_", metadata !117, i32 192, metadata !300, i1 false, i1 false, i32 0, i32 0, null, i32 256, i1 false, null, null, i32 0, metadata !89, i32 192} ; [ DW_TAG_subprogram ]
!300 = metadata !{i32 786453, i32 0, metadata !"", i32 0, i32 0, i64 0, i64 0, i64 0, i32 0, null, metadata !301, i32 0, i32 0} ; [ DW_TAG_subroutine_type ]
!301 = metadata !{metadata !287, metadata !283, metadata !287}
!302 = metadata !{i32 786478, i32 0, metadata !115, metadata !"name", metadata !"name", metadata !"_ZNKSt6locale4nameEv", metadata !117, i32 216, metadata !303, i1 false, i1 false, i32 0, i32 0, null, i32 256, i1 false, null, null, i32 0, metadata !89, i32 216} ; [ DW_TAG_subprogram ]
!303 = metadata !{i32 786453, i32 0, metadata !"", i32 0, i32 0, i64 0, i64 0, i64 0, i32 0, null, metadata !304, i32 0, i32 0} ; [ DW_TAG_subroutine_type ]
!304 = metadata !{metadata !305, metadata !859}
!305 = metadata !{i32 786454, metadata !306, metadata !"string", metadata !117, i32 64, i64 0, i64 0, i64 0, i32 0, metadata !308} ; [ DW_TAG_typedef ]
!306 = metadata !{i32 786489, null, metadata !"std", metadata !307, i32 42} ; [ DW_TAG_namespace ]
!307 = metadata !{i32 786473, metadata !"/home/brennan/Vivado/Vivado/2017.4/lnx64/tools/gcc/lib/gcc/x86_64-unknown-linux-gnu/4.6.3/../../../../include/c++/4.6.3/bits/stringfwd.h", metadata !"/home/brennan/Documents/pynq-copter/pynqcopter/ip/pwm", null} ; [ DW_TAG_file_type ]
!308 = metadata !{i32 786434, metadata !306, metadata !"basic_string<char>", metadata !309, i32 1133, i64 64, i64 64, i32 0, i32 0, null, metadata !310, i32 0, null, metadata !803} ; [ DW_TAG_class_type ]
!309 = metadata !{i32 786473, metadata !"/home/brennan/Vivado/Vivado/2017.4/lnx64/tools/gcc/lib/gcc/x86_64-unknown-linux-gnu/4.6.3/../../../../include/c++/4.6.3/bits/basic_string.tcc", metadata !"/home/brennan/Documents/pynq-copter/pynqcopter/ip/pwm", null} ; [ DW_TAG_file_type ]
!310 = metadata !{metadata !311, metadata !384, metadata !389, metadata !393, metadata !442, metadata !448, metadata !449, metadata !452, metadata !455, metadata !458, metadata !461, metadata !464, metadata !467, metadata !468, metadata !471, metadata !474, metadata !479, metadata !482, metadata !485, metadata !488, metadata !491, metadata !492, metadata !493, metadata !494, metadata !497, metadata !501, metadata !504, metadata !507, metadata !510, metadata !513, metadata !516, metadata !520, metadata !550, metadata !551, metadata !555, metadata !558, metadata !561, metadata !564, metadata !567, metadata !570, metadata !573, metadata !574, metadata !575, metadata !580, metadata !585, metadata !586, metadata !587, metadata !588, metadata !589, metadata !590, metadata !591, metadata !594, metadata !595, metadata !596, metadata !599, metadata !602, metadata !603, metadata !604, metadata !605, metadata !606, metadata !609, metadata !614, metadata !619, metadata !620, metadata !623, metadata !626, metadata !627, metadata !628, metadata !629, metadata !630, metadata !631, metadata !632, metadata !633, metadata !634, metadata !637, metadata !640, metadata !641, metadata !644, metadata !645, metadata !648, metadata !649, metadata !650, metadata !651, metadata !652, metadata !653, metadata !654, metadata !655, metadata !658, metadata !661, metadata !664, metadata !667, metadata !670, metadata !673, metadata !676, metadata !679, metadata !682, metadata !685, metadata !688, metadata !691, metadata !694, metadata !697, metadata !700, metadata !703, metadata !706, metadata !709, metadata !712, metadata !715, metadata !718, metadata !721, metadata !724, metadata !727, metadata !730, metadata !731, metadata !732, metadata !735, metadata !736, metadata !739, metadata !742, metadata !745, metadata !746, metadata !750, metadata !753, metadata !756, metadata !759, metadata !762, metadata !763, metadata !764, metadata !765, metadata !766, metadata !767, metadata !768, metadata !769, metadata !770, metadata !771, metadata !772, metadata !773, metadata !774, metadata !775, metadata !776, metadata !777, metadata !778, metadata !779, metadata !780, metadata !781, metadata !782, metadata !785, metadata !788, metadata !791, metadata !794, metadata !797, metadata !800}
!311 = metadata !{i32 786445, metadata !308, metadata !"_M_dataplus", metadata !312, i32 283, i64 64, i64 64, i64 0, i32 1, metadata !313} ; [ DW_TAG_member ]
!312 = metadata !{i32 786473, metadata !"/home/brennan/Vivado/Vivado/2017.4/lnx64/tools/gcc/lib/gcc/x86_64-unknown-linux-gnu/4.6.3/../../../../include/c++/4.6.3/bits/basic_string.h", metadata !"/home/brennan/Documents/pynq-copter/pynqcopter/ip/pwm", null} ; [ DW_TAG_file_type ]
!313 = metadata !{i32 786434, metadata !308, metadata !"_Alloc_hider", metadata !312, i32 266, i64 64, i64 64, i32 0, i32 0, null, metadata !314, i32 0, null, null} ; [ DW_TAG_class_type ]
!314 = metadata !{metadata !315, metadata !379, metadata !380}
!315 = metadata !{i32 786460, metadata !313, null, metadata !312, i32 0, i64 0, i64 0, i64 0, i32 0, metadata !316} ; [ DW_TAG_inheritance ]
!316 = metadata !{i32 786434, metadata !306, metadata !"allocator<char>", metadata !317, i32 143, i64 8, i64 8, i32 0, i32 0, null, metadata !318, i32 0, null, metadata !377} ; [ DW_TAG_class_type ]
!317 = metadata !{i32 786473, metadata !"/home/brennan/Vivado/Vivado/2017.4/lnx64/tools/gcc/lib/gcc/x86_64-unknown-linux-gnu/4.6.3/../../../../include/c++/4.6.3/bits/allocator.h", metadata !"/home/brennan/Documents/pynq-copter/pynqcopter/ip/pwm", null} ; [ DW_TAG_file_type ]
!318 = metadata !{metadata !319, metadata !367, metadata !371, metadata !376}
!319 = metadata !{i32 786460, metadata !316, null, metadata !317, i32 0, i64 0, i64 0, i64 0, i32 0, metadata !320} ; [ DW_TAG_inheritance ]
!320 = metadata !{i32 786434, metadata !321, metadata !"new_allocator<char>", metadata !322, i32 54, i64 8, i64 8, i32 0, i32 0, null, metadata !323, i32 0, null, metadata !365} ; [ DW_TAG_class_type ]
!321 = metadata !{i32 786489, null, metadata !"__gnu_cxx", metadata !322, i32 38} ; [ DW_TAG_namespace ]
!322 = metadata !{i32 786473, metadata !"/home/brennan/Vivado/Vivado/2017.4/lnx64/tools/gcc/lib/gcc/x86_64-unknown-linux-gnu/4.6.3/../../../../include/c++/4.6.3/ext/new_allocator.h", metadata !"/home/brennan/Documents/pynq-copter/pynqcopter/ip/pwm", null} ; [ DW_TAG_file_type ]
!323 = metadata !{metadata !324, metadata !328, metadata !333, metadata !334, metadata !341, metadata !347, metadata !353, metadata !356, metadata !359, metadata !362}
!324 = metadata !{i32 786478, i32 0, metadata !320, metadata !"new_allocator", metadata !"new_allocator", metadata !"", metadata !322, i32 69, metadata !325, i1 false, i1 false, i32 0, i32 0, null, i32 256, i1 false, null, null, i32 0, metadata !89, i32 69} ; [ DW_TAG_subprogram ]
!325 = metadata !{i32 786453, i32 0, metadata !"", i32 0, i32 0, i64 0, i64 0, i64 0, i32 0, null, metadata !326, i32 0, i32 0} ; [ DW_TAG_subroutine_type ]
!326 = metadata !{null, metadata !327}
!327 = metadata !{i32 786447, i32 0, metadata !"", i32 0, i32 0, i64 64, i64 64, i64 0, i32 64, metadata !320} ; [ DW_TAG_pointer_type ]
!328 = metadata !{i32 786478, i32 0, metadata !320, metadata !"new_allocator", metadata !"new_allocator", metadata !"", metadata !322, i32 71, metadata !329, i1 false, i1 false, i32 0, i32 0, null, i32 256, i1 false, null, null, i32 0, metadata !89, i32 71} ; [ DW_TAG_subprogram ]
!329 = metadata !{i32 786453, i32 0, metadata !"", i32 0, i32 0, i64 0, i64 0, i64 0, i32 0, null, metadata !330, i32 0, i32 0} ; [ DW_TAG_subroutine_type ]
!330 = metadata !{null, metadata !327, metadata !331}
!331 = metadata !{i32 786448, null, null, null, i32 0, i64 0, i64 0, i64 0, i32 0, metadata !332} ; [ DW_TAG_reference_type ]
!332 = metadata !{i32 786470, null, metadata !"", null, i32 0, i64 0, i64 0, i64 0, i32 0, metadata !320} ; [ DW_TAG_const_type ]
!333 = metadata !{i32 786478, i32 0, metadata !320, metadata !"~new_allocator", metadata !"~new_allocator", metadata !"", metadata !322, i32 76, metadata !325, i1 false, i1 false, i32 0, i32 0, null, i32 256, i1 false, null, null, i32 0, metadata !89, i32 76} ; [ DW_TAG_subprogram ]
!334 = metadata !{i32 786478, i32 0, metadata !320, metadata !"address", metadata !"address", metadata !"_ZNK9__gnu_cxx13new_allocatorIcE7addressERc", metadata !322, i32 79, metadata !335, i1 false, i1 false, i32 0, i32 0, null, i32 256, i1 false, null, null, i32 0, metadata !89, i32 79} ; [ DW_TAG_subprogram ]
!335 = metadata !{i32 786453, i32 0, metadata !"", i32 0, i32 0, i64 0, i64 0, i64 0, i32 0, null, metadata !336, i32 0, i32 0} ; [ DW_TAG_subroutine_type ]
!336 = metadata !{metadata !337, metadata !338, metadata !339}
!337 = metadata !{i32 786454, metadata !320, metadata !"pointer", metadata !322, i32 59, i64 0, i64 0, i64 0, i32 0, metadata !213} ; [ DW_TAG_typedef ]
!338 = metadata !{i32 786447, i32 0, metadata !"", i32 0, i32 0, i64 64, i64 64, i64 0, i32 64, metadata !332} ; [ DW_TAG_pointer_type ]
!339 = metadata !{i32 786454, metadata !320, metadata !"reference", metadata !322, i32 61, i64 0, i64 0, i64 0, i32 0, metadata !340} ; [ DW_TAG_typedef ]
!340 = metadata !{i32 786448, null, null, null, i32 0, i64 0, i64 0, i64 0, i32 0, metadata !174} ; [ DW_TAG_reference_type ]
!341 = metadata !{i32 786478, i32 0, metadata !320, metadata !"address", metadata !"address", metadata !"_ZNK9__gnu_cxx13new_allocatorIcE7addressERKc", metadata !322, i32 82, metadata !342, i1 false, i1 false, i32 0, i32 0, null, i32 256, i1 false, null, null, i32 0, metadata !89, i32 82} ; [ DW_TAG_subprogram ]
!342 = metadata !{i32 786453, i32 0, metadata !"", i32 0, i32 0, i64 0, i64 0, i64 0, i32 0, null, metadata !343, i32 0, i32 0} ; [ DW_TAG_subroutine_type ]
!343 = metadata !{metadata !344, metadata !338, metadata !345}
!344 = metadata !{i32 786454, metadata !320, metadata !"const_pointer", metadata !322, i32 60, i64 0, i64 0, i64 0, i32 0, metadata !172} ; [ DW_TAG_typedef ]
!345 = metadata !{i32 786454, metadata !320, metadata !"const_reference", metadata !322, i32 62, i64 0, i64 0, i64 0, i32 0, metadata !346} ; [ DW_TAG_typedef ]
!346 = metadata !{i32 786448, null, null, null, i32 0, i64 0, i64 0, i64 0, i32 0, metadata !173} ; [ DW_TAG_reference_type ]
!347 = metadata !{i32 786478, i32 0, metadata !320, metadata !"allocate", metadata !"allocate", metadata !"_ZN9__gnu_cxx13new_allocatorIcE8allocateEmPKv", metadata !322, i32 87, metadata !348, i1 false, i1 false, i32 0, i32 0, null, i32 256, i1 false, null, null, i32 0, metadata !89, i32 87} ; [ DW_TAG_subprogram ]
!348 = metadata !{i32 786453, i32 0, metadata !"", i32 0, i32 0, i64 0, i64 0, i64 0, i32 0, null, metadata !349, i32 0, i32 0} ; [ DW_TAG_subroutine_type ]
!349 = metadata !{metadata !337, metadata !327, metadata !350, metadata !351}
!350 = metadata !{i32 786454, null, metadata !"size_type", metadata !322, i32 57, i64 0, i64 0, i64 0, i32 0, metadata !139} ; [ DW_TAG_typedef ]
!351 = metadata !{i32 786447, null, metadata !"", null, i32 0, i64 64, i64 64, i64 0, i32 0, metadata !352} ; [ DW_TAG_pointer_type ]
!352 = metadata !{i32 786470, null, metadata !"", null, i32 0, i64 0, i64 0, i64 0, i32 0, null} ; [ DW_TAG_const_type ]
!353 = metadata !{i32 786478, i32 0, metadata !320, metadata !"deallocate", metadata !"deallocate", metadata !"_ZN9__gnu_cxx13new_allocatorIcE10deallocateEPcm", metadata !322, i32 97, metadata !354, i1 false, i1 false, i32 0, i32 0, null, i32 256, i1 false, null, null, i32 0, metadata !89, i32 97} ; [ DW_TAG_subprogram ]
!354 = metadata !{i32 786453, i32 0, metadata !"", i32 0, i32 0, i64 0, i64 0, i64 0, i32 0, null, metadata !355, i32 0, i32 0} ; [ DW_TAG_subroutine_type ]
!355 = metadata !{null, metadata !327, metadata !337, metadata !350}
!356 = metadata !{i32 786478, i32 0, metadata !320, metadata !"max_size", metadata !"max_size", metadata !"_ZNK9__gnu_cxx13new_allocatorIcE8max_sizeEv", metadata !322, i32 101, metadata !357, i1 false, i1 false, i32 0, i32 0, null, i32 256, i1 false, null, null, i32 0, metadata !89, i32 101} ; [ DW_TAG_subprogram ]
!357 = metadata !{i32 786453, i32 0, metadata !"", i32 0, i32 0, i64 0, i64 0, i64 0, i32 0, null, metadata !358, i32 0, i32 0} ; [ DW_TAG_subroutine_type ]
!358 = metadata !{metadata !350, metadata !338}
!359 = metadata !{i32 786478, i32 0, metadata !320, metadata !"construct", metadata !"construct", metadata !"_ZN9__gnu_cxx13new_allocatorIcE9constructEPcRKc", metadata !322, i32 107, metadata !360, i1 false, i1 false, i32 0, i32 0, null, i32 256, i1 false, null, null, i32 0, metadata !89, i32 107} ; [ DW_TAG_subprogram ]
!360 = metadata !{i32 786453, i32 0, metadata !"", i32 0, i32 0, i64 0, i64 0, i64 0, i32 0, null, metadata !361, i32 0, i32 0} ; [ DW_TAG_subroutine_type ]
!361 = metadata !{null, metadata !327, metadata !337, metadata !346}
!362 = metadata !{i32 786478, i32 0, metadata !320, metadata !"destroy", metadata !"destroy", metadata !"_ZN9__gnu_cxx13new_allocatorIcE7destroyEPc", metadata !322, i32 118, metadata !363, i1 false, i1 false, i32 0, i32 0, null, i32 256, i1 false, null, null, i32 0, metadata !89, i32 118} ; [ DW_TAG_subprogram ]
!363 = metadata !{i32 786453, i32 0, metadata !"", i32 0, i32 0, i64 0, i64 0, i64 0, i32 0, null, metadata !364, i32 0, i32 0} ; [ DW_TAG_subroutine_type ]
!364 = metadata !{null, metadata !327, metadata !337}
!365 = metadata !{metadata !366}
!366 = metadata !{i32 786479, null, metadata !"_Tp", metadata !174, null, i32 0, i32 0} ; [ DW_TAG_template_type_parameter ]
!367 = metadata !{i32 786478, i32 0, metadata !316, metadata !"allocator", metadata !"allocator", metadata !"", metadata !317, i32 107, metadata !368, i1 false, i1 false, i32 0, i32 0, null, i32 256, i1 false, null, null, i32 0, metadata !89, i32 107} ; [ DW_TAG_subprogram ]
!368 = metadata !{i32 786453, i32 0, metadata !"", i32 0, i32 0, i64 0, i64 0, i64 0, i32 0, null, metadata !369, i32 0, i32 0} ; [ DW_TAG_subroutine_type ]
!369 = metadata !{null, metadata !370}
!370 = metadata !{i32 786447, i32 0, metadata !"", i32 0, i32 0, i64 64, i64 64, i64 0, i32 64, metadata !316} ; [ DW_TAG_pointer_type ]
!371 = metadata !{i32 786478, i32 0, metadata !316, metadata !"allocator", metadata !"allocator", metadata !"", metadata !317, i32 109, metadata !372, i1 false, i1 false, i32 0, i32 0, null, i32 256, i1 false, null, null, i32 0, metadata !89, i32 109} ; [ DW_TAG_subprogram ]
!372 = metadata !{i32 786453, i32 0, metadata !"", i32 0, i32 0, i64 0, i64 0, i64 0, i32 0, null, metadata !373, i32 0, i32 0} ; [ DW_TAG_subroutine_type ]
!373 = metadata !{null, metadata !370, metadata !374}
!374 = metadata !{i32 786448, null, null, null, i32 0, i64 0, i64 0, i64 0, i32 0, metadata !375} ; [ DW_TAG_reference_type ]
!375 = metadata !{i32 786470, null, metadata !"", null, i32 0, i64 0, i64 0, i64 0, i32 0, metadata !316} ; [ DW_TAG_const_type ]
!376 = metadata !{i32 786478, i32 0, metadata !316, metadata !"~allocator", metadata !"~allocator", metadata !"", metadata !317, i32 115, metadata !368, i1 false, i1 false, i32 0, i32 0, null, i32 256, i1 false, null, null, i32 0, metadata !89, i32 115} ; [ DW_TAG_subprogram ]
!377 = metadata !{metadata !378}
!378 = metadata !{i32 786479, null, metadata !"_Alloc", metadata !174, null, i32 0, i32 0} ; [ DW_TAG_template_type_parameter ]
!379 = metadata !{i32 786445, metadata !313, metadata !"_M_p", metadata !312, i32 271, i64 64, i64 64, i64 0, i32 0, metadata !213} ; [ DW_TAG_member ]
!380 = metadata !{i32 786478, i32 0, metadata !313, metadata !"_Alloc_hider", metadata !"_Alloc_hider", metadata !"", metadata !312, i32 268, metadata !381, i1 false, i1 false, i32 0, i32 0, null, i32 256, i1 false, null, null, i32 0, metadata !89, i32 268} ; [ DW_TAG_subprogram ]
!381 = metadata !{i32 786453, i32 0, metadata !"", i32 0, i32 0, i64 0, i64 0, i64 0, i32 0, null, metadata !382, i32 0, i32 0} ; [ DW_TAG_subroutine_type ]
!382 = metadata !{null, metadata !383, metadata !213, metadata !374}
!383 = metadata !{i32 786447, i32 0, metadata !"", i32 0, i32 0, i64 64, i64 64, i64 0, i32 64, metadata !313} ; [ DW_TAG_pointer_type ]
!384 = metadata !{i32 786478, i32 0, metadata !308, metadata !"_M_data", metadata !"_M_data", metadata !"_ZNKSs7_M_dataEv", metadata !312, i32 286, metadata !385, i1 false, i1 false, i32 0, i32 0, null, i32 257, i1 false, null, null, i32 0, metadata !89, i32 286} ; [ DW_TAG_subprogram ]
!385 = metadata !{i32 786453, i32 0, metadata !"", i32 0, i32 0, i64 0, i64 0, i64 0, i32 0, null, metadata !386, i32 0, i32 0} ; [ DW_TAG_subroutine_type ]
!386 = metadata !{metadata !213, metadata !387}
!387 = metadata !{i32 786447, i32 0, metadata !"", i32 0, i32 0, i64 64, i64 64, i64 0, i32 64, metadata !388} ; [ DW_TAG_pointer_type ]
!388 = metadata !{i32 786470, null, metadata !"", null, i32 0, i64 0, i64 0, i64 0, i32 0, metadata !308} ; [ DW_TAG_const_type ]
!389 = metadata !{i32 786478, i32 0, metadata !308, metadata !"_M_data", metadata !"_M_data", metadata !"_ZNSs7_M_dataEPc", metadata !312, i32 290, metadata !390, i1 false, i1 false, i32 0, i32 0, null, i32 257, i1 false, null, null, i32 0, metadata !89, i32 290} ; [ DW_TAG_subprogram ]
!390 = metadata !{i32 786453, i32 0, metadata !"", i32 0, i32 0, i64 0, i64 0, i64 0, i32 0, null, metadata !391, i32 0, i32 0} ; [ DW_TAG_subroutine_type ]
!391 = metadata !{metadata !213, metadata !392, metadata !213}
!392 = metadata !{i32 786447, i32 0, metadata !"", i32 0, i32 0, i64 64, i64 64, i64 0, i32 64, metadata !308} ; [ DW_TAG_pointer_type ]
!393 = metadata !{i32 786478, i32 0, metadata !308, metadata !"_M_rep", metadata !"_M_rep", metadata !"_ZNKSs6_M_repEv", metadata !312, i32 294, metadata !394, i1 false, i1 false, i32 0, i32 0, null, i32 257, i1 false, null, null, i32 0, metadata !89, i32 294} ; [ DW_TAG_subprogram ]
!394 = metadata !{i32 786453, i32 0, metadata !"", i32 0, i32 0, i64 0, i64 0, i64 0, i32 0, null, metadata !395, i32 0, i32 0} ; [ DW_TAG_subroutine_type ]
!395 = metadata !{metadata !396, metadata !387}
!396 = metadata !{i32 786447, null, metadata !"", null, i32 0, i64 64, i64 64, i64 0, i32 0, metadata !397} ; [ DW_TAG_pointer_type ]
!397 = metadata !{i32 786434, metadata !308, metadata !"_Rep", metadata !312, i32 149, i64 192, i64 64, i32 0, i32 0, null, metadata !398, i32 0, null, null} ; [ DW_TAG_class_type ]
!398 = metadata !{metadata !399, metadata !407, metadata !411, metadata !416, metadata !417, metadata !421, metadata !422, metadata !425, metadata !428, metadata !431, metadata !434, metadata !437, metadata !438, metadata !439}
!399 = metadata !{i32 786460, metadata !397, null, metadata !312, i32 0, i64 0, i64 0, i64 0, i32 0, metadata !400} ; [ DW_TAG_inheritance ]
!400 = metadata !{i32 786434, metadata !308, metadata !"_Rep_base", metadata !312, i32 142, i64 192, i64 64, i32 0, i32 0, null, metadata !401, i32 0, null, null} ; [ DW_TAG_class_type ]
!401 = metadata !{metadata !402, metadata !405, metadata !406}
!402 = metadata !{i32 786445, metadata !400, metadata !"_M_length", metadata !312, i32 144, i64 64, i64 64, i64 0, i32 0, metadata !403} ; [ DW_TAG_member ]
!403 = metadata !{i32 786454, metadata !308, metadata !"size_type", metadata !312, i32 115, i64 0, i64 0, i64 0, i32 0, metadata !404} ; [ DW_TAG_typedef ]
!404 = metadata !{i32 786454, metadata !316, metadata !"size_type", metadata !312, i32 95, i64 0, i64 0, i64 0, i32 0, metadata !139} ; [ DW_TAG_typedef ]
!405 = metadata !{i32 786445, metadata !400, metadata !"_M_capacity", metadata !312, i32 145, i64 64, i64 64, i64 64, i32 0, metadata !403} ; [ DW_TAG_member ]
!406 = metadata !{i32 786445, metadata !400, metadata !"_M_refcount", metadata !312, i32 146, i64 32, i64 32, i64 128, i32 0, metadata !84} ; [ DW_TAG_member ]
!407 = metadata !{i32 786478, i32 0, metadata !397, metadata !"_S_empty_rep", metadata !"_S_empty_rep", metadata !"_ZNSs4_Rep12_S_empty_repEv", metadata !312, i32 175, metadata !408, i1 false, i1 false, i32 0, i32 0, null, i32 256, i1 false, null, null, i32 0, metadata !89, i32 175} ; [ DW_TAG_subprogram ]
!408 = metadata !{i32 786453, i32 0, metadata !"", i32 0, i32 0, i64 0, i64 0, i64 0, i32 0, null, metadata !409, i32 0, i32 0} ; [ DW_TAG_subroutine_type ]
!409 = metadata !{metadata !410}
!410 = metadata !{i32 786448, null, null, null, i32 0, i64 0, i64 0, i64 0, i32 0, metadata !397} ; [ DW_TAG_reference_type ]
!411 = metadata !{i32 786478, i32 0, metadata !397, metadata !"_M_is_leaked", metadata !"_M_is_leaked", metadata !"_ZNKSs4_Rep12_M_is_leakedEv", metadata !312, i32 185, metadata !412, i1 false, i1 false, i32 0, i32 0, null, i32 256, i1 false, null, null, i32 0, metadata !89, i32 185} ; [ DW_TAG_subprogram ]
!412 = metadata !{i32 786453, i32 0, metadata !"", i32 0, i32 0, i64 0, i64 0, i64 0, i32 0, null, metadata !413, i32 0, i32 0} ; [ DW_TAG_subroutine_type ]
!413 = metadata !{metadata !238, metadata !414}
!414 = metadata !{i32 786447, i32 0, metadata !"", i32 0, i32 0, i64 64, i64 64, i64 0, i32 64, metadata !415} ; [ DW_TAG_pointer_type ]
!415 = metadata !{i32 786470, null, metadata !"", null, i32 0, i64 0, i64 0, i64 0, i32 0, metadata !397} ; [ DW_TAG_const_type ]
!416 = metadata !{i32 786478, i32 0, metadata !397, metadata !"_M_is_shared", metadata !"_M_is_shared", metadata !"_ZNKSs4_Rep12_M_is_sharedEv", metadata !312, i32 189, metadata !412, i1 false, i1 false, i32 0, i32 0, null, i32 256, i1 false, null, null, i32 0, metadata !89, i32 189} ; [ DW_TAG_subprogram ]
!417 = metadata !{i32 786478, i32 0, metadata !397, metadata !"_M_set_leaked", metadata !"_M_set_leaked", metadata !"_ZNSs4_Rep13_M_set_leakedEv", metadata !312, i32 193, metadata !418, i1 false, i1 false, i32 0, i32 0, null, i32 256, i1 false, null, null, i32 0, metadata !89, i32 193} ; [ DW_TAG_subprogram ]
!418 = metadata !{i32 786453, i32 0, metadata !"", i32 0, i32 0, i64 0, i64 0, i64 0, i32 0, null, metadata !419, i32 0, i32 0} ; [ DW_TAG_subroutine_type ]
!419 = metadata !{null, metadata !420}
!420 = metadata !{i32 786447, i32 0, metadata !"", i32 0, i32 0, i64 64, i64 64, i64 0, i32 64, metadata !397} ; [ DW_TAG_pointer_type ]
!421 = metadata !{i32 786478, i32 0, metadata !397, metadata !"_M_set_sharable", metadata !"_M_set_sharable", metadata !"_ZNSs4_Rep15_M_set_sharableEv", metadata !312, i32 197, metadata !418, i1 false, i1 false, i32 0, i32 0, null, i32 256, i1 false, null, null, i32 0, metadata !89, i32 197} ; [ DW_TAG_subprogram ]
!422 = metadata !{i32 786478, i32 0, metadata !397, metadata !"_M_set_length_and_sharable", metadata !"_M_set_length_and_sharable", metadata !"_ZNSs4_Rep26_M_set_length_and_sharableEm", metadata !312, i32 201, metadata !423, i1 false, i1 false, i32 0, i32 0, null, i32 256, i1 false, null, null, i32 0, metadata !89, i32 201} ; [ DW_TAG_subprogram ]
!423 = metadata !{i32 786453, i32 0, metadata !"", i32 0, i32 0, i64 0, i64 0, i64 0, i32 0, null, metadata !424, i32 0, i32 0} ; [ DW_TAG_subroutine_type ]
!424 = metadata !{null, metadata !420, metadata !403}
!425 = metadata !{i32 786478, i32 0, metadata !397, metadata !"_M_refdata", metadata !"_M_refdata", metadata !"_ZNSs4_Rep10_M_refdataEv", metadata !312, i32 216, metadata !426, i1 false, i1 false, i32 0, i32 0, null, i32 256, i1 false, null, null, i32 0, metadata !89, i32 216} ; [ DW_TAG_subprogram ]
!426 = metadata !{i32 786453, i32 0, metadata !"", i32 0, i32 0, i64 0, i64 0, i64 0, i32 0, null, metadata !427, i32 0, i32 0} ; [ DW_TAG_subroutine_type ]
!427 = metadata !{metadata !213, metadata !420}
!428 = metadata !{i32 786478, i32 0, metadata !397, metadata !"_M_grab", metadata !"_M_grab", metadata !"_ZNSs4_Rep7_M_grabERKSaIcES2_", metadata !312, i32 220, metadata !429, i1 false, i1 false, i32 0, i32 0, null, i32 256, i1 false, null, null, i32 0, metadata !89, i32 220} ; [ DW_TAG_subprogram ]
!429 = metadata !{i32 786453, i32 0, metadata !"", i32 0, i32 0, i64 0, i64 0, i64 0, i32 0, null, metadata !430, i32 0, i32 0} ; [ DW_TAG_subroutine_type ]
!430 = metadata !{metadata !213, metadata !420, metadata !374, metadata !374}
!431 = metadata !{i32 786478, i32 0, metadata !397, metadata !"_S_create", metadata !"_S_create", metadata !"_ZNSs4_Rep9_S_createEmmRKSaIcE", metadata !312, i32 228, metadata !432, i1 false, i1 false, i32 0, i32 0, null, i32 256, i1 false, null, null, i32 0, metadata !89, i32 228} ; [ DW_TAG_subprogram ]
!432 = metadata !{i32 786453, i32 0, metadata !"", i32 0, i32 0, i64 0, i64 0, i64 0, i32 0, null, metadata !433, i32 0, i32 0} ; [ DW_TAG_subroutine_type ]
!433 = metadata !{metadata !396, metadata !403, metadata !403, metadata !374}
!434 = metadata !{i32 786478, i32 0, metadata !397, metadata !"_M_dispose", metadata !"_M_dispose", metadata !"_ZNSs4_Rep10_M_disposeERKSaIcE", metadata !312, i32 231, metadata !435, i1 false, i1 false, i32 0, i32 0, null, i32 256, i1 false, null, null, i32 0, metadata !89, i32 231} ; [ DW_TAG_subprogram ]
!435 = metadata !{i32 786453, i32 0, metadata !"", i32 0, i32 0, i64 0, i64 0, i64 0, i32 0, null, metadata !436, i32 0, i32 0} ; [ DW_TAG_subroutine_type ]
!436 = metadata !{null, metadata !420, metadata !374}
!437 = metadata !{i32 786478, i32 0, metadata !397, metadata !"_M_destroy", metadata !"_M_destroy", metadata !"_ZNSs4_Rep10_M_destroyERKSaIcE", metadata !312, i32 249, metadata !435, i1 false, i1 false, i32 0, i32 0, null, i32 256, i1 false, null, null, i32 0, metadata !89, i32 249} ; [ DW_TAG_subprogram ]
!438 = metadata !{i32 786478, i32 0, metadata !397, metadata !"_M_refcopy", metadata !"_M_refcopy", metadata !"_ZNSs4_Rep10_M_refcopyEv", metadata !312, i32 252, metadata !426, i1 false, i1 false, i32 0, i32 0, null, i32 256, i1 false, null, null, i32 0, metadata !89, i32 252} ; [ DW_TAG_subprogram ]
!439 = metadata !{i32 786478, i32 0, metadata !397, metadata !"_M_clone", metadata !"_M_clone", metadata !"_ZNSs4_Rep8_M_cloneERKSaIcEm", metadata !312, i32 262, metadata !440, i1 false, i1 false, i32 0, i32 0, null, i32 256, i1 false, null, null, i32 0, metadata !89, i32 262} ; [ DW_TAG_subprogram ]
!440 = metadata !{i32 786453, i32 0, metadata !"", i32 0, i32 0, i64 0, i64 0, i64 0, i32 0, null, metadata !441, i32 0, i32 0} ; [ DW_TAG_subroutine_type ]
!441 = metadata !{metadata !213, metadata !420, metadata !374, metadata !403}
!442 = metadata !{i32 786478, i32 0, metadata !308, metadata !"_M_ibegin", metadata !"_M_ibegin", metadata !"_ZNKSs9_M_ibeginEv", metadata !312, i32 300, metadata !443, i1 false, i1 false, i32 0, i32 0, null, i32 257, i1 false, null, null, i32 0, metadata !89, i32 300} ; [ DW_TAG_subprogram ]
!443 = metadata !{i32 786453, i32 0, metadata !"", i32 0, i32 0, i64 0, i64 0, i64 0, i32 0, null, metadata !444, i32 0, i32 0} ; [ DW_TAG_subroutine_type ]
!444 = metadata !{metadata !445, metadata !387}
!445 = metadata !{i32 786454, metadata !308, metadata !"iterator", metadata !309, i32 121, i64 0, i64 0, i64 0, i32 0, metadata !446} ; [ DW_TAG_typedef ]
!446 = metadata !{i32 786434, null, metadata !"__normal_iterator<char *, std::basic_string<char> >", metadata !447, i32 702, i32 0, i32 0, i32 0, i32 4, null, null, i32 0} ; [ DW_TAG_class_type ]
!447 = metadata !{i32 786473, metadata !"/home/brennan/Vivado/Vivado/2017.4/lnx64/tools/gcc/lib/gcc/x86_64-unknown-linux-gnu/4.6.3/../../../../include/c++/4.6.3/bits/stl_iterator.h", metadata !"/home/brennan/Documents/pynq-copter/pynqcopter/ip/pwm", null} ; [ DW_TAG_file_type ]
!448 = metadata !{i32 786478, i32 0, metadata !308, metadata !"_M_iend", metadata !"_M_iend", metadata !"_ZNKSs7_M_iendEv", metadata !312, i32 304, metadata !443, i1 false, i1 false, i32 0, i32 0, null, i32 257, i1 false, null, null, i32 0, metadata !89, i32 304} ; [ DW_TAG_subprogram ]
!449 = metadata !{i32 786478, i32 0, metadata !308, metadata !"_M_leak", metadata !"_M_leak", metadata !"_ZNSs7_M_leakEv", metadata !312, i32 308, metadata !450, i1 false, i1 false, i32 0, i32 0, null, i32 257, i1 false, null, null, i32 0, metadata !89, i32 308} ; [ DW_TAG_subprogram ]
!450 = metadata !{i32 786453, i32 0, metadata !"", i32 0, i32 0, i64 0, i64 0, i64 0, i32 0, null, metadata !451, i32 0, i32 0} ; [ DW_TAG_subroutine_type ]
!451 = metadata !{null, metadata !392}
!452 = metadata !{i32 786478, i32 0, metadata !308, metadata !"_M_check", metadata !"_M_check", metadata !"_ZNKSs8_M_checkEmPKc", metadata !312, i32 315, metadata !453, i1 false, i1 false, i32 0, i32 0, null, i32 257, i1 false, null, null, i32 0, metadata !89, i32 315} ; [ DW_TAG_subprogram ]
!453 = metadata !{i32 786453, i32 0, metadata !"", i32 0, i32 0, i64 0, i64 0, i64 0, i32 0, null, metadata !454, i32 0, i32 0} ; [ DW_TAG_subroutine_type ]
!454 = metadata !{metadata !403, metadata !387, metadata !403, metadata !172}
!455 = metadata !{i32 786478, i32 0, metadata !308, metadata !"_M_check_length", metadata !"_M_check_length", metadata !"_ZNKSs15_M_check_lengthEmmPKc", metadata !312, i32 323, metadata !456, i1 false, i1 false, i32 0, i32 0, null, i32 257, i1 false, null, null, i32 0, metadata !89, i32 323} ; [ DW_TAG_subprogram ]
!456 = metadata !{i32 786453, i32 0, metadata !"", i32 0, i32 0, i64 0, i64 0, i64 0, i32 0, null, metadata !457, i32 0, i32 0} ; [ DW_TAG_subroutine_type ]
!457 = metadata !{null, metadata !387, metadata !403, metadata !403, metadata !172}
!458 = metadata !{i32 786478, i32 0, metadata !308, metadata !"_M_limit", metadata !"_M_limit", metadata !"_ZNKSs8_M_limitEmm", metadata !312, i32 331, metadata !459, i1 false, i1 false, i32 0, i32 0, null, i32 257, i1 false, null, null, i32 0, metadata !89, i32 331} ; [ DW_TAG_subprogram ]
!459 = metadata !{i32 786453, i32 0, metadata !"", i32 0, i32 0, i64 0, i64 0, i64 0, i32 0, null, metadata !460, i32 0, i32 0} ; [ DW_TAG_subroutine_type ]
!460 = metadata !{metadata !403, metadata !387, metadata !403, metadata !403}
!461 = metadata !{i32 786478, i32 0, metadata !308, metadata !"_M_disjunct", metadata !"_M_disjunct", metadata !"_ZNKSs11_M_disjunctEPKc", metadata !312, i32 339, metadata !462, i1 false, i1 false, i32 0, i32 0, null, i32 257, i1 false, null, null, i32 0, metadata !89, i32 339} ; [ DW_TAG_subprogram ]
!462 = metadata !{i32 786453, i32 0, metadata !"", i32 0, i32 0, i64 0, i64 0, i64 0, i32 0, null, metadata !463, i32 0, i32 0} ; [ DW_TAG_subroutine_type ]
!463 = metadata !{metadata !238, metadata !387, metadata !172}
!464 = metadata !{i32 786478, i32 0, metadata !308, metadata !"_M_copy", metadata !"_M_copy", metadata !"_ZNSs7_M_copyEPcPKcm", metadata !312, i32 348, metadata !465, i1 false, i1 false, i32 0, i32 0, null, i32 257, i1 false, null, null, i32 0, metadata !89, i32 348} ; [ DW_TAG_subprogram ]
!465 = metadata !{i32 786453, i32 0, metadata !"", i32 0, i32 0, i64 0, i64 0, i64 0, i32 0, null, metadata !466, i32 0, i32 0} ; [ DW_TAG_subroutine_type ]
!466 = metadata !{null, metadata !213, metadata !172, metadata !403}
!467 = metadata !{i32 786478, i32 0, metadata !308, metadata !"_M_move", metadata !"_M_move", metadata !"_ZNSs7_M_moveEPcPKcm", metadata !312, i32 357, metadata !465, i1 false, i1 false, i32 0, i32 0, null, i32 257, i1 false, null, null, i32 0, metadata !89, i32 357} ; [ DW_TAG_subprogram ]
!468 = metadata !{i32 786478, i32 0, metadata !308, metadata !"_M_assign", metadata !"_M_assign", metadata !"_ZNSs9_M_assignEPcmc", metadata !312, i32 366, metadata !469, i1 false, i1 false, i32 0, i32 0, null, i32 257, i1 false, null, null, i32 0, metadata !89, i32 366} ; [ DW_TAG_subprogram ]
!469 = metadata !{i32 786453, i32 0, metadata !"", i32 0, i32 0, i64 0, i64 0, i64 0, i32 0, null, metadata !470, i32 0, i32 0} ; [ DW_TAG_subroutine_type ]
!470 = metadata !{null, metadata !213, metadata !403, metadata !174}
!471 = metadata !{i32 786478, i32 0, metadata !308, metadata !"_S_copy_chars", metadata !"_S_copy_chars", metadata !"_ZNSs13_S_copy_charsEPcN9__gnu_cxx17__normal_iteratorIS_SsEES2_", metadata !312, i32 385, metadata !472, i1 false, i1 false, i32 0, i32 0, null, i32 257, i1 false, null, null, i32 0, metadata !89, i32 385} ; [ DW_TAG_subprogram ]
!472 = metadata !{i32 786453, i32 0, metadata !"", i32 0, i32 0, i64 0, i64 0, i64 0, i32 0, null, metadata !473, i32 0, i32 0} ; [ DW_TAG_subroutine_type ]
!473 = metadata !{null, metadata !213, metadata !445, metadata !445}
!474 = metadata !{i32 786478, i32 0, metadata !308, metadata !"_S_copy_chars", metadata !"_S_copy_chars", metadata !"_ZNSs13_S_copy_charsEPcN9__gnu_cxx17__normal_iteratorIPKcSsEES4_", metadata !312, i32 389, metadata !475, i1 false, i1 false, i32 0, i32 0, null, i32 257, i1 false, null, null, i32 0, metadata !89, i32 389} ; [ DW_TAG_subprogram ]
!475 = metadata !{i32 786453, i32 0, metadata !"", i32 0, i32 0, i64 0, i64 0, i64 0, i32 0, null, metadata !476, i32 0, i32 0} ; [ DW_TAG_subroutine_type ]
!476 = metadata !{null, metadata !213, metadata !477, metadata !477}
!477 = metadata !{i32 786454, metadata !308, metadata !"const_iterator", metadata !309, i32 123, i64 0, i64 0, i64 0, i32 0, metadata !478} ; [ DW_TAG_typedef ]
!478 = metadata !{i32 786434, null, metadata !"__normal_iterator<const char *, std::basic_string<char> >", metadata !447, i32 702, i32 0, i32 0, i32 0, i32 4, null, null, i32 0} ; [ DW_TAG_class_type ]
!479 = metadata !{i32 786478, i32 0, metadata !308, metadata !"_S_copy_chars", metadata !"_S_copy_chars", metadata !"_ZNSs13_S_copy_charsEPcS_S_", metadata !312, i32 393, metadata !480, i1 false, i1 false, i32 0, i32 0, null, i32 257, i1 false, null, null, i32 0, metadata !89, i32 393} ; [ DW_TAG_subprogram ]
!480 = metadata !{i32 786453, i32 0, metadata !"", i32 0, i32 0, i64 0, i64 0, i64 0, i32 0, null, metadata !481, i32 0, i32 0} ; [ DW_TAG_subroutine_type ]
!481 = metadata !{null, metadata !213, metadata !213, metadata !213}
!482 = metadata !{i32 786478, i32 0, metadata !308, metadata !"_S_copy_chars", metadata !"_S_copy_chars", metadata !"_ZNSs13_S_copy_charsEPcPKcS1_", metadata !312, i32 397, metadata !483, i1 false, i1 false, i32 0, i32 0, null, i32 257, i1 false, null, null, i32 0, metadata !89, i32 397} ; [ DW_TAG_subprogram ]
!483 = metadata !{i32 786453, i32 0, metadata !"", i32 0, i32 0, i64 0, i64 0, i64 0, i32 0, null, metadata !484, i32 0, i32 0} ; [ DW_TAG_subroutine_type ]
!484 = metadata !{null, metadata !213, metadata !172, metadata !172}
!485 = metadata !{i32 786478, i32 0, metadata !308, metadata !"_S_compare", metadata !"_S_compare", metadata !"_ZNSs10_S_compareEmm", metadata !312, i32 401, metadata !486, i1 false, i1 false, i32 0, i32 0, null, i32 257, i1 false, null, null, i32 0, metadata !89, i32 401} ; [ DW_TAG_subprogram ]
!486 = metadata !{i32 786453, i32 0, metadata !"", i32 0, i32 0, i64 0, i64 0, i64 0, i32 0, null, metadata !487, i32 0, i32 0} ; [ DW_TAG_subroutine_type ]
!487 = metadata !{metadata !56, metadata !403, metadata !403}
!488 = metadata !{i32 786478, i32 0, metadata !308, metadata !"_M_mutate", metadata !"_M_mutate", metadata !"_ZNSs9_M_mutateEmmm", metadata !312, i32 414, metadata !489, i1 false, i1 false, i32 0, i32 0, null, i32 257, i1 false, null, null, i32 0, metadata !89, i32 414} ; [ DW_TAG_subprogram ]
!489 = metadata !{i32 786453, i32 0, metadata !"", i32 0, i32 0, i64 0, i64 0, i64 0, i32 0, null, metadata !490, i32 0, i32 0} ; [ DW_TAG_subroutine_type ]
!490 = metadata !{null, metadata !392, metadata !403, metadata !403, metadata !403}
!491 = metadata !{i32 786478, i32 0, metadata !308, metadata !"_M_leak_hard", metadata !"_M_leak_hard", metadata !"_ZNSs12_M_leak_hardEv", metadata !312, i32 417, metadata !450, i1 false, i1 false, i32 0, i32 0, null, i32 257, i1 false, null, null, i32 0, metadata !89, i32 417} ; [ DW_TAG_subprogram ]
!492 = metadata !{i32 786478, i32 0, metadata !308, metadata !"_S_empty_rep", metadata !"_S_empty_rep", metadata !"_ZNSs12_S_empty_repEv", metadata !312, i32 420, metadata !408, i1 false, i1 false, i32 0, i32 0, null, i32 257, i1 false, null, null, i32 0, metadata !89, i32 420} ; [ DW_TAG_subprogram ]
!493 = metadata !{i32 786478, i32 0, metadata !308, metadata !"basic_string", metadata !"basic_string", metadata !"", metadata !312, i32 431, metadata !450, i1 false, i1 false, i32 0, i32 0, null, i32 256, i1 false, null, null, i32 0, metadata !89, i32 431} ; [ DW_TAG_subprogram ]
!494 = metadata !{i32 786478, i32 0, metadata !308, metadata !"basic_string", metadata !"basic_string", metadata !"", metadata !312, i32 442, metadata !495, i1 false, i1 false, i32 0, i32 0, null, i32 384, i1 false, null, null, i32 0, metadata !89, i32 442} ; [ DW_TAG_subprogram ]
!495 = metadata !{i32 786453, i32 0, metadata !"", i32 0, i32 0, i64 0, i64 0, i64 0, i32 0, null, metadata !496, i32 0, i32 0} ; [ DW_TAG_subroutine_type ]
!496 = metadata !{null, metadata !392, metadata !374}
!497 = metadata !{i32 786478, i32 0, metadata !308, metadata !"basic_string", metadata !"basic_string", metadata !"", metadata !312, i32 449, metadata !498, i1 false, i1 false, i32 0, i32 0, null, i32 256, i1 false, null, null, i32 0, metadata !89, i32 449} ; [ DW_TAG_subprogram ]
!498 = metadata !{i32 786453, i32 0, metadata !"", i32 0, i32 0, i64 0, i64 0, i64 0, i32 0, null, metadata !499, i32 0, i32 0} ; [ DW_TAG_subroutine_type ]
!499 = metadata !{null, metadata !392, metadata !500}
!500 = metadata !{i32 786448, null, null, null, i32 0, i64 0, i64 0, i64 0, i32 0, metadata !388} ; [ DW_TAG_reference_type ]
!501 = metadata !{i32 786478, i32 0, metadata !308, metadata !"basic_string", metadata !"basic_string", metadata !"", metadata !312, i32 456, metadata !502, i1 false, i1 false, i32 0, i32 0, null, i32 256, i1 false, null, null, i32 0, metadata !89, i32 456} ; [ DW_TAG_subprogram ]
!502 = metadata !{i32 786453, i32 0, metadata !"", i32 0, i32 0, i64 0, i64 0, i64 0, i32 0, null, metadata !503, i32 0, i32 0} ; [ DW_TAG_subroutine_type ]
!503 = metadata !{null, metadata !392, metadata !500, metadata !403, metadata !403}
!504 = metadata !{i32 786478, i32 0, metadata !308, metadata !"basic_string", metadata !"basic_string", metadata !"", metadata !312, i32 465, metadata !505, i1 false, i1 false, i32 0, i32 0, null, i32 256, i1 false, null, null, i32 0, metadata !89, i32 465} ; [ DW_TAG_subprogram ]
!505 = metadata !{i32 786453, i32 0, metadata !"", i32 0, i32 0, i64 0, i64 0, i64 0, i32 0, null, metadata !506, i32 0, i32 0} ; [ DW_TAG_subroutine_type ]
!506 = metadata !{null, metadata !392, metadata !500, metadata !403, metadata !403, metadata !374}
!507 = metadata !{i32 786478, i32 0, metadata !308, metadata !"basic_string", metadata !"basic_string", metadata !"", metadata !312, i32 477, metadata !508, i1 false, i1 false, i32 0, i32 0, null, i32 256, i1 false, null, null, i32 0, metadata !89, i32 477} ; [ DW_TAG_subprogram ]
!508 = metadata !{i32 786453, i32 0, metadata !"", i32 0, i32 0, i64 0, i64 0, i64 0, i32 0, null, metadata !509, i32 0, i32 0} ; [ DW_TAG_subroutine_type ]
!509 = metadata !{null, metadata !392, metadata !172, metadata !403, metadata !374}
!510 = metadata !{i32 786478, i32 0, metadata !308, metadata !"basic_string", metadata !"basic_string", metadata !"", metadata !312, i32 484, metadata !511, i1 false, i1 false, i32 0, i32 0, null, i32 256, i1 false, null, null, i32 0, metadata !89, i32 484} ; [ DW_TAG_subprogram ]
!511 = metadata !{i32 786453, i32 0, metadata !"", i32 0, i32 0, i64 0, i64 0, i64 0, i32 0, null, metadata !512, i32 0, i32 0} ; [ DW_TAG_subroutine_type ]
!512 = metadata !{null, metadata !392, metadata !172, metadata !374}
!513 = metadata !{i32 786478, i32 0, metadata !308, metadata !"basic_string", metadata !"basic_string", metadata !"", metadata !312, i32 491, metadata !514, i1 false, i1 false, i32 0, i32 0, null, i32 256, i1 false, null, null, i32 0, metadata !89, i32 491} ; [ DW_TAG_subprogram ]
!514 = metadata !{i32 786453, i32 0, metadata !"", i32 0, i32 0, i64 0, i64 0, i64 0, i32 0, null, metadata !515, i32 0, i32 0} ; [ DW_TAG_subroutine_type ]
!515 = metadata !{null, metadata !392, metadata !403, metadata !174, metadata !374}
!516 = metadata !{i32 786478, i32 0, metadata !308, metadata !"basic_string", metadata !"basic_string", metadata !"", metadata !312, i32 501, metadata !517, i1 false, i1 false, i32 0, i32 0, null, i32 256, i1 false, null, null, i32 0, metadata !89, i32 501} ; [ DW_TAG_subprogram ]
!517 = metadata !{i32 786453, i32 0, metadata !"", i32 0, i32 0, i64 0, i64 0, i64 0, i32 0, null, metadata !518, i32 0, i32 0} ; [ DW_TAG_subroutine_type ]
!518 = metadata !{null, metadata !392, metadata !519}
!519 = metadata !{i32 786447, null, metadata !"", null, i32 0, i64 64, i64 64, i64 0, i32 0, metadata !308} ; [ DW_TAG_pointer_type ]
!520 = metadata !{i32 786478, i32 0, metadata !308, metadata !"basic_string", metadata !"basic_string", metadata !"", metadata !312, i32 516, metadata !521, i1 false, i1 false, i32 0, i32 0, null, i32 256, i1 false, null, null, i32 0, metadata !89, i32 516} ; [ DW_TAG_subprogram ]
!521 = metadata !{i32 786453, i32 0, metadata !"", i32 0, i32 0, i64 0, i64 0, i64 0, i32 0, null, metadata !522, i32 0, i32 0} ; [ DW_TAG_subroutine_type ]
!522 = metadata !{null, metadata !392, metadata !523, metadata !374}
!523 = metadata !{i32 786434, metadata !524, metadata !"initializer_list<char>", metadata !525, i32 44, i64 128, i64 64, i32 0, i32 0, null, metadata !526, i32 0, null, metadata !548} ; [ DW_TAG_class_type ]
!524 = metadata !{i32 786489, null, metadata !"std", metadata !525, i32 40} ; [ DW_TAG_namespace ]
!525 = metadata !{i32 786473, metadata !"/home/brennan/Vivado/Vivado/2017.4/lnx64/tools/gcc/lib/gcc/x86_64-unknown-linux-gnu/4.6.3/../../../../include/c++/4.6.3/initializer_list", metadata !"/home/brennan/Documents/pynq-copter/pynqcopter/ip/pwm", null} ; [ DW_TAG_file_type ]
!526 = metadata !{metadata !527, metadata !529, metadata !531, metadata !536, metadata !539, metadata !544, metadata !547}
!527 = metadata !{i32 786445, metadata !523, metadata !"_M_array", metadata !525, i32 55, i64 64, i64 64, i64 0, i32 1, metadata !528} ; [ DW_TAG_member ]
!528 = metadata !{i32 786454, metadata !523, metadata !"iterator", metadata !525, i32 51, i64 0, i64 0, i64 0, i32 0, metadata !172} ; [ DW_TAG_typedef ]
!529 = metadata !{i32 786445, metadata !523, metadata !"_M_len", metadata !525, i32 56, i64 64, i64 64, i64 64, i32 1, metadata !530} ; [ DW_TAG_member ]
!530 = metadata !{i32 786454, null, metadata !"size_type", metadata !525, i32 50, i64 0, i64 0, i64 0, i32 0, metadata !139} ; [ DW_TAG_typedef ]
!531 = metadata !{i32 786478, i32 0, metadata !523, metadata !"initializer_list", metadata !"initializer_list", metadata !"", metadata !525, i32 59, metadata !532, i1 false, i1 false, i32 0, i32 0, null, i32 257, i1 false, null, null, i32 0, metadata !89, i32 59} ; [ DW_TAG_subprogram ]
!532 = metadata !{i32 786453, i32 0, metadata !"", i32 0, i32 0, i64 0, i64 0, i64 0, i32 0, null, metadata !533, i32 0, i32 0} ; [ DW_TAG_subroutine_type ]
!533 = metadata !{null, metadata !534, metadata !535, metadata !530}
!534 = metadata !{i32 786447, i32 0, metadata !"", i32 0, i32 0, i64 64, i64 64, i64 0, i32 64, metadata !523} ; [ DW_TAG_pointer_type ]
!535 = metadata !{i32 786454, metadata !523, metadata !"const_iterator", metadata !525, i32 52, i64 0, i64 0, i64 0, i32 0, metadata !172} ; [ DW_TAG_typedef ]
!536 = metadata !{i32 786478, i32 0, metadata !523, metadata !"initializer_list", metadata !"initializer_list", metadata !"", metadata !525, i32 63, metadata !537, i1 false, i1 false, i32 0, i32 0, null, i32 256, i1 false, null, null, i32 0, metadata !89, i32 63} ; [ DW_TAG_subprogram ]
!537 = metadata !{i32 786453, i32 0, metadata !"", i32 0, i32 0, i64 0, i64 0, i64 0, i32 0, null, metadata !538, i32 0, i32 0} ; [ DW_TAG_subroutine_type ]
!538 = metadata !{null, metadata !534}
!539 = metadata !{i32 786478, i32 0, metadata !523, metadata !"size", metadata !"size", metadata !"_ZNKSt16initializer_listIcE4sizeEv", metadata !525, i32 67, metadata !540, i1 false, i1 false, i32 0, i32 0, null, i32 256, i1 false, null, null, i32 0, metadata !89, i32 67} ; [ DW_TAG_subprogram ]
!540 = metadata !{i32 786453, i32 0, metadata !"", i32 0, i32 0, i64 0, i64 0, i64 0, i32 0, null, metadata !541, i32 0, i32 0} ; [ DW_TAG_subroutine_type ]
!541 = metadata !{metadata !530, metadata !542}
!542 = metadata !{i32 786447, i32 0, metadata !"", i32 0, i32 0, i64 64, i64 64, i64 0, i32 64, metadata !543} ; [ DW_TAG_pointer_type ]
!543 = metadata !{i32 786470, null, metadata !"", null, i32 0, i64 0, i64 0, i64 0, i32 0, metadata !523} ; [ DW_TAG_const_type ]
!544 = metadata !{i32 786478, i32 0, metadata !523, metadata !"begin", metadata !"begin", metadata !"_ZNKSt16initializer_listIcE5beginEv", metadata !525, i32 71, metadata !545, i1 false, i1 false, i32 0, i32 0, null, i32 256, i1 false, null, null, i32 0, metadata !89, i32 71} ; [ DW_TAG_subprogram ]
!545 = metadata !{i32 786453, i32 0, metadata !"", i32 0, i32 0, i64 0, i64 0, i64 0, i32 0, null, metadata !546, i32 0, i32 0} ; [ DW_TAG_subroutine_type ]
!546 = metadata !{metadata !535, metadata !542}
!547 = metadata !{i32 786478, i32 0, metadata !523, metadata !"end", metadata !"end", metadata !"_ZNKSt16initializer_listIcE3endEv", metadata !525, i32 75, metadata !545, i1 false, i1 false, i32 0, i32 0, null, i32 256, i1 false, null, null, i32 0, metadata !89, i32 75} ; [ DW_TAG_subprogram ]
!548 = metadata !{metadata !549}
!549 = metadata !{i32 786479, null, metadata !"_E", metadata !174, null, i32 0, i32 0} ; [ DW_TAG_template_type_parameter ]
!550 = metadata !{i32 786478, i32 0, metadata !308, metadata !"~basic_string", metadata !"~basic_string", metadata !"", metadata !312, i32 532, metadata !450, i1 false, i1 false, i32 0, i32 0, null, i32 256, i1 false, null, null, i32 0, metadata !89, i32 532} ; [ DW_TAG_subprogram ]
!551 = metadata !{i32 786478, i32 0, metadata !308, metadata !"operator=", metadata !"operator=", metadata !"_ZNSsaSERKSs", metadata !312, i32 540, metadata !552, i1 false, i1 false, i32 0, i32 0, null, i32 256, i1 false, null, null, i32 0, metadata !89, i32 540} ; [ DW_TAG_subprogram ]
!552 = metadata !{i32 786453, i32 0, metadata !"", i32 0, i32 0, i64 0, i64 0, i64 0, i32 0, null, metadata !553, i32 0, i32 0} ; [ DW_TAG_subroutine_type ]
!553 = metadata !{metadata !554, metadata !392, metadata !500}
!554 = metadata !{i32 786448, null, null, null, i32 0, i64 0, i64 0, i64 0, i32 0, metadata !308} ; [ DW_TAG_reference_type ]
!555 = metadata !{i32 786478, i32 0, metadata !308, metadata !"operator=", metadata !"operator=", metadata !"_ZNSsaSEPKc", metadata !312, i32 548, metadata !556, i1 false, i1 false, i32 0, i32 0, null, i32 256, i1 false, null, null, i32 0, metadata !89, i32 548} ; [ DW_TAG_subprogram ]
!556 = metadata !{i32 786453, i32 0, metadata !"", i32 0, i32 0, i64 0, i64 0, i64 0, i32 0, null, metadata !557, i32 0, i32 0} ; [ DW_TAG_subroutine_type ]
!557 = metadata !{metadata !554, metadata !392, metadata !172}
!558 = metadata !{i32 786478, i32 0, metadata !308, metadata !"operator=", metadata !"operator=", metadata !"_ZNSsaSEc", metadata !312, i32 559, metadata !559, i1 false, i1 false, i32 0, i32 0, null, i32 256, i1 false, null, null, i32 0, metadata !89, i32 559} ; [ DW_TAG_subprogram ]
!559 = metadata !{i32 786453, i32 0, metadata !"", i32 0, i32 0, i64 0, i64 0, i64 0, i32 0, null, metadata !560, i32 0, i32 0} ; [ DW_TAG_subroutine_type ]
!560 = metadata !{metadata !554, metadata !392, metadata !174}
!561 = metadata !{i32 786478, i32 0, metadata !308, metadata !"operator=", metadata !"operator=", metadata !"_ZNSsaSEOSs", metadata !312, i32 574, metadata !562, i1 false, i1 false, i32 0, i32 0, null, i32 256, i1 false, null, null, i32 0, metadata !89, i32 574} ; [ DW_TAG_subprogram ]
!562 = metadata !{i32 786453, i32 0, metadata !"", i32 0, i32 0, i64 0, i64 0, i64 0, i32 0, null, metadata !563, i32 0, i32 0} ; [ DW_TAG_subroutine_type ]
!563 = metadata !{metadata !554, metadata !392, metadata !519}
!564 = metadata !{i32 786478, i32 0, metadata !308, metadata !"operator=", metadata !"operator=", metadata !"_ZNSsaSESt16initializer_listIcE", metadata !312, i32 586, metadata !565, i1 false, i1 false, i32 0, i32 0, null, i32 256, i1 false, null, null, i32 0, metadata !89, i32 586} ; [ DW_TAG_subprogram ]
!565 = metadata !{i32 786453, i32 0, metadata !"", i32 0, i32 0, i64 0, i64 0, i64 0, i32 0, null, metadata !566, i32 0, i32 0} ; [ DW_TAG_subroutine_type ]
!566 = metadata !{metadata !554, metadata !392, metadata !523}
!567 = metadata !{i32 786478, i32 0, metadata !308, metadata !"begin", metadata !"begin", metadata !"_ZNSs5beginEv", metadata !312, i32 599, metadata !568, i1 false, i1 false, i32 0, i32 0, null, i32 256, i1 false, null, null, i32 0, metadata !89, i32 599} ; [ DW_TAG_subprogram ]
!568 = metadata !{i32 786453, i32 0, metadata !"", i32 0, i32 0, i64 0, i64 0, i64 0, i32 0, null, metadata !569, i32 0, i32 0} ; [ DW_TAG_subroutine_type ]
!569 = metadata !{metadata !445, metadata !392}
!570 = metadata !{i32 786478, i32 0, metadata !308, metadata !"begin", metadata !"begin", metadata !"_ZNKSs5beginEv", metadata !312, i32 610, metadata !571, i1 false, i1 false, i32 0, i32 0, null, i32 256, i1 false, null, null, i32 0, metadata !89, i32 610} ; [ DW_TAG_subprogram ]
!571 = metadata !{i32 786453, i32 0, metadata !"", i32 0, i32 0, i64 0, i64 0, i64 0, i32 0, null, metadata !572, i32 0, i32 0} ; [ DW_TAG_subroutine_type ]
!572 = metadata !{metadata !477, metadata !387}
!573 = metadata !{i32 786478, i32 0, metadata !308, metadata !"end", metadata !"end", metadata !"_ZNSs3endEv", metadata !312, i32 618, metadata !568, i1 false, i1 false, i32 0, i32 0, null, i32 256, i1 false, null, null, i32 0, metadata !89, i32 618} ; [ DW_TAG_subprogram ]
!574 = metadata !{i32 786478, i32 0, metadata !308, metadata !"end", metadata !"end", metadata !"_ZNKSs3endEv", metadata !312, i32 629, metadata !571, i1 false, i1 false, i32 0, i32 0, null, i32 256, i1 false, null, null, i32 0, metadata !89, i32 629} ; [ DW_TAG_subprogram ]
!575 = metadata !{i32 786478, i32 0, metadata !308, metadata !"rbegin", metadata !"rbegin", metadata !"_ZNSs6rbeginEv", metadata !312, i32 638, metadata !576, i1 false, i1 false, i32 0, i32 0, null, i32 256, i1 false, null, null, i32 0, metadata !89, i32 638} ; [ DW_TAG_subprogram ]
!576 = metadata !{i32 786453, i32 0, metadata !"", i32 0, i32 0, i64 0, i64 0, i64 0, i32 0, null, metadata !577, i32 0, i32 0} ; [ DW_TAG_subroutine_type ]
!577 = metadata !{metadata !578, metadata !392}
!578 = metadata !{i32 786454, metadata !308, metadata !"reverse_iterator", metadata !309, i32 125, i64 0, i64 0, i64 0, i32 0, metadata !579} ; [ DW_TAG_typedef ]
!579 = metadata !{i32 786434, null, metadata !"reverse_iterator<__gnu_cxx::__normal_iterator<char *, std::basic_string<char> > >", metadata !447, i32 97, i32 0, i32 0, i32 0, i32 4, null, null, i32 0} ; [ DW_TAG_class_type ]
!580 = metadata !{i32 786478, i32 0, metadata !308, metadata !"rbegin", metadata !"rbegin", metadata !"_ZNKSs6rbeginEv", metadata !312, i32 647, metadata !581, i1 false, i1 false, i32 0, i32 0, null, i32 256, i1 false, null, null, i32 0, metadata !89, i32 647} ; [ DW_TAG_subprogram ]
!581 = metadata !{i32 786453, i32 0, metadata !"", i32 0, i32 0, i64 0, i64 0, i64 0, i32 0, null, metadata !582, i32 0, i32 0} ; [ DW_TAG_subroutine_type ]
!582 = metadata !{metadata !583, metadata !387}
!583 = metadata !{i32 786454, metadata !308, metadata !"const_reverse_iterator", metadata !309, i32 124, i64 0, i64 0, i64 0, i32 0, metadata !584} ; [ DW_TAG_typedef ]
!584 = metadata !{i32 786434, null, metadata !"reverse_iterator<__gnu_cxx::__normal_iterator<const char *, std::basic_string<char> > >", metadata !447, i32 97, i32 0, i32 0, i32 0, i32 4, null, null, i32 0} ; [ DW_TAG_class_type ]
!585 = metadata !{i32 786478, i32 0, metadata !308, metadata !"rend", metadata !"rend", metadata !"_ZNSs4rendEv", metadata !312, i32 656, metadata !576, i1 false, i1 false, i32 0, i32 0, null, i32 256, i1 false, null, null, i32 0, metadata !89, i32 656} ; [ DW_TAG_subprogram ]
!586 = metadata !{i32 786478, i32 0, metadata !308, metadata !"rend", metadata !"rend", metadata !"_ZNKSs4rendEv", metadata !312, i32 665, metadata !581, i1 false, i1 false, i32 0, i32 0, null, i32 256, i1 false, null, null, i32 0, metadata !89, i32 665} ; [ DW_TAG_subprogram ]
!587 = metadata !{i32 786478, i32 0, metadata !308, metadata !"cbegin", metadata !"cbegin", metadata !"_ZNKSs6cbeginEv", metadata !312, i32 674, metadata !571, i1 false, i1 false, i32 0, i32 0, null, i32 256, i1 false, null, null, i32 0, metadata !89, i32 674} ; [ DW_TAG_subprogram ]
!588 = metadata !{i32 786478, i32 0, metadata !308, metadata !"cend", metadata !"cend", metadata !"_ZNKSs4cendEv", metadata !312, i32 682, metadata !571, i1 false, i1 false, i32 0, i32 0, null, i32 256, i1 false, null, null, i32 0, metadata !89, i32 682} ; [ DW_TAG_subprogram ]
!589 = metadata !{i32 786478, i32 0, metadata !308, metadata !"crbegin", metadata !"crbegin", metadata !"_ZNKSs7crbeginEv", metadata !312, i32 691, metadata !581, i1 false, i1 false, i32 0, i32 0, null, i32 256, i1 false, null, null, i32 0, metadata !89, i32 691} ; [ DW_TAG_subprogram ]
!590 = metadata !{i32 786478, i32 0, metadata !308, metadata !"crend", metadata !"crend", metadata !"_ZNKSs5crendEv", metadata !312, i32 700, metadata !581, i1 false, i1 false, i32 0, i32 0, null, i32 256, i1 false, null, null, i32 0, metadata !89, i32 700} ; [ DW_TAG_subprogram ]
!591 = metadata !{i32 786478, i32 0, metadata !308, metadata !"size", metadata !"size", metadata !"_ZNKSs4sizeEv", metadata !312, i32 709, metadata !592, i1 false, i1 false, i32 0, i32 0, null, i32 256, i1 false, null, null, i32 0, metadata !89, i32 709} ; [ DW_TAG_subprogram ]
!592 = metadata !{i32 786453, i32 0, metadata !"", i32 0, i32 0, i64 0, i64 0, i64 0, i32 0, null, metadata !593, i32 0, i32 0} ; [ DW_TAG_subroutine_type ]
!593 = metadata !{metadata !403, metadata !387}
!594 = metadata !{i32 786478, i32 0, metadata !308, metadata !"length", metadata !"length", metadata !"_ZNKSs6lengthEv", metadata !312, i32 715, metadata !592, i1 false, i1 false, i32 0, i32 0, null, i32 256, i1 false, null, null, i32 0, metadata !89, i32 715} ; [ DW_TAG_subprogram ]
!595 = metadata !{i32 786478, i32 0, metadata !308, metadata !"max_size", metadata !"max_size", metadata !"_ZNKSs8max_sizeEv", metadata !312, i32 720, metadata !592, i1 false, i1 false, i32 0, i32 0, null, i32 256, i1 false, null, null, i32 0, metadata !89, i32 720} ; [ DW_TAG_subprogram ]
!596 = metadata !{i32 786478, i32 0, metadata !308, metadata !"resize", metadata !"resize", metadata !"_ZNSs6resizeEmc", metadata !312, i32 734, metadata !597, i1 false, i1 false, i32 0, i32 0, null, i32 256, i1 false, null, null, i32 0, metadata !89, i32 734} ; [ DW_TAG_subprogram ]
!597 = metadata !{i32 786453, i32 0, metadata !"", i32 0, i32 0, i64 0, i64 0, i64 0, i32 0, null, metadata !598, i32 0, i32 0} ; [ DW_TAG_subroutine_type ]
!598 = metadata !{null, metadata !392, metadata !403, metadata !174}
!599 = metadata !{i32 786478, i32 0, metadata !308, metadata !"resize", metadata !"resize", metadata !"_ZNSs6resizeEm", metadata !312, i32 747, metadata !600, i1 false, i1 false, i32 0, i32 0, null, i32 256, i1 false, null, null, i32 0, metadata !89, i32 747} ; [ DW_TAG_subprogram ]
!600 = metadata !{i32 786453, i32 0, metadata !"", i32 0, i32 0, i64 0, i64 0, i64 0, i32 0, null, metadata !601, i32 0, i32 0} ; [ DW_TAG_subroutine_type ]
!601 = metadata !{null, metadata !392, metadata !403}
!602 = metadata !{i32 786478, i32 0, metadata !308, metadata !"shrink_to_fit", metadata !"shrink_to_fit", metadata !"_ZNSs13shrink_to_fitEv", metadata !312, i32 753, metadata !450, i1 false, i1 false, i32 0, i32 0, null, i32 256, i1 false, null, null, i32 0, metadata !89, i32 753} ; [ DW_TAG_subprogram ]
!603 = metadata !{i32 786478, i32 0, metadata !308, metadata !"capacity", metadata !"capacity", metadata !"_ZNKSs8capacityEv", metadata !312, i32 767, metadata !592, i1 false, i1 false, i32 0, i32 0, null, i32 256, i1 false, null, null, i32 0, metadata !89, i32 767} ; [ DW_TAG_subprogram ]
!604 = metadata !{i32 786478, i32 0, metadata !308, metadata !"reserve", metadata !"reserve", metadata !"_ZNSs7reserveEm", metadata !312, i32 788, metadata !600, i1 false, i1 false, i32 0, i32 0, null, i32 256, i1 false, null, null, i32 0, metadata !89, i32 788} ; [ DW_TAG_subprogram ]
!605 = metadata !{i32 786478, i32 0, metadata !308, metadata !"clear", metadata !"clear", metadata !"_ZNSs5clearEv", metadata !312, i32 794, metadata !450, i1 false, i1 false, i32 0, i32 0, null, i32 256, i1 false, null, null, i32 0, metadata !89, i32 794} ; [ DW_TAG_subprogram ]
!606 = metadata !{i32 786478, i32 0, metadata !308, metadata !"empty", metadata !"empty", metadata !"_ZNKSs5emptyEv", metadata !312, i32 802, metadata !607, i1 false, i1 false, i32 0, i32 0, null, i32 256, i1 false, null, null, i32 0, metadata !89, i32 802} ; [ DW_TAG_subprogram ]
!607 = metadata !{i32 786453, i32 0, metadata !"", i32 0, i32 0, i64 0, i64 0, i64 0, i32 0, null, metadata !608, i32 0, i32 0} ; [ DW_TAG_subroutine_type ]
!608 = metadata !{metadata !238, metadata !387}
!609 = metadata !{i32 786478, i32 0, metadata !308, metadata !"operator[]", metadata !"operator[]", metadata !"_ZNKSsixEm", metadata !312, i32 817, metadata !610, i1 false, i1 false, i32 0, i32 0, null, i32 256, i1 false, null, null, i32 0, metadata !89, i32 817} ; [ DW_TAG_subprogram ]
!610 = metadata !{i32 786453, i32 0, metadata !"", i32 0, i32 0, i64 0, i64 0, i64 0, i32 0, null, metadata !611, i32 0, i32 0} ; [ DW_TAG_subroutine_type ]
!611 = metadata !{metadata !612, metadata !387, metadata !403}
!612 = metadata !{i32 786454, metadata !308, metadata !"const_reference", metadata !309, i32 118, i64 0, i64 0, i64 0, i32 0, metadata !613} ; [ DW_TAG_typedef ]
!613 = metadata !{i32 786454, metadata !316, metadata !"const_reference", metadata !309, i32 100, i64 0, i64 0, i64 0, i32 0, metadata !346} ; [ DW_TAG_typedef ]
!614 = metadata !{i32 786478, i32 0, metadata !308, metadata !"operator[]", metadata !"operator[]", metadata !"_ZNSsixEm", metadata !312, i32 834, metadata !615, i1 false, i1 false, i32 0, i32 0, null, i32 256, i1 false, null, null, i32 0, metadata !89, i32 834} ; [ DW_TAG_subprogram ]
!615 = metadata !{i32 786453, i32 0, metadata !"", i32 0, i32 0, i64 0, i64 0, i64 0, i32 0, null, metadata !616, i32 0, i32 0} ; [ DW_TAG_subroutine_type ]
!616 = metadata !{metadata !617, metadata !392, metadata !403}
!617 = metadata !{i32 786454, metadata !308, metadata !"reference", metadata !309, i32 117, i64 0, i64 0, i64 0, i32 0, metadata !618} ; [ DW_TAG_typedef ]
!618 = metadata !{i32 786454, metadata !316, metadata !"reference", metadata !309, i32 99, i64 0, i64 0, i64 0, i32 0, metadata !340} ; [ DW_TAG_typedef ]
!619 = metadata !{i32 786478, i32 0, metadata !308, metadata !"at", metadata !"at", metadata !"_ZNKSs2atEm", metadata !312, i32 855, metadata !610, i1 false, i1 false, i32 0, i32 0, null, i32 256, i1 false, null, null, i32 0, metadata !89, i32 855} ; [ DW_TAG_subprogram ]
!620 = metadata !{i32 786478, i32 0, metadata !308, metadata !"front", metadata !"front", metadata !"_ZNSs5frontEv", metadata !312, i32 868, metadata !621, i1 false, i1 false, i32 0, i32 0, null, i32 256, i1 false, null, null, i32 0, metadata !89, i32 868} ; [ DW_TAG_subprogram ]
!621 = metadata !{i32 786453, i32 0, metadata !"", i32 0, i32 0, i64 0, i64 0, i64 0, i32 0, null, metadata !622, i32 0, i32 0} ; [ DW_TAG_subroutine_type ]
!622 = metadata !{metadata !617, metadata !392}
!623 = metadata !{i32 786478, i32 0, metadata !308, metadata !"front", metadata !"front", metadata !"_ZNKSs5frontEv", metadata !312, i32 876, metadata !624, i1 false, i1 false, i32 0, i32 0, null, i32 256, i1 false, null, null, i32 0, metadata !89, i32 876} ; [ DW_TAG_subprogram ]
!624 = metadata !{i32 786453, i32 0, metadata !"", i32 0, i32 0, i64 0, i64 0, i64 0, i32 0, null, metadata !625, i32 0, i32 0} ; [ DW_TAG_subroutine_type ]
!625 = metadata !{metadata !612, metadata !387}
!626 = metadata !{i32 786478, i32 0, metadata !308, metadata !"back", metadata !"back", metadata !"_ZNSs4backEv", metadata !312, i32 884, metadata !621, i1 false, i1 false, i32 0, i32 0, null, i32 256, i1 false, null, null, i32 0, metadata !89, i32 884} ; [ DW_TAG_subprogram ]
!627 = metadata !{i32 786478, i32 0, metadata !308, metadata !"back", metadata !"back", metadata !"_ZNKSs4backEv", metadata !312, i32 892, metadata !624, i1 false, i1 false, i32 0, i32 0, null, i32 256, i1 false, null, null, i32 0, metadata !89, i32 892} ; [ DW_TAG_subprogram ]
!628 = metadata !{i32 786478, i32 0, metadata !308, metadata !"at", metadata !"at", metadata !"_ZNSs2atEm", metadata !312, i32 908, metadata !615, i1 false, i1 false, i32 0, i32 0, null, i32 256, i1 false, null, null, i32 0, metadata !89, i32 908} ; [ DW_TAG_subprogram ]
!629 = metadata !{i32 786478, i32 0, metadata !308, metadata !"operator+=", metadata !"operator+=", metadata !"_ZNSspLERKSs", metadata !312, i32 923, metadata !552, i1 false, i1 false, i32 0, i32 0, null, i32 256, i1 false, null, null, i32 0, metadata !89, i32 923} ; [ DW_TAG_subprogram ]
!630 = metadata !{i32 786478, i32 0, metadata !308, metadata !"operator+=", metadata !"operator+=", metadata !"_ZNSspLEPKc", metadata !312, i32 932, metadata !556, i1 false, i1 false, i32 0, i32 0, null, i32 256, i1 false, null, null, i32 0, metadata !89, i32 932} ; [ DW_TAG_subprogram ]
!631 = metadata !{i32 786478, i32 0, metadata !308, metadata !"operator+=", metadata !"operator+=", metadata !"_ZNSspLEc", metadata !312, i32 941, metadata !559, i1 false, i1 false, i32 0, i32 0, null, i32 256, i1 false, null, null, i32 0, metadata !89, i32 941} ; [ DW_TAG_subprogram ]
!632 = metadata !{i32 786478, i32 0, metadata !308, metadata !"operator+=", metadata !"operator+=", metadata !"_ZNSspLESt16initializer_listIcE", metadata !312, i32 954, metadata !565, i1 false, i1 false, i32 0, i32 0, null, i32 256, i1 false, null, null, i32 0, metadata !89, i32 954} ; [ DW_TAG_subprogram ]
!633 = metadata !{i32 786478, i32 0, metadata !308, metadata !"append", metadata !"append", metadata !"_ZNSs6appendERKSs", metadata !312, i32 964, metadata !552, i1 false, i1 false, i32 0, i32 0, null, i32 256, i1 false, null, null, i32 0, metadata !89, i32 964} ; [ DW_TAG_subprogram ]
!634 = metadata !{i32 786478, i32 0, metadata !308, metadata !"append", metadata !"append", metadata !"_ZNSs6appendERKSsmm", metadata !312, i32 979, metadata !635, i1 false, i1 false, i32 0, i32 0, null, i32 256, i1 false, null, null, i32 0, metadata !89, i32 979} ; [ DW_TAG_subprogram ]
!635 = metadata !{i32 786453, i32 0, metadata !"", i32 0, i32 0, i64 0, i64 0, i64 0, i32 0, null, metadata !636, i32 0, i32 0} ; [ DW_TAG_subroutine_type ]
!636 = metadata !{metadata !554, metadata !392, metadata !500, metadata !403, metadata !403}
!637 = metadata !{i32 786478, i32 0, metadata !308, metadata !"append", metadata !"append", metadata !"_ZNSs6appendEPKcm", metadata !312, i32 988, metadata !638, i1 false, i1 false, i32 0, i32 0, null, i32 256, i1 false, null, null, i32 0, metadata !89, i32 988} ; [ DW_TAG_subprogram ]
!638 = metadata !{i32 786453, i32 0, metadata !"", i32 0, i32 0, i64 0, i64 0, i64 0, i32 0, null, metadata !639, i32 0, i32 0} ; [ DW_TAG_subroutine_type ]
!639 = metadata !{metadata !554, metadata !392, metadata !172, metadata !403}
!640 = metadata !{i32 786478, i32 0, metadata !308, metadata !"append", metadata !"append", metadata !"_ZNSs6appendEPKc", metadata !312, i32 996, metadata !556, i1 false, i1 false, i32 0, i32 0, null, i32 256, i1 false, null, null, i32 0, metadata !89, i32 996} ; [ DW_TAG_subprogram ]
!641 = metadata !{i32 786478, i32 0, metadata !308, metadata !"append", metadata !"append", metadata !"_ZNSs6appendEmc", metadata !312, i32 1011, metadata !642, i1 false, i1 false, i32 0, i32 0, null, i32 256, i1 false, null, null, i32 0, metadata !89, i32 1011} ; [ DW_TAG_subprogram ]
!642 = metadata !{i32 786453, i32 0, metadata !"", i32 0, i32 0, i64 0, i64 0, i64 0, i32 0, null, metadata !643, i32 0, i32 0} ; [ DW_TAG_subroutine_type ]
!643 = metadata !{metadata !554, metadata !392, metadata !403, metadata !174}
!644 = metadata !{i32 786478, i32 0, metadata !308, metadata !"append", metadata !"append", metadata !"_ZNSs6appendESt16initializer_listIcE", metadata !312, i32 1020, metadata !565, i1 false, i1 false, i32 0, i32 0, null, i32 256, i1 false, null, null, i32 0, metadata !89, i32 1020} ; [ DW_TAG_subprogram ]
!645 = metadata !{i32 786478, i32 0, metadata !308, metadata !"push_back", metadata !"push_back", metadata !"_ZNSs9push_backEc", metadata !312, i32 1042, metadata !646, i1 false, i1 false, i32 0, i32 0, null, i32 256, i1 false, null, null, i32 0, metadata !89, i32 1042} ; [ DW_TAG_subprogram ]
!646 = metadata !{i32 786453, i32 0, metadata !"", i32 0, i32 0, i64 0, i64 0, i64 0, i32 0, null, metadata !647, i32 0, i32 0} ; [ DW_TAG_subroutine_type ]
!647 = metadata !{null, metadata !392, metadata !174}
