; ModuleID = '/home/brennan/Documents/pynq-copter/pynqcopter/ip/pwm/pwm/pwm/.autopilot/db/a.o.2.bc'
target datalayout = "e-p:64:64:64-i1:8:8-i8:8:8-i16:16:16-i32:32:32-i64:64:64-f32:32:32-f64:64:64-v64:64:64-v128:128:128-a0:0:64-s0:64:64-f80:128:128-n8:16:32:64-S128"
target triple = "x86_64-unknown-linux-gnu"

@pwm.str = internal unnamed_addr constant [4 x i8] c"pwm\00" ; [#uses=1 type=[4 x i8]*]
@out_p.V = internal unnamed_addr global i6 -1     ; [#uses=2 type=i6*]
@llvm.global_ctors.1 = appending global [0 x void ()*] zeroinitializer ; [#uses=0 type=[0 x void ()*]*]
@llvm.global_ctors.0 = appending global [0 x i32] zeroinitializer ; [#uses=0 type=[0 x i32]*]
@acc.V = internal unnamed_addr global i16 0       ; [#uses=2 type=i16*]
@.str3 = private unnamed_addr constant [8 x i8] c"ap_none\00", align 1 ; [#uses=1 type=[8 x i8]*]
@.str2 = private unnamed_addr constant [5 x i8] c"ctrl\00", align 1 ; [#uses=5 type=[5 x i8]*]
@.str1 = private unnamed_addr constant [1 x i8] zeroinitializer, align 1 ; [#uses=32 type=[1 x i8]*]
@.str = private unnamed_addr constant [10 x i8] c"s_axilite\00", align 1 ; [#uses=5 type=[10 x i8]*]

; [#uses=0]
define void @pwm(i16 %min_duty.V, i16 %max_duty.V, i16 %period.V, [6 x i16]* %m.V, i6* %out.V) {
codeRepl_ifconv:
  call void (...)* @_ssdm_op_SpecBitsMap(i16 %min_duty.V), !map !6671
  call void (...)* @_ssdm_op_SpecBitsMap(i16 %max_duty.V), !map !6677
  call void (...)* @_ssdm_op_SpecBitsMap(i16 %period.V), !map !6681
  call void (...)* @_ssdm_op_SpecBitsMap([6 x i16]* %m.V), !map !6685
  call void (...)* @_ssdm_op_SpecBitsMap(i6* %out.V), !map !6691
  call void (...)* @_ssdm_op_SpecTopModule([4 x i8]* @pwm.str) nounwind
  call void @llvm.dbg.value(metadata !{[6 x i16]* %m.V}, i64 0, metadata !6695), !dbg !6704 ; [debug line = 43:52] [debug variable = m.V]
  call void @llvm.dbg.value(metadata !{i6* %out.V}, i64 0, metadata !6705), !dbg !6708 ; [debug line = 43:64] [debug variable = out.V]
  call void (...)* @_ssdm_op_SpecInterface(i16 %min_duty.V, [10 x i8]* @.str, i32 0, i32 0, [1 x i8]* @.str1, i32 0, i32 0, [5 x i8]* @.str2, [1 x i8]* @.str1, [1 x i8]* @.str1, i32 0, i32 0, i32 0, i32 0, [1 x i8]* @.str1, [1 x i8]* @.str1) nounwind, !dbg !6709 ; [debug line = 44:1]
  call void (...)* @_ssdm_op_SpecInterface(i16 %max_duty.V, [10 x i8]* @.str, i32 0, i32 0, [1 x i8]* @.str1, i32 0, i32 0, [5 x i8]* @.str2, [1 x i8]* @.str1, [1 x i8]* @.str1, i32 0, i32 0, i32 0, i32 0, [1 x i8]* @.str1, [1 x i8]* @.str1) nounwind, !dbg !6711 ; [debug line = 45:1]
  call void (...)* @_ssdm_op_SpecInterface(i16 %period.V, [10 x i8]* @.str, i32 0, i32 0, [1 x i8]* @.str1, i32 0, i32 0, [5 x i8]* @.str2, [1 x i8]* @.str1, [1 x i8]* @.str1, i32 0, i32 0, i32 0, i32 0, [1 x i8]* @.str1, [1 x i8]* @.str1) nounwind, !dbg !6712 ; [debug line = 46:1]
  call void (...)* @_ssdm_op_SpecInterface([6 x i16]* %m.V, [10 x i8]* @.str, i32 0, i32 0, [1 x i8]* @.str1, i32 0, i32 0, [5 x i8]* @.str2, [1 x i8]* @.str1, [1 x i8]* @.str1, i32 0, i32 0, i32 0, i32 0, [1 x i8]* @.str1, [1 x i8]* @.str1) nounwind
  call void (...)* @_ssdm_op_SpecInterface(i6* %out.V, [8 x i8]* @.str3, i32 0, i32 0, [1 x i8]* @.str1, i32 0, i32 0, [1 x i8]* @.str1, [1 x i8]* @.str1, [1 x i8]* @.str1, i32 0, i32 0, i32 0, i32 0, [1 x i8]* @.str1, [1 x i8]* @.str1) nounwind, !dbg !6713 ; [debug line = 48:1]
  call void (...)* @_ssdm_op_SpecInterface(i32 0, [10 x i8]* @.str, i32 0, i32 0, [1 x i8]* @.str1, i32 0, i32 0, [5 x i8]* @.str2, [1 x i8]* @.str1, [1 x i8]* @.str1, i32 0, i32 0, i32 0, i32 0, [1 x i8]* @.str1, [1 x i8]* @.str1) nounwind, !dbg !6714 ; [debug line = 49:1]
  call void (...)* @_ssdm_op_SpecPipeline(i32 -1, i32 1, i32 1, i32 0, [1 x i8]* @.str1) nounwind, !dbg !6715 ; [debug line = 50:1]
  %lhs.V = zext i16 %max_duty.V to i17, !dbg !6716 ; [#uses=1 type=i17] [debug line = 1506:93@1506:109@3425:0@57:12]
  %rhs.V = zext i16 %min_duty.V to i17, !dbg !6716 ; [#uses=1 type=i17] [debug line = 1506:93@1506:109@3425:0@57:12]
  %r.V = sub i17 %lhs.V, %rhs.V, !dbg !6723       ; [#uses=1 type=i17] [debug line = 3425:0@57:12]
  %OP1.V = sext i17 %r.V to i33, !dbg !6734       ; [#uses=6 type=i33] [debug line = 1364:9@2396:0@57:12]
  %m.V.addr = getelementptr [6 x i16]* %m.V, i64 0, i64 0, !dbg !6743 ; [#uses=1 type=i16*] [debug line = 1366:9@2396:0@57:12]
  %m.V.load = load i16* %m.V.addr, align 2, !dbg !6743 ; [#uses=1 type=i16] [debug line = 1366:9@2396:0@57:12]
  %OP2.V = sext i16 %m.V.load to i33, !dbg !6743  ; [#uses=1 type=i33] [debug line = 1366:9@2396:0@57:12]
  %__Val2__ = mul nsw i33 %OP2.V, %OP1.V, !dbg !6744 ; [#uses=2 type=i33] [debug line = 1367:9@2396:0@57:12]
  call void @llvm.dbg.value(metadata !{i16 %min_duty.V}, i64 0, metadata !6745), !dbg !6750 ; [debug line = 785:9@787:5@2394:0@57:12] [debug variable = f_op.V]
  call void @llvm.dbg.value(metadata !{i16 %min_duty.V}, i64 0, metadata !6759) nounwind, !dbg !6770 ; [debug line = 675:0@773:5@1400:0@2394:0@57:12] [debug variable = __Val2__]
  %tmp.5.cast = zext i16 %min_duty.V to i31, !dbg !6771 ; [#uses=1 type=i31] [debug line = 703:17@773:5@1400:0@2394:0@57:12]
  %tmp.6 = shl nuw i31 %tmp.5.cast, 15, !dbg !6771 ; [#uses=1 type=i31] [debug line = 703:17@773:5@1400:0@2394:0@57:12]
  %tmp.6.cast = zext i31 %tmp.6 to i33, !dbg !6771 ; [#uses=6 type=i33] [debug line = 703:17@773:5@1400:0@2394:0@57:12]
  %r.V.1 = add i33 %__Val2__, %tmp.6.cast, !dbg !6767 ; [#uses=2 type=i33] [debug line = 1400:0@2394:0@57:12]
  %tmp.5 = call i18 @_ssdm_op_PartSelect.i18.i33.i32.i32(i33 %r.V.1, i32 15, i32 32), !dbg !6773 ; [#uses=2 type=i18] [debug line = 1071:205@1533:15@244:42@244:43@57:12]
  %__Result__.1 = call i1 @_ssdm_op_PartSelect.i1.i33.i32.i32(i33 %r.V.1, i32 32, i32 32), !dbg !6786 ; [#uses=1 type=i1] [debug line = 1083:210@1533:15@244:42@244:43@57:12]
  %__Result__.2 = call i15 @_ssdm_op_PartSelect.i15.i33.i32.i32(i33 %__Val2__, i32 0, i32 14), !dbg !6789 ; [#uses=1 type=i15] [debug line = 1085:221@1533:15@244:42@244:43@57:12]
  %tmp.9 = icmp eq i15 %__Result__.2, 0, !dbg !6791 ; [#uses=1 type=i1] [debug line = 1085:0@1533:15@244:42@244:43@57:12]
  %tmp.14 = trunc i18 %tmp.5 to i16, !dbg !6791   ; [#uses=2 type=i16] [debug line = 1085:0@1533:15@244:42@244:43@57:12]
  %tmp.15 = add i16 %tmp.14, 1, !dbg !6791        ; [#uses=1 type=i16] [debug line = 1085:0@1533:15@244:42@244:43@57:12]
  %tmp.16 = select i1 %tmp.9, i16 %tmp.14, i16 %tmp.15, !dbg !6791 ; [#uses=1 type=i16] [debug line = 1085:0@1533:15@244:42@244:43@57:12]
  %tmp.17 = trunc i18 %tmp.5 to i16               ; [#uses=1 type=i16]
  %tmp.18 = select i1 %__Result__.1, i16 %tmp.16, i16 %tmp.17 ; [#uses=1 type=i16]
  %m.V.addr.1 = getelementptr [6 x i16]* %m.V, i64 0, i64 1, !dbg !6743 ; [#uses=1 type=i16*] [debug line = 1366:9@2396:0@57:12]
  %m.V.load.1 = load i16* %m.V.addr.1, align 2, !dbg !6743 ; [#uses=1 type=i16] [debug line = 1366:9@2396:0@57:12]
  %OP2.V.1 = sext i16 %m.V.load.1 to i33, !dbg !6743 ; [#uses=1 type=i33] [debug line = 1366:9@2396:0@57:12]
  %__Val2__.1 = mul nsw i33 %OP2.V.1, %OP1.V, !dbg !6744 ; [#uses=2 type=i33] [debug line = 1367:9@2396:0@57:12]
  %r.V.1.1 = add i33 %__Val2__.1, %tmp.6.cast, !dbg !6767 ; [#uses=2 type=i33] [debug line = 1400:0@2394:0@57:12]
  %tmp.19 = call i18 @_ssdm_op_PartSelect.i18.i33.i32.i32(i33 %r.V.1.1, i32 15, i32 32), !dbg !6773 ; [#uses=2 type=i18] [debug line = 1071:205@1533:15@244:42@244:43@57:12]
  %__Result__.1.1 = call i1 @_ssdm_op_PartSelect.i1.i33.i32.i32(i33 %r.V.1.1, i32 32, i32 32), !dbg !6786 ; [#uses=1 type=i1] [debug line = 1083:210@1533:15@244:42@244:43@57:12]
  %__Result__.2.1 = call i15 @_ssdm_op_PartSelect.i15.i33.i32.i32(i33 %__Val2__.1, i32 0, i32 14), !dbg !6789 ; [#uses=1 type=i15] [debug line = 1085:221@1533:15@244:42@244:43@57:12]
  %tmp.9.1 = icmp eq i15 %__Result__.2.1, 0, !dbg !6791 ; [#uses=1 type=i1] [debug line = 1085:0@1533:15@244:42@244:43@57:12]
  %tmp.20 = trunc i18 %tmp.19 to i16, !dbg !6791  ; [#uses=2 type=i16] [debug line = 1085:0@1533:15@244:42@244:43@57:12]
  %tmp.21 = add i16 %tmp.20, 1, !dbg !6791        ; [#uses=1 type=i16] [debug line = 1085:0@1533:15@244:42@244:43@57:12]
  %tmp.22 = select i1 %tmp.9.1, i16 %tmp.20, i16 %tmp.21, !dbg !6791 ; [#uses=1 type=i16] [debug line = 1085:0@1533:15@244:42@244:43@57:12]
  %tmp.23 = trunc i18 %tmp.19 to i16              ; [#uses=1 type=i16]
  %tmp.24 = select i1 %__Result__.1.1, i16 %tmp.22, i16 %tmp.23 ; [#uses=1 type=i16]
  %m.V.addr.2 = getelementptr [6 x i16]* %m.V, i64 0, i64 2, !dbg !6743 ; [#uses=1 type=i16*] [debug line = 1366:9@2396:0@57:12]
  %m.V.load.2 = load i16* %m.V.addr.2, align 2, !dbg !6743 ; [#uses=1 type=i16] [debug line = 1366:9@2396:0@57:12]
  %OP2.V.2 = sext i16 %m.V.load.2 to i33, !dbg !6743 ; [#uses=1 type=i33] [debug line = 1366:9@2396:0@57:12]
  %__Val2__.2 = mul nsw i33 %OP2.V.2, %OP1.V, !dbg !6744 ; [#uses=2 type=i33] [debug line = 1367:9@2396:0@57:12]
  %r.V.1.2 = add i33 %__Val2__.2, %tmp.6.cast, !dbg !6767 ; [#uses=2 type=i33] [debug line = 1400:0@2394:0@57:12]
  %tmp.25 = call i18 @_ssdm_op_PartSelect.i18.i33.i32.i32(i33 %r.V.1.2, i32 15, i32 32), !dbg !6773 ; [#uses=2 type=i18] [debug line = 1071:205@1533:15@244:42@244:43@57:12]
  %__Result__.1.2 = call i1 @_ssdm_op_PartSelect.i1.i33.i32.i32(i33 %r.V.1.2, i32 32, i32 32), !dbg !6786 ; [#uses=1 type=i1] [debug line = 1083:210@1533:15@244:42@244:43@57:12]
  %__Result__.2.2 = call i15 @_ssdm_op_PartSelect.i15.i33.i32.i32(i33 %__Val2__.2, i32 0, i32 14), !dbg !6789 ; [#uses=1 type=i15] [debug line = 1085:221@1533:15@244:42@244:43@57:12]
  %tmp.9.2 = icmp eq i15 %__Result__.2.2, 0, !dbg !6791 ; [#uses=1 type=i1] [debug line = 1085:0@1533:15@244:42@244:43@57:12]
  %tmp.26 = trunc i18 %tmp.25 to i16, !dbg !6791  ; [#uses=2 type=i16] [debug line = 1085:0@1533:15@244:42@244:43@57:12]
  %tmp.27 = add i16 %tmp.26, 1, !dbg !6791        ; [#uses=1 type=i16] [debug line = 1085:0@1533:15@244:42@244:43@57:12]
  %tmp.28 = select i1 %tmp.9.2, i16 %tmp.26, i16 %tmp.27, !dbg !6791 ; [#uses=1 type=i16] [debug line = 1085:0@1533:15@244:42@244:43@57:12]
  %tmp.29 = trunc i18 %tmp.25 to i16              ; [#uses=1 type=i16]
  %tmp.30 = select i1 %__Result__.1.2, i16 %tmp.28, i16 %tmp.29 ; [#uses=1 type=i16]
  %m.V.addr.3 = getelementptr [6 x i16]* %m.V, i64 0, i64 3, !dbg !6743 ; [#uses=1 type=i16*] [debug line = 1366:9@2396:0@57:12]
  %m.V.load.3 = load i16* %m.V.addr.3, align 2, !dbg !6743 ; [#uses=1 type=i16] [debug line = 1366:9@2396:0@57:12]
  %OP2.V.3 = sext i16 %m.V.load.3 to i33, !dbg !6743 ; [#uses=1 type=i33] [debug line = 1366:9@2396:0@57:12]
  %__Val2__. = mul nsw i33 %OP2.V.3, %OP1.V, !dbg !6744 ; [#uses=2 type=i33] [debug line = 1367:9@2396:0@57:12]
  %r.V.1.3 = add i33 %__Val2__., %tmp.6.cast, !dbg !6767 ; [#uses=2 type=i33] [debug line = 1400:0@2394:0@57:12]
  %tmp.31 = call i18 @_ssdm_op_PartSelect.i18.i33.i32.i32(i33 %r.V.1.3, i32 15, i32 32), !dbg !6773 ; [#uses=2 type=i18] [debug line = 1071:205@1533:15@244:42@244:43@57:12]
  %__Result__.1.3 = call i1 @_ssdm_op_PartSelect.i1.i33.i32.i32(i33 %r.V.1.3, i32 32, i32 32), !dbg !6786 ; [#uses=1 type=i1] [debug line = 1083:210@1533:15@244:42@244:43@57:12]
  %__Result__.2.3 = call i15 @_ssdm_op_PartSelect.i15.i33.i32.i32(i33 %__Val2__., i32 0, i32 14), !dbg !6789 ; [#uses=1 type=i15] [debug line = 1085:221@1533:15@244:42@244:43@57:12]
  %tmp.9.3 = icmp eq i15 %__Result__.2.3, 0, !dbg !6791 ; [#uses=1 type=i1] [debug line = 1085:0@1533:15@244:42@244:43@57:12]
  %tmp.32 = trunc i18 %tmp.31 to i16, !dbg !6791  ; [#uses=2 type=i16] [debug line = 1085:0@1533:15@244:42@244:43@57:12]
  %tmp.33 = add i16 %tmp.32, 1, !dbg !6791        ; [#uses=1 type=i16] [debug line = 1085:0@1533:15@244:42@244:43@57:12]
  %tmp.34 = select i1 %tmp.9.3, i16 %tmp.32, i16 %tmp.33, !dbg !6791 ; [#uses=1 type=i16] [debug line = 1085:0@1533:15@244:42@244:43@57:12]
  %tmp.35 = trunc i18 %tmp.31 to i16              ; [#uses=1 type=i16]
  %tmp.36 = select i1 %__Result__.1.3, i16 %tmp.34, i16 %tmp.35 ; [#uses=1 type=i16]
  %m.V.addr.4 = getelementptr [6 x i16]* %m.V, i64 0, i64 4, !dbg !6743 ; [#uses=1 type=i16*] [debug line = 1366:9@2396:0@57:12]
  %m.V.load.4 = load i16* %m.V.addr.4, align 2, !dbg !6743 ; [#uses=1 type=i16] [debug line = 1366:9@2396:0@57:12]
  %OP2.V.4 = sext i16 %m.V.load.4 to i33, !dbg !6743 ; [#uses=1 type=i33] [debug line = 1366:9@2396:0@57:12]
  %__Val2__.4 = mul nsw i33 %OP2.V.4, %OP1.V, !dbg !6744 ; [#uses=2 type=i33] [debug line = 1367:9@2396:0@57:12]
  %r.V.1.4 = add i33 %__Val2__.4, %tmp.6.cast, !dbg !6767 ; [#uses=2 type=i33] [debug line = 1400:0@2394:0@57:12]
  %tmp.37 = call i18 @_ssdm_op_PartSelect.i18.i33.i32.i32(i33 %r.V.1.4, i32 15, i32 32), !dbg !6773 ; [#uses=2 type=i18] [debug line = 1071:205@1533:15@244:42@244:43@57:12]
  %__Result__.1.4 = call i1 @_ssdm_op_PartSelect.i1.i33.i32.i32(i33 %r.V.1.4, i32 32, i32 32), !dbg !6786 ; [#uses=1 type=i1] [debug line = 1083:210@1533:15@244:42@244:43@57:12]
  %__Result__.2.4 = call i15 @_ssdm_op_PartSelect.i15.i33.i32.i32(i33 %__Val2__.4, i32 0, i32 14), !dbg !6789 ; [#uses=1 type=i15] [debug line = 1085:221@1533:15@244:42@244:43@57:12]
  %tmp.9.4 = icmp eq i15 %__Result__.2.4, 0, !dbg !6791 ; [#uses=1 type=i1] [debug line = 1085:0@1533:15@244:42@244:43@57:12]
  %tmp.38 = trunc i18 %tmp.37 to i16, !dbg !6791  ; [#uses=2 type=i16] [debug line = 1085:0@1533:15@244:42@244:43@57:12]
  %tmp.39 = add i16 %tmp.38, 1, !dbg !6791        ; [#uses=1 type=i16] [debug line = 1085:0@1533:15@244:42@244:43@57:12]
  %tmp.40 = select i1 %tmp.9.4, i16 %tmp.38, i16 %tmp.39, !dbg !6791 ; [#uses=1 type=i16] [debug line = 1085:0@1533:15@244:42@244:43@57:12]
  %tmp.41 = trunc i18 %tmp.37 to i16              ; [#uses=1 type=i16]
  %tmp.42 = select i1 %__Result__.1.4, i16 %tmp.40, i16 %tmp.41 ; [#uses=1 type=i16]
  %m.V.addr.5 = getelementptr [6 x i16]* %m.V, i64 0, i64 5, !dbg !6743 ; [#uses=1 type=i16*] [debug line = 1366:9@2396:0@57:12]
  %m.V.load.5 = load i16* %m.V.addr.5, align 2, !dbg !6743 ; [#uses=1 type=i16] [debug line = 1366:9@2396:0@57:12]
  %OP2.V.5 = sext i16 %m.V.load.5 to i33, !dbg !6743 ; [#uses=1 type=i33] [debug line = 1366:9@2396:0@57:12]
  %__Val2__.5 = mul nsw i33 %OP2.V.5, %OP1.V, !dbg !6744 ; [#uses=2 type=i33] [debug line = 1367:9@2396:0@57:12]
  %r.V.1.5 = add i33 %__Val2__.5, %tmp.6.cast, !dbg !6767 ; [#uses=2 type=i33] [debug line = 1400:0@2394:0@57:12]
  %tmp.43 = call i18 @_ssdm_op_PartSelect.i18.i33.i32.i32(i33 %r.V.1.5, i32 15, i32 32), !dbg !6773 ; [#uses=2 type=i18] [debug line = 1071:205@1533:15@244:42@244:43@57:12]
  %__Result__.1.5 = call i1 @_ssdm_op_PartSelect.i1.i33.i32.i32(i33 %r.V.1.5, i32 32, i32 32), !dbg !6786 ; [#uses=1 type=i1] [debug line = 1083:210@1533:15@244:42@244:43@57:12]
  %__Result__.2.5 = call i15 @_ssdm_op_PartSelect.i15.i33.i32.i32(i33 %__Val2__.5, i32 0, i32 14), !dbg !6789 ; [#uses=1 type=i15] [debug line = 1085:221@1533:15@244:42@244:43@57:12]
  %tmp.9.5 = icmp eq i15 %__Result__.2.5, 0, !dbg !6791 ; [#uses=1 type=i1] [debug line = 1085:0@1533:15@244:42@244:43@57:12]
  %tmp.44 = trunc i18 %tmp.43 to i16, !dbg !6791  ; [#uses=2 type=i16] [debug line = 1085:0@1533:15@244:42@244:43@57:12]
  %tmp.45 = add i16 %tmp.44, 1, !dbg !6791        ; [#uses=1 type=i16] [debug line = 1085:0@1533:15@244:42@244:43@57:12]
  %tmp.46 = select i1 %tmp.9.5, i16 %tmp.44, i16 %tmp.45, !dbg !6791 ; [#uses=1 type=i16] [debug line = 1085:0@1533:15@244:42@244:43@57:12]
  %tmp.47 = trunc i18 %tmp.43 to i16              ; [#uses=1 type=i16]
  %tmp.48 = select i1 %__Result__.1.5, i16 %tmp.46, i16 %tmp.47 ; [#uses=1 type=i16]
  %acc.V.load = load i16* @acc.V, align 2, !dbg !6792 ; [#uses=10 type=i16] [debug line = 2042:5@62:14]
  %tmp = icmp ult i16 %acc.V.load, %min_duty.V, !dbg !6792 ; [#uses=6 type=i1] [debug line = 2042:5@62:14]
  %tmp.2 = icmp ult i16 %acc.V.load, %max_duty.V, !dbg !6798 ; [#uses=6 type=i1] [debug line = 2042:5@62:60]
  %tmp. = icmp ult i16 %acc.V.load, %tmp.18, !dbg !6800 ; [#uses=1 type=i1] [debug line = 2042:5@62:31]
  %out_p.V.load = load i6* @out_p.V, align 1, !dbg !6802 ; [#uses=6 type=i6] [debug line = 1259:147@62:45]
  %__Result__.7 = call i1 @_ssdm_op_PartSelect.i1.i6.i32.i32(i6 %out_p.V.load, i32 0, i32 0), !dbg !6807 ; [#uses=1 type=i1] [debug line = 1259:149@62:45]
  %tmp.15. = and i1 %__Result__.7, %tmp., !dbg !6806 ; [#uses=1 type=i1] [debug line = 62:45]
  %tmp.1 = or i1 %tmp.15., %tmp                   ; [#uses=1 type=i1]
  %__Repl2__.0.trunc = and i1 %tmp.1, %tmp.2, !dbg !6799 ; [#uses=1 type=i1] [debug line = 62:60]
  %tmp.12.1 = icmp ult i16 %acc.V.load, %tmp.24, !dbg !6800 ; [#uses=1 type=i1] [debug line = 2042:5@62:31]
  %__Result__.3.1 = call i1 @_ssdm_op_PartSelect.i1.i6.i32.i32(i6 %out_p.V.load, i32 1, i32 1), !dbg !6807 ; [#uses=1 type=i1] [debug line = 1259:149@62:45]
  %tmp.15.1 = and i1 %__Result__.3.1, %tmp.12.1, !dbg !6806 ; [#uses=1 type=i1] [debug line = 62:45]
  %tmp.3 = or i1 %tmp.15.1, %tmp                  ; [#uses=1 type=i1]
  %__Repl2__.1.trunc = and i1 %tmp.3, %tmp.2, !dbg !6799 ; [#uses=1 type=i1] [debug line = 62:60]
  %tmp.12.2 = icmp ult i16 %acc.V.load, %tmp.30, !dbg !6800 ; [#uses=1 type=i1] [debug line = 2042:5@62:31]
  %__Result__.3.2 = call i1 @_ssdm_op_PartSelect.i1.i6.i32.i32(i6 %out_p.V.load, i32 2, i32 2), !dbg !6807 ; [#uses=1 type=i1] [debug line = 1259:149@62:45]
  %tmp.15.2 = and i1 %__Result__.3.2, %tmp.12.2, !dbg !6806 ; [#uses=1 type=i1] [debug line = 62:45]
  %tmp.4 = or i1 %tmp.15.2, %tmp                  ; [#uses=1 type=i1]
  %__Repl2__.2.trunc = and i1 %tmp.4, %tmp.2, !dbg !6799 ; [#uses=1 type=i1] [debug line = 62:60]
  %tmp.12.3 = icmp ult i16 %acc.V.load, %tmp.36, !dbg !6800 ; [#uses=1 type=i1] [debug line = 2042:5@62:31]
  %__Result__.3.3 = call i1 @_ssdm_op_PartSelect.i1.i6.i32.i32(i6 %out_p.V.load, i32 3, i32 3), !dbg !6807 ; [#uses=1 type=i1] [debug line = 1259:149@62:45]
  %tmp.15.3 = and i1 %__Result__.3.3, %tmp.12.3, !dbg !6806 ; [#uses=1 type=i1] [debug line = 62:45]
  %tmp.7 = or i1 %tmp.15.3, %tmp                  ; [#uses=1 type=i1]
  %__Repl2__.3.trunc = and i1 %tmp.7, %tmp.2, !dbg !6799 ; [#uses=1 type=i1] [debug line = 62:60]
  %tmp.12.4 = icmp ult i16 %acc.V.load, %tmp.42, !dbg !6800 ; [#uses=1 type=i1] [debug line = 2042:5@62:31]
  %__Result__.3.4 = call i1 @_ssdm_op_PartSelect.i1.i6.i32.i32(i6 %out_p.V.load, i32 4, i32 4), !dbg !6807 ; [#uses=1 type=i1] [debug line = 1259:149@62:45]
  %tmp.15.4 = and i1 %__Result__.3.4, %tmp.12.4, !dbg !6806 ; [#uses=1 type=i1] [debug line = 62:45]
  %tmp.8 = or i1 %tmp.15.4, %tmp                  ; [#uses=1 type=i1]
  %__Repl2__.4.trunc = and i1 %tmp.8, %tmp.2, !dbg !6799 ; [#uses=1 type=i1] [debug line = 62:60]
  %tmp.12.5 = icmp ult i16 %acc.V.load, %tmp.48, !dbg !6800 ; [#uses=1 type=i1] [debug line = 2042:5@62:31]
  %__Result__.3.5 = call i1 @_ssdm_op_PartSelect.i1.i6.i32.i32(i6 %out_p.V.load, i32 5, i32 5), !dbg !6807 ; [#uses=1 type=i1] [debug line = 1259:149@62:45]
  %tmp.15.5 = and i1 %__Result__.3.5, %tmp.12.5, !dbg !6806 ; [#uses=1 type=i1] [debug line = 62:45]
  %tmp.11 = or i1 %tmp.15.5, %tmp                 ; [#uses=1 type=i1]
  %__Repl2__.5.trunc = and i1 %tmp.11, %tmp.2, !dbg !6799 ; [#uses=1 type=i1] [debug line = 62:60]
  %__Result__.4.5 = call i6 @_ssdm_op_BitConcatenate.i6.i1.i1.i1.i1.i1.i1(i1 %__Repl2__.5.trunc, i1 %__Repl2__.4.trunc, i1 %__Repl2__.3.trunc, i1 %__Repl2__.2.trunc, i1 %__Repl2__.1.trunc, i1 %__Repl2__.0.trunc), !dbg !6808 ; [#uses=2 type=i6] [debug line = 1263:125@62:60]
  store i6 %__Result__.4.5, i6* @out_p.V, align 1, !dbg !6812 ; [debug line = 1263:242@62:60]
  %tmp.10 = icmp ult i16 %acc.V.load, %period.V, !dbg !6813 ; [#uses=1 type=i1] [debug line = 2042:5@65:7]
  %tmp.12 = add i16 %acc.V.load, 1, !dbg !6815    ; [#uses=1 type=i16] [debug line = 229:89@229:104@65:25]
  %tmp.18. = select i1 %tmp.10, i16 %tmp.12, i16 0, !dbg !6814 ; [#uses=1 type=i16] [debug line = 65:7]
  store i16 %tmp.18., i16* @acc.V, align 2, !dbg !6821 ; [debug line = 281:5@65:25]
  call void @llvm.dbg.value(metadata !{i6* %out.V}, i64 0, metadata !6824), !dbg !6829 ; [debug line = 280:50@67:2] [debug variable = ssdm_int<6 + 1024 * 0, false>.V]
  store i6 %__Result__.4.5, i6* %out.V, align 1, !dbg !6831 ; [debug line = 281:5@67:2]
  ret void, !dbg !6833                            ; [debug line = 69:1]
}

; [#uses=5]
declare void @llvm.dbg.value(metadata, i64, metadata) nounwind readnone

; [#uses=1]
declare void @_ssdm_op_SpecTopModule(...)

; [#uses=1]
declare void @_ssdm_op_SpecPipeline(...) nounwind

; [#uses=6]
declare void @_ssdm_op_SpecInterface(...) nounwind

; [#uses=5]
declare void @_ssdm_op_SpecBitsMap(...)

; [#uses=0]
declare i19 @_ssdm_op_PartSelect.i19.i34.i32.i32(i34, i32, i32) nounwind readnone

; [#uses=6]
declare i18 @_ssdm_op_PartSelect.i18.i33.i32.i32(i33, i32, i32) nounwind readnone

; [#uses=6]
declare i15 @_ssdm_op_PartSelect.i15.i33.i32.i32(i33, i32, i32) nounwind readnone

; [#uses=6]
declare i1 @_ssdm_op_PartSelect.i1.i6.i32.i32(i6, i32, i32) nounwind readnone

; [#uses=0]
declare i1 @_ssdm_op_PartSelect.i1.i34.i32.i32(i34, i32, i32) nounwind readnone

; [#uses=6]
declare i1 @_ssdm_op_PartSelect.i1.i33.i32.i32(i33, i32, i32) nounwind readnone

; [#uses=1]
declare i6 @_ssdm_op_BitConcatenate.i6.i1.i1.i1.i1.i1.i1(i1, i1, i1, i1, i1, i1) nounwind readnone

!opencl.kernels = !{!0, !7, !13, !13, !16, !16, !22, !28, !28, !16, !30, !16, !16, !16, !33, !33, !35, !35, !37, !16, !40, !41, !43, !43, !47, !47, !47, !49, !28, !28, !16, !52, !54, !35, !35, !56, !16, !16, !58, !56, !56, !16, !59, !59, !16, !16, !61, !64, !16, !16, !66, !66, !68, !16, !16, !16, !70, !16, !16, !35, !35, !72, !72, !16, !16, !16, !16, !72, !72, !16, !73, !76, !16, !16, !16, !78, !28, !28, !80, !82, !82, !72, !72, !16, !16, !84, !84, !87, !89, !89, !16, !91, !91, !93, !16, !94, !16, !16, !16, !16, !96, !96, !97, !98, !98, !99, !99, !101}
!hls.encrypted.func = !{}
!llvm.map.gv = !{!104}
!llvm.dbg.cu = !{!111}

!0 = metadata !{null, metadata !1, metadata !2, metadata !3, metadata !4, metadata !5, metadata !6}
!1 = metadata !{metadata !"kernel_arg_addr_space", i32 0, i32 0, i32 0, i32 1, i32 0}
!2 = metadata !{metadata !"kernel_arg_access_qual", metadata !"none", metadata !"none", metadata !"none", metadata !"none", metadata !"none"}
!3 = metadata !{metadata !"kernel_arg_type", metadata !"N_t", metadata !"N_t", metadata !"N_t", metadata !"F_t*", metadata !"O_t &"}
!4 = metadata !{metadata !"kernel_arg_type_qual", metadata !"", metadata !"", metadata !"", metadata !"", metadata !""}
!5 = metadata !{metadata !"kernel_arg_name", metadata !"min_duty", metadata !"max_duty", metadata !"period", metadata !"m", metadata !"out"}
!6 = metadata !{metadata !"reqd_work_group_size", i32 1, i32 1, i32 1}
!7 = metadata !{null, metadata !8, metadata !9, metadata !10, metadata !11, metadata !12, metadata !6}
!8 = metadata !{metadata !"kernel_arg_addr_space", i32 0}
!9 = metadata !{metadata !"kernel_arg_access_qual", metadata !"none"}
!10 = metadata !{metadata !"kernel_arg_type", metadata !"const ap_uint<6> &"}
!11 = metadata !{metadata !"kernel_arg_type_qual", metadata !""}
!12 = metadata !{metadata !"kernel_arg_name", metadata !"op2"}
!13 = metadata !{null, metadata !8, metadata !9, metadata !14, metadata !11, metadata !15, metadata !6}
!14 = metadata !{metadata !"kernel_arg_type", metadata !"const ap_int_base<33, true> &"}
!15 = metadata !{metadata !"kernel_arg_name", metadata !"op"}
!16 = metadata !{null, metadata !17, metadata !18, metadata !19, metadata !20, metadata !21, metadata !6}
!17 = metadata !{metadata !"kernel_arg_addr_space"}
!18 = metadata !{metadata !"kernel_arg_access_qual"}
!19 = metadata !{metadata !"kernel_arg_type"}
!20 = metadata !{metadata !"kernel_arg_type_qual"}
!21 = metadata !{metadata !"kernel_arg_name"}
!22 = metadata !{null, metadata !23, metadata !24, metadata !25, metadata !26, metadata !27, metadata !6}
!23 = metadata !{metadata !"kernel_arg_addr_space", i32 0, i32 0}
!24 = metadata !{metadata !"kernel_arg_access_qual", metadata !"none", metadata !"none"}
!25 = metadata !{metadata !"kernel_arg_type", metadata !"const ap_int_base<16, false> &", metadata !"int"}
!26 = metadata !{metadata !"kernel_arg_type_qual", metadata !"", metadata !""}
!27 = metadata !{metadata !"kernel_arg_name", metadata !"op", metadata !"i_op"}
!28 = metadata !{null, metadata !8, metadata !9, metadata !29, metadata !11, metadata !15, metadata !6}
!29 = metadata !{metadata !"kernel_arg_type", metadata !"int"}
!30 = metadata !{null, metadata !23, metadata !24, metadata !31, metadata !26, metadata !32, metadata !6}
!31 = metadata !{metadata !"kernel_arg_type", metadata !"const ap_int_base<16, false> &", metadata !"const ap_int_base<32, true> &"}
!32 = metadata !{metadata !"kernel_arg_name", metadata !"op", metadata !"op2"}
!33 = metadata !{null, metadata !8, metadata !9, metadata !34, metadata !11, metadata !15, metadata !6}
!34 = metadata !{metadata !"kernel_arg_type", metadata !"const ap_int_base<32, true> &"}
!35 = metadata !{null, metadata !8, metadata !9, metadata !36, metadata !11, metadata !15, metadata !6}
!36 = metadata !{metadata !"kernel_arg_type", metadata !"const ap_int_base<16, false> &"}
!37 = metadata !{null, metadata !8, metadata !9, metadata !38, metadata !11, metadata !39, metadata !6}
!38 = metadata !{metadata !"kernel_arg_type", metadata !"ulong long"}
!39 = metadata !{metadata !"kernel_arg_name", metadata !"val"}
!40 = metadata !{null, metadata !8, metadata !9, metadata !36, metadata !11, metadata !12, metadata !6}
!41 = metadata !{null, metadata !8, metadata !9, metadata !29, metadata !11, metadata !42, metadata !6}
!42 = metadata !{metadata !"kernel_arg_name", metadata !"index"}
!43 = metadata !{null, metadata !44, metadata !24, metadata !45, metadata !26, metadata !46, metadata !6}
!44 = metadata !{metadata !"kernel_arg_addr_space", i32 1, i32 0}
!45 = metadata !{metadata !"kernel_arg_type", metadata !"ap_int_base<6, false>*", metadata !"int"}
!46 = metadata !{metadata !"kernel_arg_name", metadata !"bv", metadata !"index"}
!47 = metadata !{null, metadata !8, metadata !9, metadata !48, metadata !11, metadata !15, metadata !6}
!48 = metadata !{metadata !"kernel_arg_type", metadata !"const ap_fixed_base<34, 19, true, (enum ap_q_mode)5, (enum ap_o_mode)3, 0> &"}
!49 = metadata !{null, metadata !8, metadata !9, metadata !50, metadata !11, metadata !51, metadata !6}
!50 = metadata !{metadata !"kernel_arg_type", metadata !"_Bool"}
!51 = metadata !{metadata !"kernel_arg_name", metadata !"Cnative"}
!52 = metadata !{null, metadata !8, metadata !9, metadata !53, metadata !11, metadata !12, metadata !6}
!53 = metadata !{metadata !"kernel_arg_type", metadata !"const ap_uint<16> &"}
!54 = metadata !{null, metadata !23, metadata !24, metadata !55, metadata !26, metadata !27, metadata !6}
!55 = metadata !{metadata !"kernel_arg_type", metadata !"const ap_fixed_base<33, 18, true, (enum ap_q_mode)5, (enum ap_o_mode)3, 0> &", metadata !"const ap_int_base<16, false> &"}
!56 = metadata !{null, metadata !8, metadata !9, metadata !57, metadata !11, metadata !15, metadata !6}
!57 = metadata !{metadata !"kernel_arg_type", metadata !"const ap_fixed_base<16, 16, false, (enum ap_q_mode)5, (enum ap_o_mode)3, 0> &"}
!58 = metadata !{null, metadata !8, metadata !9, metadata !57, metadata !11, metadata !12, metadata !6}
!59 = metadata !{null, metadata !8, metadata !9, metadata !60, metadata !11, metadata !15, metadata !6}
!60 = metadata !{metadata !"kernel_arg_type", metadata !"const ap_fixed_base<33, 18, true, (enum ap_q_mode)5, (enum ap_o_mode)3, 0> &"}
!61 = metadata !{null, metadata !23, metadata !24, metadata !62, metadata !26, metadata !63, metadata !6}
!62 = metadata !{metadata !"kernel_arg_type", metadata !"const ap_int_base<17, true> &", metadata !"const ap_fixed_base<16, 1, true, (enum ap_q_mode)5, (enum ap_o_mode)3, 0> &"}
!63 = metadata !{metadata !"kernel_arg_name", metadata !"i_op", metadata !"op"}
!64 = metadata !{null, metadata !8, metadata !9, metadata !65, metadata !11, metadata !12, metadata !6}
!65 = metadata !{metadata !"kernel_arg_type", metadata !"const ap_fixed_base<16, 1, true, (enum ap_q_mode)5, (enum ap_o_mode)3, 0> &"}
!66 = metadata !{null, metadata !8, metadata !9, metadata !67, metadata !11, metadata !15, metadata !6}
!67 = metadata !{metadata !"kernel_arg_type", metadata !"const ap_int_base<17, true> &"}
!68 = metadata !{null, metadata !8, metadata !9, metadata !69, metadata !11, metadata !15, metadata !6}
!69 = metadata !{metadata !"kernel_arg_type", metadata !"const ap_fixed_base<17, 17, true, (enum ap_q_mode)5, (enum ap_o_mode)3, 0> &"}
!70 = metadata !{null, metadata !23, metadata !24, metadata !71, metadata !26, metadata !32, metadata !6}
!71 = metadata !{metadata !"kernel_arg_type", metadata !"const ap_int_base<16, false> &", metadata !"const ap_int_base<16, false> &"}
!72 = metadata !{null, metadata !8, metadata !9, metadata !29, metadata !11, metadata !39, metadata !6}
!73 = metadata !{null, metadata !23, metadata !24, metadata !74, metadata !26, metadata !75, metadata !6}
!74 = metadata !{metadata !"kernel_arg_type", metadata !"std::ostream &", metadata !"const ap_int_base<32, true> &"}
!75 = metadata !{metadata !"kernel_arg_name", metadata !"os", metadata !"x"}
!76 = metadata !{null, metadata !23, metadata !24, metadata !77, metadata !26, metadata !32, metadata !6}
!77 = metadata !{metadata !"kernel_arg_type", metadata !"const ap_int_base<32, true> &", metadata !"int"}
!78 = metadata !{null, metadata !23, metadata !24, metadata !79, metadata !26, metadata !27, metadata !6}
!79 = metadata !{metadata !"kernel_arg_type", metadata !"const ap_int_base<6, false> &", metadata !"int"}
!80 = metadata !{null, metadata !23, metadata !24, metadata !81, metadata !26, metadata !32, metadata !6}
!81 = metadata !{metadata !"kernel_arg_type", metadata !"const ap_int_base<6, false> &", metadata !"const ap_int_base<32, true> &"}
!82 = metadata !{null, metadata !8, metadata !9, metadata !83, metadata !11, metadata !15, metadata !6}
!83 = metadata !{metadata !"kernel_arg_type", metadata !"const ap_int_base<6, false> &"}
!84 = metadata !{null, metadata !8, metadata !9, metadata !85, metadata !11, metadata !86, metadata !6}
!85 = metadata !{metadata !"kernel_arg_type", metadata !"long"}
!86 = metadata !{metadata !"kernel_arg_name", metadata !"v"}
!87 = metadata !{null, metadata !8, metadata !9, metadata !85, metadata !11, metadata !88, metadata !6}
!88 = metadata !{metadata !"kernel_arg_name", metadata !"b"}
!89 = metadata !{null, metadata !8, metadata !9, metadata !85, metadata !11, metadata !90, metadata !6}
!90 = metadata !{metadata !"kernel_arg_name", metadata !"i_op"}
!91 = metadata !{null, metadata !8, metadata !9, metadata !92, metadata !11, metadata !15, metadata !6}
!92 = metadata !{metadata !"kernel_arg_type", metadata !"const ap_fixed_base<64, 64, true, (enum ap_q_mode)5, (enum ap_o_mode)3, 0> &"}
!93 = metadata !{null, metadata !8, metadata !9, metadata !65, metadata !11, metadata !15, metadata !6}
!94 = metadata !{null, metadata !8, metadata !9, metadata !95, metadata !11, metadata !15, metadata !6}
!95 = metadata !{metadata !"kernel_arg_type", metadata !"const ap_fixed<16, 1, (enum ap_q_mode)5, (enum ap_o_mode)3, 0> &"}
!96 = metadata !{null, metadata !8, metadata !9, metadata !29, metadata !11, metadata !86, metadata !6}
!97 = metadata !{null, metadata !8, metadata !9, metadata !29, metadata !11, metadata !88, metadata !6}
!98 = metadata !{null, metadata !8, metadata !9, metadata !29, metadata !11, metadata !90, metadata !6}
!99 = metadata !{null, metadata !8, metadata !9, metadata !100, metadata !11, metadata !15, metadata !6}
!100 = metadata !{metadata !"kernel_arg_type", metadata !"const ap_fixed_base<32, 32, true, (enum ap_q_mode)5, (enum ap_o_mode)3, 0> &"}
!101 = metadata !{null, metadata !23, metadata !24, metadata !102, metadata !26, metadata !103, metadata !6}
!102 = metadata !{metadata !"kernel_arg_type", metadata !"enum std::_Ios_Openmode", metadata !"enum std::_Ios_Openmode"}
!103 = metadata !{metadata !"kernel_arg_name", metadata !"__a", metadata !"__b"}
!104 = metadata !{metadata !105, [0 x i32]* @llvm.global_ctors.0}
!105 = metadata !{metadata !106}
!106 = metadata !{i32 0, i32 31, metadata !107}
!107 = metadata !{metadata !108}
!108 = metadata !{metadata !"llvm.global_ctors.0", metadata !109, metadata !"", i32 0, i32 31}
!109 = metadata !{metadata !110}
!110 = metadata !{i32 0, i32 0, i32 1}
!111 = metadata !{i32 786449, i32 0, i32 4, metadata !"/home/brennan/Documents/pynq-copter/pynqcopter/ip/pwm/pwm/pwm/.autopilot/db/pwm.pragma.2.cpp", metadata !"/home/brennan/Documents/pynq-copter/pynqcopter/ip/pwm", metadata !"clang version 3.1 ", i1 true, i1 false, metadata !"", i32 0, null, null, null, metadata !112} ; [ DW_TAG_compile_unit ]
!112 = metadata !{metadata !113}
!113 = metadata !{metadata !114, metadata !149, metadata !174, metadata !178, metadata !192, metadata !206, metadata !1138, metadata !1139, metadata !1140, metadata !1141, metadata !1142, metadata !1143, metadata !1144, metadata !1145, metadata !1146, metadata !1147, metadata !1148, metadata !1149, metadata !1150, metadata !1151, metadata !1152, metadata !1153, metadata !1154, metadata !1155, metadata !1157, metadata !1158, metadata !1159, metadata !1160, metadata !1172, metadata !1173, metadata !1174, metadata !1175, metadata !1176, metadata !1177, metadata !1186, metadata !1187, metadata !1188, metadata !1190, metadata !1191, metadata !1192, metadata !1193, metadata !1194, metadata !1195, metadata !1196, metadata !1197, metadata !1199, metadata !1210, metadata !1758, metadata !1759, metadata !2041, metadata !2596, metadata !2597, metadata !2599, metadata !2601, metadata !2876, metadata !2877, metadata !2878, metadata !2879, metadata !3160, metadata !3430, metadata !3432, metadata !3433, metadata !3435, metadata !3438, metadata !3439, metadata !3440, metadata !3441, metadata !3442, metadata !3443, metadata !3445, metadata !3446, metadata !3447, metadata !3449, metadata !3450, metadata !3451, metadata !3456, metadata !3459, metadata !3460, metadata !3461, metadata !3463, metadata !3464, metadata !3467, metadata !3468, metadata !3469, metadata !3470, metadata !3471, metadata !3472, metadata !3474, metadata !3480, metadata !3481, metadata !3482, metadata !3483, metadata !3484, metadata !3485, metadata !3486, metadata !3487, metadata !3488, metadata !3489, metadata !3490, metadata !3576, metadata !3577, metadata !3710, metadata !3717, metadata !3718, metadata !3719, metadata !3720, metadata !3721, metadata !4402, metadata !4404, metadata !4405, metadata !4406, metadata !5079, metadata !5081, metadata !5082, metadata !5083, metadata !5330, metadata !5331, metadata !6655, metadata !6656, metadata !6657, metadata !6658, metadata !6659, metadata !6660, metadata !6661, metadata !6662, metadata !6663, metadata !6664, metadata !6665, metadata !6666, metadata !6667, metadata !6668, metadata !6669, metadata !6670}
!114 = metadata !{i32 790546, i32 0, null, metadata !"out_p.V", metadata !"out_p.V", metadata !"out_p.V", metadata !115, i32 54, metadata !116, i32 1, i32 1, i6* @out_p.V} ; [ DW_TAG_variable_field ]
!115 = metadata !{i32 786473, metadata !"pwm.cpp", metadata !"/home/brennan/Documents/pynq-copter/pynqcopter/ip/pwm", null} ; [ DW_TAG_file_type ]
!116 = metadata !{i32 786438, null, metadata !"ap_uint<6>", metadata !117, i32 183, i64 6, i64 8, i32 0, i32 0, null, metadata !118, i32 0, null, metadata !148} ; [ DW_TAG_class_field_type ]
!117 = metadata !{i32 786473, metadata !"/home/brennan/Vivado/Vivado/2017.4/common/technology/autopilot/ap_int.h", metadata !"/home/brennan/Documents/pynq-copter/pynqcopter/ip/pwm", null} ; [ DW_TAG_file_type ]
!118 = metadata !{metadata !119}
!119 = metadata !{i32 786438, null, metadata !"ap_int_base<6, false, true>", metadata !120, i32 1453, i64 6, i64 8, i32 0, i32 0, null, metadata !121, i32 0, null, metadata !145} ; [ DW_TAG_class_field_type ]
!120 = metadata !{i32 786473, metadata !"/home/brennan/Vivado/Vivado/2017.4/common/technology/autopilot/ap_int_syn.h", metadata !"/home/brennan/Documents/pynq-copter/pynqcopter/ip/pwm", null} ; [ DW_TAG_file_type ]
!121 = metadata !{metadata !122}
!122 = metadata !{i32 786438, null, metadata !"ssdm_int<6 + 1024 * 0, false>", metadata !123, i32 8, i64 6, i64 8, i32 0, i32 0, null, metadata !124, i32 0, null, metadata !139} ; [ DW_TAG_class_field_type ]
!123 = metadata !{i32 786473, metadata !"/home/brennan/Vivado/Vivado/2017.4/common/technology/autopilot/etc/autopilot_dt.def", metadata !"/home/brennan/Documents/pynq-copter/pynqcopter/ip/pwm", null} ; [ DW_TAG_file_type ]
!124 = metadata !{metadata !125}
!125 = metadata !{i32 786445, metadata !126, metadata !"V", metadata !123, i32 8, i64 6, i64 8, i64 0, i32 0, metadata !144} ; [ DW_TAG_member ]
!126 = metadata !{i32 786434, null, metadata !"ssdm_int<6 + 1024 * 0, false>", metadata !123, i32 8, i64 8, i64 8, i32 0, i32 0, null, metadata !127, i32 0, null, metadata !139} ; [ DW_TAG_class_type ]
!127 = metadata !{metadata !125, metadata !128, metadata !134}
!128 = metadata !{i32 786478, i32 0, metadata !126, metadata !"ssdm_int", metadata !"ssdm_int", metadata !"", metadata !123, i32 8, metadata !129, i1 false, i1 false, i32 0, i32 0, null, i32 256, i1 false, null, null, i32 0, metadata !132, i32 8} ; [ DW_TAG_subprogram ]
!129 = metadata !{i32 786453, i32 0, metadata !"", i32 0, i32 0, i64 0, i64 0, i64 0, i32 0, null, metadata !130, i32 0, i32 0} ; [ DW_TAG_subroutine_type ]
!130 = metadata !{null, metadata !131}
!131 = metadata !{i32 786447, i32 0, metadata !"", i32 0, i32 0, i64 64, i64 64, i64 0, i32 64, metadata !126} ; [ DW_TAG_pointer_type ]
!132 = metadata !{metadata !133}
!133 = metadata !{i32 786468}                     ; [ DW_TAG_base_type ]
!134 = metadata !{i32 786478, i32 0, metadata !126, metadata !"ssdm_int", metadata !"ssdm_int", metadata !"", metadata !123, i32 8, metadata !135, i1 false, i1 false, i32 0, i32 0, null, i32 320, i1 false, null, null, i32 0, metadata !132, i32 8} ; [ DW_TAG_subprogram ]
!135 = metadata !{i32 786453, i32 0, metadata !"", i32 0, i32 0, i64 0, i64 0, i64 0, i32 0, null, metadata !136, i32 0, i32 0} ; [ DW_TAG_subroutine_type ]
!136 = metadata !{null, metadata !131, metadata !137}
!137 = metadata !{i32 786448, null, null, null, i32 0, i64 0, i64 0, i64 0, i32 0, metadata !138} ; [ DW_TAG_reference_type ]
!138 = metadata !{i32 786470, null, metadata !"", null, i32 0, i64 0, i64 0, i64 0, i32 0, metadata !126} ; [ DW_TAG_const_type ]
!139 = metadata !{metadata !140, metadata !142}
!140 = metadata !{i32 786480, null, metadata !"_AP_N", metadata !141, i64 6, null, i32 0, i32 0} ; [ DW_TAG_template_value_parameter ]
!141 = metadata !{i32 786468, null, metadata !"int", null, i32 0, i64 32, i64 32, i64 0, i32 0, i32 5} ; [ DW_TAG_base_type ]
!142 = metadata !{i32 786480, null, metadata !"_AP_S", metadata !143, i64 0, null, i32 0, i32 0} ; [ DW_TAG_template_value_parameter ]
!143 = metadata !{i32 786468, null, metadata !"bool", null, i32 0, i64 8, i64 8, i64 0, i32 0, i32 2} ; [ DW_TAG_base_type ]
!144 = metadata !{i32 786468, null, metadata !"uint6", null, i32 0, i64 6, i64 8, i64 0, i32 0, i32 7} ; [ DW_TAG_base_type ]
!145 = metadata !{metadata !146, metadata !142, metadata !147}
!146 = metadata !{i32 786480, null, metadata !"_AP_W", metadata !141, i64 6, null, i32 0, i32 0} ; [ DW_TAG_template_value_parameter ]
!147 = metadata !{i32 786480, null, metadata !"_AP_C", metadata !143, i64 1, null, i32 0, i32 0} ; [ DW_TAG_template_value_parameter ]
!148 = metadata !{metadata !146}
!149 = metadata !{i32 790546, i32 0, null, metadata !"acc.V", metadata !"acc.V", metadata !"acc.V", metadata !115, i32 51, metadata !150, i32 1, i32 1, i16* @acc.V} ; [ DW_TAG_variable_field ]
!150 = metadata !{i32 786438, null, metadata !"ap_uint<16>", metadata !117, i32 183, i64 16, i64 16, i32 0, i32 0, null, metadata !151, i32 0, null, metadata !173} ; [ DW_TAG_class_field_type ]
!151 = metadata !{metadata !152}
!152 = metadata !{i32 786438, null, metadata !"ap_int_base<16, false, true>", metadata !120, i32 1453, i64 16, i64 16, i32 0, i32 0, null, metadata !153, i32 0, null, metadata !171} ; [ DW_TAG_class_field_type ]
!153 = metadata !{metadata !154}
!154 = metadata !{i32 786438, null, metadata !"ssdm_int<16 + 1024 * 0, false>", metadata !123, i32 18, i64 16, i64 16, i32 0, i32 0, null, metadata !155, i32 0, null, metadata !168} ; [ DW_TAG_class_field_type ]
!155 = metadata !{metadata !156}
!156 = metadata !{i32 786445, metadata !157, metadata !"V", metadata !123, i32 18, i64 16, i64 16, i64 0, i32 0, metadata !170} ; [ DW_TAG_member ]
!157 = metadata !{i32 786434, null, metadata !"ssdm_int<16 + 1024 * 0, false>", metadata !123, i32 18, i64 16, i64 16, i32 0, i32 0, null, metadata !158, i32 0, null, metadata !168} ; [ DW_TAG_class_type ]
!158 = metadata !{metadata !156, metadata !159, metadata !163}
!159 = metadata !{i32 786478, i32 0, metadata !157, metadata !"ssdm_int", metadata !"ssdm_int", metadata !"", metadata !123, i32 18, metadata !160, i1 false, i1 false, i32 0, i32 0, null, i32 256, i1 false, null, null, i32 0, metadata !132, i32 18} ; [ DW_TAG_subprogram ]
!160 = metadata !{i32 786453, i32 0, metadata !"", i32 0, i32 0, i64 0, i64 0, i64 0, i32 0, null, metadata !161, i32 0, i32 0} ; [ DW_TAG_subroutine_type ]
!161 = metadata !{null, metadata !162}
!162 = metadata !{i32 786447, i32 0, metadata !"", i32 0, i32 0, i64 64, i64 64, i64 0, i32 64, metadata !157} ; [ DW_TAG_pointer_type ]
!163 = metadata !{i32 786478, i32 0, metadata !157, metadata !"ssdm_int", metadata !"ssdm_int", metadata !"", metadata !123, i32 18, metadata !164, i1 false, i1 false, i32 0, i32 0, null, i32 320, i1 false, null, null, i32 0, metadata !132, i32 18} ; [ DW_TAG_subprogram ]
!164 = metadata !{i32 786453, i32 0, metadata !"", i32 0, i32 0, i64 0, i64 0, i64 0, i32 0, null, metadata !165, i32 0, i32 0} ; [ DW_TAG_subroutine_type ]
!165 = metadata !{null, metadata !162, metadata !166}
!166 = metadata !{i32 786448, null, null, null, i32 0, i64 0, i64 0, i64 0, i32 0, metadata !167} ; [ DW_TAG_reference_type ]
!167 = metadata !{i32 786470, null, metadata !"", null, i32 0, i64 0, i64 0, i64 0, i32 0, metadata !157} ; [ DW_TAG_const_type ]
!168 = metadata !{metadata !169, metadata !142}
!169 = metadata !{i32 786480, null, metadata !"_AP_N", metadata !141, i64 16, null, i32 0, i32 0} ; [ DW_TAG_template_value_parameter ]
!170 = metadata !{i32 786468, null, metadata !"uint16", null, i32 0, i64 16, i64 16, i64 0, i32 0, i32 7} ; [ DW_TAG_base_type ]
!171 = metadata !{metadata !172, metadata !142, metadata !147}
!172 = metadata !{i32 786480, null, metadata !"_AP_W", metadata !141, i64 16, null, i32 0, i32 0} ; [ DW_TAG_template_value_parameter ]
!173 = metadata !{metadata !172}
!174 = metadata !{i32 790546, i32 0, null, metadata !"in_p.V", metadata !"in_p.V", metadata !"in_p.V", metadata !115, i32 53, metadata !175, i32 1, i32 1, null} ; [ DW_TAG_variable_field ]
!175 = metadata !{i32 786433, null, metadata !"", null, i32 0, i64 96, i64 16, i32 0, i32 0, metadata !150, metadata !176, i32 0, i32 0} ; [ DW_TAG_array_type ]
!176 = metadata !{metadata !177}
!177 = metadata !{i32 786465, i64 0, i64 5}       ; [ DW_TAG_subrange_type ]
!178 = metadata !{i32 786484, i32 0, metadata !179, metadata !"piecewise_construct", metadata !"piecewise_construct", metadata !"_ZStL19piecewise_construct", metadata !180, i32 75, metadata !181, i32 1, i32 1, null} ; [ DW_TAG_variable ]
!179 = metadata !{i32 786489, null, metadata !"std", metadata !180, i32 66} ; [ DW_TAG_namespace ]
!180 = metadata !{i32 786473, metadata !"/home/brennan/Vivado/Vivado/2017.4/lnx64/tools/gcc/lib/gcc/x86_64-unknown-linux-gnu/4.6.3/../../../../include/c++/4.6.3/bits/stl_pair.h", metadata !"/home/brennan/Documents/pynq-copter/pynqcopter/ip/pwm", null} ; [ DW_TAG_file_type ]
!181 = metadata !{i32 786470, null, metadata !"", null, i32 0, i64 0, i64 0, i64 0, i32 0, metadata !182} ; [ DW_TAG_const_type ]
!182 = metadata !{i32 786434, metadata !179, metadata !"piecewise_construct_t", metadata !180, i32 72, i64 8, i64 8, i32 0, i32 0, null, metadata !183, i32 0, null, null} ; [ DW_TAG_class_type ]
!183 = metadata !{metadata !184, metadata !189}
!184 = metadata !{i32 786478, i32 0, metadata !182, metadata !"piecewise_construct_t", metadata !"piecewise_construct_t", metadata !"", metadata !180, i32 72, metadata !185, i1 false, i1 false, i32 0, i32 0, null, i32 320, i1 false, null, null, i32 0, metadata !132, i32 72} ; [ DW_TAG_subprogram ]
!185 = metadata !{i32 786453, i32 0, metadata !"", i32 0, i32 0, i64 0, i64 0, i64 0, i32 0, null, metadata !186, i32 0, i32 0} ; [ DW_TAG_subroutine_type ]
!186 = metadata !{null, metadata !187, metadata !188}
!187 = metadata !{i32 786447, i32 0, metadata !"", i32 0, i32 0, i64 64, i64 64, i64 0, i32 64, metadata !182} ; [ DW_TAG_pointer_type ]
!188 = metadata !{i32 786447, null, metadata !"", null, i32 0, i64 64, i64 64, i64 0, i32 0, metadata !182} ; [ DW_TAG_pointer_type ]
!189 = metadata !{i32 786478, i32 0, metadata !182, metadata !"~piecewise_construct_t", metadata !"~piecewise_construct_t", metadata !"", metadata !180, i32 72, metadata !190, i1 false, i1 false, i32 0, i32 0, null, i32 320, i1 false, null, null, i32 0, metadata !132, i32 72} ; [ DW_TAG_subprogram ]
!190 = metadata !{i32 786453, i32 0, metadata !"", i32 0, i32 0, i64 0, i64 0, i64 0, i32 0, null, metadata !191, i32 0, i32 0} ; [ DW_TAG_subroutine_type ]
!191 = metadata !{null, metadata !187}
!192 = metadata !{i32 786484, i32 0, metadata !193, metadata !"allocator_arg", metadata !"allocator_arg", metadata !"_ZStL13allocator_arg", metadata !194, i32 212, metadata !195, i32 1, i32 1, null} ; [ DW_TAG_variable ]
!193 = metadata !{i32 786489, null, metadata !"std", metadata !194, i32 54} ; [ DW_TAG_namespace ]
!194 = metadata !{i32 786473, metadata !"/home/brennan/Vivado/Vivado/2017.4/lnx64/tools/gcc/lib/gcc/x86_64-unknown-linux-gnu/4.6.3/../../../../include/c++/4.6.3/bits/allocator.h", metadata !"/home/brennan/Documents/pynq-copter/pynqcopter/ip/pwm", null} ; [ DW_TAG_file_type ]
!195 = metadata !{i32 786470, null, metadata !"", null, i32 0, i64 0, i64 0, i64 0, i32 0, metadata !196} ; [ DW_TAG_const_type ]
!196 = metadata !{i32 786434, metadata !193, metadata !"allocator_arg_t", metadata !194, i32 210, i64 8, i64 8, i32 0, i32 0, null, metadata !197, i32 0, null, null} ; [ DW_TAG_class_type ]
!197 = metadata !{metadata !198, metadata !203}
!198 = metadata !{i32 786478, i32 0, metadata !196, metadata !"allocator_arg_t", metadata !"allocator_arg_t", metadata !"", metadata !194, i32 210, metadata !199, i1 false, i1 false, i32 0, i32 0, null, i32 320, i1 false, null, null, i32 0, metadata !132, i32 210} ; [ DW_TAG_subprogram ]
!199 = metadata !{i32 786453, i32 0, metadata !"", i32 0, i32 0, i64 0, i64 0, i64 0, i32 0, null, metadata !200, i32 0, i32 0} ; [ DW_TAG_subroutine_type ]
!200 = metadata !{null, metadata !201, metadata !202}
!201 = metadata !{i32 786447, i32 0, metadata !"", i32 0, i32 0, i64 64, i64 64, i64 0, i32 64, metadata !196} ; [ DW_TAG_pointer_type ]
!202 = metadata !{i32 786447, null, metadata !"", null, i32 0, i64 64, i64 64, i64 0, i32 0, metadata !196} ; [ DW_TAG_pointer_type ]
!203 = metadata !{i32 786478, i32 0, metadata !196, metadata !"~allocator_arg_t", metadata !"~allocator_arg_t", metadata !"", metadata !194, i32 210, metadata !204, i1 false, i1 false, i32 0, i32 0, null, i32 320, i1 false, null, null, i32 0, metadata !132, i32 210} ; [ DW_TAG_subprogram ]
!204 = metadata !{i32 786453, i32 0, metadata !"", i32 0, i32 0, i64 0, i64 0, i64 0, i32 0, null, metadata !205, i32 0, i32 0} ; [ DW_TAG_subroutine_type ]
!205 = metadata !{null, metadata !201}
!206 = metadata !{i32 786484, i32 0, metadata !207, metadata !"boolalpha", metadata !"boolalpha", metadata !"boolalpha", metadata !209, i32 259, metadata !1137, i32 1, i32 1, i17 1} ; [ DW_TAG_variable ]
!207 = metadata !{i32 786434, metadata !208, metadata !"ios_base", metadata !209, i32 200, i64 1728, i64 64, i32 0, i32 0, null, metadata !210, i32 0, metadata !207, null} ; [ DW_TAG_class_type ]
!208 = metadata !{i32 786489, null, metadata !"std", metadata !209, i32 44} ; [ DW_TAG_namespace ]
!209 = metadata !{i32 786473, metadata !"/home/brennan/Vivado/Vivado/2017.4/lnx64/tools/gcc/lib/gcc/x86_64-unknown-linux-gnu/4.6.3/../../../../include/c++/4.6.3/bits/ios_base.h", metadata !"/home/brennan/Documents/pynq-copter/pynqcopter/ip/pwm", null} ; [ DW_TAG_file_type ]
!210 = metadata !{metadata !211, metadata !216, metadata !224, metadata !225, metadata !248, metadata !257, metadata !258, metadata !287, metadata !297, metadata !301, metadata !302, metadata !304, metadata !1069, metadata !1073, metadata !1076, metadata !1079, metadata !1083, metadata !1084, metadata !1089, metadata !1092, metadata !1093, metadata !1096, metadata !1099, metadata !1102, metadata !1105, metadata !1106, metadata !1107, metadata !1110, metadata !1113, metadata !1116, metadata !1119, metadata !1120, metadata !1124, metadata !1128, metadata !1129, metadata !1130, metadata !1134}
!211 = metadata !{i32 786445, metadata !209, metadata !"_vptr$ios_base", metadata !209, i32 0, i64 64, i64 0, i64 0, i32 0, metadata !212} ; [ DW_TAG_member ]
!212 = metadata !{i32 786447, null, metadata !"", null, i32 0, i64 64, i64 0, i64 0, i32 0, metadata !213} ; [ DW_TAG_pointer_type ]
!213 = metadata !{i32 786447, null, metadata !"__vtbl_ptr_type", null, i32 0, i64 64, i64 0, i64 0, i32 0, metadata !214} ; [ DW_TAG_pointer_type ]
!214 = metadata !{i32 786453, i32 0, metadata !"", i32 0, i32 0, i64 0, i64 0, i64 0, i32 0, null, metadata !215, i32 0, i32 0} ; [ DW_TAG_subroutine_type ]
!215 = metadata !{metadata !141}
!216 = metadata !{i32 786445, metadata !207, metadata !"_M_precision", metadata !209, i32 453, i64 64, i64 64, i64 64, i32 2, metadata !217} ; [ DW_TAG_member ]
!217 = metadata !{i32 786454, metadata !218, metadata !"streamsize", metadata !209, i32 99, i64 0, i64 0, i64 0, i32 0, metadata !220} ; [ DW_TAG_typedef ]
!218 = metadata !{i32 786489, null, metadata !"std", metadata !219, i32 69} ; [ DW_TAG_namespace ]
!219 = metadata !{i32 786473, metadata !"/home/brennan/Vivado/Vivado/2017.4/lnx64/tools/gcc/lib/gcc/x86_64-unknown-linux-gnu/4.6.3/../../../../include/c++/4.6.3/bits/postypes.h", metadata !"/home/brennan/Documents/pynq-copter/pynqcopter/ip/pwm", null} ; [ DW_TAG_file_type ]
!220 = metadata !{i32 786454, metadata !221, metadata !"ptrdiff_t", metadata !209, i32 156, i64 0, i64 0, i64 0, i32 0, metadata !223} ; [ DW_TAG_typedef ]
!221 = metadata !{i32 786489, null, metadata !"std", metadata !222, i32 153} ; [ DW_TAG_namespace ]
!222 = metadata !{i32 786473, metadata !"/home/brennan/Vivado/Vivado/2017.4/lnx64/tools/gcc/lib/gcc/x86_64-unknown-linux-gnu/4.6.3/../../../../include/c++/4.6.3/x86_64-unknown-linux-gnu/bits/c++config.h", metadata !"/home/brennan/Documents/pynq-copter/pynqcopter/ip/pwm", null} ; [ DW_TAG_file_type ]
!223 = metadata !{i32 786468, null, metadata !"long int", null, i32 0, i64 64, i64 64, i64 0, i32 0, i32 5} ; [ DW_TAG_base_type ]
!224 = metadata !{i32 786445, metadata !207, metadata !"_M_width", metadata !209, i32 454, i64 64, i64 64, i64 128, i32 2, metadata !217} ; [ DW_TAG_member ]
!225 = metadata !{i32 786445, metadata !207, metadata !"_M_flags", metadata !209, i32 455, i64 17, i64 32, i64 192, i32 2, metadata !226} ; [ DW_TAG_member ]
!226 = metadata !{i32 786454, metadata !207, metadata !"fmtflags", metadata !209, i32 256, i64 0, i64 0, i64 0, i32 0, metadata !227} ; [ DW_TAG_typedef ]
!227 = metadata !{i32 786436, metadata !208, metadata !"_Ios_Fmtflags", metadata !209, i32 52, i64 17, i64 32, i32 0, i32 0, null, metadata !228, i32 0, i32 0} ; [ DW_TAG_enumeration_type ]
!228 = metadata !{metadata !229, metadata !230, metadata !231, metadata !232, metadata !233, metadata !234, metadata !235, metadata !236, metadata !237, metadata !238, metadata !239, metadata !240, metadata !241, metadata !242, metadata !243, metadata !244, metadata !245, metadata !246, metadata !247}
!229 = metadata !{i32 786472, metadata !"_S_boolalpha", i64 1} ; [ DW_TAG_enumerator ]
!230 = metadata !{i32 786472, metadata !"_S_dec", i64 2} ; [ DW_TAG_enumerator ]
!231 = metadata !{i32 786472, metadata !"_S_fixed", i64 4} ; [ DW_TAG_enumerator ]
!232 = metadata !{i32 786472, metadata !"_S_hex", i64 8} ; [ DW_TAG_enumerator ]
!233 = metadata !{i32 786472, metadata !"_S_internal", i64 16} ; [ DW_TAG_enumerator ]
!234 = metadata !{i32 786472, metadata !"_S_left", i64 32} ; [ DW_TAG_enumerator ]
!235 = metadata !{i32 786472, metadata !"_S_oct", i64 64} ; [ DW_TAG_enumerator ]
!236 = metadata !{i32 786472, metadata !"_S_right", i64 128} ; [ DW_TAG_enumerator ]
!237 = metadata !{i32 786472, metadata !"_S_scientific", i64 256} ; [ DW_TAG_enumerator ]
!238 = metadata !{i32 786472, metadata !"_S_showbase", i64 512} ; [ DW_TAG_enumerator ]
!239 = metadata !{i32 786472, metadata !"_S_showpoint", i64 1024} ; [ DW_TAG_enumerator ]
!240 = metadata !{i32 786472, metadata !"_S_showpos", i64 2048} ; [ DW_TAG_enumerator ]
!241 = metadata !{i32 786472, metadata !"_S_skipws", i64 4096} ; [ DW_TAG_enumerator ]
!242 = metadata !{i32 786472, metadata !"_S_unitbuf", i64 8192} ; [ DW_TAG_enumerator ]
!243 = metadata !{i32 786472, metadata !"_S_uppercase", i64 16384} ; [ DW_TAG_enumerator ]
!244 = metadata !{i32 786472, metadata !"_S_adjustfield", i64 176} ; [ DW_TAG_enumerator ]
!245 = metadata !{i32 786472, metadata !"_S_basefield", i64 74} ; [ DW_TAG_enumerator ]
!246 = metadata !{i32 786472, metadata !"_S_floatfield", i64 260} ; [ DW_TAG_enumerator ]
!247 = metadata !{i32 786472, metadata !"_S_ios_fmtflags_end", i64 65536} ; [ DW_TAG_enumerator ]
!248 = metadata !{i32 786445, metadata !207, metadata !"_M_exception", metadata !209, i32 456, i64 17, i64 32, i64 224, i32 2, metadata !249} ; [ DW_TAG_member ]
!249 = metadata !{i32 786454, metadata !207, metadata !"iostate", metadata !209, i32 331, i64 0, i64 0, i64 0, i32 0, metadata !250} ; [ DW_TAG_typedef ]
!250 = metadata !{i32 786436, metadata !208, metadata !"_Ios_Iostate", metadata !209, i32 144, i64 17, i64 32, i32 0, i32 0, null, metadata !251, i32 0, i32 0} ; [ DW_TAG_enumeration_type ]
!251 = metadata !{metadata !252, metadata !253, metadata !254, metadata !255, metadata !256}
!252 = metadata !{i32 786472, metadata !"_S_goodbit", i64 0} ; [ DW_TAG_enumerator ]
!253 = metadata !{i32 786472, metadata !"_S_badbit", i64 1} ; [ DW_TAG_enumerator ]
!254 = metadata !{i32 786472, metadata !"_S_eofbit", i64 2} ; [ DW_TAG_enumerator ]
!255 = metadata !{i32 786472, metadata !"_S_failbit", i64 4} ; [ DW_TAG_enumerator ]
!256 = metadata !{i32 786472, metadata !"_S_ios_iostate_end", i64 65536} ; [ DW_TAG_enumerator ]
!257 = metadata !{i32 786445, metadata !207, metadata !"_M_streambuf_state", metadata !209, i32 457, i64 17, i64 32, i64 256, i32 2, metadata !249} ; [ DW_TAG_member ]
!258 = metadata !{i32 786445, metadata !207, metadata !"_M_callbacks", metadata !209, i32 491, i64 64, i64 64, i64 320, i32 2, metadata !259} ; [ DW_TAG_member ]
!259 = metadata !{i32 786447, null, metadata !"", null, i32 0, i64 64, i64 64, i64 0, i32 0, metadata !260} ; [ DW_TAG_pointer_type ]
!260 = metadata !{i32 786434, metadata !207, metadata !"_Callback_list", metadata !209, i32 461, i64 192, i64 64, i32 0, i32 0, null, metadata !261, i32 0, null, null} ; [ DW_TAG_class_type ]
!261 = metadata !{metadata !262, metadata !263, metadata !274, metadata !275, metadata !277, metadata !281, metadata !284}
!262 = metadata !{i32 786445, metadata !260, metadata !"_M_next", metadata !209, i32 464, i64 64, i64 64, i64 0, i32 0, metadata !259} ; [ DW_TAG_member ]
!263 = metadata !{i32 786445, metadata !260, metadata !"_M_fn", metadata !209, i32 465, i64 64, i64 64, i64 64, i32 0, metadata !264} ; [ DW_TAG_member ]
!264 = metadata !{i32 786454, metadata !207, metadata !"event_callback", metadata !209, i32 437, i64 0, i64 0, i64 0, i32 0, metadata !265} ; [ DW_TAG_typedef ]
!265 = metadata !{i32 786447, null, metadata !"", null, i32 0, i64 64, i64 64, i64 0, i32 0, metadata !266} ; [ DW_TAG_pointer_type ]
!266 = metadata !{i32 786453, i32 0, metadata !"", i32 0, i32 0, i64 0, i64 0, i64 0, i32 0, null, metadata !267, i32 0, i32 0} ; [ DW_TAG_subroutine_type ]
!267 = metadata !{null, metadata !268, metadata !273, metadata !141}
!268 = metadata !{i32 786436, metadata !207, metadata !"event", metadata !209, i32 420, i64 2, i64 2, i32 0, i32 0, null, metadata !269, i32 0, i32 0} ; [ DW_TAG_enumeration_type ]
!269 = metadata !{metadata !270, metadata !271, metadata !272}
!270 = metadata !{i32 786472, metadata !"erase_event", i64 0} ; [ DW_TAG_enumerator ]
!271 = metadata !{i32 786472, metadata !"imbue_event", i64 1} ; [ DW_TAG_enumerator ]
!272 = metadata !{i32 786472, metadata !"copyfmt_event", i64 2} ; [ DW_TAG_enumerator ]
!273 = metadata !{i32 786448, null, null, null, i32 0, i64 0, i64 0, i64 0, i32 0, metadata !207} ; [ DW_TAG_reference_type ]
!274 = metadata !{i32 786445, metadata !260, metadata !"_M_index", metadata !209, i32 466, i64 32, i64 32, i64 128, i32 0, metadata !141} ; [ DW_TAG_member ]
!275 = metadata !{i32 786445, metadata !260, metadata !"_M_refcount", metadata !209, i32 467, i64 32, i64 32, i64 160, i32 0, metadata !276} ; [ DW_TAG_member ]
!276 = metadata !{i32 786454, null, metadata !"_Atomic_word", metadata !209, i32 32, i64 0, i64 0, i64 0, i32 0, metadata !141} ; [ DW_TAG_typedef ]
!277 = metadata !{i32 786478, i32 0, metadata !260, metadata !"_Callback_list", metadata !"_Callback_list", metadata !"", metadata !209, i32 469, metadata !278, i1 false, i1 false, i32 0, i32 0, null, i32 256, i1 false, null, null, i32 0, metadata !132, i32 469} ; [ DW_TAG_subprogram ]
!278 = metadata !{i32 786453, i32 0, metadata !"", i32 0, i32 0, i64 0, i64 0, i64 0, i32 0, null, metadata !279, i32 0, i32 0} ; [ DW_TAG_subroutine_type ]
!279 = metadata !{null, metadata !280, metadata !264, metadata !141, metadata !259}
!280 = metadata !{i32 786447, i32 0, metadata !"", i32 0, i32 0, i64 64, i64 64, i64 0, i32 64, metadata !260} ; [ DW_TAG_pointer_type ]
!281 = metadata !{i32 786478, i32 0, metadata !260, metadata !"_M_add_reference", metadata !"_M_add_reference", metadata !"_ZNSt8ios_base14_Callback_list16_M_add_referenceEv", metadata !209, i32 474, metadata !282, i1 false, i1 false, i32 0, i32 0, null, i32 256, i1 false, null, null, i32 0, metadata !132, i32 474} ; [ DW_TAG_subprogram ]
!282 = metadata !{i32 786453, i32 0, metadata !"", i32 0, i32 0, i64 0, i64 0, i64 0, i32 0, null, metadata !283, i32 0, i32 0} ; [ DW_TAG_subroutine_type ]
!283 = metadata !{null, metadata !280}
!284 = metadata !{i32 786478, i32 0, metadata !260, metadata !"_M_remove_reference", metadata !"_M_remove_reference", metadata !"_ZNSt8ios_base14_Callback_list19_M_remove_referenceEv", metadata !209, i32 478, metadata !285, i1 false, i1 false, i32 0, i32 0, null, i32 256, i1 false, null, null, i32 0, metadata !132, i32 478} ; [ DW_TAG_subprogram ]
!285 = metadata !{i32 786453, i32 0, metadata !"", i32 0, i32 0, i64 0, i64 0, i64 0, i32 0, null, metadata !286, i32 0, i32 0} ; [ DW_TAG_subroutine_type ]
!286 = metadata !{metadata !141, metadata !280}
!287 = metadata !{i32 786445, metadata !207, metadata !"_M_word_zero", metadata !209, i32 508, i64 128, i64 64, i64 384, i32 2, metadata !288} ; [ DW_TAG_member ]
!288 = metadata !{i32 786434, metadata !207, metadata !"_Words", metadata !209, i32 500, i64 128, i64 64, i32 0, i32 0, null, metadata !289, i32 0, null, null} ; [ DW_TAG_class_type ]
!289 = metadata !{metadata !290, metadata !292, metadata !293}
!290 = metadata !{i32 786445, metadata !288, metadata !"_M_pword", metadata !209, i32 502, i64 64, i64 64, i64 0, i32 0, metadata !291} ; [ DW_TAG_member ]
!291 = metadata !{i32 786447, null, metadata !"", null, i32 0, i64 64, i64 64, i64 0, i32 0, null} ; [ DW_TAG_pointer_type ]
!292 = metadata !{i32 786445, metadata !288, metadata !"_M_iword", metadata !209, i32 503, i64 64, i64 64, i64 64, i32 0, metadata !223} ; [ DW_TAG_member ]
!293 = metadata !{i32 786478, i32 0, metadata !288, metadata !"_Words", metadata !"_Words", metadata !"", metadata !209, i32 504, metadata !294, i1 false, i1 false, i32 0, i32 0, null, i32 256, i1 false, null, null, i32 0, metadata !132, i32 504} ; [ DW_TAG_subprogram ]
!294 = metadata !{i32 786453, i32 0, metadata !"", i32 0, i32 0, i64 0, i64 0, i64 0, i32 0, null, metadata !295, i32 0, i32 0} ; [ DW_TAG_subroutine_type ]
!295 = metadata !{null, metadata !296}
!296 = metadata !{i32 786447, i32 0, metadata !"", i32 0, i32 0, i64 64, i64 64, i64 0, i32 64, metadata !288} ; [ DW_TAG_pointer_type ]
!297 = metadata !{i32 786445, metadata !207, metadata !"_M_local_word", metadata !209, i32 513, i64 1024, i64 64, i64 512, i32 2, metadata !298} ; [ DW_TAG_member ]
!298 = metadata !{i32 786433, null, metadata !"", null, i32 0, i64 1024, i64 64, i32 0, i32 0, metadata !288, metadata !299, i32 0, i32 0} ; [ DW_TAG_array_type ]
!299 = metadata !{metadata !300}
!300 = metadata !{i32 786465, i64 0, i64 7}       ; [ DW_TAG_subrange_type ]
!301 = metadata !{i32 786445, metadata !207, metadata !"_M_word_size", metadata !209, i32 516, i64 32, i64 32, i64 1536, i32 2, metadata !141} ; [ DW_TAG_member ]
!302 = metadata !{i32 786445, metadata !207, metadata !"_M_word", metadata !209, i32 517, i64 64, i64 64, i64 1600, i32 2, metadata !303} ; [ DW_TAG_member ]
!303 = metadata !{i32 786447, null, metadata !"", null, i32 0, i64 64, i64 64, i64 0, i32 0, metadata !288} ; [ DW_TAG_pointer_type ]
!304 = metadata !{i32 786445, metadata !207, metadata !"_M_ios_locale", metadata !209, i32 523, i64 64, i64 64, i64 1664, i32 2, metadata !305} ; [ DW_TAG_member ]
!305 = metadata !{i32 786434, metadata !306, metadata !"locale", metadata !307, i32 63, i64 64, i64 64, i32 0, i32 0, null, metadata !308, i32 0, null, null} ; [ DW_TAG_class_type ]
!306 = metadata !{i32 786489, null, metadata !"std", metadata !307, i32 44} ; [ DW_TAG_namespace ]
!307 = metadata !{i32 786473, metadata !"/home/brennan/Vivado/Vivado/2017.4/lnx64/tools/gcc/lib/gcc/x86_64-unknown-linux-gnu/4.6.3/../../../../include/c++/4.6.3/bits/locale_classes.h", metadata !"/home/brennan/Documents/pynq-copter/pynqcopter/ip/pwm", null} ; [ DW_TAG_file_type ]
!308 = metadata !{metadata !309, metadata !469, metadata !473, metadata !478, metadata !481, metadata !484, metadata !487, metadata !488, metadata !491, metadata !1048, metadata !1051, metadata !1052, metadata !1055, metadata !1058, metadata !1061, metadata !1062, metadata !1063, metadata !1066, metadata !1067, metadata !1068}
!309 = metadata !{i32 786445, metadata !305, metadata !"_M_impl", metadata !307, i32 280, i64 64, i64 64, i64 0, i32 1, metadata !310} ; [ DW_TAG_member ]
!310 = metadata !{i32 786447, null, metadata !"", null, i32 0, i64 64, i64 64, i64 0, i32 0, metadata !311} ; [ DW_TAG_pointer_type ]
!311 = metadata !{i32 786434, metadata !305, metadata !"_Impl", metadata !307, i32 475, i64 320, i64 64, i32 0, i32 0, null, metadata !312, i32 0, null, null} ; [ DW_TAG_class_type ]
!312 = metadata !{metadata !313, metadata !314, metadata !399, metadata !400, metadata !401, metadata !404, metadata !408, metadata !409, metadata !414, metadata !417, metadata !420, metadata !421, metadata !424, metadata !425, metadata !428, metadata !433, metadata !458, metadata !461, metadata !464, metadata !467, metadata !468}
!313 = metadata !{i32 786445, metadata !311, metadata !"_M_refcount", metadata !307, i32 495, i64 32, i64 32, i64 0, i32 1, metadata !276} ; [ DW_TAG_member ]
!314 = metadata !{i32 786445, metadata !311, metadata !"_M_facets", metadata !307, i32 496, i64 64, i64 64, i64 64, i32 1, metadata !315} ; [ DW_TAG_member ]
!315 = metadata !{i32 786447, null, metadata !"", null, i32 0, i64 64, i64 64, i64 0, i32 0, metadata !316} ; [ DW_TAG_pointer_type ]
!316 = metadata !{i32 786447, null, metadata !"", null, i32 0, i64 64, i64 64, i64 0, i32 0, metadata !317} ; [ DW_TAG_pointer_type ]
!317 = metadata !{i32 786470, null, metadata !"", null, i32 0, i64 0, i64 0, i64 0, i32 0, metadata !318} ; [ DW_TAG_const_type ]
!318 = metadata !{i32 786434, metadata !305, metadata !"facet", metadata !307, i32 338, i64 128, i64 64, i32 0, i32 0, null, metadata !319, i32 0, metadata !318, null} ; [ DW_TAG_class_type ]
!319 = metadata !{metadata !320, metadata !321, metadata !322, metadata !325, metadata !331, metadata !334, metadata !369, metadata !372, metadata !375, metadata !378, metadata !381, metadata !384, metadata !388, metadata !389, metadata !393, metadata !397, metadata !398}
!320 = metadata !{i32 786445, metadata !307, metadata !"_vptr$facet", metadata !307, i32 0, i64 64, i64 0, i64 0, i32 0, metadata !212} ; [ DW_TAG_member ]
!321 = metadata !{i32 786445, metadata !318, metadata !"_M_refcount", metadata !307, i32 344, i64 32, i64 32, i64 64, i32 1, metadata !276} ; [ DW_TAG_member ]
!322 = metadata !{i32 786478, i32 0, metadata !318, metadata !"_S_initialize_once", metadata !"_S_initialize_once", metadata !"_ZNSt6locale5facet18_S_initialize_onceEv", metadata !307, i32 357, metadata !323, i1 false, i1 false, i32 0, i32 0, null, i32 257, i1 false, null, null, i32 0, metadata !132, i32 357} ; [ DW_TAG_subprogram ]
!323 = metadata !{i32 786453, i32 0, metadata !"", i32 0, i32 0, i64 0, i64 0, i64 0, i32 0, null, metadata !324, i32 0, i32 0} ; [ DW_TAG_subroutine_type ]
!324 = metadata !{null}
!325 = metadata !{i32 786478, i32 0, metadata !318, metadata !"facet", metadata !"facet", metadata !"", metadata !307, i32 370, metadata !326, i1 false, i1 false, i32 0, i32 0, null, i32 386, i1 false, null, null, i32 0, metadata !132, i32 370} ; [ DW_TAG_subprogram ]
!326 = metadata !{i32 786453, i32 0, metadata !"", i32 0, i32 0, i64 0, i64 0, i64 0, i32 0, null, metadata !327, i32 0, i32 0} ; [ DW_TAG_subroutine_type ]
!327 = metadata !{null, metadata !328, metadata !329}
!328 = metadata !{i32 786447, i32 0, metadata !"", i32 0, i32 0, i64 64, i64 64, i64 0, i32 64, metadata !318} ; [ DW_TAG_pointer_type ]
!329 = metadata !{i32 786454, metadata !221, metadata !"size_t", metadata !307, i32 155, i64 0, i64 0, i64 0, i32 0, metadata !330} ; [ DW_TAG_typedef ]
!330 = metadata !{i32 786468, null, metadata !"long unsigned int", null, i32 0, i64 64, i64 64, i64 0, i32 0, i32 7} ; [ DW_TAG_base_type ]
!331 = metadata !{i32 786478, i32 0, metadata !318, metadata !"~facet", metadata !"~facet", metadata !"", metadata !307, i32 375, metadata !332, i1 false, i1 false, i32 1, i32 0, metadata !318, i32 258, i1 false, null, null, i32 0, metadata !132, i32 375} ; [ DW_TAG_subprogram ]
!332 = metadata !{i32 786453, i32 0, metadata !"", i32 0, i32 0, i64 0, i64 0, i64 0, i32 0, null, metadata !333, i32 0, i32 0} ; [ DW_TAG_subroutine_type ]
!333 = metadata !{null, metadata !328}
!334 = metadata !{i32 786478, i32 0, metadata !318, metadata !"_S_create_c_locale", metadata !"_S_create_c_locale", metadata !"_ZNSt6locale5facet18_S_create_c_localeERP15__locale_structPKcS2_", metadata !307, i32 378, metadata !335, i1 false, i1 false, i32 0, i32 0, null, i32 258, i1 false, null, null, i32 0, metadata !132, i32 378} ; [ DW_TAG_subprogram ]
!335 = metadata !{i32 786453, i32 0, metadata !"", i32 0, i32 0, i64 0, i64 0, i64 0, i32 0, null, metadata !336, i32 0, i32 0} ; [ DW_TAG_subroutine_type ]
!336 = metadata !{null, metadata !337, metadata !362, metadata !338}
!337 = metadata !{i32 786448, null, null, null, i32 0, i64 0, i64 0, i64 0, i32 0, metadata !338} ; [ DW_TAG_reference_type ]
!338 = metadata !{i32 786454, metadata !339, metadata !"__c_locale", metadata !307, i32 62, i64 0, i64 0, i64 0, i32 0, metadata !341} ; [ DW_TAG_typedef ]
!339 = metadata !{i32 786489, null, metadata !"std", metadata !340, i32 58} ; [ DW_TAG_namespace ]
!340 = metadata !{i32 786473, metadata !"/home/brennan/Vivado/Vivado/2017.4/lnx64/tools/gcc/lib/gcc/x86_64-unknown-linux-gnu/4.6.3/../../../../include/c++/4.6.3/x86_64-unknown-linux-gnu/bits/c++locale.h", metadata !"/home/brennan/Documents/pynq-copter/pynqcopter/ip/pwm", null} ; [ DW_TAG_file_type ]
!341 = metadata !{i32 786454, null, metadata !"__locale_t", metadata !307, i32 39, i64 0, i64 0, i64 0, i32 0, metadata !342} ; [ DW_TAG_typedef ]
!342 = metadata !{i32 786447, null, metadata !"", null, i32 0, i64 64, i64 64, i64 0, i32 0, metadata !343} ; [ DW_TAG_pointer_type ]
!343 = metadata !{i32 786434, null, metadata !"__locale_struct", metadata !344, i32 27, i64 1856, i64 64, i32 0, i32 0, null, metadata !345, i32 0, null, null} ; [ DW_TAG_class_type ]
!344 = metadata !{i32 786473, metadata !"/usr/include/xlocale.h", metadata !"/home/brennan/Documents/pynq-copter/pynqcopter/ip/pwm", null} ; [ DW_TAG_file_type ]
!345 = metadata !{metadata !346, metadata !352, metadata !356, metadata !359, metadata !360, metadata !365}
!346 = metadata !{i32 786445, metadata !343, metadata !"__locales", metadata !344, i32 30, i64 832, i64 64, i64 0, i32 0, metadata !347} ; [ DW_TAG_member ]
!347 = metadata !{i32 786433, null, metadata !"", null, i32 0, i64 832, i64 64, i32 0, i32 0, metadata !348, metadata !350, i32 0, i32 0} ; [ DW_TAG_array_type ]
!348 = metadata !{i32 786447, null, metadata !"", null, i32 0, i64 64, i64 64, i64 0, i32 0, metadata !349} ; [ DW_TAG_pointer_type ]
!349 = metadata !{i32 786434, null, metadata !"__locale_data", metadata !344, i32 30, i32 0, i32 0, i32 0, i32 4, null, null, i32 0} ; [ DW_TAG_class_type ]
!350 = metadata !{metadata !351}
!351 = metadata !{i32 786465, i64 0, i64 12}      ; [ DW_TAG_subrange_type ]
!352 = metadata !{i32 786445, metadata !343, metadata !"__ctype_b", metadata !344, i32 33, i64 64, i64 64, i64 832, i32 0, metadata !353} ; [ DW_TAG_member ]
!353 = metadata !{i32 786447, null, metadata !"", null, i32 0, i64 64, i64 64, i64 0, i32 0, metadata !354} ; [ DW_TAG_pointer_type ]
!354 = metadata !{i32 786470, null, metadata !"", null, i32 0, i64 0, i64 0, i64 0, i32 0, metadata !355} ; [ DW_TAG_const_type ]
!355 = metadata !{i32 786468, null, metadata !"unsigned short", null, i32 0, i64 16, i64 16, i64 0, i32 0, i32 7} ; [ DW_TAG_base_type ]
!356 = metadata !{i32 786445, metadata !343, metadata !"__ctype_tolower", metadata !344, i32 34, i64 64, i64 64, i64 896, i32 0, metadata !357} ; [ DW_TAG_member ]
!357 = metadata !{i32 786447, null, metadata !"", null, i32 0, i64 64, i64 64, i64 0, i32 0, metadata !358} ; [ DW_TAG_pointer_type ]
!358 = metadata !{i32 786470, null, metadata !"", null, i32 0, i64 0, i64 0, i64 0, i32 0, metadata !141} ; [ DW_TAG_const_type ]
!359 = metadata !{i32 786445, metadata !343, metadata !"__ctype_toupper", metadata !344, i32 35, i64 64, i64 64, i64 960, i32 0, metadata !357} ; [ DW_TAG_member ]
!360 = metadata !{i32 786445, metadata !343, metadata !"__names", metadata !344, i32 38, i64 832, i64 64, i64 1024, i32 0, metadata !361} ; [ DW_TAG_member ]
!361 = metadata !{i32 786433, null, metadata !"", null, i32 0, i64 832, i64 64, i32 0, i32 0, metadata !362, metadata !350, i32 0, i32 0} ; [ DW_TAG_array_type ]
!362 = metadata !{i32 786447, null, metadata !"", null, i32 0, i64 64, i64 64, i64 0, i32 0, metadata !363} ; [ DW_TAG_pointer_type ]
!363 = metadata !{i32 786470, null, metadata !"", null, i32 0, i64 0, i64 0, i64 0, i32 0, metadata !364} ; [ DW_TAG_const_type ]
!364 = metadata !{i32 786468, null, metadata !"char", null, i32 0, i64 8, i64 8, i64 0, i32 0, i32 6} ; [ DW_TAG_base_type ]
!365 = metadata !{i32 786478, i32 0, metadata !343, metadata !"__locale_struct", metadata !"__locale_struct", metadata !"", metadata !344, i32 41, metadata !366, i1 false, i1 false, i32 0, i32 0, null, i32 256, i1 false, null, null, i32 0, metadata !132, i32 41} ; [ DW_TAG_subprogram ]
!366 = metadata !{i32 786453, i32 0, metadata !"", i32 0, i32 0, i64 0, i64 0, i64 0, i32 0, null, metadata !367, i32 0, i32 0} ; [ DW_TAG_subroutine_type ]
!367 = metadata !{null, metadata !368}
!368 = metadata !{i32 786447, i32 0, metadata !"", i32 0, i32 0, i64 64, i64 64, i64 0, i32 64, metadata !343} ; [ DW_TAG_pointer_type ]
!369 = metadata !{i32 786478, i32 0, metadata !318, metadata !"_S_clone_c_locale", metadata !"_S_clone_c_locale", metadata !"_ZNSt6locale5facet17_S_clone_c_localeERP15__locale_struct", metadata !307, i32 382, metadata !370, i1 false, i1 false, i32 0, i32 0, null, i32 258, i1 false, null, null, i32 0, metadata !132, i32 382} ; [ DW_TAG_subprogram ]
!370 = metadata !{i32 786453, i32 0, metadata !"", i32 0, i32 0, i64 0, i64 0, i64 0, i32 0, null, metadata !371, i32 0, i32 0} ; [ DW_TAG_subroutine_type ]
!371 = metadata !{metadata !338, metadata !337}
!372 = metadata !{i32 786478, i32 0, metadata !318, metadata !"_S_destroy_c_locale", metadata !"_S_destroy_c_locale", metadata !"_ZNSt6locale5facet19_S_destroy_c_localeERP15__locale_struct", metadata !307, i32 385, metadata !373, i1 false, i1 false, i32 0, i32 0, null, i32 258, i1 false, null, null, i32 0, metadata !132, i32 385} ; [ DW_TAG_subprogram ]
!373 = metadata !{i32 786453, i32 0, metadata !"", i32 0, i32 0, i64 0, i64 0, i64 0, i32 0, null, metadata !374, i32 0, i32 0} ; [ DW_TAG_subroutine_type ]
!374 = metadata !{null, metadata !337}
!375 = metadata !{i32 786478, i32 0, metadata !318, metadata !"_S_lc_ctype_c_locale", metadata !"_S_lc_ctype_c_locale", metadata !"_ZNSt6locale5facet20_S_lc_ctype_c_localeEP15__locale_structPKc", metadata !307, i32 388, metadata !376, i1 false, i1 false, i32 0, i32 0, null, i32 258, i1 false, null, null, i32 0, metadata !132, i32 388} ; [ DW_TAG_subprogram ]
!376 = metadata !{i32 786453, i32 0, metadata !"", i32 0, i32 0, i64 0, i64 0, i64 0, i32 0, null, metadata !377, i32 0, i32 0} ; [ DW_TAG_subroutine_type ]
!377 = metadata !{metadata !338, metadata !338, metadata !362}
!378 = metadata !{i32 786478, i32 0, metadata !318, metadata !"_S_get_c_locale", metadata !"_S_get_c_locale", metadata !"_ZNSt6locale5facet15_S_get_c_localeEv", metadata !307, i32 393, metadata !379, i1 false, i1 false, i32 0, i32 0, null, i32 258, i1 false, null, null, i32 0, metadata !132, i32 393} ; [ DW_TAG_subprogram ]
!379 = metadata !{i32 786453, i32 0, metadata !"", i32 0, i32 0, i64 0, i64 0, i64 0, i32 0, null, metadata !380, i32 0, i32 0} ; [ DW_TAG_subroutine_type ]
!380 = metadata !{metadata !338}
!381 = metadata !{i32 786478, i32 0, metadata !318, metadata !"_S_get_c_name", metadata !"_S_get_c_name", metadata !"_ZNSt6locale5facet13_S_get_c_nameEv", metadata !307, i32 396, metadata !382, i1 false, i1 false, i32 0, i32 0, null, i32 258, i1 false, null, null, i32 0, metadata !132, i32 396} ; [ DW_TAG_subprogram ]
!382 = metadata !{i32 786453, i32 0, metadata !"", i32 0, i32 0, i64 0, i64 0, i64 0, i32 0, null, metadata !383, i32 0, i32 0} ; [ DW_TAG_subroutine_type ]
!383 = metadata !{metadata !362}
!384 = metadata !{i32 786478, i32 0, metadata !318, metadata !"_M_add_reference", metadata !"_M_add_reference", metadata !"_ZNKSt6locale5facet16_M_add_referenceEv", metadata !307, i32 400, metadata !385, i1 false, i1 false, i32 0, i32 0, null, i32 257, i1 false, null, null, i32 0, metadata !132, i32 400} ; [ DW_TAG_subprogram ]
!385 = metadata !{i32 786453, i32 0, metadata !"", i32 0, i32 0, i64 0, i64 0, i64 0, i32 0, null, metadata !386, i32 0, i32 0} ; [ DW_TAG_subroutine_type ]
!386 = metadata !{null, metadata !387}
!387 = metadata !{i32 786447, i32 0, metadata !"", i32 0, i32 0, i64 64, i64 64, i64 0, i32 64, metadata !317} ; [ DW_TAG_pointer_type ]
!388 = metadata !{i32 786478, i32 0, metadata !318, metadata !"_M_remove_reference", metadata !"_M_remove_reference", metadata !"_ZNKSt6locale5facet19_M_remove_referenceEv", metadata !307, i32 404, metadata !385, i1 false, i1 false, i32 0, i32 0, null, i32 257, i1 false, null, null, i32 0, metadata !132, i32 404} ; [ DW_TAG_subprogram ]
!389 = metadata !{i32 786478, i32 0, metadata !318, metadata !"facet", metadata !"facet", metadata !"", metadata !307, i32 418, metadata !390, i1 false, i1 false, i32 0, i32 0, null, i32 257, i1 false, null, null, i32 0, metadata !132, i32 418} ; [ DW_TAG_subprogram ]
!390 = metadata !{i32 786453, i32 0, metadata !"", i32 0, i32 0, i64 0, i64 0, i64 0, i32 0, null, metadata !391, i32 0, i32 0} ; [ DW_TAG_subroutine_type ]
!391 = metadata !{null, metadata !328, metadata !392}
!392 = metadata !{i32 786448, null, null, null, i32 0, i64 0, i64 0, i64 0, i32 0, metadata !317} ; [ DW_TAG_reference_type ]
!393 = metadata !{i32 786478, i32 0, metadata !318, metadata !"operator=", metadata !"operator=", metadata !"_ZNSt6locale5facetaSERKS0_", metadata !307, i32 421, metadata !394, i1 false, i1 false, i32 0, i32 0, null, i32 257, i1 false, null, null, i32 0, metadata !132, i32 421} ; [ DW_TAG_subprogram ]
!394 = metadata !{i32 786453, i32 0, metadata !"", i32 0, i32 0, i64 0, i64 0, i64 0, i32 0, null, metadata !395, i32 0, i32 0} ; [ DW_TAG_subroutine_type ]
!395 = metadata !{metadata !396, metadata !328, metadata !392}
!396 = metadata !{i32 786448, null, null, null, i32 0, i64 0, i64 0, i64 0, i32 0, metadata !318} ; [ DW_TAG_reference_type ]
!397 = metadata !{i32 786474, metadata !318, null, metadata !307, i32 0, i64 0, i64 0, i64 0, i32 0, metadata !311} ; [ DW_TAG_friend ]
!398 = metadata !{i32 786474, metadata !318, null, metadata !307, i32 0, i64 0, i64 0, i64 0, i32 0, metadata !305} ; [ DW_TAG_friend ]
!399 = metadata !{i32 786445, metadata !311, metadata !"_M_facets_size", metadata !307, i32 497, i64 64, i64 64, i64 128, i32 1, metadata !329} ; [ DW_TAG_member ]
!400 = metadata !{i32 786445, metadata !311, metadata !"_M_caches", metadata !307, i32 498, i64 64, i64 64, i64 192, i32 1, metadata !315} ; [ DW_TAG_member ]
!401 = metadata !{i32 786445, metadata !311, metadata !"_M_names", metadata !307, i32 499, i64 64, i64 64, i64 256, i32 1, metadata !402} ; [ DW_TAG_member ]
!402 = metadata !{i32 786447, null, metadata !"", null, i32 0, i64 64, i64 64, i64 0, i32 0, metadata !403} ; [ DW_TAG_pointer_type ]
!403 = metadata !{i32 786447, null, metadata !"", null, i32 0, i64 64, i64 64, i64 0, i32 0, metadata !364} ; [ DW_TAG_pointer_type ]
!404 = metadata !{i32 786478, i32 0, metadata !311, metadata !"_M_add_reference", metadata !"_M_add_reference", metadata !"_ZNSt6locale5_Impl16_M_add_referenceEv", metadata !307, i32 509, metadata !405, i1 false, i1 false, i32 0, i32 0, null, i32 257, i1 false, null, null, i32 0, metadata !132, i32 509} ; [ DW_TAG_subprogram ]
!405 = metadata !{i32 786453, i32 0, metadata !"", i32 0, i32 0, i64 0, i64 0, i64 0, i32 0, null, metadata !406, i32 0, i32 0} ; [ DW_TAG_subroutine_type ]
!406 = metadata !{null, metadata !407}
!407 = metadata !{i32 786447, i32 0, metadata !"", i32 0, i32 0, i64 64, i64 64, i64 0, i32 64, metadata !311} ; [ DW_TAG_pointer_type ]
!408 = metadata !{i32 786478, i32 0, metadata !311, metadata !"_M_remove_reference", metadata !"_M_remove_reference", metadata !"_ZNSt6locale5_Impl19_M_remove_referenceEv", metadata !307, i32 513, metadata !405, i1 false, i1 false, i32 0, i32 0, null, i32 257, i1 false, null, null, i32 0, metadata !132, i32 513} ; [ DW_TAG_subprogram ]
!409 = metadata !{i32 786478, i32 0, metadata !311, metadata !"_Impl", metadata !"_Impl", metadata !"", metadata !307, i32 527, metadata !410, i1 false, i1 false, i32 0, i32 0, null, i32 257, i1 false, null, null, i32 0, metadata !132, i32 527} ; [ DW_TAG_subprogram ]
!410 = metadata !{i32 786453, i32 0, metadata !"", i32 0, i32 0, i64 0, i64 0, i64 0, i32 0, null, metadata !411, i32 0, i32 0} ; [ DW_TAG_subroutine_type ]
!411 = metadata !{null, metadata !407, metadata !412, metadata !329}
!412 = metadata !{i32 786448, null, null, null, i32 0, i64 0, i64 0, i64 0, i32 0, metadata !413} ; [ DW_TAG_reference_type ]
!413 = metadata !{i32 786470, null, metadata !"", null, i32 0, i64 0, i64 0, i64 0, i32 0, metadata !311} ; [ DW_TAG_const_type ]
!414 = metadata !{i32 786478, i32 0, metadata !311, metadata !"_Impl", metadata !"_Impl", metadata !"", metadata !307, i32 528, metadata !415, i1 false, i1 false, i32 0, i32 0, null, i32 257, i1 false, null, null, i32 0, metadata !132, i32 528} ; [ DW_TAG_subprogram ]
!415 = metadata !{i32 786453, i32 0, metadata !"", i32 0, i32 0, i64 0, i64 0, i64 0, i32 0, null, metadata !416, i32 0, i32 0} ; [ DW_TAG_subroutine_type ]
!416 = metadata !{null, metadata !407, metadata !362, metadata !329}
!417 = metadata !{i32 786478, i32 0, metadata !311, metadata !"_Impl", metadata !"_Impl", metadata !"", metadata !307, i32 529, metadata !418, i1 false, i1 false, i32 0, i32 0, null, i32 257, i1 false, null, null, i32 0, metadata !132, i32 529} ; [ DW_TAG_subprogram ]
!418 = metadata !{i32 786453, i32 0, metadata !"", i32 0, i32 0, i64 0, i64 0, i64 0, i32 0, null, metadata !419, i32 0, i32 0} ; [ DW_TAG_subroutine_type ]
!419 = metadata !{null, metadata !407, metadata !329}
!420 = metadata !{i32 786478, i32 0, metadata !311, metadata !"~_Impl", metadata !"~_Impl", metadata !"", metadata !307, i32 531, metadata !405, i1 false, i1 false, i32 0, i32 0, null, i32 257, i1 false, null, null, i32 0, metadata !132, i32 531} ; [ DW_TAG_subprogram ]
!421 = metadata !{i32 786478, i32 0, metadata !311, metadata !"_Impl", metadata !"_Impl", metadata !"", metadata !307, i32 533, metadata !422, i1 false, i1 false, i32 0, i32 0, null, i32 257, i1 false, null, null, i32 0, metadata !132, i32 533} ; [ DW_TAG_subprogram ]
!422 = metadata !{i32 786453, i32 0, metadata !"", i32 0, i32 0, i64 0, i64 0, i64 0, i32 0, null, metadata !423, i32 0, i32 0} ; [ DW_TAG_subroutine_type ]
!423 = metadata !{null, metadata !407, metadata !412}
!424 = metadata !{i32 786478, i32 0, metadata !311, metadata !"operator=", metadata !"operator=", metadata !"_ZNSt6locale5_ImplaSERKS0_", metadata !307, i32 536, metadata !422, i1 false, i1 false, i32 0, i32 0, null, i32 257, i1 false, null, null, i32 0, metadata !132, i32 536} ; [ DW_TAG_subprogram ]
!425 = metadata !{i32 786478, i32 0, metadata !311, metadata !"_M_check_same_name", metadata !"_M_check_same_name", metadata !"_ZNSt6locale5_Impl18_M_check_same_nameEv", metadata !307, i32 539, metadata !426, i1 false, i1 false, i32 0, i32 0, null, i32 257, i1 false, null, null, i32 0, metadata !132, i32 539} ; [ DW_TAG_subprogram ]
!426 = metadata !{i32 786453, i32 0, metadata !"", i32 0, i32 0, i64 0, i64 0, i64 0, i32 0, null, metadata !427, i32 0, i32 0} ; [ DW_TAG_subroutine_type ]
!427 = metadata !{metadata !143, metadata !407}
!428 = metadata !{i32 786478, i32 0, metadata !311, metadata !"_M_replace_categories", metadata !"_M_replace_categories", metadata !"_ZNSt6locale5_Impl21_M_replace_categoriesEPKS0_i", metadata !307, i32 550, metadata !429, i1 false, i1 false, i32 0, i32 0, null, i32 257, i1 false, null, null, i32 0, metadata !132, i32 550} ; [ DW_TAG_subprogram ]
!429 = metadata !{i32 786453, i32 0, metadata !"", i32 0, i32 0, i64 0, i64 0, i64 0, i32 0, null, metadata !430, i32 0, i32 0} ; [ DW_TAG_subroutine_type ]
!430 = metadata !{null, metadata !407, metadata !431, metadata !432}
!431 = metadata !{i32 786447, null, metadata !"", null, i32 0, i64 64, i64 64, i64 0, i32 0, metadata !413} ; [ DW_TAG_pointer_type ]
!432 = metadata !{i32 786454, metadata !305, metadata !"category", metadata !307, i32 68, i64 0, i64 0, i64 0, i32 0, metadata !141} ; [ DW_TAG_typedef ]
!433 = metadata !{i32 786478, i32 0, metadata !311, metadata !"_M_replace_category", metadata !"_M_replace_category", metadata !"_ZNSt6locale5_Impl19_M_replace_categoryEPKS0_PKPKNS_2idE", metadata !307, i32 553, metadata !434, i1 false, i1 false, i32 0, i32 0, null, i32 257, i1 false, null, null, i32 0, metadata !132, i32 553} ; [ DW_TAG_subprogram ]
!434 = metadata !{i32 786453, i32 0, metadata !"", i32 0, i32 0, i64 0, i64 0, i64 0, i32 0, null, metadata !435, i32 0, i32 0} ; [ DW_TAG_subroutine_type ]
!435 = metadata !{null, metadata !407, metadata !431, metadata !436}
!436 = metadata !{i32 786447, null, metadata !"", null, i32 0, i64 64, i64 64, i64 0, i32 0, metadata !437} ; [ DW_TAG_pointer_type ]
!437 = metadata !{i32 786470, null, metadata !"", null, i32 0, i64 0, i64 0, i64 0, i32 0, metadata !438} ; [ DW_TAG_const_type ]
!438 = metadata !{i32 786447, null, metadata !"", null, i32 0, i64 64, i64 64, i64 0, i32 0, metadata !439} ; [ DW_TAG_pointer_type ]
!439 = metadata !{i32 786470, null, metadata !"", null, i32 0, i64 0, i64 0, i64 0, i32 0, metadata !440} ; [ DW_TAG_const_type ]
!440 = metadata !{i32 786434, metadata !305, metadata !"id", metadata !307, i32 436, i64 64, i64 64, i32 0, i32 0, null, metadata !441, i32 0, null, null} ; [ DW_TAG_class_type ]
!441 = metadata !{metadata !442, metadata !443, metadata !448, metadata !449, metadata !452, metadata !456, metadata !457}
!442 = metadata !{i32 786445, metadata !440, metadata !"_M_index", metadata !307, i32 453, i64 64, i64 64, i64 0, i32 1, metadata !329} ; [ DW_TAG_member ]
!443 = metadata !{i32 786478, i32 0, metadata !440, metadata !"operator=", metadata !"operator=", metadata !"_ZNSt6locale2idaSERKS0_", metadata !307, i32 459, metadata !444, i1 false, i1 false, i32 0, i32 0, null, i32 257, i1 false, null, null, i32 0, metadata !132, i32 459} ; [ DW_TAG_subprogram ]
!444 = metadata !{i32 786453, i32 0, metadata !"", i32 0, i32 0, i64 0, i64 0, i64 0, i32 0, null, metadata !445, i32 0, i32 0} ; [ DW_TAG_subroutine_type ]
!445 = metadata !{null, metadata !446, metadata !447}
!446 = metadata !{i32 786447, i32 0, metadata !"", i32 0, i32 0, i64 64, i64 64, i64 0, i32 64, metadata !440} ; [ DW_TAG_pointer_type ]
!447 = metadata !{i32 786448, null, null, null, i32 0, i64 0, i64 0, i64 0, i32 0, metadata !439} ; [ DW_TAG_reference_type ]
!448 = metadata !{i32 786478, i32 0, metadata !440, metadata !"id", metadata !"id", metadata !"", metadata !307, i32 461, metadata !444, i1 false, i1 false, i32 0, i32 0, null, i32 257, i1 false, null, null, i32 0, metadata !132, i32 461} ; [ DW_TAG_subprogram ]
!449 = metadata !{i32 786478, i32 0, metadata !440, metadata !"id", metadata !"id", metadata !"", metadata !307, i32 467, metadata !450, i1 false, i1 false, i32 0, i32 0, null, i32 256, i1 false, null, null, i32 0, metadata !132, i32 467} ; [ DW_TAG_subprogram ]
!450 = metadata !{i32 786453, i32 0, metadata !"", i32 0, i32 0, i64 0, i64 0, i64 0, i32 0, null, metadata !451, i32 0, i32 0} ; [ DW_TAG_subroutine_type ]
!451 = metadata !{null, metadata !446}
!452 = metadata !{i32 786478, i32 0, metadata !440, metadata !"_M_id", metadata !"_M_id", metadata !"_ZNKSt6locale2id5_M_idEv", metadata !307, i32 470, metadata !453, i1 false, i1 false, i32 0, i32 0, null, i32 256, i1 false, null, null, i32 0, metadata !132, i32 470} ; [ DW_TAG_subprogram ]
!453 = metadata !{i32 786453, i32 0, metadata !"", i32 0, i32 0, i64 0, i64 0, i64 0, i32 0, null, metadata !454, i32 0, i32 0} ; [ DW_TAG_subroutine_type ]
!454 = metadata !{metadata !329, metadata !455}
!455 = metadata !{i32 786447, i32 0, metadata !"", i32 0, i32 0, i64 64, i64 64, i64 0, i32 64, metadata !439} ; [ DW_TAG_pointer_type ]
!456 = metadata !{i32 786474, metadata !440, null, metadata !307, i32 0, i64 0, i64 0, i64 0, i32 0, metadata !311} ; [ DW_TAG_friend ]
!457 = metadata !{i32 786474, metadata !440, null, metadata !307, i32 0, i64 0, i64 0, i64 0, i32 0, metadata !305} ; [ DW_TAG_friend ]
!458 = metadata !{i32 786478, i32 0, metadata !311, metadata !"_M_replace_facet", metadata !"_M_replace_facet", metadata !"_ZNSt6locale5_Impl16_M_replace_facetEPKS0_PKNS_2idE", metadata !307, i32 556, metadata !459, i1 false, i1 false, i32 0, i32 0, null, i32 257, i1 false, null, null, i32 0, metadata !132, i32 556} ; [ DW_TAG_subprogram ]
!459 = metadata !{i32 786453, i32 0, metadata !"", i32 0, i32 0, i64 0, i64 0, i64 0, i32 0, null, metadata !460, i32 0, i32 0} ; [ DW_TAG_subroutine_type ]
!460 = metadata !{null, metadata !407, metadata !431, metadata !438}
!461 = metadata !{i32 786478, i32 0, metadata !311, metadata !"_M_install_facet", metadata !"_M_install_facet", metadata !"_ZNSt6locale5_Impl16_M_install_facetEPKNS_2idEPKNS_5facetE", metadata !307, i32 559, metadata !462, i1 false, i1 false, i32 0, i32 0, null, i32 257, i1 false, null, null, i32 0, metadata !132, i32 559} ; [ DW_TAG_subprogram ]
!462 = metadata !{i32 786453, i32 0, metadata !"", i32 0, i32 0, i64 0, i64 0, i64 0, i32 0, null, metadata !463, i32 0, i32 0} ; [ DW_TAG_subroutine_type ]
!463 = metadata !{null, metadata !407, metadata !438, metadata !316}
!464 = metadata !{i32 786478, i32 0, metadata !311, metadata !"_M_install_cache", metadata !"_M_install_cache", metadata !"_ZNSt6locale5_Impl16_M_install_cacheEPKNS_5facetEm", metadata !307, i32 567, metadata !465, i1 false, i1 false, i32 0, i32 0, null, i32 257, i1 false, null, null, i32 0, metadata !132, i32 567} ; [ DW_TAG_subprogram ]
!465 = metadata !{i32 786453, i32 0, metadata !"", i32 0, i32 0, i64 0, i64 0, i64 0, i32 0, null, metadata !466, i32 0, i32 0} ; [ DW_TAG_subroutine_type ]
!466 = metadata !{null, metadata !407, metadata !316, metadata !329}
!467 = metadata !{i32 786474, metadata !311, null, metadata !307, i32 0, i64 0, i64 0, i64 0, i32 0, metadata !318} ; [ DW_TAG_friend ]
!468 = metadata !{i32 786474, metadata !311, null, metadata !307, i32 0, i64 0, i64 0, i64 0, i32 0, metadata !305} ; [ DW_TAG_friend ]
!469 = metadata !{i32 786478, i32 0, metadata !305, metadata !"locale", metadata !"locale", metadata !"", metadata !307, i32 118, metadata !470, i1 false, i1 false, i32 0, i32 0, null, i32 256, i1 false, null, null, i32 0, metadata !132, i32 118} ; [ DW_TAG_subprogram ]
!470 = metadata !{i32 786453, i32 0, metadata !"", i32 0, i32 0, i64 0, i64 0, i64 0, i32 0, null, metadata !471, i32 0, i32 0} ; [ DW_TAG_subroutine_type ]
!471 = metadata !{null, metadata !472}
!472 = metadata !{i32 786447, i32 0, metadata !"", i32 0, i32 0, i64 64, i64 64, i64 0, i32 64, metadata !305} ; [ DW_TAG_pointer_type ]
!473 = metadata !{i32 786478, i32 0, metadata !305, metadata !"locale", metadata !"locale", metadata !"", metadata !307, i32 127, metadata !474, i1 false, i1 false, i32 0, i32 0, null, i32 256, i1 false, null, null, i32 0, metadata !132, i32 127} ; [ DW_TAG_subprogram ]
!474 = metadata !{i32 786453, i32 0, metadata !"", i32 0, i32 0, i64 0, i64 0, i64 0, i32 0, null, metadata !475, i32 0, i32 0} ; [ DW_TAG_subroutine_type ]
!475 = metadata !{null, metadata !472, metadata !476}
!476 = metadata !{i32 786448, null, null, null, i32 0, i64 0, i64 0, i64 0, i32 0, metadata !477} ; [ DW_TAG_reference_type ]
!477 = metadata !{i32 786470, null, metadata !"", null, i32 0, i64 0, i64 0, i64 0, i32 0, metadata !305} ; [ DW_TAG_const_type ]
!478 = metadata !{i32 786478, i32 0, metadata !305, metadata !"locale", metadata !"locale", metadata !"", metadata !307, i32 138, metadata !479, i1 false, i1 false, i32 0, i32 0, null, i32 384, i1 false, null, null, i32 0, metadata !132, i32 138} ; [ DW_TAG_subprogram ]
!479 = metadata !{i32 786453, i32 0, metadata !"", i32 0, i32 0, i64 0, i64 0, i64 0, i32 0, null, metadata !480, i32 0, i32 0} ; [ DW_TAG_subroutine_type ]
!480 = metadata !{null, metadata !472, metadata !362}
!481 = metadata !{i32 786478, i32 0, metadata !305, metadata !"locale", metadata !"locale", metadata !"", metadata !307, i32 152, metadata !482, i1 false, i1 false, i32 0, i32 0, null, i32 256, i1 false, null, null, i32 0, metadata !132, i32 152} ; [ DW_TAG_subprogram ]
!482 = metadata !{i32 786453, i32 0, metadata !"", i32 0, i32 0, i64 0, i64 0, i64 0, i32 0, null, metadata !483, i32 0, i32 0} ; [ DW_TAG_subroutine_type ]
!483 = metadata !{null, metadata !472, metadata !476, metadata !362, metadata !432}
!484 = metadata !{i32 786478, i32 0, metadata !305, metadata !"locale", metadata !"locale", metadata !"", metadata !307, i32 165, metadata !485, i1 false, i1 false, i32 0, i32 0, null, i32 256, i1 false, null, null, i32 0, metadata !132, i32 165} ; [ DW_TAG_subprogram ]
!485 = metadata !{i32 786453, i32 0, metadata !"", i32 0, i32 0, i64 0, i64 0, i64 0, i32 0, null, metadata !486, i32 0, i32 0} ; [ DW_TAG_subroutine_type ]
!486 = metadata !{null, metadata !472, metadata !476, metadata !476, metadata !432}
!487 = metadata !{i32 786478, i32 0, metadata !305, metadata !"~locale", metadata !"~locale", metadata !"", metadata !307, i32 181, metadata !470, i1 false, i1 false, i32 0, i32 0, null, i32 256, i1 false, null, null, i32 0, metadata !132, i32 181} ; [ DW_TAG_subprogram ]
!488 = metadata !{i32 786478, i32 0, metadata !305, metadata !"operator=", metadata !"operator=", metadata !"_ZNSt6localeaSERKS_", metadata !307, i32 192, metadata !489, i1 false, i1 false, i32 0, i32 0, null, i32 256, i1 false, null, null, i32 0, metadata !132, i32 192} ; [ DW_TAG_subprogram ]
!489 = metadata !{i32 786453, i32 0, metadata !"", i32 0, i32 0, i64 0, i64 0, i64 0, i32 0, null, metadata !490, i32 0, i32 0} ; [ DW_TAG_subroutine_type ]
!490 = metadata !{metadata !476, metadata !472, metadata !476}
!491 = metadata !{i32 786478, i32 0, metadata !305, metadata !"name", metadata !"name", metadata !"_ZNKSt6locale4nameEv", metadata !307, i32 216, metadata !492, i1 false, i1 false, i32 0, i32 0, null, i32 256, i1 false, null, null, i32 0, metadata !132, i32 216} ; [ DW_TAG_subprogram ]
!492 = metadata !{i32 786453, i32 0, metadata !"", i32 0, i32 0, i64 0, i64 0, i64 0, i32 0, null, metadata !493, i32 0, i32 0} ; [ DW_TAG_subroutine_type ]
!493 = metadata !{metadata !494, metadata !1047}
!494 = metadata !{i32 786454, metadata !495, metadata !"string", metadata !307, i32 64, i64 0, i64 0, i64 0, i32 0, metadata !497} ; [ DW_TAG_typedef ]
!495 = metadata !{i32 786489, null, metadata !"std", metadata !496, i32 42} ; [ DW_TAG_namespace ]
!496 = metadata !{i32 786473, metadata !"/home/brennan/Vivado/Vivado/2017.4/lnx64/tools/gcc/lib/gcc/x86_64-unknown-linux-gnu/4.6.3/../../../../include/c++/4.6.3/bits/stringfwd.h", metadata !"/home/brennan/Documents/pynq-copter/pynqcopter/ip/pwm", null} ; [ DW_TAG_file_type ]
!497 = metadata !{i32 786434, metadata !495, metadata !"basic_string<char>", metadata !498, i32 1133, i64 64, i64 64, i32 0, i32 0, null, metadata !499, i32 0, null, metadata !991} ; [ DW_TAG_class_type ]
!498 = metadata !{i32 786473, metadata !"/home/brennan/Vivado/Vivado/2017.4/lnx64/tools/gcc/lib/gcc/x86_64-unknown-linux-gnu/4.6.3/../../../../include/c++/4.6.3/bits/basic_string.tcc", metadata !"/home/brennan/Documents/pynq-copter/pynqcopter/ip/pwm", null} ; [ DW_TAG_file_type ]
!499 = metadata !{metadata !500, metadata !572, metadata !577, metadata !581, metadata !630, metadata !636, metadata !637, metadata !640, metadata !643, metadata !646, metadata !649, metadata !652, metadata !655, metadata !656, metadata !659, metadata !662, metadata !667, metadata !670, metadata !673, metadata !676, metadata !679, metadata !680, metadata !681, metadata !682, metadata !685, metadata !689, metadata !692, metadata !695, metadata !698, metadata !701, metadata !704, metadata !708, metadata !738, metadata !739, metadata !743, metadata !746, metadata !749, metadata !752, metadata !755, metadata !758, metadata !761, metadata !762, metadata !763, metadata !768, metadata !773, metadata !774, metadata !775, metadata !776, metadata !777, metadata !778, metadata !779, metadata !782, metadata !783, metadata !784, metadata !787, metadata !790, metadata !791, metadata !792, metadata !793, metadata !794, metadata !797, metadata !802, metadata !807, metadata !808, metadata !811, metadata !814, metadata !815, metadata !816, metadata !817, metadata !818, metadata !819, metadata !820, metadata !821, metadata !822, metadata !825, metadata !828, metadata !829, metadata !832, metadata !833, metadata !836, metadata !837, metadata !838, metadata !839, metadata !840, metadata !841, metadata !842, metadata !843, metadata !846, metadata !849, metadata !852, metadata !855, metadata !858, metadata !861, metadata !864, metadata !867, metadata !870, metadata !873, metadata !876, metadata !879, metadata !882, metadata !885, metadata !888, metadata !891, metadata !894, metadata !897, metadata !900, metadata !903, metadata !906, metadata !909, metadata !912, metadata !915, metadata !918, metadata !919, metadata !920, metadata !923, metadata !924, metadata !927, metadata !930, metadata !933, metadata !934, metadata !938, metadata !941, metadata !944, metadata !947, metadata !950, metadata !951, metadata !952, metadata !953, metadata !954, metadata !955, metadata !956, metadata !957, metadata !958, metadata !959, metadata !960, metadata !961, metadata !962, metadata !963, metadata !964, metadata !965, metadata !966, metadata !967, metadata !968, metadata !969, metadata !970, metadata !973, metadata !976, metadata !979, metadata !982, metadata !985, metadata !988}
!500 = metadata !{i32 786445, metadata !497, metadata !"_M_dataplus", metadata !501, i32 283, i64 64, i64 64, i64 0, i32 1, metadata !502} ; [ DW_TAG_member ]
!501 = metadata !{i32 786473, metadata !"/home/brennan/Vivado/Vivado/2017.4/lnx64/tools/gcc/lib/gcc/x86_64-unknown-linux-gnu/4.6.3/../../../../include/c++/4.6.3/bits/basic_string.h", metadata !"/home/brennan/Documents/pynq-copter/pynqcopter/ip/pwm", null} ; [ DW_TAG_file_type ]
!502 = metadata !{i32 786434, metadata !497, metadata !"_Alloc_hider", metadata !501, i32 266, i64 64, i64 64, i32 0, i32 0, null, metadata !503, i32 0, null, null} ; [ DW_TAG_class_type ]
!503 = metadata !{metadata !504, metadata !567, metadata !568}
!504 = metadata !{i32 786460, metadata !502, null, metadata !501, i32 0, i64 0, i64 0, i64 0, i32 0, metadata !505} ; [ DW_TAG_inheritance ]
!505 = metadata !{i32 786434, metadata !495, metadata !"allocator<char>", metadata !194, i32 143, i64 8, i64 8, i32 0, i32 0, null, metadata !506, i32 0, null, metadata !565} ; [ DW_TAG_class_type ]
!506 = metadata !{metadata !507, metadata !555, metadata !559, metadata !564}
!507 = metadata !{i32 786460, metadata !505, null, metadata !194, i32 0, i64 0, i64 0, i64 0, i32 0, metadata !508} ; [ DW_TAG_inheritance ]
!508 = metadata !{i32 786434, metadata !509, metadata !"new_allocator<char>", metadata !510, i32 54, i64 8, i64 8, i32 0, i32 0, null, metadata !511, i32 0, null, metadata !553} ; [ DW_TAG_class_type ]
!509 = metadata !{i32 786489, null, metadata !"__gnu_cxx", metadata !510, i32 38} ; [ DW_TAG_namespace ]
!510 = metadata !{i32 786473, metadata !"/home/brennan/Vivado/Vivado/2017.4/lnx64/tools/gcc/lib/gcc/x86_64-unknown-linux-gnu/4.6.3/../../../../include/c++/4.6.3/ext/new_allocator.h", metadata !"/home/brennan/Documents/pynq-copter/pynqcopter/ip/pwm", null} ; [ DW_TAG_file_type ]
!511 = metadata !{metadata !512, metadata !516, metadata !521, metadata !522, metadata !529, metadata !535, metadata !541, metadata !544, metadata !547, metadata !550}
!512 = metadata !{i32 786478, i32 0, metadata !508, metadata !"new_allocator", metadata !"new_allocator", metadata !"", metadata !510, i32 69, metadata !513, i1 false, i1 false, i32 0, i32 0, null, i32 256, i1 false, null, null, i32 0, metadata !132, i32 69} ; [ DW_TAG_subprogram ]
!513 = metadata !{i32 786453, i32 0, metadata !"", i32 0, i32 0, i64 0, i64 0, i64 0, i32 0, null, metadata !514, i32 0, i32 0} ; [ DW_TAG_subroutine_type ]
!514 = metadata !{null, metadata !515}
!515 = metadata !{i32 786447, i32 0, metadata !"", i32 0, i32 0, i64 64, i64 64, i64 0, i32 64, metadata !508} ; [ DW_TAG_pointer_type ]
!516 = metadata !{i32 786478, i32 0, metadata !508, metadata !"new_allocator", metadata !"new_allocator", metadata !"", metadata !510, i32 71, metadata !517, i1 false, i1 false, i32 0, i32 0, null, i32 256, i1 false, null, null, i32 0, metadata !132, i32 71} ; [ DW_TAG_subprogram ]
!517 = metadata !{i32 786453, i32 0, metadata !"", i32 0, i32 0, i64 0, i64 0, i64 0, i32 0, null, metadata !518, i32 0, i32 0} ; [ DW_TAG_subroutine_type ]
!518 = metadata !{null, metadata !515, metadata !519}
!519 = metadata !{i32 786448, null, null, null, i32 0, i64 0, i64 0, i64 0, i32 0, metadata !520} ; [ DW_TAG_reference_type ]
!520 = metadata !{i32 786470, null, metadata !"", null, i32 0, i64 0, i64 0, i64 0, i32 0, metadata !508} ; [ DW_TAG_const_type ]
!521 = metadata !{i32 786478, i32 0, metadata !508, metadata !"~new_allocator", metadata !"~new_allocator", metadata !"", metadata !510, i32 76, metadata !513, i1 false, i1 false, i32 0, i32 0, null, i32 256, i1 false, null, null, i32 0, metadata !132, i32 76} ; [ DW_TAG_subprogram ]
!522 = metadata !{i32 786478, i32 0, metadata !508, metadata !"address", metadata !"address", metadata !"_ZNK9__gnu_cxx13new_allocatorIcE7addressERc", metadata !510, i32 79, metadata !523, i1 false, i1 false, i32 0, i32 0, null, i32 256, i1 false, null, null, i32 0, metadata !132, i32 79} ; [ DW_TAG_subprogram ]
!523 = metadata !{i32 786453, i32 0, metadata !"", i32 0, i32 0, i64 0, i64 0, i64 0, i32 0, null, metadata !524, i32 0, i32 0} ; [ DW_TAG_subroutine_type ]
!524 = metadata !{metadata !525, metadata !526, metadata !527}
!525 = metadata !{i32 786454, metadata !508, metadata !"pointer", metadata !510, i32 59, i64 0, i64 0, i64 0, i32 0, metadata !403} ; [ DW_TAG_typedef ]
!526 = metadata !{i32 786447, i32 0, metadata !"", i32 0, i32 0, i64 64, i64 64, i64 0, i32 64, metadata !520} ; [ DW_TAG_pointer_type ]
!527 = metadata !{i32 786454, metadata !508, metadata !"reference", metadata !510, i32 61, i64 0, i64 0, i64 0, i32 0, metadata !528} ; [ DW_TAG_typedef ]
!528 = metadata !{i32 786448, null, null, null, i32 0, i64 0, i64 0, i64 0, i32 0, metadata !364} ; [ DW_TAG_reference_type ]
!529 = metadata !{i32 786478, i32 0, metadata !508, metadata !"address", metadata !"address", metadata !"_ZNK9__gnu_cxx13new_allocatorIcE7addressERKc", metadata !510, i32 82, metadata !530, i1 false, i1 false, i32 0, i32 0, null, i32 256, i1 false, null, null, i32 0, metadata !132, i32 82} ; [ DW_TAG_subprogram ]
!530 = metadata !{i32 786453, i32 0, metadata !"", i32 0, i32 0, i64 0, i64 0, i64 0, i32 0, null, metadata !531, i32 0, i32 0} ; [ DW_TAG_subroutine_type ]
!531 = metadata !{metadata !532, metadata !526, metadata !533}
!532 = metadata !{i32 786454, metadata !508, metadata !"const_pointer", metadata !510, i32 60, i64 0, i64 0, i64 0, i32 0, metadata !362} ; [ DW_TAG_typedef ]
!533 = metadata !{i32 786454, metadata !508, metadata !"const_reference", metadata !510, i32 62, i64 0, i64 0, i64 0, i32 0, metadata !534} ; [ DW_TAG_typedef ]
!534 = metadata !{i32 786448, null, null, null, i32 0, i64 0, i64 0, i64 0, i32 0, metadata !363} ; [ DW_TAG_reference_type ]
!535 = metadata !{i32 786478, i32 0, metadata !508, metadata !"allocate", metadata !"allocate", metadata !"_ZN9__gnu_cxx13new_allocatorIcE8allocateEmPKv", metadata !510, i32 87, metadata !536, i1 false, i1 false, i32 0, i32 0, null, i32 256, i1 false, null, null, i32 0, metadata !132, i32 87} ; [ DW_TAG_subprogram ]
!536 = metadata !{i32 786453, i32 0, metadata !"", i32 0, i32 0, i64 0, i64 0, i64 0, i32 0, null, metadata !537, i32 0, i32 0} ; [ DW_TAG_subroutine_type ]
!537 = metadata !{metadata !525, metadata !515, metadata !538, metadata !539}
!538 = metadata !{i32 786454, null, metadata !"size_type", metadata !510, i32 57, i64 0, i64 0, i64 0, i32 0, metadata !329} ; [ DW_TAG_typedef ]
!539 = metadata !{i32 786447, null, metadata !"", null, i32 0, i64 64, i64 64, i64 0, i32 0, metadata !540} ; [ DW_TAG_pointer_type ]
!540 = metadata !{i32 786470, null, metadata !"", null, i32 0, i64 0, i64 0, i64 0, i32 0, null} ; [ DW_TAG_const_type ]
!541 = metadata !{i32 786478, i32 0, metadata !508, metadata !"deallocate", metadata !"deallocate", metadata !"_ZN9__gnu_cxx13new_allocatorIcE10deallocateEPcm", metadata !510, i32 97, metadata !542, i1 false, i1 false, i32 0, i32 0, null, i32 256, i1 false, null, null, i32 0, metadata !132, i32 97} ; [ DW_TAG_subprogram ]
!542 = metadata !{i32 786453, i32 0, metadata !"", i32 0, i32 0, i64 0, i64 0, i64 0, i32 0, null, metadata !543, i32 0, i32 0} ; [ DW_TAG_subroutine_type ]
!543 = metadata !{null, metadata !515, metadata !525, metadata !538}
!544 = metadata !{i32 786478, i32 0, metadata !508, metadata !"max_size", metadata !"max_size", metadata !"_ZNK9__gnu_cxx13new_allocatorIcE8max_sizeEv", metadata !510, i32 101, metadata !545, i1 false, i1 false, i32 0, i32 0, null, i32 256, i1 false, null, null, i32 0, metadata !132, i32 101} ; [ DW_TAG_subprogram ]
!545 = metadata !{i32 786453, i32 0, metadata !"", i32 0, i32 0, i64 0, i64 0, i64 0, i32 0, null, metadata !546, i32 0, i32 0} ; [ DW_TAG_subroutine_type ]
!546 = metadata !{metadata !538, metadata !526}
!547 = metadata !{i32 786478, i32 0, metadata !508, metadata !"construct", metadata !"construct", metadata !"_ZN9__gnu_cxx13new_allocatorIcE9constructEPcRKc", metadata !510, i32 107, metadata !548, i1 false, i1 false, i32 0, i32 0, null, i32 256, i1 false, null, null, i32 0, metadata !132, i32 107} ; [ DW_TAG_subprogram ]
!548 = metadata !{i32 786453, i32 0, metadata !"", i32 0, i32 0, i64 0, i64 0, i64 0, i32 0, null, metadata !549, i32 0, i32 0} ; [ DW_TAG_subroutine_type ]
!549 = metadata !{null, metadata !515, metadata !525, metadata !534}
!550 = metadata !{i32 786478, i32 0, metadata !508, metadata !"destroy", metadata !"destroy", metadata !"_ZN9__gnu_cxx13new_allocatorIcE7destroyEPc", metadata !510, i32 118, metadata !551, i1 false, i1 false, i32 0, i32 0, null, i32 256, i1 false, null, null, i32 0, metadata !132, i32 118} ; [ DW_TAG_subprogram ]
!551 = metadata !{i32 786453, i32 0, metadata !"", i32 0, i32 0, i64 0, i64 0, i64 0, i32 0, null, metadata !552, i32 0, i32 0} ; [ DW_TAG_subroutine_type ]
!552 = metadata !{null, metadata !515, metadata !525}
!553 = metadata !{metadata !554}
!554 = metadata !{i32 786479, null, metadata !"_Tp", metadata !364, null, i32 0, i32 0} ; [ DW_TAG_template_type_parameter ]
!555 = metadata !{i32 786478, i32 0, metadata !505, metadata !"allocator", metadata !"allocator", metadata !"", metadata !194, i32 107, metadata !556, i1 false, i1 false, i32 0, i32 0, null, i32 256, i1 false, null, null, i32 0, metadata !132, i32 107} ; [ DW_TAG_subprogram ]
!556 = metadata !{i32 786453, i32 0, metadata !"", i32 0, i32 0, i64 0, i64 0, i64 0, i32 0, null, metadata !557, i32 0, i32 0} ; [ DW_TAG_subroutine_type ]
!557 = metadata !{null, metadata !558}
!558 = metadata !{i32 786447, i32 0, metadata !"", i32 0, i32 0, i64 64, i64 64, i64 0, i32 64, metadata !505} ; [ DW_TAG_pointer_type ]
!559 = metadata !{i32 786478, i32 0, metadata !505, metadata !"allocator", metadata !"allocator", metadata !"", metadata !194, i32 109, metadata !560, i1 false, i1 false, i32 0, i32 0, null, i32 256, i1 false, null, null, i32 0, metadata !132, i32 109} ; [ DW_TAG_subprogram ]
!560 = metadata !{i32 786453, i32 0, metadata !"", i32 0, i32 0, i64 0, i64 0, i64 0, i32 0, null, metadata !561, i32 0, i32 0} ; [ DW_TAG_subroutine_type ]
!561 = metadata !{null, metadata !558, metadata !562}
!562 = metadata !{i32 786448, null, null, null, i32 0, i64 0, i64 0, i64 0, i32 0, metadata !563} ; [ DW_TAG_reference_type ]
!563 = metadata !{i32 786470, null, metadata !"", null, i32 0, i64 0, i64 0, i64 0, i32 0, metadata !505} ; [ DW_TAG_const_type ]
!564 = metadata !{i32 786478, i32 0, metadata !505, metadata !"~allocator", metadata !"~allocator", metadata !"", metadata !194, i32 115, metadata !556, i1 false, i1 false, i32 0, i32 0, null, i32 256, i1 false, null, null, i32 0, metadata !132, i32 115} ; [ DW_TAG_subprogram ]
!565 = metadata !{metadata !566}
!566 = metadata !{i32 786479, null, metadata !"_Alloc", metadata !364, null, i32 0, i32 0} ; [ DW_TAG_template_type_parameter ]
!567 = metadata !{i32 786445, metadata !502, metadata !"_M_p", metadata !501, i32 271, i64 64, i64 64, i64 0, i32 0, metadata !403} ; [ DW_TAG_member ]
!568 = metadata !{i32 786478, i32 0, metadata !502, metadata !"_Alloc_hider", metadata !"_Alloc_hider", metadata !"", metadata !501, i32 268, metadata !569, i1 false, i1 false, i32 0, i32 0, null, i32 256, i1 false, null, null, i32 0, metadata !132, i32 268} ; [ DW_TAG_subprogram ]
!569 = metadata !{i32 786453, i32 0, metadata !"", i32 0, i32 0, i64 0, i64 0, i64 0, i32 0, null, metadata !570, i32 0, i32 0} ; [ DW_TAG_subroutine_type ]
!570 = metadata !{null, metadata !571, metadata !403, metadata !562}
!571 = metadata !{i32 786447, i32 0, metadata !"", i32 0, i32 0, i64 64, i64 64, i64 0, i32 64, metadata !502} ; [ DW_TAG_pointer_type ]
!572 = metadata !{i32 786478, i32 0, metadata !497, metadata !"_M_data", metadata !"_M_data", metadata !"_ZNKSs7_M_dataEv", metadata !501, i32 286, metadata !573, i1 false, i1 false, i32 0, i32 0, null, i32 257, i1 false, null, null, i32 0, metadata !132, i32 286} ; [ DW_TAG_subprogram ]
!573 = metadata !{i32 786453, i32 0, metadata !"", i32 0, i32 0, i64 0, i64 0, i64 0, i32 0, null, metadata !574, i32 0, i32 0} ; [ DW_TAG_subroutine_type ]
!574 = metadata !{metadata !403, metadata !575}
!575 = metadata !{i32 786447, i32 0, metadata !"", i32 0, i32 0, i64 64, i64 64, i64 0, i32 64, metadata !576} ; [ DW_TAG_pointer_type ]
!576 = metadata !{i32 786470, null, metadata !"", null, i32 0, i64 0, i64 0, i64 0, i32 0, metadata !497} ; [ DW_TAG_const_type ]
!577 = metadata !{i32 786478, i32 0, metadata !497, metadata !"_M_data", metadata !"_M_data", metadata !"_ZNSs7_M_dataEPc", metadata !501, i32 290, metadata !578, i1 false, i1 false, i32 0, i32 0, null, i32 257, i1 false, null, null, i32 0, metadata !132, i32 290} ; [ DW_TAG_subprogram ]
!578 = metadata !{i32 786453, i32 0, metadata !"", i32 0, i32 0, i64 0, i64 0, i64 0, i32 0, null, metadata !579, i32 0, i32 0} ; [ DW_TAG_subroutine_type ]
!579 = metadata !{metadata !403, metadata !580, metadata !403}
!580 = metadata !{i32 786447, i32 0, metadata !"", i32 0, i32 0, i64 64, i64 64, i64 0, i32 64, metadata !497} ; [ DW_TAG_pointer_type ]
!581 = metadata !{i32 786478, i32 0, metadata !497, metadata !"_M_rep", metadata !"_M_rep", metadata !"_ZNKSs6_M_repEv", metadata !501, i32 294, metadata !582, i1 false, i1 false, i32 0, i32 0, null, i32 257, i1 false, null, null, i32 0, metadata !132, i32 294} ; [ DW_TAG_subprogram ]
!582 = metadata !{i32 786453, i32 0, metadata !"", i32 0, i32 0, i64 0, i64 0, i64 0, i32 0, null, metadata !583, i32 0, i32 0} ; [ DW_TAG_subroutine_type ]
!583 = metadata !{metadata !584, metadata !575}
!584 = metadata !{i32 786447, null, metadata !"", null, i32 0, i64 64, i64 64, i64 0, i32 0, metadata !585} ; [ DW_TAG_pointer_type ]
!585 = metadata !{i32 786434, metadata !497, metadata !"_Rep", metadata !501, i32 149, i64 192, i64 64, i32 0, i32 0, null, metadata !586, i32 0, null, null} ; [ DW_TAG_class_type ]
!586 = metadata !{metadata !587, metadata !595, metadata !599, metadata !604, metadata !605, metadata !609, metadata !610, metadata !613, metadata !616, metadata !619, metadata !622, metadata !625, metadata !626, metadata !627}
!587 = metadata !{i32 786460, metadata !585, null, metadata !501, i32 0, i64 0, i64 0, i64 0, i32 0, metadata !588} ; [ DW_TAG_inheritance ]
!588 = metadata !{i32 786434, metadata !497, metadata !"_Rep_base", metadata !501, i32 142, i64 192, i64 64, i32 0, i32 0, null, metadata !589, i32 0, null, null} ; [ DW_TAG_class_type ]
!589 = metadata !{metadata !590, metadata !593, metadata !594}
!590 = metadata !{i32 786445, metadata !588, metadata !"_M_length", metadata !501, i32 144, i64 64, i64 64, i64 0, i32 0, metadata !591} ; [ DW_TAG_member ]
!591 = metadata !{i32 786454, metadata !497, metadata !"size_type", metadata !501, i32 115, i64 0, i64 0, i64 0, i32 0, metadata !592} ; [ DW_TAG_typedef ]
!592 = metadata !{i32 786454, metadata !505, metadata !"size_type", metadata !501, i32 95, i64 0, i64 0, i64 0, i32 0, metadata !329} ; [ DW_TAG_typedef ]
!593 = metadata !{i32 786445, metadata !588, metadata !"_M_capacity", metadata !501, i32 145, i64 64, i64 64, i64 64, i32 0, metadata !591} ; [ DW_TAG_member ]
!594 = metadata !{i32 786445, metadata !588, metadata !"_M_refcount", metadata !501, i32 146, i64 32, i64 32, i64 128, i32 0, metadata !276} ; [ DW_TAG_member ]
!595 = metadata !{i32 786478, i32 0, metadata !585, metadata !"_S_empty_rep", metadata !"_S_empty_rep", metadata !"_ZNSs4_Rep12_S_empty_repEv", metadata !501, i32 175, metadata !596, i1 false, i1 false, i32 0, i32 0, null, i32 256, i1 false, null, null, i32 0, metadata !132, i32 175} ; [ DW_TAG_subprogram ]
!596 = metadata !{i32 786453, i32 0, metadata !"", i32 0, i32 0, i64 0, i64 0, i64 0, i32 0, null, metadata !597, i32 0, i32 0} ; [ DW_TAG_subroutine_type ]
!597 = metadata !{metadata !598}
!598 = metadata !{i32 786448, null, null, null, i32 0, i64 0, i64 0, i64 0, i32 0, metadata !585} ; [ DW_TAG_reference_type ]
!599 = metadata !{i32 786478, i32 0, metadata !585, metadata !"_M_is_leaked", metadata !"_M_is_leaked", metadata !"_ZNKSs4_Rep12_M_is_leakedEv", metadata !501, i32 185, metadata !600, i1 false, i1 false, i32 0, i32 0, null, i32 256, i1 false, null, null, i32 0, metadata !132, i32 185} ; [ DW_TAG_subprogram ]
!600 = metadata !{i32 786453, i32 0, metadata !"", i32 0, i32 0, i64 0, i64 0, i64 0, i32 0, null, metadata !601, i32 0, i32 0} ; [ DW_TAG_subroutine_type ]
!601 = metadata !{metadata !143, metadata !602}
!602 = metadata !{i32 786447, i32 0, metadata !"", i32 0, i32 0, i64 64, i64 64, i64 0, i32 64, metadata !603} ; [ DW_TAG_pointer_type ]
!603 = metadata !{i32 786470, null, metadata !"", null, i32 0, i64 0, i64 0, i64 0, i32 0, metadata !585} ; [ DW_TAG_const_type ]
!604 = metadata !{i32 786478, i32 0, metadata !585, metadata !"_M_is_shared", metadata !"_M_is_shared", metadata !"_ZNKSs4_Rep12_M_is_sharedEv", metadata !501, i32 189, metadata !600, i1 false, i1 false, i32 0, i32 0, null, i32 256, i1 false, null, null, i32 0, metadata !132, i32 189} ; [ DW_TAG_subprogram ]
!605 = metadata !{i32 786478, i32 0, metadata !585, metadata !"_M_set_leaked", metadata !"_M_set_leaked", metadata !"_ZNSs4_Rep13_M_set_leakedEv", metadata !501, i32 193, metadata !606, i1 false, i1 false, i32 0, i32 0, null, i32 256, i1 false, null, null, i32 0, metadata !132, i32 193} ; [ DW_TAG_subprogram ]
!606 = metadata !{i32 786453, i32 0, metadata !"", i32 0, i32 0, i64 0, i64 0, i64 0, i32 0, null, metadata !607, i32 0, i32 0} ; [ DW_TAG_subroutine_type ]
!607 = metadata !{null, metadata !608}
!608 = metadata !{i32 786447, i32 0, metadata !"", i32 0, i32 0, i64 64, i64 64, i64 0, i32 64, metadata !585} ; [ DW_TAG_pointer_type ]
!609 = metadata !{i32 786478, i32 0, metadata !585, metadata !"_M_set_sharable", metadata !"_M_set_sharable", metadata !"_ZNSs4_Rep15_M_set_sharableEv", metadata !501, i32 197, metadata !606, i1 false, i1 false, i32 0, i32 0, null, i32 256, i1 false, null, null, i32 0, metadata !132, i32 197} ; [ DW_TAG_subprogram ]
!610 = metadata !{i32 786478, i32 0, metadata !585, metadata !"_M_set_length_and_sharable", metadata !"_M_set_length_and_sharable", metadata !"_ZNSs4_Rep26_M_set_length_and_sharableEm", metadata !501, i32 201, metadata !611, i1 false, i1 false, i32 0, i32 0, null, i32 256, i1 false, null, null, i32 0, metadata !132, i32 201} ; [ DW_TAG_subprogram ]
!611 = metadata !{i32 786453, i32 0, metadata !"", i32 0, i32 0, i64 0, i64 0, i64 0, i32 0, null, metadata !612, i32 0, i32 0} ; [ DW_TAG_subroutine_type ]
!612 = metadata !{null, metadata !608, metadata !591}
!613 = metadata !{i32 786478, i32 0, metadata !585, metadata !"_M_refdata", metadata !"_M_refdata", metadata !"_ZNSs4_Rep10_M_refdataEv", metadata !501, i32 216, metadata !614, i1 false, i1 false, i32 0, i32 0, null, i32 256, i1 false, null, null, i32 0, metadata !132, i32 216} ; [ DW_TAG_subprogram ]
!614 = metadata !{i32 786453, i32 0, metadata !"", i32 0, i32 0, i64 0, i64 0, i64 0, i32 0, null, metadata !615, i32 0, i32 0} ; [ DW_TAG_subroutine_type ]
!615 = metadata !{metadata !403, metadata !608}
!616 = metadata !{i32 786478, i32 0, metadata !585, metadata !"_M_grab", metadata !"_M_grab", metadata !"_ZNSs4_Rep7_M_grabERKSaIcES2_", metadata !501, i32 220, metadata !617, i1 false, i1 false, i32 0, i32 0, null, i32 256, i1 false, null, null, i32 0, metadata !132, i32 220} ; [ DW_TAG_subprogram ]
!617 = metadata !{i32 786453, i32 0, metadata !"", i32 0, i32 0, i64 0, i64 0, i64 0, i32 0, null, metadata !618, i32 0, i32 0} ; [ DW_TAG_subroutine_type ]
!618 = metadata !{metadata !403, metadata !608, metadata !562, metadata !562}
!619 = metadata !{i32 786478, i32 0, metadata !585, metadata !"_S_create", metadata !"_S_create", metadata !"_ZNSs4_Rep9_S_createEmmRKSaIcE", metadata !501, i32 228, metadata !620, i1 false, i1 false, i32 0, i32 0, null, i32 256, i1 false, null, null, i32 0, metadata !132, i32 228} ; [ DW_TAG_subprogram ]
!620 = metadata !{i32 786453, i32 0, metadata !"", i32 0, i32 0, i64 0, i64 0, i64 0, i32 0, null, metadata !621, i32 0, i32 0} ; [ DW_TAG_subroutine_type ]
!621 = metadata !{metadata !584, metadata !591, metadata !591, metadata !562}
!622 = metadata !{i32 786478, i32 0, metadata !585, metadata !"_M_dispose", metadata !"_M_dispose", metadata !"_ZNSs4_Rep10_M_disposeERKSaIcE", metadata !501, i32 231, metadata !623, i1 false, i1 false, i32 0, i32 0, null, i32 256, i1 false, null, null, i32 0, metadata !132, i32 231} ; [ DW_TAG_subprogram ]
!623 = metadata !{i32 786453, i32 0, metadata !"", i32 0, i32 0, i64 0, i64 0, i64 0, i32 0, null, metadata !624, i32 0, i32 0} ; [ DW_TAG_subroutine_type ]
!624 = metadata !{null, metadata !608, metadata !562}
!625 = metadata !{i32 786478, i32 0, metadata !585, metadata !"_M_destroy", metadata !"_M_destroy", metadata !"_ZNSs4_Rep10_M_destroyERKSaIcE", metadata !501, i32 249, metadata !623, i1 false, i1 false, i32 0, i32 0, null, i32 256, i1 false, null, null, i32 0, metadata !132, i32 249} ; [ DW_TAG_subprogram ]
!626 = metadata !{i32 786478, i32 0, metadata !585, metadata !"_M_refcopy", metadata !"_M_refcopy", metadata !"_ZNSs4_Rep10_M_refcopyEv", metadata !501, i32 252, metadata !614, i1 false, i1 false, i32 0, i32 0, null, i32 256, i1 false, null, null, i32 0, metadata !132, i32 252} ; [ DW_TAG_subprogram ]
!627 = metadata !{i32 786478, i32 0, metadata !585, metadata !"_M_clone", metadata !"_M_clone", metadata !"_ZNSs4_Rep8_M_cloneERKSaIcEm", metadata !501, i32 262, metadata !628, i1 false, i1 false, i32 0, i32 0, null, i32 256, i1 false, null, null, i32 0, metadata !132, i32 262} ; [ DW_TAG_subprogram ]
!628 = metadata !{i32 786453, i32 0, metadata !"", i32 0, i32 0, i64 0, i64 0, i64 0, i32 0, null, metadata !629, i32 0, i32 0} ; [ DW_TAG_subroutine_type ]
!629 = metadata !{metadata !403, metadata !608, metadata !562, metadata !591}
!630 = metadata !{i32 786478, i32 0, metadata !497, metadata !"_M_ibegin", metadata !"_M_ibegin", metadata !"_ZNKSs9_M_ibeginEv", metadata !501, i32 300, metadata !631, i1 false, i1 false, i32 0, i32 0, null, i32 257, i1 false, null, null, i32 0, metadata !132, i32 300} ; [ DW_TAG_subprogram ]
!631 = metadata !{i32 786453, i32 0, metadata !"", i32 0, i32 0, i64 0, i64 0, i64 0, i32 0, null, metadata !632, i32 0, i32 0} ; [ DW_TAG_subroutine_type ]
!632 = metadata !{metadata !633, metadata !575}
!633 = metadata !{i32 786454, metadata !497, metadata !"iterator", metadata !498, i32 121, i64 0, i64 0, i64 0, i32 0, metadata !634} ; [ DW_TAG_typedef ]
!634 = metadata !{i32 786434, null, metadata !"__normal_iterator<char *, std::basic_string<char> >", metadata !635, i32 702, i32 0, i32 0, i32 0, i32 4, null, null, i32 0} ; [ DW_TAG_class_type ]
!635 = metadata !{i32 786473, metadata !"/home/brennan/Vivado/Vivado/2017.4/lnx64/tools/gcc/lib/gcc/x86_64-unknown-linux-gnu/4.6.3/../../../../include/c++/4.6.3/bits/stl_iterator.h", metadata !"/home/brennan/Documents/pynq-copter/pynqcopter/ip/pwm", null} ; [ DW_TAG_file_type ]
!636 = metadata !{i32 786478, i32 0, metadata !497, metadata !"_M_iend", metadata !"_M_iend", metadata !"_ZNKSs7_M_iendEv", metadata !501, i32 304, metadata !631, i1 false, i1 false, i32 0, i32 0, null, i32 257, i1 false, null, null, i32 0, metadata !132, i32 304} ; [ DW_TAG_subprogram ]
!637 = metadata !{i32 786478, i32 0, metadata !497, metadata !"_M_leak", metadata !"_M_leak", metadata !"_ZNSs7_M_leakEv", metadata !501, i32 308, metadata !638, i1 false, i1 false, i32 0, i32 0, null, i32 257, i1 false, null, null, i32 0, metadata !132, i32 308} ; [ DW_TAG_subprogram ]
!638 = metadata !{i32 786453, i32 0, metadata !"", i32 0, i32 0, i64 0, i64 0, i64 0, i32 0, null, metadata !639, i32 0, i32 0} ; [ DW_TAG_subroutine_type ]
!639 = metadata !{null, metadata !580}
!640 = metadata !{i32 786478, i32 0, metadata !497, metadata !"_M_check", metadata !"_M_check", metadata !"_ZNKSs8_M_checkEmPKc", metadata !501, i32 315, metadata !641, i1 false, i1 false, i32 0, i32 0, null, i32 257, i1 false, null, null, i32 0, metadata !132, i32 315} ; [ DW_TAG_subprogram ]
!641 = metadata !{i32 786453, i32 0, metadata !"", i32 0, i32 0, i64 0, i64 0, i64 0, i32 0, null, metadata !642, i32 0, i32 0} ; [ DW_TAG_subroutine_type ]
!642 = metadata !{metadata !591, metadata !575, metadata !591, metadata !362}
!643 = metadata !{i32 786478, i32 0, metadata !497, metadata !"_M_check_length", metadata !"_M_check_length", metadata !"_ZNKSs15_M_check_lengthEmmPKc", metadata !501, i32 323, metadata !644, i1 false, i1 false, i32 0, i32 0, null, i32 257, i1 false, null, null, i32 0, metadata !132, i32 323} ; [ DW_TAG_subprogram ]
!644 = metadata !{i32 786453, i32 0, metadata !"", i32 0, i32 0, i64 0, i64 0, i64 0, i32 0, null, metadata !645, i32 0, i32 0} ; [ DW_TAG_subroutine_type ]
!645 = metadata !{null, metadata !575, metadata !591, metadata !591, metadata !362}
!646 = metadata !{i32 786478, i32 0, metadata !497, metadata !"_M_limit", metadata !"_M_limit", metadata !"_ZNKSs8_M_limitEmm", metadata !501, i32 331, metadata !647, i1 false, i1 false, i32 0, i32 0, null, i32 257, i1 false, null, null, i32 0, metadata !132, i32 331} ; [ DW_TAG_subprogram ]
!647 = metadata !{i32 786453, i32 0, metadata !"", i32 0, i32 0, i64 0, i64 0, i64 0, i32 0, null, metadata !648, i32 0, i32 0} ; [ DW_TAG_subroutine_type ]
!648 = metadata !{metadata !591, metadata !575, metadata !591, metadata !591}
!649 = metadata !{i32 786478, i32 0, metadata !497, metadata !"_M_disjunct", metadata !"_M_disjunct", metadata !"_ZNKSs11_M_disjunctEPKc", metadata !501, i32 339, metadata !650, i1 false, i1 false, i32 0, i32 0, null, i32 257, i1 false, null, null, i32 0, metadata !132, i32 339} ; [ DW_TAG_subprogram ]
!650 = metadata !{i32 786453, i32 0, metadata !"", i32 0, i32 0, i64 0, i64 0, i64 0, i32 0, null, metadata !651, i32 0, i32 0} ; [ DW_TAG_subroutine_type ]
!651 = metadata !{metadata !143, metadata !575, metadata !362}
!652 = metadata !{i32 786478, i32 0, metadata !497, metadata !"_M_copy", metadata !"_M_copy", metadata !"_ZNSs7_M_copyEPcPKcm", metadata !501, i32 348, metadata !653, i1 false, i1 false, i32 0, i32 0, null, i32 257, i1 false, null, null, i32 0, metadata !132, i32 348} ; [ DW_TAG_subprogram ]
!653 = metadata !{i32 786453, i32 0, metadata !"", i32 0, i32 0, i64 0, i64 0, i64 0, i32 0, null, metadata !654, i32 0, i32 0} ; [ DW_TAG_subroutine_type ]
!654 = metadata !{null, metadata !403, metadata !362, metadata !591}
!655 = metadata !{i32 786478, i32 0, metadata !497, metadata !"_M_move", metadata !"_M_move", metadata !"_ZNSs7_M_moveEPcPKcm", metadata !501, i32 357, metadata !653, i1 false, i1 false, i32 0, i32 0, null, i32 257, i1 false, null, null, i32 0, metadata !132, i32 357} ; [ DW_TAG_subprogram ]
!656 = metadata !{i32 786478, i32 0, metadata !497, metadata !"_M_assign", metadata !"_M_assign", metadata !"_ZNSs9_M_assignEPcmc", metadata !501, i32 366, metadata !657, i1 false, i1 false, i32 0, i32 0, null, i32 257, i1 false, null, null, i32 0, metadata !132, i32 366} ; [ DW_TAG_subprogram ]
!657 = metadata !{i32 786453, i32 0, metadata !"", i32 0, i32 0, i64 0, i64 0, i64 0, i32 0, null, metadata !658, i32 0, i32 0} ; [ DW_TAG_subroutine_type ]
!658 = metadata !{null, metadata !403, metadata !591, metadata !364}
!659 = metadata !{i32 786478, i32 0, metadata !497, metadata !"_S_copy_chars", metadata !"_S_copy_chars", metadata !"_ZNSs13_S_copy_charsEPcN9__gnu_cxx17__normal_iteratorIS_SsEES2_", metadata !501, i32 385, metadata !660, i1 false, i1 false, i32 0, i32 0, null, i32 257, i1 false, null, null, i32 0, metadata !132, i32 385} ; [ DW_TAG_subprogram ]
!660 = metadata !{i32 786453, i32 0, metadata !"", i32 0, i32 0, i64 0, i64 0, i64 0, i32 0, null, metadata !661, i32 0, i32 0} ; [ DW_TAG_subroutine_type ]
!661 = metadata !{null, metadata !403, metadata !633, metadata !633}
!662 = metadata !{i32 786478, i32 0, metadata !497, metadata !"_S_copy_chars", metadata !"_S_copy_chars", metadata !"_ZNSs13_S_copy_charsEPcN9__gnu_cxx17__normal_iteratorIPKcSsEES4_", metadata !501, i32 389, metadata !663, i1 false, i1 false, i32 0, i32 0, null, i32 257, i1 false, null, null, i32 0, metadata !132, i32 389} ; [ DW_TAG_subprogram ]
!663 = metadata !{i32 786453, i32 0, metadata !"", i32 0, i32 0, i64 0, i64 0, i64 0, i32 0, null, metadata !664, i32 0, i32 0} ; [ DW_TAG_subroutine_type ]
!664 = metadata !{null, metadata !403, metadata !665, metadata !665}
!665 = metadata !{i32 786454, metadata !497, metadata !"const_iterator", metadata !498, i32 123, i64 0, i64 0, i64 0, i32 0, metadata !666} ; [ DW_TAG_typedef ]
!666 = metadata !{i32 786434, null, metadata !"__normal_iterator<const char *, std::basic_string<char> >", metadata !635, i32 702, i32 0, i32 0, i32 0, i32 4, null, null, i32 0} ; [ DW_TAG_class_type ]
!667 = metadata !{i32 786478, i32 0, metadata !497, metadata !"_S_copy_chars", metadata !"_S_copy_chars", metadata !"_ZNSs13_S_copy_charsEPcS_S_", metadata !501, i32 393, metadata !668, i1 false, i1 false, i32 0, i32 0, null, i32 257, i1 false, null, null, i32 0, metadata !132, i32 393} ; [ DW_TAG_subprogram ]
!668 = metadata !{i32 786453, i32 0, metadata !"", i32 0, i32 0, i64 0, i64 0, i64 0, i32 0, null, metadata !669, i32 0, i32 0} ; [ DW_TAG_subroutine_type ]
!669 = metadata !{null, metadata !403, metadata !403, metadata !403}
!670 = metadata !{i32 786478, i32 0, metadata !497, metadata !"_S_copy_chars", metadata !"_S_copy_chars", metadata !"_ZNSs13_S_copy_charsEPcPKcS1_", metadata !501, i32 397, metadata !671, i1 false, i1 false, i32 0, i32 0, null, i32 257, i1 false, null, null, i32 0, metadata !132, i32 397} ; [ DW_TAG_subprogram ]
!671 = metadata !{i32 786453, i32 0, metadata !"", i32 0, i32 0, i64 0, i64 0, i64 0, i32 0, null, metadata !672, i32 0, i32 0} ; [ DW_TAG_subroutine_type ]
!672 = metadata !{null, metadata !403, metadata !362, metadata !362}
!673 = metadata !{i32 786478, i32 0, metadata !497, metadata !"_S_compare", metadata !"_S_compare", metadata !"_ZNSs10_S_compareEmm", metadata !501, i32 401, metadata !674, i1 false, i1 false, i32 0, i32 0, null, i32 257, i1 false, null, null, i32 0, metadata !132, i32 401} ; [ DW_TAG_subprogram ]
!674 = metadata !{i32 786453, i32 0, metadata !"", i32 0, i32 0, i64 0, i64 0, i64 0, i32 0, null, metadata !675, i32 0, i32 0} ; [ DW_TAG_subroutine_type ]
!675 = metadata !{metadata !141, metadata !591, metadata !591}
!676 = metadata !{i32 786478, i32 0, metadata !497, metadata !"_M_mutate", metadata !"_M_mutate", metadata !"_ZNSs9_M_mutateEmmm", metadata !501, i32 414, metadata !677, i1 false, i1 false, i32 0, i32 0, null, i32 257, i1 false, null, null, i32 0, metadata !132, i32 414} ; [ DW_TAG_subprogram ]
!677 = metadata !{i32 786453, i32 0, metadata !"", i32 0, i32 0, i64 0, i64 0, i64 0, i32 0, null, metadata !678, i32 0, i32 0} ; [ DW_TAG_subroutine_type ]
!678 = metadata !{null, metadata !580, metadata !591, metadata !591, metadata !591}
!679 = metadata !{i32 786478, i32 0, metadata !497, metadata !"_M_leak_hard", metadata !"_M_leak_hard", metadata !"_ZNSs12_M_leak_hardEv", metadata !501, i32 417, metadata !638, i1 false, i1 false, i32 0, i32 0, null, i32 257, i1 false, null, null, i32 0, metadata !132, i32 417} ; [ DW_TAG_subprogram ]
!680 = metadata !{i32 786478, i32 0, metadata !497, metadata !"_S_empty_rep", metadata !"_S_empty_rep", metadata !"_ZNSs12_S_empty_repEv", metadata !501, i32 420, metadata !596, i1 false, i1 false, i32 0, i32 0, null, i32 257, i1 false, null, null, i32 0, metadata !132, i32 420} ; [ DW_TAG_subprogram ]
!681 = metadata !{i32 786478, i32 0, metadata !497, metadata !"basic_string", metadata !"basic_string", metadata !"", metadata !501, i32 431, metadata !638, i1 false, i1 false, i32 0, i32 0, null, i32 256, i1 false, null, null, i32 0, metadata !132, i32 431} ; [ DW_TAG_subprogram ]
!682 = metadata !{i32 786478, i32 0, metadata !497, metadata !"basic_string", metadata !"basic_string", metadata !"", metadata !501, i32 442, metadata !683, i1 false, i1 false, i32 0, i32 0, null, i32 384, i1 false, null, null, i32 0, metadata !132, i32 442} ; [ DW_TAG_subprogram ]
!683 = metadata !{i32 786453, i32 0, metadata !"", i32 0, i32 0, i64 0, i64 0, i64 0, i32 0, null, metadata !684, i32 0, i32 0} ; [ DW_TAG_subroutine_type ]
!684 = metadata !{null, metadata !580, metadata !562}
!685 = metadata !{i32 786478, i32 0, metadata !497, metadata !"basic_string", metadata !"basic_string", metadata !"", metadata !501, i32 449, metadata !686, i1 false, i1 false, i32 0, i32 0, null, i32 256, i1 false, null, null, i32 0, metadata !132, i32 449} ; [ DW_TAG_subprogram ]
!686 = metadata !{i32 786453, i32 0, metadata !"", i32 0, i32 0, i64 0, i64 0, i64 0, i32 0, null, metadata !687, i32 0, i32 0} ; [ DW_TAG_subroutine_type ]
!687 = metadata !{null, metadata !580, metadata !688}
!688 = metadata !{i32 786448, null, null, null, i32 0, i64 0, i64 0, i64 0, i32 0, metadata !576} ; [ DW_TAG_reference_type ]
!689 = metadata !{i32 786478, i32 0, metadata !497, metadata !"basic_string", metadata !"basic_string", metadata !"", metadata !501, i32 456, metadata !690, i1 false, i1 false, i32 0, i32 0, null, i32 256, i1 false, null, null, i32 0, metadata !132, i32 456} ; [ DW_TAG_subprogram ]
!690 = metadata !{i32 786453, i32 0, metadata !"", i32 0, i32 0, i64 0, i64 0, i64 0, i32 0, null, metadata !691, i32 0, i32 0} ; [ DW_TAG_subroutine_type ]
!691 = metadata !{null, metadata !580, metadata !688, metadata !591, metadata !591}
!692 = metadata !{i32 786478, i32 0, metadata !497, metadata !"basic_string", metadata !"basic_string", metadata !"", metadata !501, i32 465, metadata !693, i1 false, i1 false, i32 0, i32 0, null, i32 256, i1 false, null, null, i32 0, metadata !132, i32 465} ; [ DW_TAG_subprogram ]
!693 = metadata !{i32 786453, i32 0, metadata !"", i32 0, i32 0, i64 0, i64 0, i64 0, i32 0, null, metadata !694, i32 0, i32 0} ; [ DW_TAG_subroutine_type ]
!694 = metadata !{null, metadata !580, metadata !688, metadata !591, metadata !591, metadata !562}
!695 = metadata !{i32 786478, i32 0, metadata !497, metadata !"basic_string", metadata !"basic_string", metadata !"", metadata !501, i32 477, metadata !696, i1 false, i1 false, i32 0, i32 0, null, i32 256, i1 false, null, null, i32 0, metadata !132, i32 477} ; [ DW_TAG_subprogram ]
!696 = metadata !{i32 786453, i32 0, metadata !"", i32 0, i32 0, i64 0, i64 0, i64 0, i32 0, null, metadata !697, i32 0, i32 0} ; [ DW_TAG_subroutine_type ]
!697 = metadata !{null, metadata !580, metadata !362, metadata !591, metadata !562}
!698 = metadata !{i32 786478, i32 0, metadata !497, metadata !"basic_string", metadata !"basic_string", metadata !"", metadata !501, i32 484, metadata !699, i1 false, i1 false, i32 0, i32 0, null, i32 256, i1 false, null, null, i32 0, metadata !132, i32 484} ; [ DW_TAG_subprogram ]
!699 = metadata !{i32 786453, i32 0, metadata !"", i32 0, i32 0, i64 0, i64 0, i64 0, i32 0, null, metadata !700, i32 0, i32 0} ; [ DW_TAG_subroutine_type ]
!700 = metadata !{null, metadata !580, metadata !362, metadata !562}
!701 = metadata !{i32 786478, i32 0, metadata !497, metadata !"basic_string", metadata !"basic_string", metadata !"", metadata !501, i32 491, metadata !702, i1 false, i1 false, i32 0, i32 0, null, i32 256, i1 false, null, null, i32 0, metadata !132, i32 491} ; [ DW_TAG_subprogram ]
!702 = metadata !{i32 786453, i32 0, metadata !"", i32 0, i32 0, i64 0, i64 0, i64 0, i32 0, null, metadata !703, i32 0, i32 0} ; [ DW_TAG_subroutine_type ]
!703 = metadata !{null, metadata !580, metadata !591, metadata !364, metadata !562}
!704 = metadata !{i32 786478, i32 0, metadata !497, metadata !"basic_string", metadata !"basic_string", metadata !"", metadata !501, i32 501, metadata !705, i1 false, i1 false, i32 0, i32 0, null, i32 256, i1 false, null, null, i32 0, metadata !132, i32 501} ; [ DW_TAG_subprogram ]
!705 = metadata !{i32 786453, i32 0, metadata !"", i32 0, i32 0, i64 0, i64 0, i64 0, i32 0, null, metadata !706, i32 0, i32 0} ; [ DW_TAG_subroutine_type ]
!706 = metadata !{null, metadata !580, metadata !707}
!707 = metadata !{i32 786447, null, metadata !"", null, i32 0, i64 64, i64 64, i64 0, i32 0, metadata !497} ; [ DW_TAG_pointer_type ]
!708 = metadata !{i32 786478, i32 0, metadata !497, metadata !"basic_string", metadata !"basic_string", metadata !"", metadata !501, i32 516, metadata !709, i1 false, i1 false, i32 0, i32 0, null, i32 256, i1 false, null, null, i32 0, metadata !132, i32 516} ; [ DW_TAG_subprogram ]
!709 = metadata !{i32 786453, i32 0, metadata !"", i32 0, i32 0, i64 0, i64 0, i64 0, i32 0, null, metadata !710, i32 0, i32 0} ; [ DW_TAG_subroutine_type ]
!710 = metadata !{null, metadata !580, metadata !711, metadata !562}
!711 = metadata !{i32 786434, metadata !712, metadata !"initializer_list<char>", metadata !713, i32 44, i64 128, i64 64, i32 0, i32 0, null, metadata !714, i32 0, null, metadata !736} ; [ DW_TAG_class_type ]
!712 = metadata !{i32 786489, null, metadata !"std", metadata !713, i32 40} ; [ DW_TAG_namespace ]
!713 = metadata !{i32 786473, metadata !"/home/brennan/Vivado/Vivado/2017.4/lnx64/tools/gcc/lib/gcc/x86_64-unknown-linux-gnu/4.6.3/../../../../include/c++/4.6.3/initializer_list", metadata !"/home/brennan/Documents/pynq-copter/pynqcopter/ip/pwm", null} ; [ DW_TAG_file_type ]
!714 = metadata !{metadata !715, metadata !717, metadata !719, metadata !724, metadata !727, metadata !732, metadata !735}
!715 = metadata !{i32 786445, metadata !711, metadata !"_M_array", metadata !713, i32 55, i64 64, i64 64, i64 0, i32 1, metadata !716} ; [ DW_TAG_member ]
!716 = metadata !{i32 786454, metadata !711, metadata !"iterator", metadata !713, i32 51, i64 0, i64 0, i64 0, i32 0, metadata !362} ; [ DW_TAG_typedef ]
!717 = metadata !{i32 786445, metadata !711, metadata !"_M_len", metadata !713, i32 56, i64 64, i64 64, i64 64, i32 1, metadata !718} ; [ DW_TAG_member ]
!718 = metadata !{i32 786454, null, metadata !"size_type", metadata !713, i32 50, i64 0, i64 0, i64 0, i32 0, metadata !329} ; [ DW_TAG_typedef ]
!719 = metadata !{i32 786478, i32 0, metadata !711, metadata !"initializer_list", metadata !"initializer_list", metadata !"", metadata !713, i32 59, metadata !720, i1 false, i1 false, i32 0, i32 0, null, i32 257, i1 false, null, null, i32 0, metadata !132, i32 59} ; [ DW_TAG_subprogram ]
!720 = metadata !{i32 786453, i32 0, metadata !"", i32 0, i32 0, i64 0, i64 0, i64 0, i32 0, null, metadata !721, i32 0, i32 0} ; [ DW_TAG_subroutine_type ]
!721 = metadata !{null, metadata !722, metadata !723, metadata !718}
!722 = metadata !{i32 786447, i32 0, metadata !"", i32 0, i32 0, i64 64, i64 64, i64 0, i32 64, metadata !711} ; [ DW_TAG_pointer_type ]
!723 = metadata !{i32 786454, metadata !711, metadata !"const_iterator", metadata !713, i32 52, i64 0, i64 0, i64 0, i32 0, metadata !362} ; [ DW_TAG_typedef ]
!724 = metadata !{i32 786478, i32 0, metadata !711, metadata !"initializer_list", metadata !"initializer_list", metadata !"", metadata !713, i32 63, metadata !725, i1 false, i1 false, i32 0, i32 0, null, i32 256, i1 false, null, null, i32 0, metadata !132, i32 63} ; [ DW_TAG_subprogram ]
!725 = metadata !{i32 786453, i32 0, metadata !"", i32 0, i32 0, i64 0, i64 0, i64 0, i32 0, null, metadata !726, i32 0, i32 0} ; [ DW_TAG_subroutine_type ]
!726 = metadata !{null, metadata !722}
!727 = metadata !{i32 786478, i32 0, metadata !711, metadata !"size", metadata !"size", metadata !"_ZNKSt16initializer_listIcE4sizeEv", metadata !713, i32 67, metadata !728, i1 false, i1 false, i32 0, i32 0, null, i32 256, i1 false, null, null, i32 0, metadata !132, i32 67} ; [ DW_TAG_subprogram ]
!728 = metadata !{i32 786453, i32 0, metadata !"", i32 0, i32 0, i64 0, i64 0, i64 0, i32 0, null, metadata !729, i32 0, i32 0} ; [ DW_TAG_subroutine_type ]
!729 = metadata !{metadata !718, metadata !730}
!730 = metadata !{i32 786447, i32 0, metadata !"", i32 0, i32 0, i64 64, i64 64, i64 0, i32 64, metadata !731} ; [ DW_TAG_pointer_type ]
!731 = metadata !{i32 786470, null, metadata !"", null, i32 0, i64 0, i64 0, i64 0, i32 0, metadata !711} ; [ DW_TAG_const_type ]
!732 = metadata !{i32 786478, i32 0, metadata !711, metadata !"begin", metadata !"begin", metadata !"_ZNKSt16initializer_listIcE5beginEv", metadata !713, i32 71, metadata !733, i1 false, i1 false, i32 0, i32 0, null, i32 256, i1 false, null, null, i32 0, metadata !132, i32 71} ; [ DW_TAG_subprogram ]
!733 = metadata !{i32 786453, i32 0, metadata !"", i32 0, i32 0, i64 0, i64 0, i64 0, i32 0, null, metadata !734, i32 0, i32 0} ; [ DW_TAG_subroutine_type ]
!734 = metadata !{metadata !723, metadata !730}
!735 = metadata !{i32 786478, i32 0, metadata !711, metadata !"end", metadata !"end", metadata !"_ZNKSt16initializer_listIcE3endEv", metadata !713, i32 75, metadata !733, i1 false, i1 false, i32 0, i32 0, null, i32 256, i1 false, null, null, i32 0, metadata !132, i32 75} ; [ DW_TAG_subprogram ]
!736 = metadata !{metadata !737}
!737 = metadata !{i32 786479, null, metadata !"_E", metadata !364, null, i32 0, i32 0} ; [ DW_TAG_template_type_parameter ]
!738 = metadata !{i32 786478, i32 0, metadata !497, metadata !"~basic_string", metadata !"~basic_string", metadata !"", metadata !501, i32 532, metadata !638, i1 false, i1 false, i32 0, i32 0, null, i32 256, i1 false, null, null, i32 0, metadata !132, i32 532} ; [ DW_TAG_subprogram ]
!739 = metadata !{i32 786478, i32 0, metadata !497, metadata !"operator=", metadata !"operator=", metadata !"_ZNSsaSERKSs", metadata !501, i32 540, metadata !740, i1 false, i1 false, i32 0, i32 0, null, i32 256, i1 false, null, null, i32 0, metadata !132, i32 540} ; [ DW_TAG_subprogram ]
!740 = metadata !{i32 786453, i32 0, metadata !"", i32 0, i32 0, i64 0, i64 0, i64 0, i32 0, null, metadata !741, i32 0, i32 0} ; [ DW_TAG_subroutine_type ]
!741 = metadata !{metadata !742, metadata !580, metadata !688}
!742 = metadata !{i32 786448, null, null, null, i32 0, i64 0, i64 0, i64 0, i32 0, metadata !497} ; [ DW_TAG_reference_type ]
!743 = metadata !{i32 786478, i32 0, metadata !497, metadata !"operator=", metadata !"operator=", metadata !"_ZNSsaSEPKc", metadata !501, i32 548, metadata !744, i1 false, i1 false, i32 0, i32 0, null, i32 256, i1 false, null, null, i32 0, metadata !132, i32 548} ; [ DW_TAG_subprogram ]
!744 = metadata !{i32 786453, i32 0, metadata !"", i32 0, i32 0, i64 0, i64 0, i64 0, i32 0, null, metadata !745, i32 0, i32 0} ; [ DW_TAG_subroutine_type ]
!745 = metadata !{metadata !742, metadata !580, metadata !362}
!746 = metadata !{i32 786478, i32 0, metadata !497, metadata !"operator=", metadata !"operator=", metadata !"_ZNSsaSEc", metadata !501, i32 559, metadata !747, i1 false, i1 false, i32 0, i32 0, null, i32 256, i1 false, null, null, i32 0, metadata !132, i32 559} ; [ DW_TAG_subprogram ]
!747 = metadata !{i32 786453, i32 0, metadata !"", i32 0, i32 0, i64 0, i64 0, i64 0, i32 0, null, metadata !748, i32 0, i32 0} ; [ DW_TAG_subroutine_type ]
!748 = metadata !{metadata !742, metadata !580, metadata !364}
!749 = metadata !{i32 786478, i32 0, metadata !497, metadata !"operator=", metadata !"operator=", metadata !"_ZNSsaSEOSs", metadata !501, i32 574, metadata !750, i1 false, i1 false, i32 0, i32 0, null, i32 256, i1 false, null, null, i32 0, metadata !132, i32 574} ; [ DW_TAG_subprogram ]
!750 = metadata !{i32 786453, i32 0, metadata !"", i32 0, i32 0, i64 0, i64 0, i64 0, i32 0, null, metadata !751, i32 0, i32 0} ; [ DW_TAG_subroutine_type ]
!751 = metadata !{metadata !742, metadata !580, metadata !707}
!752 = metadata !{i32 786478, i32 0, metadata !497, metadata !"operator=", metadata !"operator=", metadata !"_ZNSsaSESt16initializer_listIcE", metadata !501, i32 586, metadata !753, i1 false, i1 false, i32 0, i32 0, null, i32 256, i1 false, null, null, i32 0, metadata !132, i32 586} ; [ DW_TAG_subprogram ]
!753 = metadata !{i32 786453, i32 0, metadata !"", i32 0, i32 0, i64 0, i64 0, i64 0, i32 0, null, metadata !754, i32 0, i32 0} ; [ DW_TAG_subroutine_type ]
!754 = metadata !{metadata !742, metadata !580, metadata !711}
!755 = metadata !{i32 786478, i32 0, metadata !497, metadata !"begin", metadata !"begin", metadata !"_ZNSs5beginEv", metadata !501, i32 599, metadata !756, i1 false, i1 false, i32 0, i32 0, null, i32 256, i1 false, null, null, i32 0, metadata !132, i32 599} ; [ DW_TAG_subprogram ]
!756 = metadata !{i32 786453, i32 0, metadata !"", i32 0, i32 0, i64 0, i64 0, i64 0, i32 0, null, metadata !757, i32 0, i32 0} ; [ DW_TAG_subroutine_type ]
!757 = metadata !{metadata !633, metadata !580}
!758 = metadata !{i32 786478, i32 0, metadata !497, metadata !"begin", metadata !"begin", metadata !"_ZNKSs5beginEv", metadata !501, i32 610, metadata !759, i1 false, i1 false, i32 0, i32 0, null, i32 256, i1 false, null, null, i32 0, metadata !132, i32 610} ; [ DW_TAG_subprogram ]
!759 = metadata !{i32 786453, i32 0, metadata !"", i32 0, i32 0, i64 0, i64 0, i64 0, i32 0, null, metadata !760, i32 0, i32 0} ; [ DW_TAG_subroutine_type ]
!760 = metadata !{metadata !665, metadata !575}
!761 = metadata !{i32 786478, i32 0, metadata !497, metadata !"end", metadata !"end", metadata !"_ZNSs3endEv", metadata !501, i32 618, metadata !756, i1 false, i1 false, i32 0, i32 0, null, i32 256, i1 false, null, null, i32 0, metadata !132, i32 618} ; [ DW_TAG_subprogram ]
!762 = metadata !{i32 786478, i32 0, metadata !497, metadata !"end", metadata !"end", metadata !"_ZNKSs3endEv", metadata !501, i32 629, metadata !759, i1 false, i1 false, i32 0, i32 0, null, i32 256, i1 false, null, null, i32 0, metadata !132, i32 629} ; [ DW_TAG_subprogram ]
!763 = metadata !{i32 786478, i32 0, metadata !497, metadata !"rbegin", metadata !"rbegin", metadata !"_ZNSs6rbeginEv", metadata !501, i32 638, metadata !764, i1 false, i1 false, i32 0, i32 0, null, i32 256, i1 false, null, null, i32 0, metadata !132, i32 638} ; [ DW_TAG_subprogram ]
!764 = metadata !{i32 786453, i32 0, metadata !"", i32 0, i32 0, i64 0, i64 0, i64 0, i32 0, null, metadata !765, i32 0, i32 0} ; [ DW_TAG_subroutine_type ]
!765 = metadata !{metadata !766, metadata !580}
!766 = metadata !{i32 786454, metadata !497, metadata !"reverse_iterator", metadata !498, i32 125, i64 0, i64 0, i64 0, i32 0, metadata !767} ; [ DW_TAG_typedef ]
!767 = metadata !{i32 786434, null, metadata !"reverse_iterator<__gnu_cxx::__normal_iterator<char *, std::basic_string<char> > >", metadata !635, i32 97, i32 0, i32 0, i32 0, i32 4, null, null, i32 0} ; [ DW_TAG_class_type ]
!768 = metadata !{i32 786478, i32 0, metadata !497, metadata !"rbegin", metadata !"rbegin", metadata !"_ZNKSs6rbeginEv", metadata !501, i32 647, metadata !769, i1 false, i1 false, i32 0, i32 0, null, i32 256, i1 false, null, null, i32 0, metadata !132, i32 647} ; [ DW_TAG_subprogram ]
!769 = metadata !{i32 786453, i32 0, metadata !"", i32 0, i32 0, i64 0, i64 0, i64 0, i32 0, null, metadata !770, i32 0, i32 0} ; [ DW_TAG_subroutine_type ]
!770 = metadata !{metadata !771, metadata !575}
!771 = metadata !{i32 786454, metadata !497, metadata !"const_reverse_iterator", metadata !498, i32 124, i64 0, i64 0, i64 0, i32 0, metadata !772} ; [ DW_TAG_typedef ]
!772 = metadata !{i32 786434, null, metadata !"reverse_iterator<__gnu_cxx::__normal_iterator<const char *, std::basic_string<char> > >", metadata !635, i32 97, i32 0, i32 0, i32 0, i32 4, null, null, i32 0} ; [ DW_TAG_class_type ]
!773 = metadata !{i32 786478, i32 0, metadata !497, metadata !"rend", metadata !"rend", metadata !"_ZNSs4rendEv", metadata !501, i32 656, metadata !764, i1 false, i1 false, i32 0, i32 0, null, i32 256, i1 false, null, null, i32 0, metadata !132, i32 656} ; [ DW_TAG_subprogram ]
!774 = metadata !{i32 786478, i32 0, metadata !497, metadata !"rend", metadata !"rend", metadata !"_ZNKSs4rendEv", metadata !501, i32 665, metadata !769, i1 false, i1 false, i32 0, i32 0, null, i32 256, i1 false, null, null, i32 0, metadata !132, i32 665} ; [ DW_TAG_subprogram ]
!775 = metadata !{i32 786478, i32 0, metadata !497, metadata !"cbegin", metadata !"cbegin", metadata !"_ZNKSs6cbeginEv", metadata !501, i32 674, metadata !759, i1 false, i1 false, i32 0, i32 0, null, i32 256, i1 false, null, null, i32 0, metadata !132, i32 674} ; [ DW_TAG_subprogram ]
!776 = metadata !{i32 786478, i32 0, metadata !497, metadata !"cend", metadata !"cend", metadata !"_ZNKSs4cendEv", metadata !501, i32 682, metadata !759, i1 false, i1 false, i32 0, i32 0, null, i32 256, i1 false, null, null, i32 0, metadata !132, i32 682} ; [ DW_TAG_subprogram ]
!777 = metadata !{i32 786478, i32 0, metadata !497, metadata !"crbegin", metadata !"crbegin", metadata !"_ZNKSs7crbeginEv", metadata !501, i32 691, metadata !769, i1 false, i1 false, i32 0, i32 0, null, i32 256, i1 false, null, null, i32 0, metadata !132, i32 691} ; [ DW_TAG_subprogram ]
!778 = metadata !{i32 786478, i32 0, metadata !497, metadata !"crend", metadata !"crend", metadata !"_ZNKSs5crendEv", metadata !501, i32 700, metadata !769, i1 false, i1 false, i32 0, i32 0, null, i32 256, i1 false, null, null, i32 0, metadata !132, i32 700} ; [ DW_TAG_subprogram ]
!779 = metadata !{i32 786478, i32 0, metadata !497, metadata !"size", metadata !"size", metadata !"_ZNKSs4sizeEv", metadata !501, i32 709, metadata !780, i1 false, i1 false, i32 0, i32 0, null, i32 256, i1 false, null, null, i32 0, metadata !132, i32 709} ; [ DW_TAG_subprogram ]
!780 = metadata !{i32 786453, i32 0, metadata !"", i32 0, i32 0, i64 0, i64 0, i64 0, i32 0, null, metadata !781, i32 0, i32 0} ; [ DW_TAG_subroutine_type ]
!781 = metadata !{metadata !591, metadata !575}
!782 = metadata !{i32 786478, i32 0, metadata !497, metadata !"length", metadata !"length", metadata !"_ZNKSs6lengthEv", metadata !501, i32 715, metadata !780, i1 false, i1 false, i32 0, i32 0, null, i32 256, i1 false, null, null, i32 0, metadata !132, i32 715} ; [ DW_TAG_subprogram ]
!783 = metadata !{i32 786478, i32 0, metadata !497, metadata !"max_size", metadata !"max_size", metadata !"_ZNKSs8max_sizeEv", metadata !501, i32 720, metadata !780, i1 false, i1 false, i32 0, i32 0, null, i32 256, i1 false, null, null, i32 0, metadata !132, i32 720} ; [ DW_TAG_subprogram ]
!784 = metadata !{i32 786478, i32 0, metadata !497, metadata !"resize", metadata !"resize", metadata !"_ZNSs6resizeEmc", metadata !501, i32 734, metadata !785, i1 false, i1 false, i32 0, i32 0, null, i32 256, i1 false, null, null, i32 0, metadata !132, i32 734} ; [ DW_TAG_subprogram ]
!785 = metadata !{i32 786453, i32 0, metadata !"", i32 0, i32 0, i64 0, i64 0, i64 0, i32 0, null, metadata !786, i32 0, i32 0} ; [ DW_TAG_subroutine_type ]
!786 = metadata !{null, metadata !580, metadata !591, metadata !364}
!787 = metadata !{i32 786478, i32 0, metadata !497, metadata !"resize", metadata !"resize", metadata !"_ZNSs6resizeEm", metadata !501, i32 747, metadata !788, i1 false, i1 false, i32 0, i32 0, null, i32 256, i1 false, null, null, i32 0, metadata !132, i32 747} ; [ DW_TAG_subprogram ]
!788 = metadata !{i32 786453, i32 0, metadata !"", i32 0, i32 0, i64 0, i64 0, i64 0, i32 0, null, metadata !789, i32 0, i32 0} ; [ DW_TAG_subroutine_type ]
!789 = metadata !{null, metadata !580, metadata !591}
!790 = metadata !{i32 786478, i32 0, metadata !497, metadata !"shrink_to_fit", metadata !"shrink_to_fit", metadata !"_ZNSs13shrink_to_fitEv", metadata !501, i32 753, metadata !638, i1 false, i1 false, i32 0, i32 0, null, i32 256, i1 false, null, null, i32 0, metadata !132, i32 753} ; [ DW_TAG_subprogram ]
!791 = metadata !{i32 786478, i32 0, metadata !497, metadata !"capacity", metadata !"capacity", metadata !"_ZNKSs8capacityEv", metadata !501, i32 767, metadata !780, i1 false, i1 false, i32 0, i32 0, null, i32 256, i1 false, null, null, i32 0, metadata !132, i32 767} ; [ DW_TAG_subprogram ]
!792 = metadata !{i32 786478, i32 0, metadata !497, metadata !"reserve", metadata !"reserve", metadata !"_ZNSs7reserveEm", metadata !501, i32 788, metadata !788, i1 false, i1 false, i32 0, i32 0, null, i32 256, i1 false, null, null, i32 0, metadata !132, i32 788} ; [ DW_TAG_subprogram ]
!793 = metadata !{i32 786478, i32 0, metadata !497, metadata !"clear", metadata !"clear", metadata !"_ZNSs5clearEv", metadata !501, i32 794, metadata !638, i1 false, i1 false, i32 0, i32 0, null, i32 256, i1 false, null, null, i32 0, metadata !132, i32 794} ; [ DW_TAG_subprogram ]
!794 = metadata !{i32 786478, i32 0, metadata !497, metadata !"empty", metadata !"empty", metadata !"_ZNKSs5emptyEv", metadata !501, i32 802, metadata !795, i1 false, i1 false, i32 0, i32 0, null, i32 256, i1 false, null, null, i32 0, metadata !132, i32 802} ; [ DW_TAG_subprogram ]
!795 = metadata !{i32 786453, i32 0, metadata !"", i32 0, i32 0, i64 0, i64 0, i64 0, i32 0, null, metadata !796, i32 0, i32 0} ; [ DW_TAG_subroutine_type ]
!796 = metadata !{metadata !143, metadata !575}
!797 = metadata !{i32 786478, i32 0, metadata !497, metadata !"operator[]", metadata !"operator[]", metadata !"_ZNKSsixEm", metadata !501, i32 817, metadata !798, i1 false, i1 false, i32 0, i32 0, null, i32 256, i1 false, null, null, i32 0, metadata !132, i32 817} ; [ DW_TAG_subprogram ]
!798 = metadata !{i32 786453, i32 0, metadata !"", i32 0, i32 0, i64 0, i64 0, i64 0, i32 0, null, metadata !799, i32 0, i32 0} ; [ DW_TAG_subroutine_type ]
!799 = metadata !{metadata !800, metadata !575, metadata !591}
!800 = metadata !{i32 786454, metadata !497, metadata !"const_reference", metadata !498, i32 118, i64 0, i64 0, i64 0, i32 0, metadata !801} ; [ DW_TAG_typedef ]
!801 = metadata !{i32 786454, metadata !505, metadata !"const_reference", metadata !498, i32 100, i64 0, i64 0, i64 0, i32 0, metadata !534} ; [ DW_TAG_typedef ]
!802 = metadata !{i32 786478, i32 0, metadata !497, metadata !"operator[]", metadata !"operator[]", metadata !"_ZNSsixEm", metadata !501, i32 834, metadata !803, i1 false, i1 false, i32 0, i32 0, null, i32 256, i1 false, null, null, i32 0, metadata !132, i32 834} ; [ DW_TAG_subprogram ]
!803 = metadata !{i32 786453, i32 0, metadata !"", i32 0, i32 0, i64 0, i64 0, i64 0, i32 0, null, metadata !804, i32 0, i32 0} ; [ DW_TAG_subroutine_type ]
!804 = metadata !{metadata !805, metadata !580, metadata !591}
!805 = metadata !{i32 786454, metadata !497, metadata !"reference", metadata !498, i32 117, i64 0, i64 0, i64 0, i32 0, metadata !806} ; [ DW_TAG_typedef ]
!806 = metadata !{i32 786454, metadata !505, metadata !"reference", metadata !498, i32 99, i64 0, i64 0, i64 0, i32 0, metadata !528} ; [ DW_TAG_typedef ]
!807 = metadata !{i32 786478, i32 0, metadata !497, metadata !"at", metadata !"at", metadata !"_ZNKSs2atEm", metadata !501, i32 855, metadata !798, i1 false, i1 false, i32 0, i32 0, null, i32 256, i1 false, null, null, i32 0, metadata !132, i32 855} ; [ DW_TAG_subprogram ]
!808 = metadata !{i32 786478, i32 0, metadata !497, metadata !"front", metadata !"front", metadata !"_ZNSs5frontEv", metadata !501, i32 868, metadata !809, i1 false, i1 false, i32 0, i32 0, null, i32 256, i1 false, null, null, i32 0, metadata !132, i32 868} ; [ DW_TAG_subprogram ]
!809 = metadata !{i32 786453, i32 0, metadata !"", i32 0, i32 0, i64 0, i64 0, i64 0, i32 0, null, metadata !810, i32 0, i32 0} ; [ DW_TAG_subroutine_type ]
!810 = metadata !{metadata !805, metadata !580}
!811 = metadata !{i32 786478, i32 0, metadata !497, metadata !"front", metadata !"front", metadata !"_ZNKSs5frontEv", metadata !501, i32 876, metadata !812, i1 false, i1 false, i32 0, i32 0, null, i32 256, i1 false, null, null, i32 0, metadata !132, i32 876} ; [ DW_TAG_subprogram ]
!812 = metadata !{i32 786453, i32 0, metadata !"", i32 0, i32 0, i64 0, i64 0, i64 0, i32 0, null, metadata !813, i32 0, i32 0} ; [ DW_TAG_subroutine_type ]
!813 = metadata !{metadata !800, metadata !575}
!814 = metadata !{i32 786478, i32 0, metadata !497, metadata !"back", metadata !"back", metadata !"_ZNSs4backEv", metadata !501, i32 884, metadata !809, i1 false, i1 false, i32 0, i32 0, null, i32 256, i1 false, null, null, i32 0, metadata !132, i32 884} ; [ DW_TAG_subprogram ]
!815 = metadata !{i32 786478, i32 0, metadata !497, metadata !"back", metadata !"back", metadata !"_ZNKSs4backEv", metadata !501, i32 892, metadata !812, i1 false, i1 false, i32 0, i32 0, null, i32 256, i1 false, null, null, i32 0, metadata !132, i32 892} ; [ DW_TAG_subprogram ]
!816 = metadata !{i32 786478, i32 0, metadata !497, metadata !"at", metadata !"at", metadata !"_ZNSs2atEm", metadata !501, i32 908, metadata !803, i1 false, i1 false, i32 0, i32 0, null, i32 256, i1 false, null, null, i32 0, metadata !132, i32 908} ; [ DW_TAG_subprogram ]
!817 = metadata !{i32 786478, i32 0, metadata !497, metadata !"operator+=", metadata !"operator+=", metadata !"_ZNSspLERKSs", metadata !501, i32 923, metadata !740, i1 false, i1 false, i32 0, i32 0, null, i32 256, i1 false, null, null, i32 0, metadata !132, i32 923} ; [ DW_TAG_subprogram ]
!818 = metadata !{i32 786478, i32 0, metadata !497, metadata !"operator+=", metadata !"operator+=", metadata !"_ZNSspLEPKc", metadata !501, i32 932, metadata !744, i1 false, i1 false, i32 0, i32 0, null, i32 256, i1 false, null, null, i32 0, metadata !132, i32 932} ; [ DW_TAG_subprogram ]
!819 = metadata !{i32 786478, i32 0, metadata !497, metadata !"operator+=", metadata !"operator+=", metadata !"_ZNSspLEc", metadata !501, i32 941, metadata !747, i1 false, i1 false, i32 0, i32 0, null, i32 256, i1 false, null, null, i32 0, metadata !132, i32 941} ; [ DW_TAG_subprogram ]
!820 = metadata !{i32 786478, i32 0, metadata !497, metadata !"operator+=", metadata !"operator+=", metadata !"_ZNSspLESt16initializer_listIcE", metadata !501, i32 954, metadata !753, i1 false, i1 false, i32 0, i32 0, null, i32 256, i1 false, null, null, i32 0, metadata !132, i32 954} ; [ DW_TAG_subprogram ]
!821 = metadata !{i32 786478, i32 0, metadata !497, metadata !"append", metadata !"append", metadata !"_ZNSs6appendERKSs", metadata !501, i32 964, metadata !740, i1 false, i1 false, i32 0, i32 0, null, i32 256, i1 false, null, null, i32 0, metadata !132, i32 964} ; [ DW_TAG_subprogram ]
!822 = metadata !{i32 786478, i32 0, metadata !497, metadata !"append", metadata !"append", metadata !"_ZNSs6appendERKSsmm", metadata !501, i32 979, metadata !823, i1 false, i1 false, i32 0, i32 0, null, i32 256, i1 false, null, null, i32 0, metadata !132, i32 979} ; [ DW_TAG_subprogram ]
!823 = metadata !{i32 786453, i32 0, metadata !"", i32 0, i32 0, i64 0, i64 0, i64 0, i32 0, null, metadata !824, i32 0, i32 0} ; [ DW_TAG_subroutine_type ]
!824 = metadata !{metadata !742, metadata !580, metadata !688, metadata !591, metadata !591}
!825 = metadata !{i32 786478, i32 0, metadata !497, metadata !"append", metadata !"append", metadata !"_ZNSs6appendEPKcm", metadata !501, i32 988, metadata !826, i1 false, i1 false, i32 0, i32 0, null, i32 256, i1 false, null, null, i32 0, metadata !132, i32 988} ; [ DW_TAG_subprogram ]
!826 = metadata !{i32 786453, i32 0, metadata !"", i32 0, i32 0, i64 0, i64 0, i64 0, i32 0, null, metadata !827, i32 0, i32 0} ; [ DW_TAG_subroutine_type ]
!827 = metadata !{metadata !742, metadata !580, metadata !362, metadata !591}
!828 = metadata !{i32 786478, i32 0, metadata !497, metadata !"append", metadata !"append", metadata !"_ZNSs6appendEPKc", metadata !501, i32 996, metadata !744, i1 false, i1 false, i32 0, i32 0, null, i32 256, i1 false, null, null, i32 0, metadata !132, i32 996} ; [ DW_TAG_subprogram ]
!829 = metadata !{i32 786478, i32 0, metadata !497, metadata !"append", metadata !"append", metadata !"_ZNSs6appendEmc", metadata !501, i32 1011, metadata !830, i1 false, i1 false, i32 0, i32 0, null, i32 256, i1 false, null, null, i32 0, metadata !132, i32 1011} ; [ DW_TAG_subprogram ]
!830 = metadata !{i32 786453, i32 0, metadata !"", i32 0, i32 0, i64 0, i64 0, i64 0, i32 0, null, metadata !831, i32 0, i32 0} ; [ DW_TAG_subroutine_type ]
!831 = metadata !{metadata !742, metadata !580, metadata !591, metadata !364}
!832 = metadata !{i32 786478, i32 0, metadata !497, metadata !"append", metadata !"append", metadata !"_ZNSs6appendESt16initializer_listIcE", metadata !501, i32 1020, metadata !753, i1 false, i1 false, i32 0, i32 0, null, i32 256, i1 false, null, null, i32 0, metadata !132, i32 1020} ; [ DW_TAG_subprogram ]
!833 = metadata !{i32 786478, i32 0, metadata !497, metadata !"push_back", metadata !"push_back", metadata !"_ZNSs9push_backEc", metadata !501, i32 1042, metadata !834, i1 false, i1 false, i32 0, i32 0, null, i32 256, i1 false, null, null, i32 0, metadata !132, i32 1042} ; [ DW_TAG_subprogram ]
!834 = metadata !{i32 786453, i32 0, metadata !"", i32 0, i32 0, i64 0, i64 0, i64 0, i32 0, null, metadata !835, i32 0, i32 0} ; [ DW_TAG_subroutine_type ]
!835 = metadata !{null, metadata !580, metadata !364}
!836 = metadata !{i32 786478, i32 0, metadata !497, metadata !"assign", metadata !"assign", metadata !"_ZNSs6assignERKSs", metadata !501, i32 1057, metadata !740, i1 false, i1 false, i32 0, i32 0, null, i32 256, i1 false, null, null, i32 0, metadata !132, i32 1057} ; [ DW_TAG_subprogram ]
!837 = metadata !{i32 786478, i32 0, metadata !497, metadata !"assign", metadata !"assign", metadata !"_ZNSs6assignEOSs", metadata !501, i32 1069, metadata !750, i1 false, i1 false, i32 0, i32 0, null, i32 256, i1 false, null, null, i32 0, metadata !132, i32 1069} ; [ DW_TAG_subprogram ]
!838 = metadata !{i32 786478, i32 0, metadata !497, metadata !"assign", metadata !"assign", metadata !"_ZNSs6assignERKSsmm", metadata !501, i32 1089, metadata !823, i1 false, i1 false, i32 0, i32 0, null, i32 256, i1 false, null, null, i32 0, metadata !132, i32 1089} ; [ DW_TAG_subprogram ]
!839 = metadata !{i32 786478, i32 0, metadata !497, metadata !"assign", metadata !"assign", metadata !"_ZNSs6assignEPKcm", metadata !501, i32 1105, metadata !826, i1 false, i1 false, i32 0, i32 0, null, i32 256, i1 false, null, null, i32 0, metadata !132, i32 1105} ; [ DW_TAG_subprogram ]
!840 = metadata !{i32 786478, i32 0, metadata !497, metadata !"assign", metadata !"assign", metadata !"_ZNSs6assignEPKc", metadata !501, i32 1117, metadata !744, i1 false, i1 false, i32 0, i32 0, null, i32 256, i1 false, null, null, i32 0, metadata !132, i32 1117} ; [ DW_TAG_subprogram ]
!841 = metadata !{i32 786478, i32 0, metadata !497, metadata !"assign", metadata !"assign", metadata !"_ZNSs6assignEmc", metadata !501, i32 1133, metadata !830, i1 false, i1 false, i32 0, i32 0, null, i32 256, i1 false, null, null, i32 0, metadata !132, i32 1133} ; [ DW_TAG_subprogram ]
!842 = metadata !{i32 786478, i32 0, metadata !497, metadata !"assign", metadata !"assign", metadata !"_ZNSs6assignESt16initializer_listIcE", metadata !501, i32 1156, metadata !753, i1 false, i1 false, i32 0, i32 0, null, i32 256, i1 false, null, null, i32 0, metadata !132, i32 1156} ; [ DW_TAG_subprogram ]
!843 = metadata !{i32 786478, i32 0, metadata !497, metadata !"insert", metadata !"insert", metadata !"_ZNSs6insertEN9__gnu_cxx17__normal_iteratorIPcSsEEmc", metadata !501, i32 1173, metadata !844, i1 false, i1 false, i32 0, i32 0, null, i32 256, i1 false, null, null, i32 0, metadata !132, i32 1173} ; [ DW_TAG_subprogram ]
!844 = metadata !{i32 786453, i32 0, metadata !"", i32 0, i32 0, i64 0, i64 0, i64 0, i32 0, null, metadata !845, i32 0, i32 0} ; [ DW_TAG_subroutine_type ]
!845 = metadata !{null, metadata !580, metadata !633, metadata !591, metadata !364}
!846 = metadata !{i32 786478, i32 0, metadata !497, metadata !"insert", metadata !"insert", metadata !"_ZNSs6insertEN9__gnu_cxx17__normal_iteratorIPcSsEESt16initializer_listIcE", metadata !501, i32 1200, metadata !847, i1 false, i1 false, i32 0, i32 0, null, i32 256, i1 false, null, null, i32 0, metadata !132, i32 1200} ; [ DW_TAG_subprogram ]
!847 = metadata !{i32 786453, i32 0, metadata !"", i32 0, i32 0, i64 0, i64 0, i64 0, i32 0, null, metadata !848, i32 0, i32 0} ; [ DW_TAG_subroutine_type ]
!848 = metadata !{null, metadata !580, metadata !633, metadata !711}
!849 = metadata !{i32 786478, i32 0, metadata !497, metadata !"insert", metadata !"insert", metadata !"_ZNSs6insertEmRKSs", metadata !501, i32 1219, metadata !850, i1 false, i1 false, i32 0, i32 0, null, i32 256, i1 false, null, null, i32 0, metadata !132, i32 1219} ; [ DW_TAG_subprogram ]
!850 = metadata !{i32 786453, i32 0, metadata !"", i32 0, i32 0, i64 0, i64 0, i64 0, i32 0, null, metadata !851, i32 0, i32 0} ; [ DW_TAG_subroutine_type ]
!851 = metadata !{metadata !742, metadata !580, metadata !591, metadata !688}
!852 = metadata !{i32 786478, i32 0, metadata !497, metadata !"insert", metadata !"insert", metadata !"_ZNSs6insertEmRKSsmm", metadata !501, i32 1241, metadata !853, i1 false, i1 false, i32 0, i32 0, null, i32 256, i1 false, null, null, i32 0, metadata !132, i32 1241} ; [ DW_TAG_subprogram ]
!853 = metadata !{i32 786453, i32 0, metadata !"", i32 0, i32 0, i64 0, i64 0, i64 0, i32 0, null, metadata !854, i32 0, i32 0} ; [ DW_TAG_subroutine_type ]
!854 = metadata !{metadata !742, metadata !580, metadata !591, metadata !688, metadata !591, metadata !591}
!855 = metadata !{i32 786478, i32 0, metadata !497, metadata !"insert", metadata !"insert", metadata !"_ZNSs6insertEmPKcm", metadata !501, i32 1264, metadata !856, i1 false, i1 false, i32 0, i32 0, null, i32 256, i1 false, null, null, i32 0, metadata !132, i32 1264} ; [ DW_TAG_subprogram ]
!856 = metadata !{i32 786453, i32 0, metadata !"", i32 0, i32 0, i64 0, i64 0, i64 0, i32 0, null, metadata !857, i32 0, i32 0} ; [ DW_TAG_subroutine_type ]
!857 = metadata !{metadata !742, metadata !580, metadata !591, metadata !362, metadata !591}
!858 = metadata !{i32 786478, i32 0, metadata !497, metadata !"insert", metadata !"insert", metadata !"_ZNSs6insertEmPKc", metadata !501, i32 1282, metadata !859, i1 false, i1 false, i32 0, i32 0, null, i32 256, i1 false, null, null, i32 0, metadata !132, i32 1282} ; [ DW_TAG_subprogram ]
!859 = metadata !{i32 786453, i32 0, metadata !"", i32 0, i32 0, i64 0, i64 0, i64 0, i32 0, null, metadata !860, i32 0, i32 0} ; [ DW_TAG_subroutine_type ]
!860 = metadata !{metadata !742, metadata !580, metadata !591, metadata !362}
!861 = metadata !{i32 786478, i32 0, metadata !497, metadata !"insert", metadata !"insert", metadata !"_ZNSs6insertEmmc", metadata !501, i32 1305, metadata !862, i1 false, i1 false, i32 0, i32 0, null, i32 256, i1 false, null, null, i32 0, metadata !132, i32 1305} ; [ DW_TAG_subprogram ]
!862 = metadata !{i32 786453, i32 0, metadata !"", i32 0, i32 0, i64 0, i64 0, i64 0, i32 0, null, metadata !863, i32 0, i32 0} ; [ DW_TAG_subroutine_type ]
!863 = metadata !{metadata !742, metadata !580, metadata !591, metadata !591, metadata !364}
!864 = metadata !{i32 786478, i32 0, metadata !497, metadata !"insert", metadata !"insert", metadata !"_ZNSs6insertEN9__gnu_cxx17__normal_iteratorIPcSsEEc", metadata !501, i32 1322, metadata !865, i1 false, i1 false, i32 0, i32 0, null, i32 256, i1 false, null, null, i32 0, metadata !132, i32 1322} ; [ DW_TAG_subprogram ]
!865 = metadata !{i32 786453, i32 0, metadata !"", i32 0, i32 0, i64 0, i64 0, i64 0, i32 0, null, metadata !866, i32 0, i32 0} ; [ DW_TAG_subroutine_type ]
!866 = metadata !{metadata !633, metadata !580, metadata !633, metadata !364}
!867 = metadata !{i32 786478, i32 0, metadata !497, metadata !"erase", metadata !"erase", metadata !"_ZNSs5eraseEmm", metadata !501, i32 1346, metadata !868, i1 false, i1 false, i32 0, i32 0, null, i32 256, i1 false, null, null, i32 0, metadata !132, i32 1346} ; [ DW_TAG_subprogram ]
!868 = metadata !{i32 786453, i32 0, metadata !"", i32 0, i32 0, i64 0, i64 0, i64 0, i32 0, null, metadata !869, i32 0, i32 0} ; [ DW_TAG_subroutine_type ]
!869 = metadata !{metadata !742, metadata !580, metadata !591, metadata !591}
!870 = metadata !{i32 786478, i32 0, metadata !497, metadata !"erase", metadata !"erase", metadata !"_ZNSs5eraseEN9__gnu_cxx17__normal_iteratorIPcSsEE", metadata !501, i32 1362, metadata !871, i1 false, i1 false, i32 0, i32 0, null, i32 256, i1 false, null, null, i32 0, metadata !132, i32 1362} ; [ DW_TAG_subprogram ]
!871 = metadata !{i32 786453, i32 0, metadata !"", i32 0, i32 0, i64 0, i64 0, i64 0, i32 0, null, metadata !872, i32 0, i32 0} ; [ DW_TAG_subroutine_type ]
!872 = metadata !{metadata !633, metadata !580, metadata !633}
!873 = metadata !{i32 786478, i32 0, metadata !497, metadata !"erase", metadata !"erase", metadata !"_ZNSs5eraseEN9__gnu_cxx17__normal_iteratorIPcSsEES2_", metadata !501, i32 1382, metadata !874, i1 false, i1 false, i32 0, i32 0, null, i32 256, i1 false, null, null, i32 0, metadata !132, i32 1382} ; [ DW_TAG_subprogram ]
!874 = metadata !{i32 786453, i32 0, metadata !"", i32 0, i32 0, i64 0, i64 0, i64 0, i32 0, null, metadata !875, i32 0, i32 0} ; [ DW_TAG_subroutine_type ]
!875 = metadata !{metadata !633, metadata !580, metadata !633, metadata !633}
!876 = metadata !{i32 786478, i32 0, metadata !497, metadata !"replace", metadata !"replace", metadata !"_ZNSs7replaceEmmRKSs", metadata !501, i32 1401, metadata !877, i1 false, i1 false, i32 0, i32 0, null, i32 256, i1 false, null, null, i32 0, metadata !132, i32 1401} ; [ DW_TAG_subprogram ]
!877 = metadata !{i32 786453, i32 0, metadata !"", i32 0, i32 0, i64 0, i64 0, i64 0, i32 0, null, metadata !878, i32 0, i32 0} ; [ DW_TAG_subroutine_type ]
!878 = metadata !{metadata !742, metadata !580, metadata !591, metadata !591, metadata !688}
!879 = metadata !{i32 786478, i32 0, metadata !497, metadata !"replace", metadata !"replace", metadata !"_ZNSs7replaceEmmRKSsmm", metadata !501, i32 1423, metadata !880, i1 false, i1 false, i32 0, i32 0, null, i32 256, i1 false, null, null, i32 0, metadata !132, i32 1423} ; [ DW_TAG_subprogram ]
!880 = metadata !{i32 786453, i32 0, metadata !"", i32 0, i32 0, i64 0, i64 0, i64 0, i32 0, null, metadata !881, i32 0, i32 0} ; [ DW_TAG_subroutine_type ]
!881 = metadata !{metadata !742, metadata !580, metadata !591, metadata !591, metadata !688, metadata !591, metadata !591}
!882 = metadata !{i32 786478, i32 0, metadata !497, metadata !"replace", metadata !"replace", metadata !"_ZNSs7replaceEmmPKcm", metadata !501, i32 1447, metadata !883, i1 false, i1 false, i32 0, i32 0, null, i32 256, i1 false, null, null, i32 0, metadata !132, i32 1447} ; [ DW_TAG_subprogram ]
!883 = metadata !{i32 786453, i32 0, metadata !"", i32 0, i32 0, i64 0, i64 0, i64 0, i32 0, null, metadata !884, i32 0, i32 0} ; [ DW_TAG_subroutine_type ]
!884 = metadata !{metadata !742, metadata !580, metadata !591, metadata !591, metadata !362, metadata !591}
!885 = metadata !{i32 786478, i32 0, metadata !497, metadata !"replace", metadata !"replace", metadata !"_ZNSs7replaceEmmPKc", metadata !501, i32 1466, metadata !886, i1 false, i1 false, i32 0, i32 0, null, i32 256, i1 false, null, null, i32 0, metadata !132, i32 1466} ; [ DW_TAG_subprogram ]
!886 = metadata !{i32 786453, i32 0, metadata !"", i32 0, i32 0, i64 0, i64 0, i64 0, i32 0, null, metadata !887, i32 0, i32 0} ; [ DW_TAG_subroutine_type ]
!887 = metadata !{metadata !742, metadata !580, metadata !591, metadata !591, metadata !362}
!888 = metadata !{i32 786478, i32 0, metadata !497, metadata !"replace", metadata !"replace", metadata !"_ZNSs7replaceEmmmc", metadata !501, i32 1489, metadata !889, i1 false, i1 false, i32 0, i32 0, null, i32 256, i1 false, null, null, i32 0, metadata !132, i32 1489} ; [ DW_TAG_subprogram ]
!889 = metadata !{i32 786453, i32 0, metadata !"", i32 0, i32 0, i64 0, i64 0, i64 0, i32 0, null, metadata !890, i32 0, i32 0} ; [ DW_TAG_subroutine_type ]
!890 = metadata !{metadata !742, metadata !580, metadata !591, metadata !591, metadata !591, metadata !364}
!891 = metadata !{i32 786478, i32 0, metadata !497, metadata !"replace", metadata !"replace", metadata !"_ZNSs7replaceEN9__gnu_cxx17__normal_iteratorIPcSsEES2_RKSs", metadata !501, i32 1507, metadata !892, i1 false, i1 false, i32 0, i32 0, null, i32 256, i1 false, null, null, i32 0, metadata !132, i32 1507} ; [ DW_TAG_subprogram ]
!892 = metadata !{i32 786453, i32 0, metadata !"", i32 0, i32 0, i64 0, i64 0, i64 0, i32 0, null, metadata !893, i32 0, i32 0} ; [ DW_TAG_subroutine_type ]
!893 = metadata !{metadata !742, metadata !580, metadata !633, metadata !633, metadata !688}
!894 = metadata !{i32 786478, i32 0, metadata !497, metadata !"replace", metadata !"replace", metadata !"_ZNSs7replaceEN9__gnu_cxx17__normal_iteratorIPcSsEES2_PKcm", metadata !501, i32 1525, metadata !895, i1 false, i1 false, i32 0, i32 0, null, i32 256, i1 false, null, null, i32 0, metadata !132, i32 1525} ; [ DW_TAG_subprogram ]
!895 = metadata !{i32 786453, i32 0, metadata !"", i32 0, i32 0, i64 0, i64 0, i64 0, i32 0, null, metadata !896, i32 0, i32 0} ; [ DW_TAG_subroutine_type ]
!896 = metadata !{metadata !742, metadata !580, metadata !633, metadata !633, metadata !362, metadata !591}
!897 = metadata !{i32 786478, i32 0, metadata !497, metadata !"replace", metadata !"replace", metadata !"_ZNSs7replaceEN9__gnu_cxx17__normal_iteratorIPcSsEES2_PKc", metadata !501, i32 1546, metadata !898, i1 false, i1 false, i32 0, i32 0, null, i32 256, i1 false, null, null, i32 0, metadata !132, i32 1546} ; [ DW_TAG_subprogram ]
!898 = metadata !{i32 786453, i32 0, metadata !"", i32 0, i32 0, i64 0, i64 0, i64 0, i32 0, null, metadata !899, i32 0, i32 0} ; [ DW_TAG_subroutine_type ]
!899 = metadata !{metadata !742, metadata !580, metadata !633, metadata !633, metadata !362}
!900 = metadata !{i32 786478, i32 0, metadata !497, metadata !"replace", metadata !"replace", metadata !"_ZNSs7replaceEN9__gnu_cxx17__normal_iteratorIPcSsEES2_mc", metadata !501, i32 1567, metadata !901, i1 false, i1 false, i32 0, i32 0, null, i32 256, i1 false, null, null, i32 0, metadata !132, i32 1567} ; [ DW_TAG_subprogram ]
!901 = metadata !{i32 786453, i32 0, metadata !"", i32 0, i32 0, i64 0, i64 0, i64 0, i32 0, null, metadata !902, i32 0, i32 0} ; [ DW_TAG_subroutine_type ]
!902 = metadata !{metadata !742, metadata !580, metadata !633, metadata !633, metadata !591, metadata !364}
!903 = metadata !{i32 786478, i32 0, metadata !497, metadata !"replace", metadata !"replace", metadata !"_ZNSs7replaceEN9__gnu_cxx17__normal_iteratorIPcSsEES2_S1_S1_", metadata !501, i32 1603, metadata !904, i1 false, i1 false, i32 0, i32 0, null, i32 256, i1 false, null, null, i32 0, metadata !132, i32 1603} ; [ DW_TAG_subprogram ]
!904 = metadata !{i32 786453, i32 0, metadata !"", i32 0, i32 0, i64 0, i64 0, i64 0, i32 0, null, metadata !905, i32 0, i32 0} ; [ DW_TAG_subroutine_type ]
!905 = metadata !{metadata !742, metadata !580, metadata !633, metadata !633, metadata !403, metadata !403}
!906 = metadata !{i32 786478, i32 0, metadata !497, metadata !"replace", metadata !"replace", metadata !"_ZNSs7replaceEN9__gnu_cxx17__normal_iteratorIPcSsEES2_PKcS4_", metadata !501, i32 1613, metadata !907, i1 false, i1 false, i32 0, i32 0, null, i32 256, i1 false, null, null, i32 0, metadata !132, i32 1613} ; [ DW_TAG_subprogram ]
!907 = metadata !{i32 786453, i32 0, metadata !"", i32 0, i32 0, i64 0, i64 0, i64 0, i32 0, null, metadata !908, i32 0, i32 0} ; [ DW_TAG_subroutine_type ]
!908 = metadata !{metadata !742, metadata !580, metadata !633, metadata !633, metadata !362, metadata !362}
!909 = metadata !{i32 786478, i32 0, metadata !497, metadata !"replace", metadata !"replace", metadata !"_ZNSs7replaceEN9__gnu_cxx17__normal_iteratorIPcSsEES2_S2_S2_", metadata !501, i32 1624, metadata !910, i1 false, i1 false, i32 0, i32 0, null, i32 256, i1 false, null, null, i32 0, metadata !132, i32 1624} ; [ DW_TAG_subprogram ]
!910 = metadata !{i32 786453, i32 0, metadata !"", i32 0, i32 0, i64 0, i64 0, i64 0, i32 0, null, metadata !911, i32 0, i32 0} ; [ DW_TAG_subroutine_type ]
!911 = metadata !{metadata !742, metadata !580, metadata !633, metadata !633, metadata !633, metadata !633}
!912 = metadata !{i32 786478, i32 0, metadata !497, metadata !"replace", metadata !"replace", metadata !"_ZNSs7replaceEN9__gnu_cxx17__normal_iteratorIPcSsEES2_NS0_IPKcSsEES5_", metadata !501, i32 1634, metadata !913, i1 false, i1 false, i32 0, i32 0, null, i32 256, i1 false, null, null, i32 0, metadata !132, i32 1634} ; [ DW_TAG_subprogram ]
!913 = metadata !{i32 786453, i32 0, metadata !"", i32 0, i32 0, i64 0, i64 0, i64 0, i32 0, null, metadata !914, i32 0, i32 0} ; [ DW_TAG_subroutine_type ]
!914 = metadata !{metadata !742, metadata !580, metadata !633, metadata !633, metadata !665, metadata !665}
!915 = metadata !{i32 786478, i32 0, metadata !497, metadata !"replace", metadata !"replace", metadata !"_ZNSs7replaceEN9__gnu_cxx17__normal_iteratorIPcSsEES2_St16initializer_listIcE", metadata !501, i32 1658, metadata !916, i1 false, i1 false, i32 0, i32 0, null, i32 256, i1 false, null, null, i32 0, metadata !132, i32 1658} ; [ DW_TAG_subprogram ]
!916 = metadata !{i32 786453, i32 0, metadata !"", i32 0, i32 0, i64 0, i64 0, i64 0, i32 0, null, metadata !917, i32 0, i32 0} ; [ DW_TAG_subroutine_type ]
!917 = metadata !{metadata !742, metadata !580, metadata !633, metadata !633, metadata !711}
!918 = metadata !{i32 786478, i32 0, metadata !497, metadata !"_M_replace_aux", metadata !"_M_replace_aux", metadata !"_ZNSs14_M_replace_auxEmmmc", metadata !501, i32 1676, metadata !889, i1 false, i1 false, i32 0, i32 0, null, i32 257, i1 false, null, null, i32 0, metadata !132, i32 1676} ; [ DW_TAG_subprogram ]
!919 = metadata !{i32 786478, i32 0, metadata !497, metadata !"_M_replace_safe", metadata !"_M_replace_safe", metadata !"_ZNSs15_M_replace_safeEmmPKcm", metadata !501, i32 1680, metadata !883, i1 false, i1 false, i32 0, i32 0, null, i32 257, i1 false, null, null, i32 0, metadata !132, i32 1680} ; [ DW_TAG_subprogram ]
!920 = metadata !{i32 786478, i32 0, metadata !497, metadata !"_S_construct_aux_2", metadata !"_S_construct_aux_2", metadata !"_ZNSs18_S_construct_aux_2EmcRKSaIcE", metadata !501, i32 1704, metadata !921, i1 false, i1 false, i32 0, i32 0, null, i32 257, i1 false, null, null, i32 0, metadata !132, i32 1704} ; [ DW_TAG_subprogram ]
!921 = metadata !{i32 786453, i32 0, metadata !"", i32 0, i32 0, i64 0, i64 0, i64 0, i32 0, null, metadata !922, i32 0, i32 0} ; [ DW_TAG_subroutine_type ]
!922 = metadata !{metadata !403, metadata !591, metadata !364, metadata !562}
!923 = metadata !{i32 786478, i32 0, metadata !497, metadata !"_S_construct", metadata !"_S_construct", metadata !"_ZNSs12_S_constructEmcRKSaIcE", metadata !501, i32 1729, metadata !921, i1 false, i1 false, i32 0, i32 0, null, i32 257, i1 false, null, null, i32 0, metadata !132, i32 1729} ; [ DW_TAG_subprogram ]
!924 = metadata !{i32 786478, i32 0, metadata !497, metadata !"copy", metadata !"copy", metadata !"_ZNKSs4copyEPcmm", metadata !501, i32 1745, metadata !925, i1 false, i1 false, i32 0, i32 0, null, i32 256, i1 false, null, null, i32 0, metadata !132, i32 1745} ; [ DW_TAG_subprogram ]
!925 = metadata !{i32 786453, i32 0, metadata !"", i32 0, i32 0, i64 0, i64 0, i64 0, i32 0, null, metadata !926, i32 0, i32 0} ; [ DW_TAG_subroutine_type ]
!926 = metadata !{metadata !591, metadata !575, metadata !403, metadata !591, metadata !591}
!927 = metadata !{i32 786478, i32 0, metadata !497, metadata !"swap", metadata !"swap", metadata !"_ZNSs4swapERSs", metadata !501, i32 1755, metadata !928, i1 false, i1 false, i32 0, i32 0, null, i32 256, i1 false, null, null, i32 0, metadata !132, i32 1755} ; [ DW_TAG_subprogram ]
!928 = metadata !{i32 786453, i32 0, metadata !"", i32 0, i32 0, i64 0, i64 0, i64 0, i32 0, null, metadata !929, i32 0, i32 0} ; [ DW_TAG_subroutine_type ]
!929 = metadata !{null, metadata !580, metadata !742}
!930 = metadata !{i32 786478, i32 0, metadata !497, metadata !"c_str", metadata !"c_str", metadata !"_ZNKSs5c_strEv", metadata !501, i32 1765, metadata !931, i1 false, i1 false, i32 0, i32 0, null, i32 256, i1 false, null, null, i32 0, metadata !132, i32 1765} ; [ DW_TAG_subprogram ]
!931 = metadata !{i32 786453, i32 0, metadata !"", i32 0, i32 0, i64 0, i64 0, i64 0, i32 0, null, metadata !932, i32 0, i32 0} ; [ DW_TAG_subroutine_type ]
!932 = metadata !{metadata !362, metadata !575}
!933 = metadata !{i32 786478, i32 0, metadata !497, metadata !"data", metadata !"data", metadata !"_ZNKSs4dataEv", metadata !501, i32 1775, metadata !931, i1 false, i1 false, i32 0, i32 0, null, i32 256, i1 false, null, null, i32 0, metadata !132, i32 1775} ; [ DW_TAG_subprogram ]
!934 = metadata !{i32 786478, i32 0, metadata !497, metadata !"get_allocator", metadata !"get_allocator", metadata !"_ZNKSs13get_allocatorEv", metadata !501, i32 1782, metadata !935, i1 false, i1 false, i32 0, i32 0, null, i32 256, i1 false, null, null, i32 0, metadata !132, i32 1782} ; [ DW_TAG_subprogram ]
!935 = metadata !{i32 786453, i32 0, metadata !"", i32 0, i32 0, i64 0, i64 0, i64 0, i32 0, null, metadata !936, i32 0, i32 0} ; [ DW_TAG_subroutine_type ]
!936 = metadata !{metadata !937, metadata !575}
!937 = metadata !{i32 786454, metadata !497, metadata !"allocator_type", metadata !498, i32 114, i64 0, i64 0, i64 0, i32 0, metadata !505} ; [ DW_TAG_typedef ]
!938 = metadata !{i32 786478, i32 0, metadata !497, metadata !"find", metadata !"find", metadata !"_ZNKSs4findEPKcmm", metadata !501, i32 1797, metadata !939, i1 false, i1 false, i32 0, i32 0, null, i32 256, i1 false, null, null, i32 0, metadata !132, i32 1797} ; [ DW_TAG_subprogram ]
!939 = metadata !{i32 786453, i32 0, metadata !"", i32 0, i32 0, i64 0, i64 0, i64 0, i32 0, null, metadata !940, i32 0, i32 0} ; [ DW_TAG_subroutine_type ]
!940 = metadata !{metadata !591, metadata !575, metadata !362, metadata !591, metadata !591}
!941 = metadata !{i32 786478, i32 0, metadata !497, metadata !"find", metadata !"find", metadata !"_ZNKSs4findERKSsm", metadata !501, i32 1810, metadata !942, i1 false, i1 false, i32 0, i32 0, null, i32 256, i1 false, null, null, i32 0, metadata !132, i32 1810} ; [ DW_TAG_subprogram ]
!942 = metadata !{i32 786453, i32 0, metadata !"", i32 0, i32 0, i64 0, i64 0, i64 0, i32 0, null, metadata !943, i32 0, i32 0} ; [ DW_TAG_subroutine_type ]
!943 = metadata !{metadata !591, metadata !575, metadata !688, metadata !591}
!944 = metadata !{i32 786478, i32 0, metadata !497, metadata !"find", metadata !"find", metadata !"_ZNKSs4findEPKcm", metadata !501, i32 1824, metadata !945, i1 false, i1 false, i32 0, i32 0, null, i32 256, i1 false, null, null, i32 0, metadata !132, i32 1824} ; [ DW_TAG_subprogram ]
!945 = metadata !{i32 786453, i32 0, metadata !"", i32 0, i32 0, i64 0, i64 0, i64 0, i32 0, null, metadata !946, i32 0, i32 0} ; [ DW_TAG_subroutine_type ]
!946 = metadata !{metadata !591, metadata !575, metadata !362, metadata !591}
!947 = metadata !{i32 786478, i32 0, metadata !497, metadata !"find", metadata !"find", metadata !"_ZNKSs4findEcm", metadata !501, i32 1841, metadata !948, i1 false, i1 false, i32 0, i32 0, null, i32 256, i1 false, null, null, i32 0, metadata !132, i32 1841} ; [ DW_TAG_subprogram ]
!948 = metadata !{i32 786453, i32 0, metadata !"", i32 0, i32 0, i64 0, i64 0, i64 0, i32 0, null, metadata !949, i32 0, i32 0} ; [ DW_TAG_subroutine_type ]
!949 = metadata !{metadata !591, metadata !575, metadata !364, metadata !591}
!950 = metadata !{i32 786478, i32 0, metadata !497, metadata !"rfind", metadata !"rfind", metadata !"_ZNKSs5rfindERKSsm", metadata !501, i32 1854, metadata !942, i1 false, i1 false, i32 0, i32 0, null, i32 256, i1 false, null, null, i32 0, metadata !132, i32 1854} ; [ DW_TAG_subprogram ]
!951 = metadata !{i32 786478, i32 0, metadata !497, metadata !"rfind", metadata !"rfind", metadata !"_ZNKSs5rfindEPKcmm", metadata !501, i32 1869, metadata !939, i1 false, i1 false, i32 0, i32 0, null, i32 256, i1 false, null, null, i32 0, metadata !132, i32 1869} ; [ DW_TAG_subprogram ]
!952 = metadata !{i32 786478, i32 0, metadata !497, metadata !"rfind", metadata !"rfind", metadata !"_ZNKSs5rfindEPKcm", metadata !501, i32 1882, metadata !945, i1 false, i1 false, i32 0, i32 0, null, i32 256, i1 false, null, null, i32 0, metadata !132, i32 1882} ; [ DW_TAG_subprogram ]
!953 = metadata !{i32 786478, i32 0, metadata !497, metadata !"rfind", metadata !"rfind", metadata !"_ZNKSs5rfindEcm", metadata !501, i32 1899, metadata !948, i1 false, i1 false, i32 0, i32 0, null, i32 256, i1 false, null, null, i32 0, metadata !132, i32 1899} ; [ DW_TAG_subprogram ]
!954 = metadata !{i32 786478, i32 0, metadata !497, metadata !"find_first_of", metadata !"find_first_of", metadata !"_ZNKSs13find_first_ofERKSsm", metadata !501, i32 1912, metadata !942, i1 false, i1 false, i32 0, i32 0, null, i32 256, i1 false, null, null, i32 0, metadata !132, i32 1912} ; [ DW_TAG_subprogram ]
!955 = metadata !{i32 786478, i32 0, metadata !497, metadata !"find_first_of", metadata !"find_first_of", metadata !"_ZNKSs13find_first_ofEPKcmm", metadata !501, i32 1927, metadata !939, i1 false, i1 false, i32 0, i32 0, null, i32 256, i1 false, null, null, i32 0, metadata !132, i32 1927} ; [ DW_TAG_subprogram ]
!956 = metadata !{i32 786478, i32 0, metadata !497, metadata !"find_first_of", metadata !"find_first_of", metadata !"_ZNKSs13find_first_ofEPKcm", metadata !501, i32 1940, metadata !945, i1 false, i1 false, i32 0, i32 0, null, i32 256, i1 false, null, null, i32 0, metadata !132, i32 1940} ; [ DW_TAG_subprogram ]
!957 = metadata !{i32 786478, i32 0, metadata !497, metadata !"find_first_of", metadata !"find_first_of", metadata !"_ZNKSs13find_first_ofEcm", metadata !501, i32 1959, metadata !948, i1 false, i1 false, i32 0, i32 0, null, i32 256, i1 false, null, null, i32 0, metadata !132, i32 1959} ; [ DW_TAG_subprogram ]
!958 = metadata !{i32 786478, i32 0, metadata !497, metadata !"find_last_of", metadata !"find_last_of", metadata !"_ZNKSs12find_last_ofERKSsm", metadata !501, i32 1973, metadata !942, i1 false, i1 false, i32 0, i32 0, null, i32 256, i1 false, null, null, i32 0, metadata !132, i32 1973} ; [ DW_TAG_subprogram ]
!959 = metadata !{i32 786478, i32 0, metadata !497, metadata !"find_last_of", metadata !"find_last_of", metadata !"_ZNKSs12find_last_ofEPKcmm", metadata !501, i32 1988, metadata !939, i1 false, i1 false, i32 0, i32 0, null, i32 256, i1 false, null, null, i32 0, metadata !132, i32 1988} ; [ DW_TAG_subprogram ]
!960 = metadata !{i32 786478, i32 0, metadata !497, metadata !"find_last_of", metadata !"find_last_of", metadata !"_ZNKSs12find_last_ofEPKcm", metadata !501, i32 2001, metadata !945, i1 false, i1 false, i32 0, i32 0, null, i32 256, i1 false, null, null, i32 0, metadata !132, i32 2001} ; [ DW_TAG_subprogram ]
!961 = metadata !{i32 786478, i32 0, metadata !497, metadata !"find_last_of", metadata !"find_last_of", metadata !"_ZNKSs12find_last_ofEcm", metadata !501, i32 2020, metadata !948, i1 false, i1 false, i32 0, i32 0, null, i32 256, i1 false, null, null, i32 0, metadata !132, i32 2020} ; [ DW_TAG_subprogram ]
!962 = metadata !{i32 786478, i32 0, metadata !497, metadata !"find_first_not_of", metadata !"find_first_not_of", metadata !"_ZNKSs17find_first_not_ofERKSsm", metadata !501, i32 2034, metadata !942, i1 false, i1 false, i32 0, i32 0, null, i32 256, i1 false, null, null, i32 0, metadata !132, i32 2034} ; [ DW_TAG_subprogram ]
!963 = metadata !{i32 786478, i32 0, metadata !497, metadata !"find_first_not_of", metadata !"find_first_not_of", metadata !"_ZNKSs17find_first_not_ofEPKcmm", metadata !501, i32 2049, metadata !939, i1 false, i1 false, i32 0, i32 0, null, i32 256, i1 false, null, null, i32 0, metadata !132, i32 2049} ; [ DW_TAG_subprogram ]
!964 = metadata !{i32 786478, i32 0, metadata !497, metadata !"find_first_not_of", metadata !"find_first_not_of", metadata !"_ZNKSs17find_first_not_ofEPKcm", metadata !501, i32 2063, metadata !945, i1 false, i1 false, i32 0, i32 0, null, i32 256, i1 false, null, null, i32 0, metadata !132, i32 2063} ; [ DW_TAG_subprogram ]
!965 = metadata !{i32 786478, i32 0, metadata !497, metadata !"find_first_not_of", metadata !"find_first_not_of", metadata !"_ZNKSs17find_first_not_ofEcm", metadata !501, i32 2080, metadata !948, i1 false, i1 false, i32 0, i32 0, null, i32 256, i1 false, null, null, i32 0, metadata !132, i32 2080} ; [ DW_TAG_subprogram ]
!966 = metadata !{i32 786478, i32 0, metadata !497, metadata !"find_last_not_of", metadata !"find_last_not_of", metadata !"_ZNKSs16find_last_not_ofERKSsm", metadata !501, i32 2093, metadata !942, i1 false, i1 false, i32 0, i32 0, null, i32 256, i1 false, null, null, i32 0, metadata !132, i32 2093} ; [ DW_TAG_subprogram ]
!967 = metadata !{i32 786478, i32 0, metadata !497, metadata !"find_last_not_of", metadata !"find_last_not_of", metadata !"_ZNKSs16find_last_not_ofEPKcmm", metadata !501, i32 2109, metadata !939, i1 false, i1 false, i32 0, i32 0, null, i32 256, i1 false, null, null, i32 0, metadata !132, i32 2109} ; [ DW_TAG_subprogram ]
!968 = metadata !{i32 786478, i32 0, metadata !497, metadata !"find_last_not_of", metadata !"find_last_not_of", metadata !"_ZNKSs16find_last_not_ofEPKcm", metadata !501, i32 2122, metadata !945, i1 false, i1 false, i32 0, i32 0, null, i32 256, i1 false, null, null, i32 0, metadata !132, i32 2122} ; [ DW_TAG_subprogram ]
!969 = metadata !{i32 786478, i32 0, metadata !497, metadata !"find_last_not_of", metadata !"find_last_not_of", metadata !"_ZNKSs16find_last_not_ofEcm", metadata !501, i32 2139, metadata !948, i1 false, i1 false, i32 0, i32 0, null, i32 256, i1 false, null, null, i32 0, metadata !132, i32 2139} ; [ DW_TAG_subprogram ]
!970 = metadata !{i32 786478, i32 0, metadata !497, metadata !"substr", metadata !"substr", metadata !"_ZNKSs6substrEmm", metadata !501, i32 2154, metadata !971, i1 false, i1 false, i32 0, i32 0, null, i32 256, i1 false, null, null, i32 0, metadata !132, i32 2154} ; [ DW_TAG_subprogram ]
!971 = metadata !{i32 786453, i32 0, metadata !"", i32 0, i32 0, i64 0, i64 0, i64 0, i32 0, null, metadata !972, i32 0, i32 0} ; [ DW_TAG_subroutine_type ]
!972 = metadata !{metadata !497, metadata !575, metadata !591, metadata !591}
!973 = metadata !{i32 786478, i32 0, metadata !497, metadata !"compare", metadata !"compare", metadata !"_ZNKSs7compareERKSs", metadata !501, i32 2172, metadata !974, i1 false, i1 false, i32 0, i32 0, null, i32 256, i1 false, null, null, i32 0, metadata !132, i32 2172} ; [ DW_TAG_subprogram ]
!974 = metadata !{i32 786453, i32 0, metadata !"", i32 0, i32 0, i64 0, i64 0, i64 0, i32 0, null, metadata !975, i32 0, i32 0} ; [ DW_TAG_subroutine_type ]
!975 = metadata !{metadata !141, metadata !575, metadata !688}
!976 = metadata !{i32 786478, i32 0, metadata !497, metadata !"compare", metadata !"compare", metadata !"_ZNKSs7compareEmmRKSs", metadata !501, i32 2202, metadata !977, i1 false, i1 false, i32 0, i32 0, null, i32 256, i1 false, null, null, i32 0, metadata !132, i32 2202} ; [ DW_TAG_subprogram ]
!977 = metadata !{i32 786453, i32 0, metadata !"", i32 0, i32 0, i64 0, i64 0, i64 0, i32 0, null, metadata !978, i32 0, i32 0} ; [ DW_TAG_subroutine_type ]
!978 = metadata !{metadata !141, metadata !575, metadata !591, metadata !591, metadata !688}
!979 = metadata !{i32 786478, i32 0, metadata !497, metadata !"compare", metadata !"compare", metadata !"_ZNKSs7compareEmmRKSsmm", metadata !501, i32 2226, metadata !980, i1 false, i1 false, i32 0, i32 0, null, i32 256, i1 false, null, null, i32 0, metadata !132, i32 2226} ; [ DW_TAG_subprogram ]
!980 = metadata !{i32 786453, i32 0, metadata !"", i32 0, i32 0, i64 0, i64 0, i64 0, i32 0, null, metadata !981, i32 0, i32 0} ; [ DW_TAG_subroutine_type ]
!981 = metadata !{metadata !141, metadata !575, metadata !591, metadata !591, metadata !688, metadata !591, metadata !591}
!982 = metadata !{i32 786478, i32 0, metadata !497, metadata !"compare", metadata !"compare", metadata !"_ZNKSs7compareEPKc", metadata !501, i32 2244, metadata !983, i1 false, i1 false, i32 0, i32 0, null, i32 256, i1 false, null, null, i32 0, metadata !132, i32 2244} ; [ DW_TAG_subprogram ]
!983 = metadata !{i32 786453, i32 0, metadata !"", i32 0, i32 0, i64 0, i64 0, i64 0, i32 0, null, metadata !984, i32 0, i32 0} ; [ DW_TAG_subroutine_type ]
!984 = metadata !{metadata !141, metadata !575, metadata !362}
!985 = metadata !{i32 786478, i32 0, metadata !497, metadata !"compare", metadata !"compare", metadata !"_ZNKSs7compareEmmPKc", metadata !501, i32 2267, metadata !986, i1 false, i1 false, i32 0, i32 0, null, i32 256, i1 false, null, null, i32 0, metadata !132, i32 2267} ; [ DW_TAG_subprogram ]
!986 = metadata !{i32 786453, i32 0, metadata !"", i32 0, i32 0, i64 0, i64 0, i64 0, i32 0, null, metadata !987, i32 0, i32 0} ; [ DW_TAG_subroutine_type ]
!987 = metadata !{metadata !141, metadata !575, metadata !591, metadata !591, metadata !362}
!988 = metadata !{i32 786478, i32 0, metadata !497, metadata !"compare", metadata !"compare", metadata !"_ZNKSs7compareEmmPKcm", metadata !501, i32 2292, metadata !989, i1 false, i1 false, i32 0, i32 0, null, i32 256, i1 false, null, null, i32 0, metadata !132, i32 2292} ; [ DW_TAG_subprogram ]
!989 = metadata !{i32 786453, i32 0, metadata !"", i32 0, i32 0, i64 0, i64 0, i64 0, i32 0, null, metadata !990, i32 0, i32 0} ; [ DW_TAG_subroutine_type ]
!990 = metadata !{metadata !141, metadata !575, metadata !591, metadata !591, metadata !362, metadata !591}
!991 = metadata !{metadata !992, metadata !993, metadata !1046}
!992 = metadata !{i32 786479, null, metadata !"_CharT", metadata !364, null, i32 0, i32 0} ; [ DW_TAG_template_type_parameter ]
!993 = metadata !{i32 786479, null, metadata !"_Traits", metadata !994, null, i32 0, i32 0} ; [ DW_TAG_template_type_parameter ]
!994 = metadata !{i32 786434, metadata !995, metadata !"char_traits<char>", metadata !996, i32 234, i64 8, i64 8, i32 0, i32 0, null, metadata !997, i32 0, null, metadata !1045} ; [ DW_TAG_class_type ]
!995 = metadata !{i32 786489, null, metadata !"std", metadata !996, i32 210} ; [ DW_TAG_namespace ]
!996 = metadata !{i32 786473, metadata !"/home/brennan/Vivado/Vivado/2017.4/lnx64/tools/gcc/lib/gcc/x86_64-unknown-linux-gnu/4.6.3/../../../../include/c++/4.6.3/bits/char_traits.h", metadata !"/home/brennan/Documents/pynq-copter/pynqcopter/ip/pwm", null} ; [ DW_TAG_file_type ]
!997 = metadata !{metadata !998, metadata !1005, metadata !1008, metadata !1009, metadata !1013, metadata !1016, metadata !1019, metadata !1023, metadata !1024, metadata !1027, metadata !1033, metadata !1036, metadata !1039, metadata !1042}
!998 = metadata !{i32 786478, i32 0, metadata !994, metadata !"assign", metadata !"assign", metadata !"_ZNSt11char_traitsIcE6assignERcRKc", metadata !996, i32 243, metadata !999, i1 false, i1 false, i32 0, i32 0, null, i32 256, i1 false, null, null, i32 0, metadata !132, i32 243} ; [ DW_TAG_subprogram ]
!999 = metadata !{i32 786453, i32 0, metadata !"", i32 0, i32 0, i64 0, i64 0, i64 0, i32 0, null, metadata !1000, i32 0, i32 0} ; [ DW_TAG_subroutine_type ]
!1000 = metadata !{null, metadata !1001, metadata !1003}
!1001 = metadata !{i32 786448, null, null, null, i32 0, i64 0, i64 0, i64 0, i32 0, metadata !1002} ; [ DW_TAG_reference_type ]
!1002 = metadata !{i32 786454, metadata !994, metadata !"char_type", metadata !996, i32 236, i64 0, i64 0, i64 0, i32 0, metadata !364} ; [ DW_TAG_typedef ]
!1003 = metadata !{i32 786448, null, null, null, i32 0, i64 0, i64 0, i64 0, i32 0, metadata !1004} ; [ DW_TAG_reference_type ]
!1004 = metadata !{i32 786470, null, metadata !"", null, i32 0, i64 0, i64 0, i64 0, i32 0, metadata !1002} ; [ DW_TAG_const_type ]
!1005 = metadata !{i32 786478, i32 0, metadata !994, metadata !"eq", metadata !"eq", metadata !"_ZNSt11char_traitsIcE2eqERKcS2_", metadata !996, i32 247, metadata !1006, i1 false, i1 false, i32 0, i32 0, null, i32 256, i1 false, null, null, i32 0, metadata !132, i32 247} ; [ DW_TAG_subprogram ]
!1006 = metadata !{i32 786453, i32 0, metadata !"", i32 0, i32 0, i64 0, i64 0, i64 0, i32 0, null, metadata !1007, i32 0, i32 0} ; [ DW_TAG_subroutine_type ]
!1007 = metadata !{metadata !143, metadata !1003, metadata !1003}
!1008 = metadata !{i32 786478, i32 0, metadata !994, metadata !"lt", metadata !"lt", metadata !"_ZNSt11char_traitsIcE2ltERKcS2_", metadata !996, i32 251, metadata !1006, i1 false, i1 false, i32 0, i32 0, null, i32 256, i1 false, null, null, i32 0, metadata !132, i32 251} ; [ DW_TAG_subprogram ]
!1009 = metadata !{i32 786478, i32 0, metadata !994, metadata !"compare", metadata !"compare", metadata !"_ZNSt11char_traitsIcE7compareEPKcS2_m", metadata !996, i32 255, metadata !1010, i1 false, i1 false, i32 0, i32 0, null, i32 256, i1 false, null, null, i32 0, metadata !132, i32 255} ; [ DW_TAG_subprogram ]
!1010 = metadata !{i32 786453, i32 0, metadata !"", i32 0, i32 0, i64 0, i64 0, i64 0, i32 0, null, metadata !1011, i32 0, i32 0} ; [ DW_TAG_subroutine_type ]
!1011 = metadata !{metadata !141, metadata !1012, metadata !1012, metadata !329}
!1012 = metadata !{i32 786447, null, metadata !"", null, i32 0, i64 64, i64 64, i64 0, i32 0, metadata !1004} ; [ DW_TAG_pointer_type ]
!1013 = metadata !{i32 786478, i32 0, metadata !994, metadata !"length", metadata !"length", metadata !"_ZNSt11char_traitsIcE6lengthEPKc", metadata !996, i32 259, metadata !1014, i1 false, i1 false, i32 0, i32 0, null, i32 256, i1 false, null, null, i32 0, metadata !132, i32 259} ; [ DW_TAG_subprogram ]
!1014 = metadata !{i32 786453, i32 0, metadata !"", i32 0, i32 0, i64 0, i64 0, i64 0, i32 0, null, metadata !1015, i32 0, i32 0} ; [ DW_TAG_subroutine_type ]
!1015 = metadata !{metadata !329, metadata !1012}
!1016 = metadata !{i32 786478, i32 0, metadata !994, metadata !"find", metadata !"find", metadata !"_ZNSt11char_traitsIcE4findEPKcmRS1_", metadata !996, i32 263, metadata !1017, i1 false, i1 false, i32 0, i32 0, null, i32 256, i1 false, null, null, i32 0, metadata !132, i32 263} ; [ DW_TAG_subprogram ]
!1017 = metadata !{i32 786453, i32 0, metadata !"", i32 0, i32 0, i64 0, i64 0, i64 0, i32 0, null, metadata !1018, i32 0, i32 0} ; [ DW_TAG_subroutine_type ]
!1018 = metadata !{metadata !1012, metadata !1012, metadata !329, metadata !1003}
!1019 = metadata !{i32 786478, i32 0, metadata !994, metadata !"move", metadata !"move", metadata !"_ZNSt11char_traitsIcE4moveEPcPKcm", metadata !996, i32 267, metadata !1020, i1 false, i1 false, i32 0, i32 0, null, i32 256, i1 false, null, null, i32 0, metadata !132, i32 267} ; [ DW_TAG_subprogram ]
!1020 = metadata !{i32 786453, i32 0, metadata !"", i32 0, i32 0, i64 0, i64 0, i64 0, i32 0, null, metadata !1021, i32 0, i32 0} ; [ DW_TAG_subroutine_type ]
!1021 = metadata !{metadata !1022, metadata !1022, metadata !1012, metadata !329}
!1022 = metadata !{i32 786447, null, metadata !"", null, i32 0, i64 64, i64 64, i64 0, i32 0, metadata !1002} ; [ DW_TAG_pointer_type ]
!1023 = metadata !{i32 786478, i32 0, metadata !994, metadata !"copy", metadata !"copy", metadata !"_ZNSt11char_traitsIcE4copyEPcPKcm", metadata !996, i32 271, metadata !1020, i1 false, i1 false, i32 0, i32 0, null, i32 256, i1 false, null, null, i32 0, metadata !132, i32 271} ; [ DW_TAG_subprogram ]
!1024 = metadata !{i32 786478, i32 0, metadata !994, metadata !"assign", metadata !"assign", metadata !"_ZNSt11char_traitsIcE6assignEPcmc", metadata !996, i32 275, metadata !1025, i1 false, i1 false, i32 0, i32 0, null, i32 256, i1 false, null, null, i32 0, metadata !132, i32 275} ; [ DW_TAG_subprogram ]
!1025 = metadata !{i32 786453, i32 0, metadata !"", i32 0, i32 0, i64 0, i64 0, i64 0, i32 0, null, metadata !1026, i32 0, i32 0} ; [ DW_TAG_subroutine_type ]
!1026 = metadata !{metadata !1022, metadata !1022, metadata !329, metadata !1002}
!1027 = metadata !{i32 786478, i32 0, metadata !994, metadata !"to_char_type", metadata !"to_char_type", metadata !"_ZNSt11char_traitsIcE12to_char_typeERKi", metadata !996, i32 279, metadata !1028, i1 false, i1 false, i32 0, i32 0, null, i32 256, i1 false, null, null, i32 0, metadata !132, i32 279} ; [ DW_TAG_subprogram ]
!1028 = metadata !{i32 786453, i32 0, metadata !"", i32 0, i32 0, i64 0, i64 0, i64 0, i32 0, null, metadata !1029, i32 0, i32 0} ; [ DW_TAG_subroutine_type ]
!1029 = metadata !{metadata !1002, metadata !1030}
!1030 = metadata !{i32 786448, null, null, null, i32 0, i64 0, i64 0, i64 0, i32 0, metadata !1031} ; [ DW_TAG_reference_type ]
!1031 = metadata !{i32 786470, null, metadata !"", null, i32 0, i64 0, i64 0, i64 0, i32 0, metadata !1032} ; [ DW_TAG_const_type ]
!1032 = metadata !{i32 786454, metadata !994, metadata !"int_type", metadata !996, i32 237, i64 0, i64 0, i64 0, i32 0, metadata !141} ; [ DW_TAG_typedef ]
!1033 = metadata !{i32 786478, i32 0, metadata !994, metadata !"to_int_type", metadata !"to_int_type", metadata !"_ZNSt11char_traitsIcE11to_int_typeERKc", metadata !996, i32 285, metadata !1034, i1 false, i1 false, i32 0, i32 0, null, i32 256, i1 false, null, null, i32 0, metadata !132, i32 285} ; [ DW_TAG_subprogram ]
!1034 = metadata !{i32 786453, i32 0, metadata !"", i32 0, i32 0, i64 0, i64 0, i64 0, i32 0, null, metadata !1035, i32 0, i32 0} ; [ DW_TAG_subroutine_type ]
!1035 = metadata !{metadata !1032, metadata !1003}
!1036 = metadata !{i32 786478, i32 0, metadata !994, metadata !"eq_int_type", metadata !"eq_int_type", metadata !"_ZNSt11char_traitsIcE11eq_int_typeERKiS2_", metadata !996, i32 289, metadata !1037, i1 false, i1 false, i32 0, i32 0, null, i32 256, i1 false, null, null, i32 0, metadata !132, i32 289} ; [ DW_TAG_subprogram ]
!1037 = metadata !{i32 786453, i32 0, metadata !"", i32 0, i32 0, i64 0, i64 0, i64 0, i32 0, null, metadata !1038, i32 0, i32 0} ; [ DW_TAG_subroutine_type ]
!1038 = metadata !{metadata !143, metadata !1030, metadata !1030}
!1039 = metadata !{i32 786478, i32 0, metadata !994, metadata !"eof", metadata !"eof", metadata !"_ZNSt11char_traitsIcE3eofEv", metadata !996, i32 293, metadata !1040, i1 false, i1 false, i32 0, i32 0, null, i32 256, i1 false, null, null, i32 0, metadata !132, i32 293} ; [ DW_TAG_subprogram ]
!1040 = metadata !{i32 786453, i32 0, metadata !"", i32 0, i32 0, i64 0, i64 0, i64 0, i32 0, null, metadata !1041, i32 0, i32 0} ; [ DW_TAG_subroutine_type ]
!1041 = metadata !{metadata !1032}
!1042 = metadata !{i32 786478, i32 0, metadata !994, metadata !"not_eof", metadata !"not_eof", metadata !"_ZNSt11char_traitsIcE7not_eofERKi", metadata !996, i32 297, metadata !1043, i1 false, i1 false, i32 0, i32 0, null, i32 256, i1 false, null, null, i32 0, metadata !132, i32 297} ; [ DW_TAG_subprogram ]
!1043 = metadata !{i32 786453, i32 0, metadata !"", i32 0, i32 0, i64 0, i64 0, i64 0, i32 0, null, metadata !1044, i32 0, i32 0} ; [ DW_TAG_subroutine_type ]
!1044 = metadata !{metadata !1032, metadata !1030}
!1045 = metadata !{metadata !992}
!1046 = metadata !{i32 786479, null, metadata !"_Alloc", metadata !505, null, i32 0, i32 0} ; [ DW_TAG_template_type_parameter ]
!1047 = metadata !{i32 786447, i32 0, metadata !"", i32 0, i32 0, i64 64, i64 64, i64 0, i32 64, metadata !477} ; [ DW_TAG_pointer_type ]
!1048 = metadata !{i32 786478, i32 0, metadata !305, metadata !"operator==", metadata !"operator==", metadata !"_ZNKSt6localeeqERKS_", metadata !307, i32 226, metadata !1049, i1 false, i1 false, i32 0, i32 0, null, i32 256, i1 false, null, null, i32 0, metadata !132, i32 226} ; [ DW_TAG_subprogram ]
!1049 = metadata !{i32 786453, i32 0, metadata !"", i32 0, i32 0, i64 0, i64 0, i64 0, i32 0, null, metadata !1050, i32 0, i32 0} ; [ DW_TAG_subroutine_type ]
!1050 = metadata !{metadata !143, metadata !1047, metadata !476}
!1051 = metadata !{i32 786478, i32 0, metadata !305, metadata !"operator!=", metadata !"operator!=", metadata !"_ZNKSt6localeneERKS_", metadata !307, i32 235, metadata !1049, i1 false, i1 false, i32 0, i32 0, null, i32 256, i1 false, null, null, i32 0, metadata !132, i32 235} ; [ DW_TAG_subprogram ]
!1052 = metadata !{i32 786478, i32 0, metadata !305, metadata !"global", metadata !"global", metadata !"_ZNSt6locale6globalERKS_", metadata !307, i32 270, metadata !1053, i1 false, i1 false, i32 0, i32 0, null, i32 256, i1 false, null, null, i32 0, metadata !132, i32 270} ; [ DW_TAG_subprogram ]
!1053 = metadata !{i32 786453, i32 0, metadata !"", i32 0, i32 0, i64 0, i64 0, i64 0, i32 0, null, metadata !1054, i32 0, i32 0} ; [ DW_TAG_subroutine_type ]
!1054 = metadata !{metadata !305, metadata !476}
!1055 = metadata !{i32 786478, i32 0, metadata !305, metadata !"classic", metadata !"classic", metadata !"_ZNSt6locale7classicEv", metadata !307, i32 276, metadata !1056, i1 false, i1 false, i32 0, i32 0, null, i32 256, i1 false, null, null, i32 0, metadata !132, i32 276} ; [ DW_TAG_subprogram ]
!1056 = metadata !{i32 786453, i32 0, metadata !"", i32 0, i32 0, i64 0, i64 0, i64 0, i32 0, null, metadata !1057, i32 0, i32 0} ; [ DW_TAG_subroutine_type ]
!1057 = metadata !{metadata !476}
!1058 = metadata !{i32 786478, i32 0, metadata !305, metadata !"locale", metadata !"locale", metadata !"", metadata !307, i32 311, metadata !1059, i1 false, i1 false, i32 0, i32 0, null, i32 385, i1 false, null, null, i32 0, metadata !132, i32 311} ; [ DW_TAG_subprogram ]
!1059 = metadata !{i32 786453, i32 0, metadata !"", i32 0, i32 0, i64 0, i64 0, i64 0, i32 0, null, metadata !1060, i32 0, i32 0} ; [ DW_TAG_subroutine_type ]
!1060 = metadata !{null, metadata !472, metadata !310}
!1061 = metadata !{i32 786478, i32 0, metadata !305, metadata !"_S_initialize", metadata !"_S_initialize", metadata !"_ZNSt6locale13_S_initializeEv", metadata !307, i32 314, metadata !323, i1 false, i1 false, i32 0, i32 0, null, i32 257, i1 false, null, null, i32 0, metadata !132, i32 314} ; [ DW_TAG_subprogram ]
!1062 = metadata !{i32 786478, i32 0, metadata !305, metadata !"_S_initialize_once", metadata !"_S_initialize_once", metadata !"_ZNSt6locale18_S_initialize_onceEv", metadata !307, i32 317, metadata !323, i1 false, i1 false, i32 0, i32 0, null, i32 257, i1 false, null, null, i32 0, metadata !132, i32 317} ; [ DW_TAG_subprogram ]
!1063 = metadata !{i32 786478, i32 0, metadata !305, metadata !"_S_normalize_category", metadata !"_S_normalize_category", metadata !"_ZNSt6locale21_S_normalize_categoryEi", metadata !307, i32 320, metadata !1064, i1 false, i1 false, i32 0, i32 0, null, i32 257, i1 false, null, null, i32 0, metadata !132, i32 320} ; [ DW_TAG_subprogram ]
!1064 = metadata !{i32 786453, i32 0, metadata !"", i32 0, i32 0, i64 0, i64 0, i64 0, i32 0, null, metadata !1065, i32 0, i32 0} ; [ DW_TAG_subroutine_type ]
!1065 = metadata !{metadata !432, metadata !432}
!1066 = metadata !{i32 786478, i32 0, metadata !305, metadata !"_M_coalesce", metadata !"_M_coalesce", metadata !"_ZNSt6locale11_M_coalesceERKS_S1_i", metadata !307, i32 323, metadata !485, i1 false, i1 false, i32 0, i32 0, null, i32 257, i1 false, null, null, i32 0, metadata !132, i32 323} ; [ DW_TAG_subprogram ]
!1067 = metadata !{i32 786474, metadata !305, null, metadata !307, i32 0, i64 0, i64 0, i64 0, i32 0, metadata !311} ; [ DW_TAG_friend ]
!1068 = metadata !{i32 786474, metadata !305, null, metadata !307, i32 0, i64 0, i64 0, i64 0, i32 0, metadata !318} ; [ DW_TAG_friend ]
!1069 = metadata !{i32 786478, i32 0, metadata !207, metadata !"register_callback", metadata !"register_callback", metadata !"_ZNSt8ios_base17register_callbackEPFvNS_5eventERS_iEi", metadata !209, i32 450, metadata !1070, i1 false, i1 false, i32 0, i32 0, null, i32 256, i1 false, null, null, i32 0, metadata !132, i32 450} ; [ DW_TAG_subprogram ]
!1070 = metadata !{i32 786453, i32 0, metadata !"", i32 0, i32 0, i64 0, i64 0, i64 0, i32 0, null, metadata !1071, i32 0, i32 0} ; [ DW_TAG_subroutine_type ]
!1071 = metadata !{null, metadata !1072, metadata !264, metadata !141}
!1072 = metadata !{i32 786447, i32 0, metadata !"", i32 0, i32 0, i64 64, i64 64, i64 0, i32 64, metadata !207} ; [ DW_TAG_pointer_type ]
!1073 = metadata !{i32 786478, i32 0, metadata !207, metadata !"_M_call_callbacks", metadata !"_M_call_callbacks", metadata !"_ZNSt8ios_base17_M_call_callbacksENS_5eventE", metadata !209, i32 494, metadata !1074, i1 false, i1 false, i32 0, i32 0, null, i32 258, i1 false, null, null, i32 0, metadata !132, i32 494} ; [ DW_TAG_subprogram ]
!1074 = metadata !{i32 786453, i32 0, metadata !"", i32 0, i32 0, i64 0, i64 0, i64 0, i32 0, null, metadata !1075, i32 0, i32 0} ; [ DW_TAG_subroutine_type ]
!1075 = metadata !{null, metadata !1072, metadata !268}
!1076 = metadata !{i32 786478, i32 0, metadata !207, metadata !"_M_dispose_callbacks", metadata !"_M_dispose_callbacks", metadata !"_ZNSt8ios_base20_M_dispose_callbacksEv", metadata !209, i32 497, metadata !1077, i1 false, i1 false, i32 0, i32 0, null, i32 258, i1 false, null, null, i32 0, metadata !132, i32 497} ; [ DW_TAG_subprogram ]
!1077 = metadata !{i32 786453, i32 0, metadata !"", i32 0, i32 0, i64 0, i64 0, i64 0, i32 0, null, metadata !1078, i32 0, i32 0} ; [ DW_TAG_subroutine_type ]
!1078 = metadata !{null, metadata !1072}
!1079 = metadata !{i32 786478, i32 0, metadata !207, metadata !"_M_grow_words", metadata !"_M_grow_words", metadata !"_ZNSt8ios_base13_M_grow_wordsEib", metadata !209, i32 520, metadata !1080, i1 false, i1 false, i32 0, i32 0, null, i32 258, i1 false, null, null, i32 0, metadata !132, i32 520} ; [ DW_TAG_subprogram ]
!1080 = metadata !{i32 786453, i32 0, metadata !"", i32 0, i32 0, i64 0, i64 0, i64 0, i32 0, null, metadata !1081, i32 0, i32 0} ; [ DW_TAG_subroutine_type ]
!1081 = metadata !{metadata !1082, metadata !1072, metadata !141, metadata !143}
!1082 = metadata !{i32 786448, null, null, null, i32 0, i64 0, i64 0, i64 0, i32 0, metadata !288} ; [ DW_TAG_reference_type ]
!1083 = metadata !{i32 786478, i32 0, metadata !207, metadata !"_M_init", metadata !"_M_init", metadata !"_ZNSt8ios_base7_M_initEv", metadata !209, i32 526, metadata !1077, i1 false, i1 false, i32 0, i32 0, null, i32 258, i1 false, null, null, i32 0, metadata !132, i32 526} ; [ DW_TAG_subprogram ]
!1084 = metadata !{i32 786478, i32 0, metadata !207, metadata !"flags", metadata !"flags", metadata !"_ZNKSt8ios_base5flagsEv", metadata !209, i32 552, metadata !1085, i1 false, i1 false, i32 0, i32 0, null, i32 256, i1 false, null, null, i32 0, metadata !132, i32 552} ; [ DW_TAG_subprogram ]
!1085 = metadata !{i32 786453, i32 0, metadata !"", i32 0, i32 0, i64 0, i64 0, i64 0, i32 0, null, metadata !1086, i32 0, i32 0} ; [ DW_TAG_subroutine_type ]
!1086 = metadata !{metadata !226, metadata !1087}
!1087 = metadata !{i32 786447, i32 0, metadata !"", i32 0, i32 0, i64 64, i64 64, i64 0, i32 64, metadata !1088} ; [ DW_TAG_pointer_type ]
!1088 = metadata !{i32 786470, null, metadata !"", null, i32 0, i64 0, i64 0, i64 0, i32 0, metadata !207} ; [ DW_TAG_const_type ]
!1089 = metadata !{i32 786478, i32 0, metadata !207, metadata !"flags", metadata !"flags", metadata !"_ZNSt8ios_base5flagsESt13_Ios_Fmtflags", metadata !209, i32 563, metadata !1090, i1 false, i1 false, i32 0, i32 0, null, i32 256, i1 false, null, null, i32 0, metadata !132, i32 563} ; [ DW_TAG_subprogram ]
!1090 = metadata !{i32 786453, i32 0, metadata !"", i32 0, i32 0, i64 0, i64 0, i64 0, i32 0, null, metadata !1091, i32 0, i32 0} ; [ DW_TAG_subroutine_type ]
!1091 = metadata !{metadata !226, metadata !1072, metadata !226}
!1092 = metadata !{i32 786478, i32 0, metadata !207, metadata !"setf", metadata !"setf", metadata !"_ZNSt8ios_base4setfESt13_Ios_Fmtflags", metadata !209, i32 579, metadata !1090, i1 false, i1 false, i32 0, i32 0, null, i32 256, i1 false, null, null, i32 0, metadata !132, i32 579} ; [ DW_TAG_subprogram ]
!1093 = metadata !{i32 786478, i32 0, metadata !207, metadata !"setf", metadata !"setf", metadata !"_ZNSt8ios_base4setfESt13_Ios_FmtflagsS0_", metadata !209, i32 596, metadata !1094, i1 false, i1 false, i32 0, i32 0, null, i32 256, i1 false, null, null, i32 0, metadata !132, i32 596} ; [ DW_TAG_subprogram ]
!1094 = metadata !{i32 786453, i32 0, metadata !"", i32 0, i32 0, i64 0, i64 0, i64 0, i32 0, null, metadata !1095, i32 0, i32 0} ; [ DW_TAG_subroutine_type ]
!1095 = metadata !{metadata !226, metadata !1072, metadata !226, metadata !226}
!1096 = metadata !{i32 786478, i32 0, metadata !207, metadata !"unsetf", metadata !"unsetf", metadata !"_ZNSt8ios_base6unsetfESt13_Ios_Fmtflags", metadata !209, i32 611, metadata !1097, i1 false, i1 false, i32 0, i32 0, null, i32 256, i1 false, null, null, i32 0, metadata !132, i32 611} ; [ DW_TAG_subprogram ]
!1097 = metadata !{i32 786453, i32 0, metadata !"", i32 0, i32 0, i64 0, i64 0, i64 0, i32 0, null, metadata !1098, i32 0, i32 0} ; [ DW_TAG_subroutine_type ]
!1098 = metadata !{null, metadata !1072, metadata !226}
!1099 = metadata !{i32 786478, i32 0, metadata !207, metadata !"precision", metadata !"precision", metadata !"_ZNKSt8ios_base9precisionEv", metadata !209, i32 622, metadata !1100, i1 false, i1 false, i32 0, i32 0, null, i32 256, i1 false, null, null, i32 0, metadata !132, i32 622} ; [ DW_TAG_subprogram ]
!1100 = metadata !{i32 786453, i32 0, metadata !"", i32 0, i32 0, i64 0, i64 0, i64 0, i32 0, null, metadata !1101, i32 0, i32 0} ; [ DW_TAG_subroutine_type ]
!1101 = metadata !{metadata !217, metadata !1087}
!1102 = metadata !{i32 786478, i32 0, metadata !207, metadata !"precision", metadata !"precision", metadata !"_ZNSt8ios_base9precisionEl", metadata !209, i32 631, metadata !1103, i1 false, i1 false, i32 0, i32 0, null, i32 256, i1 false, null, null, i32 0, metadata !132, i32 631} ; [ DW_TAG_subprogram ]
!1103 = metadata !{i32 786453, i32 0, metadata !"", i32 0, i32 0, i64 0, i64 0, i64 0, i32 0, null, metadata !1104, i32 0, i32 0} ; [ DW_TAG_subroutine_type ]
!1104 = metadata !{metadata !217, metadata !1072, metadata !217}
!1105 = metadata !{i32 786478, i32 0, metadata !207, metadata !"width", metadata !"width", metadata !"_ZNKSt8ios_base5widthEv", metadata !209, i32 645, metadata !1100, i1 false, i1 false, i32 0, i32 0, null, i32 256, i1 false, null, null, i32 0, metadata !132, i32 645} ; [ DW_TAG_subprogram ]
!1106 = metadata !{i32 786478, i32 0, metadata !207, metadata !"width", metadata !"width", metadata !"_ZNSt8ios_base5widthEl", metadata !209, i32 654, metadata !1103, i1 false, i1 false, i32 0, i32 0, null, i32 256, i1 false, null, null, i32 0, metadata !132, i32 654} ; [ DW_TAG_subprogram ]
!1107 = metadata !{i32 786478, i32 0, metadata !207, metadata !"sync_with_stdio", metadata !"sync_with_stdio", metadata !"_ZNSt8ios_base15sync_with_stdioEb", metadata !209, i32 673, metadata !1108, i1 false, i1 false, i32 0, i32 0, null, i32 256, i1 false, null, null, i32 0, metadata !132, i32 673} ; [ DW_TAG_subprogram ]
!1108 = metadata !{i32 786453, i32 0, metadata !"", i32 0, i32 0, i64 0, i64 0, i64 0, i32 0, null, metadata !1109, i32 0, i32 0} ; [ DW_TAG_subroutine_type ]
!1109 = metadata !{metadata !143, metadata !143}
!1110 = metadata !{i32 786478, i32 0, metadata !207, metadata !"imbue", metadata !"imbue", metadata !"_ZNSt8ios_base5imbueERKSt6locale", metadata !209, i32 685, metadata !1111, i1 false, i1 false, i32 0, i32 0, null, i32 256, i1 false, null, null, i32 0, metadata !132, i32 685} ; [ DW_TAG_subprogram ]
!1111 = metadata !{i32 786453, i32 0, metadata !"", i32 0, i32 0, i64 0, i64 0, i64 0, i32 0, null, metadata !1112, i32 0, i32 0} ; [ DW_TAG_subroutine_type ]
!1112 = metadata !{metadata !305, metadata !1072, metadata !476}
!1113 = metadata !{i32 786478, i32 0, metadata !207, metadata !"getloc", metadata !"getloc", metadata !"_ZNKSt8ios_base6getlocEv", metadata !209, i32 696, metadata !1114, i1 false, i1 false, i32 0, i32 0, null, i32 256, i1 false, null, null, i32 0, metadata !132, i32 696} ; [ DW_TAG_subprogram ]
!1114 = metadata !{i32 786453, i32 0, metadata !"", i32 0, i32 0, i64 0, i64 0, i64 0, i32 0, null, metadata !1115, i32 0, i32 0} ; [ DW_TAG_subroutine_type ]
!1115 = metadata !{metadata !305, metadata !1087}
!1116 = metadata !{i32 786478, i32 0, metadata !207, metadata !"_M_getloc", metadata !"_M_getloc", metadata !"_ZNKSt8ios_base9_M_getlocEv", metadata !209, i32 707, metadata !1117, i1 false, i1 false, i32 0, i32 0, null, i32 256, i1 false, null, null, i32 0, metadata !132, i32 707} ; [ DW_TAG_subprogram ]
!1117 = metadata !{i32 786453, i32 0, metadata !"", i32 0, i32 0, i64 0, i64 0, i64 0, i32 0, null, metadata !1118, i32 0, i32 0} ; [ DW_TAG_subroutine_type ]
!1118 = metadata !{metadata !476, metadata !1087}
!1119 = metadata !{i32 786478, i32 0, metadata !207, metadata !"xalloc", metadata !"xalloc", metadata !"_ZNSt8ios_base6xallocEv", metadata !209, i32 726, metadata !214, i1 false, i1 false, i32 0, i32 0, null, i32 256, i1 false, null, null, i32 0, metadata !132, i32 726} ; [ DW_TAG_subprogram ]
!1120 = metadata !{i32 786478, i32 0, metadata !207, metadata !"iword", metadata !"iword", metadata !"_ZNSt8ios_base5iwordEi", metadata !209, i32 742, metadata !1121, i1 false, i1 false, i32 0, i32 0, null, i32 256, i1 false, null, null, i32 0, metadata !132, i32 742} ; [ DW_TAG_subprogram ]
!1121 = metadata !{i32 786453, i32 0, metadata !"", i32 0, i32 0, i64 0, i64 0, i64 0, i32 0, null, metadata !1122, i32 0, i32 0} ; [ DW_TAG_subroutine_type ]
!1122 = metadata !{metadata !1123, metadata !1072, metadata !141}
!1123 = metadata !{i32 786448, null, null, null, i32 0, i64 0, i64 0, i64 0, i32 0, metadata !223} ; [ DW_TAG_reference_type ]
!1124 = metadata !{i32 786478, i32 0, metadata !207, metadata !"pword", metadata !"pword", metadata !"_ZNSt8ios_base5pwordEi", metadata !209, i32 763, metadata !1125, i1 false, i1 false, i32 0, i32 0, null, i32 256, i1 false, null, null, i32 0, metadata !132, i32 763} ; [ DW_TAG_subprogram ]
!1125 = metadata !{i32 786453, i32 0, metadata !"", i32 0, i32 0, i64 0, i64 0, i64 0, i32 0, null, metadata !1126, i32 0, i32 0} ; [ DW_TAG_subroutine_type ]
!1126 = metadata !{metadata !1127, metadata !1072, metadata !141}
!1127 = metadata !{i32 786448, null, null, null, i32 0, i64 0, i64 0, i64 0, i32 0, metadata !291} ; [ DW_TAG_reference_type ]
!1128 = metadata !{i32 786478, i32 0, metadata !207, metadata !"~ios_base", metadata !"~ios_base", metadata !"", metadata !209, i32 779, metadata !1077, i1 false, i1 false, i32 1, i32 0, metadata !207, i32 256, i1 false, null, null, i32 0, metadata !132, i32 779} ; [ DW_TAG_subprogram ]
!1129 = metadata !{i32 786478, i32 0, metadata !207, metadata !"ios_base", metadata !"ios_base", metadata !"", metadata !209, i32 782, metadata !1077, i1 false, i1 false, i32 0, i32 0, null, i32 258, i1 false, null, null, i32 0, metadata !132, i32 782} ; [ DW_TAG_subprogram ]
!1130 = metadata !{i32 786478, i32 0, metadata !207, metadata !"ios_base", metadata !"ios_base", metadata !"", metadata !209, i32 787, metadata !1131, i1 false, i1 false, i32 0, i32 0, null, i32 257, i1 false, null, null, i32 0, metadata !132, i32 787} ; [ DW_TAG_subprogram ]
!1131 = metadata !{i32 786453, i32 0, metadata !"", i32 0, i32 0, i64 0, i64 0, i64 0, i32 0, null, metadata !1132, i32 0, i32 0} ; [ DW_TAG_subroutine_type ]
!1132 = metadata !{null, metadata !1072, metadata !1133}
!1133 = metadata !{i32 786448, null, null, null, i32 0, i64 0, i64 0, i64 0, i32 0, metadata !1088} ; [ DW_TAG_reference_type ]
!1134 = metadata !{i32 786478, i32 0, metadata !207, metadata !"operator=", metadata !"operator=", metadata !"_ZNSt8ios_baseaSERKS_", metadata !209, i32 790, metadata !1135, i1 false, i1 false, i32 0, i32 0, null, i32 257, i1 false, null, null, i32 0, metadata !132, i32 790} ; [ DW_TAG_subprogram ]
!1135 = metadata !{i32 786453, i32 0, metadata !"", i32 0, i32 0, i64 0, i64 0, i64 0, i32 0, null, metadata !1136, i32 0, i32 0} ; [ DW_TAG_subroutine_type ]
!1136 = metadata !{metadata !273, metadata !1072, metadata !1133}
!1137 = metadata !{i32 786470, null, metadata !"", null, i32 0, i64 0, i64 0, i64 0, i32 0, metadata !226} ; [ DW_TAG_const_type ]
!1138 = metadata !{i32 786484, i32 0, metadata !207, metadata !"dec", metadata !"dec", metadata !"dec", metadata !209, i32 262, metadata !1137, i32 1, i32 1, i17 2} ; [ DW_TAG_variable ]
!1139 = metadata !{i32 786484, i32 0, metadata !207, metadata !"fixed", metadata !"fixed", metadata !"fixed", metadata !209, i32 265, metadata !1137, i32 1, i32 1, i17 4} ; [ DW_TAG_variable ]
!1140 = metadata !{i32 786484, i32 0, metadata !207, metadata !"hex", metadata !"hex", metadata !"hex", metadata !209, i32 268, metadata !1137, i32 1, i32 1, i17 8} ; [ DW_TAG_variable ]
!1141 = metadata !{i32 786484, i32 0, metadata !207, metadata !"internal", metadata !"internal", metadata !"internal", metadata !209, i32 273, metadata !1137, i32 1, i32 1, i17 16} ; [ DW_TAG_variable ]
!1142 = metadata !{i32 786484, i32 0, metadata !207, metadata !"left", metadata !"left", metadata !"left", metadata !209, i32 277, metadata !1137, i32 1, i32 1, i17 32} ; [ DW_TAG_variable ]
!1143 = metadata !{i32 786484, i32 0, metadata !207, metadata !"oct", metadata !"oct", metadata !"oct", metadata !209, i32 280, metadata !1137, i32 1, i32 1, i17 64} ; [ DW_TAG_variable ]
!1144 = metadata !{i32 786484, i32 0, metadata !207, metadata !"right", metadata !"right", metadata !"right", metadata !209, i32 284, metadata !1137, i32 1, i32 1, i17 128} ; [ DW_TAG_variable ]
!1145 = metadata !{i32 786484, i32 0, metadata !207, metadata !"scientific", metadata !"scientific", metadata !"scientific", metadata !209, i32 287, metadata !1137, i32 1, i32 1, i17 256} ; [ DW_TAG_variable ]
!1146 = metadata !{i32 786484, i32 0, metadata !207, metadata !"showbase", metadata !"showbase", metadata !"showbase", metadata !209, i32 291, metadata !1137, i32 1, i32 1, i17 512} ; [ DW_TAG_variable ]
!1147 = metadata !{i32 786484, i32 0, metadata !207, metadata !"showpoint", metadata !"showpoint", metadata !"showpoint", metadata !209, i32 295, metadata !1137, i32 1, i32 1, i17 1024} ; [ DW_TAG_variable ]
!1148 = metadata !{i32 786484, i32 0, metadata !207, metadata !"showpos", metadata !"showpos", metadata !"showpos", metadata !209, i32 298, metadata !1137, i32 1, i32 1, i17 2048} ; [ DW_TAG_variable ]
!1149 = metadata !{i32 786484, i32 0, metadata !207, metadata !"skipws", metadata !"skipws", metadata !"skipws", metadata !209, i32 301, metadata !1137, i32 1, i32 1, i17 4096} ; [ DW_TAG_variable ]
!1150 = metadata !{i32 786484, i32 0, metadata !207, metadata !"unitbuf", metadata !"unitbuf", metadata !"unitbuf", metadata !209, i32 304, metadata !1137, i32 1, i32 1, i17 8192} ; [ DW_TAG_variable ]
!1151 = metadata !{i32 786484, i32 0, metadata !207, metadata !"uppercase", metadata !"uppercase", metadata !"uppercase", metadata !209, i32 308, metadata !1137, i32 1, i32 1, i17 16384} ; [ DW_TAG_variable ]
!1152 = metadata !{i32 786484, i32 0, metadata !207, metadata !"adjustfield", metadata !"adjustfield", metadata !"adjustfield", metadata !209, i32 311, metadata !1137, i32 1, i32 1, i17 176} ; [ DW_TAG_variable ]
!1153 = metadata !{i32 786484, i32 0, metadata !207, metadata !"basefield", metadata !"basefield", metadata !"basefield", metadata !209, i32 314, metadata !1137, i32 1, i32 1, i17 74} ; [ DW_TAG_variable ]
!1154 = metadata !{i32 786484, i32 0, metadata !207, metadata !"floatfield", metadata !"floatfield", metadata !"floatfield", metadata !209, i32 317, metadata !1137, i32 1, i32 1, i17 260} ; [ DW_TAG_variable ]
!1155 = metadata !{i32 786484, i32 0, metadata !207, metadata !"badbit", metadata !"badbit", metadata !"badbit", metadata !209, i32 335, metadata !1156, i32 1, i32 1, i17 1} ; [ DW_TAG_variable ]
!1156 = metadata !{i32 786470, null, metadata !"", null, i32 0, i64 0, i64 0, i64 0, i32 0, metadata !249} ; [ DW_TAG_const_type ]
!1157 = metadata !{i32 786484, i32 0, metadata !207, metadata !"eofbit", metadata !"eofbit", metadata !"eofbit", metadata !209, i32 338, metadata !1156, i32 1, i32 1, i17 2} ; [ DW_TAG_variable ]
!1158 = metadata !{i32 786484, i32 0, metadata !207, metadata !"failbit", metadata !"failbit", metadata !"failbit", metadata !209, i32 343, metadata !1156, i32 1, i32 1, i17 4} ; [ DW_TAG_variable ]
!1159 = metadata !{i32 786484, i32 0, metadata !207, metadata !"goodbit", metadata !"goodbit", metadata !"goodbit", metadata !209, i32 346, metadata !1156, i32 1, i32 1, i17 0} ; [ DW_TAG_variable ]
!1160 = metadata !{i32 786484, i32 0, metadata !207, metadata !"app", metadata !"app", metadata !"app", metadata !209, i32 365, metadata !1161, i32 1, i32 1, i17 1} ; [ DW_TAG_variable ]
!1161 = metadata !{i32 786470, null, metadata !"", null, i32 0, i64 0, i64 0, i64 0, i32 0, metadata !1162} ; [ DW_TAG_const_type ]
!1162 = metadata !{i32 786454, metadata !207, metadata !"openmode", metadata !209, i32 362, i64 0, i64 0, i64 0, i32 0, metadata !1163} ; [ DW_TAG_typedef ]
!1163 = metadata !{i32 786436, metadata !208, metadata !"_Ios_Openmode", metadata !209, i32 104, i64 17, i64 32, i32 0, i32 0, null, metadata !1164, i32 0, i32 0} ; [ DW_TAG_enumeration_type ]
!1164 = metadata !{metadata !1165, metadata !1166, metadata !1167, metadata !1168, metadata !1169, metadata !1170, metadata !1171}
!1165 = metadata !{i32 786472, metadata !"_S_app", i64 1} ; [ DW_TAG_enumerator ]
!1166 = metadata !{i32 786472, metadata !"_S_ate", i64 2} ; [ DW_TAG_enumerator ]
!1167 = metadata !{i32 786472, metadata !"_S_bin", i64 4} ; [ DW_TAG_enumerator ]
!1168 = metadata !{i32 786472, metadata !"_S_in", i64 8} ; [ DW_TAG_enumerator ]
!1169 = metadata !{i32 786472, metadata !"_S_out", i64 16} ; [ DW_TAG_enumerator ]
!1170 = metadata !{i32 786472, metadata !"_S_trunc", i64 32} ; [ DW_TAG_enumerator ]
!1171 = metadata !{i32 786472, metadata !"_S_ios_openmode_end", i64 65536} ; [ DW_TAG_enumerator ]
!1172 = metadata !{i32 786484, i32 0, metadata !207, metadata !"ate", metadata !"ate", metadata !"ate", metadata !209, i32 368, metadata !1161, i32 1, i32 1, i17 2} ; [ DW_TAG_variable ]
!1173 = metadata !{i32 786484, i32 0, metadata !207, metadata !"binary", metadata !"binary", metadata !"binary", metadata !209, i32 373, metadata !1161, i32 1, i32 1, i17 4} ; [ DW_TAG_variable ]
!1174 = metadata !{i32 786484, i32 0, metadata !207, metadata !"in", metadata !"in", metadata !"in", metadata !209, i32 376, metadata !1161, i32 1, i32 1, i17 8} ; [ DW_TAG_variable ]
!1175 = metadata !{i32 786484, i32 0, metadata !207, metadata !"out", metadata !"out", metadata !"out", metadata !209, i32 379, metadata !1161, i32 1, i32 1, i17 16} ; [ DW_TAG_variable ]
!1176 = metadata !{i32 786484, i32 0, metadata !207, metadata !"trunc", metadata !"trunc", metadata !"trunc", metadata !209, i32 382, metadata !1161, i32 1, i32 1, i17 32} ; [ DW_TAG_variable ]
!1177 = metadata !{i32 786484, i32 0, metadata !207, metadata !"beg", metadata !"beg", metadata !"beg", metadata !209, i32 397, metadata !1178, i32 1, i32 1, i17 0} ; [ DW_TAG_variable ]
!1178 = metadata !{i32 786470, null, metadata !"", null, i32 0, i64 0, i64 0, i64 0, i32 0, metadata !1179} ; [ DW_TAG_const_type ]
!1179 = metadata !{i32 786454, metadata !207, metadata !"seekdir", metadata !209, i32 394, i64 0, i64 0, i64 0, i32 0, metadata !1180} ; [ DW_TAG_typedef ]
!1180 = metadata !{i32 786436, metadata !208, metadata !"_Ios_Seekdir", metadata !209, i32 182, i64 17, i64 32, i32 0, i32 0, null, metadata !1181, i32 0, i32 0} ; [ DW_TAG_enumeration_type ]
!1181 = metadata !{metadata !1182, metadata !1183, metadata !1184, metadata !1185}
!1182 = metadata !{i32 786472, metadata !"_S_beg", i64 0} ; [ DW_TAG_enumerator ]
!1183 = metadata !{i32 786472, metadata !"_S_cur", i64 1} ; [ DW_TAG_enumerator ]
!1184 = metadata !{i32 786472, metadata !"_S_end", i64 2} ; [ DW_TAG_enumerator ]
!1185 = metadata !{i32 786472, metadata !"_S_ios_seekdir_end", i64 65536} ; [ DW_TAG_enumerator ]
!1186 = metadata !{i32 786484, i32 0, metadata !207, metadata !"cur", metadata !"cur", metadata !"cur", metadata !209, i32 400, metadata !1178, i32 1, i32 1, i17 1} ; [ DW_TAG_variable ]
!1187 = metadata !{i32 786484, i32 0, metadata !207, metadata !"end", metadata !"end", metadata !"end", metadata !209, i32 403, metadata !1178, i32 1, i32 1, i17 2} ; [ DW_TAG_variable ]
!1188 = metadata !{i32 786484, i32 0, metadata !305, metadata !"none", metadata !"none", metadata !"none", metadata !307, i32 99, metadata !1189, i32 1, i32 1, i32 0} ; [ DW_TAG_variable ]
!1189 = metadata !{i32 786470, null, metadata !"", null, i32 0, i64 0, i64 0, i64 0, i32 0, metadata !432} ; [ DW_TAG_const_type ]
!1190 = metadata !{i32 786484, i32 0, metadata !305, metadata !"ctype", metadata !"ctype", metadata !"ctype", metadata !307, i32 100, metadata !1189, i32 1, i32 1, i32 1} ; [ DW_TAG_variable ]
!1191 = metadata !{i32 786484, i32 0, metadata !305, metadata !"numeric", metadata !"numeric", metadata !"numeric", metadata !307, i32 101, metadata !1189, i32 1, i32 1, i32 2} ; [ DW_TAG_variable ]
!1192 = metadata !{i32 786484, i32 0, metadata !305, metadata !"collate", metadata !"collate", metadata !"collate", metadata !307, i32 102, metadata !1189, i32 1, i32 1, i32 4} ; [ DW_TAG_variable ]
!1193 = metadata !{i32 786484, i32 0, metadata !305, metadata !"time", metadata !"time", metadata !"time", metadata !307, i32 103, metadata !1189, i32 1, i32 1, i32 8} ; [ DW_TAG_variable ]
!1194 = metadata !{i32 786484, i32 0, metadata !305, metadata !"monetary", metadata !"monetary", metadata !"monetary", metadata !307, i32 104, metadata !1189, i32 1, i32 1, i32 16} ; [ DW_TAG_variable ]
!1195 = metadata !{i32 786484, i32 0, metadata !305, metadata !"messages", metadata !"messages", metadata !"messages", metadata !307, i32 105, metadata !1189, i32 1, i32 1, i32 32} ; [ DW_TAG_variable ]
!1196 = metadata !{i32 786484, i32 0, metadata !305, metadata !"all", metadata !"all", metadata !"all", metadata !307, i32 106, metadata !1189, i32 1, i32 1, i32 63} ; [ DW_TAG_variable ]
!1197 = metadata !{i32 786484, i32 0, metadata !497, metadata !"npos", metadata !"npos", metadata !"npos", metadata !501, i32 279, metadata !1198, i32 1, i32 1, i64 -1} ; [ DW_TAG_variable ]
!1198 = metadata !{i32 786470, null, metadata !"", null, i32 0, i64 0, i64 0, i64 0, i32 0, metadata !591} ; [ DW_TAG_const_type ]
!1199 = metadata !{i32 786484, i32 0, metadata !1200, metadata !"__ioinit", metadata !"__ioinit", metadata !"_ZStL8__ioinit", metadata !1201, i32 74, metadata !1202, i32 1, i32 1, null} ; [ DW_TAG_variable ]
!1200 = metadata !{i32 786489, null, metadata !"std", metadata !1201, i32 42} ; [ DW_TAG_namespace ]
!1201 = metadata !{i32 786473, metadata !"/home/brennan/Vivado/Vivado/2017.4/lnx64/tools/gcc/lib/gcc/x86_64-unknown-linux-gnu/4.6.3/../../../../include/c++/4.6.3/iostream", metadata !"/home/brennan/Documents/pynq-copter/pynqcopter/ip/pwm", null} ; [ DW_TAG_file_type ]
!1202 = metadata !{i32 786434, metadata !207, metadata !"Init", metadata !209, i32 534, i64 8, i64 8, i32 0, i32 0, null, metadata !1203, i32 0, null, null} ; [ DW_TAG_class_type ]
!1203 = metadata !{metadata !1204, metadata !1208, metadata !1209}
!1204 = metadata !{i32 786478, i32 0, metadata !1202, metadata !"Init", metadata !"Init", metadata !"", metadata !209, i32 538, metadata !1205, i1 false, i1 false, i32 0, i32 0, null, i32 256, i1 false, null, null, i32 0, metadata !132, i32 538} ; [ DW_TAG_subprogram ]
!1205 = metadata !{i32 786453, i32 0, metadata !"", i32 0, i32 0, i64 0, i64 0, i64 0, i32 0, null, metadata !1206, i32 0, i32 0} ; [ DW_TAG_subroutine_type ]
!1206 = metadata !{null, metadata !1207}
!1207 = metadata !{i32 786447, i32 0, metadata !"", i32 0, i32 0, i64 64, i64 64, i64 0, i32 64, metadata !1202} ; [ DW_TAG_pointer_type ]
!1208 = metadata !{i32 786478, i32 0, metadata !1202, metadata !"~Init", metadata !"~Init", metadata !"", metadata !209, i32 539, metadata !1205, i1 false, i1 false, i32 0, i32 0, null, i32 256, i1 false, null, null, i32 0, metadata !132, i32 539} ; [ DW_TAG_subprogram ]
!1209 = metadata !{i32 786474, metadata !1202, null, metadata !209, i32 0, i64 0, i64 0, i64 0, i32 0, metadata !207} ; [ DW_TAG_friend ]
!1210 = metadata !{i32 786484, i32 0, metadata !1211, metadata !"width", metadata !"width", metadata !"width", metadata !120, i32 1460, metadata !358, i32 1, i32 1, i32 16} ; [ DW_TAG_variable ]
!1211 = metadata !{i32 786434, null, metadata !"ap_int_base<16, false, true>", metadata !120, i32 1453, i64 16, i64 16, i32 0, i32 0, null, metadata !1212, i32 0, null, metadata !171} ; [ DW_TAG_class_type ]
!1212 = metadata !{metadata !1213, metadata !1214, metadata !1218, metadata !1226, metadata !1232, metadata !1235, metadata !1239, metadata !1243, metadata !1247, metadata !1250, metadata !1253, metadata !1257, metadata !1260, metadata !1263, metadata !1268, metadata !1273, metadata !1278, metadata !1282, metadata !1286, metadata !1289, metadata !1292, metadata !1296, metadata !1299, metadata !1302, metadata !1303, metadata !1307, metadata !1310, metadata !1313, metadata !1316, metadata !1319, metadata !1322, metadata !1325, metadata !1328, metadata !1331, metadata !1334, metadata !1337, metadata !1340, metadata !1350, metadata !1353, metadata !1356, metadata !1359, metadata !1362, metadata !1365, metadata !1368, metadata !1371, metadata !1374, metadata !1377, metadata !1380, metadata !1383, metadata !1386, metadata !1387, metadata !1391, metadata !1394, metadata !1395, metadata !1396, metadata !1397, metadata !1398, metadata !1399, metadata !1402, metadata !1403, metadata !1406, metadata !1407, metadata !1408, metadata !1409, metadata !1410, metadata !1411, metadata !1414, metadata !1415, metadata !1416, metadata !1419, metadata !1420, metadata !1423, metadata !1424, metadata !1715, metadata !1718, metadata !1722, metadata !1723, metadata !1726, metadata !1727, metadata !1731, metadata !1732, metadata !1733, metadata !1734, metadata !1737, metadata !1738, metadata !1739, metadata !1740, metadata !1741, metadata !1742, metadata !1743, metadata !1744, metadata !1745, metadata !1746, metadata !1747, metadata !1748, metadata !1751, metadata !1754, metadata !1757}
!1213 = metadata !{i32 786460, metadata !1211, null, metadata !120, i32 0, i64 0, i64 0, i64 0, i32 0, metadata !157} ; [ DW_TAG_inheritance ]
!1214 = metadata !{i32 786478, i32 0, metadata !1211, metadata !"ap_int_base", metadata !"ap_int_base", metadata !"", metadata !120, i32 1494, metadata !1215, i1 false, i1 false, i32 0, i32 0, null, i32 256, i1 false, null, null, i32 0, metadata !132, i32 1494} ; [ DW_TAG_subprogram ]
!1215 = metadata !{i32 786453, i32 0, metadata !"", i32 0, i32 0, i64 0, i64 0, i64 0, i32 0, null, metadata !1216, i32 0, i32 0} ; [ DW_TAG_subroutine_type ]
!1216 = metadata !{null, metadata !1217}
!1217 = metadata !{i32 786447, i32 0, metadata !"", i32 0, i32 0, i64 64, i64 64, i64 0, i32 64, metadata !1211} ; [ DW_TAG_pointer_type ]
!1218 = metadata !{i32 786478, i32 0, metadata !1211, metadata !"ap_int_base<16, false>", metadata !"ap_int_base<16, false>", metadata !"", metadata !120, i32 1506, metadata !1219, i1 false, i1 false, i32 0, i32 0, null, i32 256, i1 false, null, metadata !1223, i32 0, metadata !132, i32 1506} ; [ DW_TAG_subprogram ]
!1219 = metadata !{i32 786453, i32 0, metadata !"", i32 0, i32 0, i64 0, i64 0, i64 0, i32 0, null, metadata !1220, i32 0, i32 0} ; [ DW_TAG_subroutine_type ]
!1220 = metadata !{null, metadata !1217, metadata !1221}
!1221 = metadata !{i32 786448, null, null, null, i32 0, i64 0, i64 0, i64 0, i32 0, metadata !1222} ; [ DW_TAG_reference_type ]
!1222 = metadata !{i32 786470, null, metadata !"", null, i32 0, i64 0, i64 0, i64 0, i32 0, metadata !1211} ; [ DW_TAG_const_type ]
!1223 = metadata !{metadata !1224, metadata !1225}
!1224 = metadata !{i32 786480, null, metadata !"_AP_W2", metadata !141, i64 16, null, i32 0, i32 0} ; [ DW_TAG_template_value_parameter ]
!1225 = metadata !{i32 786480, null, metadata !"_AP_S2", metadata !143, i64 0, null, i32 0, i32 0} ; [ DW_TAG_template_value_parameter ]
!1226 = metadata !{i32 786478, i32 0, metadata !1211, metadata !"ap_int_base<16, false>", metadata !"ap_int_base<16, false>", metadata !"", metadata !120, i32 1509, metadata !1227, i1 false, i1 false, i32 0, i32 0, null, i32 256, i1 false, null, metadata !1223, i32 0, metadata !132, i32 1509} ; [ DW_TAG_subprogram ]
!1227 = metadata !{i32 786453, i32 0, metadata !"", i32 0, i32 0, i64 0, i64 0, i64 0, i32 0, null, metadata !1228, i32 0, i32 0} ; [ DW_TAG_subroutine_type ]
!1228 = metadata !{null, metadata !1217, metadata !1229}
!1229 = metadata !{i32 786448, null, null, null, i32 0, i64 0, i64 0, i64 0, i32 0, metadata !1230} ; [ DW_TAG_reference_type ]
!1230 = metadata !{i32 786470, null, metadata !"", null, i32 0, i64 0, i64 0, i64 0, i32 0, metadata !1231} ; [ DW_TAG_const_type ]
!1231 = metadata !{i32 786485, null, metadata !"", null, i32 0, i64 0, i64 0, i64 0, i32 0, metadata !1211} ; [ DW_TAG_volatile_type ]
!1232 = metadata !{i32 786478, i32 0, metadata !1211, metadata !"ap_int_base", metadata !"ap_int_base", metadata !"", metadata !120, i32 1516, metadata !1233, i1 false, i1 false, i32 0, i32 0, null, i32 384, i1 false, null, null, i32 0, metadata !132, i32 1516} ; [ DW_TAG_subprogram ]
!1233 = metadata !{i32 786453, i32 0, metadata !"", i32 0, i32 0, i64 0, i64 0, i64 0, i32 0, null, metadata !1234, i32 0, i32 0} ; [ DW_TAG_subroutine_type ]
!1234 = metadata !{null, metadata !1217, metadata !143}
!1235 = metadata !{i32 786478, i32 0, metadata !1211, metadata !"ap_int_base", metadata !"ap_int_base", metadata !"", metadata !120, i32 1517, metadata !1236, i1 false, i1 false, i32 0, i32 0, null, i32 384, i1 false, null, null, i32 0, metadata !132, i32 1517} ; [ DW_TAG_subprogram ]
!1236 = metadata !{i32 786453, i32 0, metadata !"", i32 0, i32 0, i64 0, i64 0, i64 0, i32 0, null, metadata !1237, i32 0, i32 0} ; [ DW_TAG_subroutine_type ]
!1237 = metadata !{null, metadata !1217, metadata !1238}
!1238 = metadata !{i32 786468, null, metadata !"signed char", null, i32 0, i64 8, i64 8, i64 0, i32 0, i32 6} ; [ DW_TAG_base_type ]
!1239 = metadata !{i32 786478, i32 0, metadata !1211, metadata !"ap_int_base", metadata !"ap_int_base", metadata !"", metadata !120, i32 1518, metadata !1240, i1 false, i1 false, i32 0, i32 0, null, i32 384, i1 false, null, null, i32 0, metadata !132, i32 1518} ; [ DW_TAG_subprogram ]
!1240 = metadata !{i32 786453, i32 0, metadata !"", i32 0, i32 0, i64 0, i64 0, i64 0, i32 0, null, metadata !1241, i32 0, i32 0} ; [ DW_TAG_subroutine_type ]
!1241 = metadata !{null, metadata !1217, metadata !1242}
!1242 = metadata !{i32 786468, null, metadata !"unsigned char", null, i32 0, i64 8, i64 8, i64 0, i32 0, i32 8} ; [ DW_TAG_base_type ]
!1243 = metadata !{i32 786478, i32 0, metadata !1211, metadata !"ap_int_base", metadata !"ap_int_base", metadata !"", metadata !120, i32 1519, metadata !1244, i1 false, i1 false, i32 0, i32 0, null, i32 384, i1 false, null, null, i32 0, metadata !132, i32 1519} ; [ DW_TAG_subprogram ]
!1244 = metadata !{i32 786453, i32 0, metadata !"", i32 0, i32 0, i64 0, i64 0, i64 0, i32 0, null, metadata !1245, i32 0, i32 0} ; [ DW_TAG_subroutine_type ]
!1245 = metadata !{null, metadata !1217, metadata !1246}
!1246 = metadata !{i32 786468, null, metadata !"short", null, i32 0, i64 16, i64 16, i64 0, i32 0, i32 5} ; [ DW_TAG_base_type ]
!1247 = metadata !{i32 786478, i32 0, metadata !1211, metadata !"ap_int_base", metadata !"ap_int_base", metadata !"", metadata !120, i32 1520, metadata !1248, i1 false, i1 false, i32 0, i32 0, null, i32 384, i1 false, null, null, i32 0, metadata !132, i32 1520} ; [ DW_TAG_subprogram ]
!1248 = metadata !{i32 786453, i32 0, metadata !"", i32 0, i32 0, i64 0, i64 0, i64 0, i32 0, null, metadata !1249, i32 0, i32 0} ; [ DW_TAG_subroutine_type ]
!1249 = metadata !{null, metadata !1217, metadata !355}
!1250 = metadata !{i32 786478, i32 0, metadata !1211, metadata !"ap_int_base", metadata !"ap_int_base", metadata !"", metadata !120, i32 1521, metadata !1251, i1 false, i1 false, i32 0, i32 0, null, i32 384, i1 false, null, null, i32 0, metadata !132, i32 1521} ; [ DW_TAG_subprogram ]
!1251 = metadata !{i32 786453, i32 0, metadata !"", i32 0, i32 0, i64 0, i64 0, i64 0, i32 0, null, metadata !1252, i32 0, i32 0} ; [ DW_TAG_subroutine_type ]
!1252 = metadata !{null, metadata !1217, metadata !141}
!1253 = metadata !{i32 786478, i32 0, metadata !1211, metadata !"ap_int_base", metadata !"ap_int_base", metadata !"", metadata !120, i32 1522, metadata !1254, i1 false, i1 false, i32 0, i32 0, null, i32 384, i1 false, null, null, i32 0, metadata !132, i32 1522} ; [ DW_TAG_subprogram ]
!1254 = metadata !{i32 786453, i32 0, metadata !"", i32 0, i32 0, i64 0, i64 0, i64 0, i32 0, null, metadata !1255, i32 0, i32 0} ; [ DW_TAG_subroutine_type ]
!1255 = metadata !{null, metadata !1217, metadata !1256}
!1256 = metadata !{i32 786468, null, metadata !"unsigned int", null, i32 0, i64 32, i64 32, i64 0, i32 0, i32 7} ; [ DW_TAG_base_type ]
!1257 = metadata !{i32 786478, i32 0, metadata !1211, metadata !"ap_int_base", metadata !"ap_int_base", metadata !"", metadata !120, i32 1523, metadata !1258, i1 false, i1 false, i32 0, i32 0, null, i32 384, i1 false, null, null, i32 0, metadata !132, i32 1523} ; [ DW_TAG_subprogram ]
!1258 = metadata !{i32 786453, i32 0, metadata !"", i32 0, i32 0, i64 0, i64 0, i64 0, i32 0, null, metadata !1259, i32 0, i32 0} ; [ DW_TAG_subroutine_type ]
!1259 = metadata !{null, metadata !1217, metadata !223}
!1260 = metadata !{i32 786478, i32 0, metadata !1211, metadata !"ap_int_base", metadata !"ap_int_base", metadata !"", metadata !120, i32 1524, metadata !1261, i1 false, i1 false, i32 0, i32 0, null, i32 384, i1 false, null, null, i32 0, metadata !132, i32 1524} ; [ DW_TAG_subprogram ]
!1261 = metadata !{i32 786453, i32 0, metadata !"", i32 0, i32 0, i64 0, i64 0, i64 0, i32 0, null, metadata !1262, i32 0, i32 0} ; [ DW_TAG_subroutine_type ]
!1262 = metadata !{null, metadata !1217, metadata !330}
!1263 = metadata !{i32 786478, i32 0, metadata !1211, metadata !"ap_int_base", metadata !"ap_int_base", metadata !"", metadata !120, i32 1525, metadata !1264, i1 false, i1 false, i32 0, i32 0, null, i32 384, i1 false, null, null, i32 0, metadata !132, i32 1525} ; [ DW_TAG_subprogram ]
!1264 = metadata !{i32 786453, i32 0, metadata !"", i32 0, i32 0, i64 0, i64 0, i64 0, i32 0, null, metadata !1265, i32 0, i32 0} ; [ DW_TAG_subroutine_type ]
!1265 = metadata !{null, metadata !1217, metadata !1266}
!1266 = metadata !{i32 786454, null, metadata !"ap_slong", metadata !120, i32 112, i64 0, i64 0, i64 0, i32 0, metadata !1267} ; [ DW_TAG_typedef ]
!1267 = metadata !{i32 786468, null, metadata !"long long int", null, i32 0, i64 64, i64 64, i64 0, i32 0, i32 5} ; [ DW_TAG_base_type ]
!1268 = metadata !{i32 786478, i32 0, metadata !1211, metadata !"ap_int_base", metadata !"ap_int_base", metadata !"", metadata !120, i32 1526, metadata !1269, i1 false, i1 false, i32 0, i32 0, null, i32 384, i1 false, null, null, i32 0, metadata !132, i32 1526} ; [ DW_TAG_subprogram ]
!1269 = metadata !{i32 786453, i32 0, metadata !"", i32 0, i32 0, i64 0, i64 0, i64 0, i32 0, null, metadata !1270, i32 0, i32 0} ; [ DW_TAG_subroutine_type ]
!1270 = metadata !{null, metadata !1217, metadata !1271}
!1271 = metadata !{i32 786454, null, metadata !"ap_ulong", metadata !120, i32 111, i64 0, i64 0, i64 0, i32 0, metadata !1272} ; [ DW_TAG_typedef ]
!1272 = metadata !{i32 786468, null, metadata !"long long unsigned int", null, i32 0, i64 64, i64 64, i64 0, i32 0, i32 7} ; [ DW_TAG_base_type ]
!1273 = metadata !{i32 786478, i32 0, metadata !1211, metadata !"ap_int_base", metadata !"ap_int_base", metadata !"", metadata !120, i32 1527, metadata !1274, i1 false, i1 false, i32 0, i32 0, null, i32 384, i1 false, null, null, i32 0, metadata !132, i32 1527} ; [ DW_TAG_subprogram ]
!1274 = metadata !{i32 786453, i32 0, metadata !"", i32 0, i32 0, i64 0, i64 0, i64 0, i32 0, null, metadata !1275, i32 0, i32 0} ; [ DW_TAG_subroutine_type ]
!1275 = metadata !{null, metadata !1217, metadata !1276}
!1276 = metadata !{i32 786454, null, metadata !"half", metadata !120, i32 54, i64 0, i64 0, i64 0, i32 0, metadata !1277} ; [ DW_TAG_typedef ]
!1277 = metadata !{i32 786468, null, metadata !"half", null, i32 0, i64 16, i64 16, i64 0, i32 0, i32 4} ; [ DW_TAG_base_type ]
!1278 = metadata !{i32 786478, i32 0, metadata !1211, metadata !"ap_int_base", metadata !"ap_int_base", metadata !"", metadata !120, i32 1528, metadata !1279, i1 false, i1 false, i32 0, i32 0, null, i32 384, i1 false, null, null, i32 0, metadata !132, i32 1528} ; [ DW_TAG_subprogram ]
!1279 = metadata !{i32 786453, i32 0, metadata !"", i32 0, i32 0, i64 0, i64 0, i64 0, i32 0, null, metadata !1280, i32 0, i32 0} ; [ DW_TAG_subroutine_type ]
!1280 = metadata !{null, metadata !1217, metadata !1281}
!1281 = metadata !{i32 786468, null, metadata !"float", null, i32 0, i64 32, i64 32, i64 0, i32 0, i32 4} ; [ DW_TAG_base_type ]
!1282 = metadata !{i32 786478, i32 0, metadata !1211, metadata !"ap_int_base", metadata !"ap_int_base", metadata !"", metadata !120, i32 1529, metadata !1283, i1 false, i1 false, i32 0, i32 0, null, i32 384, i1 false, null, null, i32 0, metadata !132, i32 1529} ; [ DW_TAG_subprogram ]
!1283 = metadata !{i32 786453, i32 0, metadata !"", i32 0, i32 0, i64 0, i64 0, i64 0, i32 0, null, metadata !1284, i32 0, i32 0} ; [ DW_TAG_subroutine_type ]
!1284 = metadata !{null, metadata !1217, metadata !1285}
!1285 = metadata !{i32 786468, null, metadata !"double", null, i32 0, i64 64, i64 64, i64 0, i32 0, i32 4} ; [ DW_TAG_base_type ]
!1286 = metadata !{i32 786478, i32 0, metadata !1211, metadata !"ap_int_base", metadata !"ap_int_base", metadata !"", metadata !120, i32 1556, metadata !1287, i1 false, i1 false, i32 0, i32 0, null, i32 256, i1 false, null, null, i32 0, metadata !132, i32 1556} ; [ DW_TAG_subprogram ]
!1287 = metadata !{i32 786453, i32 0, metadata !"", i32 0, i32 0, i64 0, i64 0, i64 0, i32 0, null, metadata !1288, i32 0, i32 0} ; [ DW_TAG_subroutine_type ]
!1288 = metadata !{null, metadata !1217, metadata !362}
!1289 = metadata !{i32 786478, i32 0, metadata !1211, metadata !"ap_int_base", metadata !"ap_int_base", metadata !"", metadata !120, i32 1563, metadata !1290, i1 false, i1 false, i32 0, i32 0, null, i32 256, i1 false, null, null, i32 0, metadata !132, i32 1563} ; [ DW_TAG_subprogram ]
!1290 = metadata !{i32 786453, i32 0, metadata !"", i32 0, i32 0, i64 0, i64 0, i64 0, i32 0, null, metadata !1291, i32 0, i32 0} ; [ DW_TAG_subroutine_type ]
!1291 = metadata !{null, metadata !1217, metadata !362, metadata !1238}
!1292 = metadata !{i32 786478, i32 0, metadata !1211, metadata !"read", metadata !"read", metadata !"_ZNV11ap_int_baseILi16ELb0ELb1EE4readEv", metadata !120, i32 1584, metadata !1293, i1 false, i1 false, i32 0, i32 0, null, i32 256, i1 false, null, null, i32 0, metadata !132, i32 1584} ; [ DW_TAG_subprogram ]
!1293 = metadata !{i32 786453, i32 0, metadata !"", i32 0, i32 0, i64 0, i64 0, i64 0, i32 0, null, metadata !1294, i32 0, i32 0} ; [ DW_TAG_subroutine_type ]
!1294 = metadata !{metadata !1211, metadata !1295}
!1295 = metadata !{i32 786447, i32 0, metadata !"", i32 0, i32 0, i64 64, i64 64, i64 0, i32 64, metadata !1231} ; [ DW_TAG_pointer_type ]
!1296 = metadata !{i32 786478, i32 0, metadata !1211, metadata !"write", metadata !"write", metadata !"_ZNV11ap_int_baseILi16ELb0ELb1EE5writeERKS0_", metadata !120, i32 1590, metadata !1297, i1 false, i1 false, i32 0, i32 0, null, i32 256, i1 false, null, null, i32 0, metadata !132, i32 1590} ; [ DW_TAG_subprogram ]
!1297 = metadata !{i32 786453, i32 0, metadata !"", i32 0, i32 0, i64 0, i64 0, i64 0, i32 0, null, metadata !1298, i32 0, i32 0} ; [ DW_TAG_subroutine_type ]
!1298 = metadata !{null, metadata !1295, metadata !1221}
!1299 = metadata !{i32 786478, i32 0, metadata !1211, metadata !"operator=", metadata !"operator=", metadata !"_ZNV11ap_int_baseILi16ELb0ELb1EEaSERVKS0_", metadata !120, i32 1602, metadata !1300, i1 false, i1 false, i32 0, i32 0, null, i32 256, i1 false, null, null, i32 0, metadata !132, i32 1602} ; [ DW_TAG_subprogram ]
!1300 = metadata !{i32 786453, i32 0, metadata !"", i32 0, i32 0, i64 0, i64 0, i64 0, i32 0, null, metadata !1301, i32 0, i32 0} ; [ DW_TAG_subroutine_type ]
!1301 = metadata !{null, metadata !1295, metadata !1229}
!1302 = metadata !{i32 786478, i32 0, metadata !1211, metadata !"operator=", metadata !"operator=", metadata !"_ZNV11ap_int_baseILi16ELb0ELb1EEaSERKS0_", metadata !120, i32 1611, metadata !1297, i1 false, i1 false, i32 0, i32 0, null, i32 256, i1 false, null, null, i32 0, metadata !132, i32 1611} ; [ DW_TAG_subprogram ]
!1303 = metadata !{i32 786478, i32 0, metadata !1211, metadata !"operator=", metadata !"operator=", metadata !"_ZN11ap_int_baseILi16ELb0ELb1EEaSERVKS0_", metadata !120, i32 1634, metadata !1304, i1 false, i1 false, i32 0, i32 0, null, i32 256, i1 false, null, null, i32 0, metadata !132, i32 1634} ; [ DW_TAG_subprogram ]
!1304 = metadata !{i32 786453, i32 0, metadata !"", i32 0, i32 0, i64 0, i64 0, i64 0, i32 0, null, metadata !1305, i32 0, i32 0} ; [ DW_TAG_subroutine_type ]
!1305 = metadata !{metadata !1306, metadata !1217, metadata !1229}
!1306 = metadata !{i32 786448, null, null, null, i32 0, i64 0, i64 0, i64 0, i32 0, metadata !1211} ; [ DW_TAG_reference_type ]
!1307 = metadata !{i32 786478, i32 0, metadata !1211, metadata !"operator=", metadata !"operator=", metadata !"_ZN11ap_int_baseILi16ELb0ELb1EEaSERKS0_", metadata !120, i32 1639, metadata !1308, i1 false, i1 false, i32 0, i32 0, null, i32 256, i1 false, null, null, i32 0, metadata !132, i32 1639} ; [ DW_TAG_subprogram ]
!1308 = metadata !{i32 786453, i32 0, metadata !"", i32 0, i32 0, i64 0, i64 0, i64 0, i32 0, null, metadata !1309, i32 0, i32 0} ; [ DW_TAG_subroutine_type ]
!1309 = metadata !{metadata !1306, metadata !1217, metadata !1221}
!1310 = metadata !{i32 786478, i32 0, metadata !1211, metadata !"operator=", metadata !"operator=", metadata !"_ZN11ap_int_baseILi16ELb0ELb1EEaSEPKc", metadata !120, i32 1643, metadata !1311, i1 false, i1 false, i32 0, i32 0, null, i32 256, i1 false, null, null, i32 0, metadata !132, i32 1643} ; [ DW_TAG_subprogram ]
!1311 = metadata !{i32 786453, i32 0, metadata !"", i32 0, i32 0, i64 0, i64 0, i64 0, i32 0, null, metadata !1312, i32 0, i32 0} ; [ DW_TAG_subroutine_type ]
!1312 = metadata !{metadata !1306, metadata !1217, metadata !362}
!1313 = metadata !{i32 786478, i32 0, metadata !1211, metadata !"set", metadata !"set", metadata !"_ZN11ap_int_baseILi16ELb0ELb1EE3setEPKca", metadata !120, i32 1651, metadata !1314, i1 false, i1 false, i32 0, i32 0, null, i32 256, i1 false, null, null, i32 0, metadata !132, i32 1651} ; [ DW_TAG_subprogram ]
!1314 = metadata !{i32 786453, i32 0, metadata !"", i32 0, i32 0, i64 0, i64 0, i64 0, i32 0, null, metadata !1315, i32 0, i32 0} ; [ DW_TAG_subroutine_type ]
!1315 = metadata !{metadata !1306, metadata !1217, metadata !362, metadata !1238}
!1316 = metadata !{i32 786478, i32 0, metadata !1211, metadata !"operator=", metadata !"operator=", metadata !"_ZN11ap_int_baseILi16ELb0ELb1EEaSEa", metadata !120, i32 1665, metadata !1317, i1 false, i1 false, i32 0, i32 0, null, i32 256, i1 false, null, null, i32 0, metadata !132, i32 1665} ; [ DW_TAG_subprogram ]
!1317 = metadata !{i32 786453, i32 0, metadata !"", i32 0, i32 0, i64 0, i64 0, i64 0, i32 0, null, metadata !1318, i32 0, i32 0} ; [ DW_TAG_subroutine_type ]
!1318 = metadata !{metadata !1306, metadata !1217, metadata !1238}
!1319 = metadata !{i32 786478, i32 0, metadata !1211, metadata !"operator=", metadata !"operator=", metadata !"_ZN11ap_int_baseILi16ELb0ELb1EEaSEh", metadata !120, i32 1666, metadata !1320, i1 false, i1 false, i32 0, i32 0, null, i32 256, i1 false, null, null, i32 0, metadata !132, i32 1666} ; [ DW_TAG_subprogram ]
!1320 = metadata !{i32 786453, i32 0, metadata !"", i32 0, i32 0, i64 0, i64 0, i64 0, i32 0, null, metadata !1321, i32 0, i32 0} ; [ DW_TAG_subroutine_type ]
!1321 = metadata !{metadata !1306, metadata !1217, metadata !1242}
!1322 = metadata !{i32 786478, i32 0, metadata !1211, metadata !"operator=", metadata !"operator=", metadata !"_ZN11ap_int_baseILi16ELb0ELb1EEaSEs", metadata !120, i32 1667, metadata !1323, i1 false, i1 false, i32 0, i32 0, null, i32 256, i1 false, null, null, i32 0, metadata !132, i32 1667} ; [ DW_TAG_subprogram ]
!1323 = metadata !{i32 786453, i32 0, metadata !"", i32 0, i32 0, i64 0, i64 0, i64 0, i32 0, null, metadata !1324, i32 0, i32 0} ; [ DW_TAG_subroutine_type ]
!1324 = metadata !{metadata !1306, metadata !1217, metadata !1246}
!1325 = metadata !{i32 786478, i32 0, metadata !1211, metadata !"operator=", metadata !"operator=", metadata !"_ZN11ap_int_baseILi16ELb0ELb1EEaSEt", metadata !120, i32 1668, metadata !1326, i1 false, i1 false, i32 0, i32 0, null, i32 256, i1 false, null, null, i32 0, metadata !132, i32 1668} ; [ DW_TAG_subprogram ]
!1326 = metadata !{i32 786453, i32 0, metadata !"", i32 0, i32 0, i64 0, i64 0, i64 0, i32 0, null, metadata !1327, i32 0, i32 0} ; [ DW_TAG_subroutine_type ]
!1327 = metadata !{metadata !1306, metadata !1217, metadata !355}
!1328 = metadata !{i32 786478, i32 0, metadata !1211, metadata !"operator=", metadata !"operator=", metadata !"_ZN11ap_int_baseILi16ELb0ELb1EEaSEi", metadata !120, i32 1669, metadata !1329, i1 false, i1 false, i32 0, i32 0, null, i32 256, i1 false, null, null, i32 0, metadata !132, i32 1669} ; [ DW_TAG_subprogram ]
!1329 = metadata !{i32 786453, i32 0, metadata !"", i32 0, i32 0, i64 0, i64 0, i64 0, i32 0, null, metadata !1330, i32 0, i32 0} ; [ DW_TAG_subroutine_type ]
!1330 = metadata !{metadata !1306, metadata !1217, metadata !141}
!1331 = metadata !{i32 786478, i32 0, metadata !1211, metadata !"operator=", metadata !"operator=", metadata !"_ZN11ap_int_baseILi16ELb0ELb1EEaSEj", metadata !120, i32 1670, metadata !1332, i1 false, i1 false, i32 0, i32 0, null, i32 256, i1 false, null, null, i32 0, metadata !132, i32 1670} ; [ DW_TAG_subprogram ]
!1332 = metadata !{i32 786453, i32 0, metadata !"", i32 0, i32 0, i64 0, i64 0, i64 0, i32 0, null, metadata !1333, i32 0, i32 0} ; [ DW_TAG_subroutine_type ]
!1333 = metadata !{metadata !1306, metadata !1217, metadata !1256}
