; ModuleID = '/home/brennan/Documents/pynq-copter/pynqcopter/ip/pwm/pwm/pwm/.autopilot/db/a.o.3.bc'
target datalayout = "e-p:64:64:64-i1:8:8-i8:8:8-i16:16:16-i32:32:32-i64:64:64-f32:32:32-f64:64:64-v64:64:64-v128:128:128-a0:0:64-s0:64:64-f80:128:128-n8:16:32:64-S128"
target triple = "x86_64-unknown-linux-gnu"

@pwm_str = internal unnamed_addr constant [4 x i8] c"pwm\00" ; [#uses=1 type=[4 x i8]*]
@out_p_V = internal unnamed_addr global i6 -1     ; [#uses=2 type=i6*]
@llvm_global_ctors_1 = appending global [0 x void ()*] zeroinitializer ; [#uses=0 type=[0 x void ()*]*]
@llvm_global_ctors_0 = appending global [0 x i32] zeroinitializer ; [#uses=0 type=[0 x i32]*]
@accumulator_V = internal unnamed_addr global i16 0 ; [#uses=2 type=i16*]
@RAM_1P_str = internal unnamed_addr constant [7 x i8] c"RAM_1P\00" ; [#uses=1 type=[7 x i8]*]
@p_str3 = internal unnamed_addr constant [1 x i8] zeroinitializer ; [#uses=7 type=[1 x i8]*]
@p_str2 = private unnamed_addr constant [8 x i8] c"ap_none\00", align 1 ; [#uses=1 type=[8 x i8]*]
@p_str1 = private unnamed_addr constant [1 x i8] zeroinitializer, align 1 ; [#uses=18 type=[1 x i8]*]
@p_str = private unnamed_addr constant [10 x i8] c"s_axilite\00", align 1 ; [#uses=2 type=[10 x i8]*]

; [#uses=0]
define void @pwm([6 x i16]* %m_V, i6* %out_V) {
codeRepl:
  call void (...)* @_ssdm_op_SpecBitsMap([6 x i16]* %m_V), !map !64
  call void (...)* @_ssdm_op_SpecBitsMap(i6* %out_V), !map !70
  call void (...)* @_ssdm_op_SpecTopModule([4 x i8]* @pwm_str) nounwind
  call void @llvm.dbg.value(metadata !{[6 x i16]* %m_V}, i64 0, metadata !74), !dbg !1107 ; [debug line = 42:14] [debug variable = m.V]
  call void @llvm.dbg.value(metadata !{i6* %out_V}, i64 0, metadata !1108), !dbg !1117 ; [debug line = 42:26] [debug variable = out.V]
  %empty = call i32 (...)* @_ssdm_op_SpecMemCore([6 x i16]* %m_V, [1 x i8]* @p_str3, [7 x i8]* @RAM_1P_str, [1 x i8]* @p_str3, i32 -1, [1 x i8]* @p_str3, [1 x i8]* @p_str3, [1 x i8]* @p_str3, [1 x i8]* @p_str3, [1 x i8]* @p_str3) ; [#uses=0 type=i32]
  call void (...)* @_ssdm_op_SpecInterface([6 x i16]* %m_V, [10 x i8]* @p_str, i32 0, i32 0, [1 x i8]* @p_str1, i32 0, i32 0, [1 x i8]* @p_str1, [1 x i8]* @p_str1, [1 x i8]* @p_str1, i32 0, i32 0, i32 0, i32 0, [1 x i8]* @p_str1, [1 x i8]* @p_str1) nounwind
  call void (...)* @_ssdm_op_SpecInterface(i6* %out_V, [8 x i8]* @p_str2, i32 0, i32 0, [1 x i8]* @p_str1, i32 0, i32 0, [1 x i8]* @p_str1, [1 x i8]* @p_str1, [1 x i8]* @p_str1, i32 0, i32 0, i32 0, i32 0, [1 x i8]* @p_str1, [1 x i8]* @p_str1) nounwind, !dbg !1118 ; [debug line = 44:1]
  call void (...)* @_ssdm_op_SpecInterface(i32 0, [10 x i8]* @p_str, i32 0, i32 0, [1 x i8]* @p_str1, i32 0, i32 0, [1 x i8]* @p_str1, [1 x i8]* @p_str1, [1 x i8]* @p_str1, i32 0, i32 0, i32 0, i32 0, [1 x i8]* @p_str1, [1 x i8]* @p_str1) nounwind, !dbg !1120 ; [debug line = 45:1]
  %m_V_addr = getelementptr [6 x i16]* %m_V, i64 0, i64 0, !dbg !1121 ; [#uses=1 type=i16*] [debug line = 281:5@54:2]
  %m_V_load = load i16* %m_V_addr, align 2, !dbg !1121 ; [#uses=1 type=i16] [debug line = 281:5@54:2]
  %m_V_addr_1 = getelementptr [6 x i16]* %m_V, i64 0, i64 1, !dbg !1121 ; [#uses=1 type=i16*] [debug line = 281:5@54:2]
  %m_V_load_1 = load i16* %m_V_addr_1, align 2, !dbg !1121 ; [#uses=1 type=i16] [debug line = 281:5@54:2]
  %m_V_addr_2 = getelementptr [6 x i16]* %m_V, i64 0, i64 2, !dbg !1121 ; [#uses=1 type=i16*] [debug line = 281:5@54:2]
  %m_V_load_2 = load i16* %m_V_addr_2, align 2, !dbg !1121 ; [#uses=1 type=i16] [debug line = 281:5@54:2]
  %m_V_addr_3 = getelementptr [6 x i16]* %m_V, i64 0, i64 3, !dbg !1121 ; [#uses=1 type=i16*] [debug line = 281:5@54:2]
  %m_V_load_3 = load i16* %m_V_addr_3, align 2, !dbg !1121 ; [#uses=1 type=i16] [debug line = 281:5@54:2]
  %m_V_addr_4 = getelementptr [6 x i16]* %m_V, i64 0, i64 4, !dbg !1121 ; [#uses=1 type=i16*] [debug line = 281:5@54:2]
  %m_V_load_4 = load i16* %m_V_addr_4, align 2, !dbg !1121 ; [#uses=1 type=i16] [debug line = 281:5@54:2]
  %m_V_addr_5 = getelementptr [6 x i16]* %m_V, i64 0, i64 5, !dbg !1121 ; [#uses=1 type=i16*] [debug line = 281:5@54:2]
  %m_V_load_5 = load i16* %m_V_addr_5, align 2, !dbg !1121 ; [#uses=1 type=i16] [debug line = 281:5@54:2]
  %t_V = load i16* @accumulator_V, align 2, !dbg !1127 ; [#uses=8 type=i16] [debug line = 2050:5@60:12]
  %tmp_4 = icmp ugt i16 %t_V, %m_V_load, !dbg !1127 ; [#uses=1 type=i1] [debug line = 2050:5@60:12]
  %out_p_V_load = load i6* @out_p_V, align 1, !dbg !1133 ; [#uses=1 type=i6] [debug line = 1887:145@3595:0@60:12]
  %tmp_4_1 = icmp ugt i16 %t_V, %m_V_load_1, !dbg !1127 ; [#uses=1 type=i1] [debug line = 2050:5@60:12]
  %tmp_4_2 = icmp ugt i16 %t_V, %m_V_load_2, !dbg !1127 ; [#uses=1 type=i1] [debug line = 2050:5@60:12]
  %tmp_4_3 = icmp ugt i16 %t_V, %m_V_load_3, !dbg !1127 ; [#uses=1 type=i1] [debug line = 2050:5@60:12]
  %tmp_4_4 = icmp ugt i16 %t_V, %m_V_load_4, !dbg !1127 ; [#uses=1 type=i1] [debug line = 2050:5@60:12]
  %tmp_4_5 = icmp ugt i16 %t_V, %m_V_load_5, !dbg !1127 ; [#uses=1 type=i1] [debug line = 2050:5@60:12]
  %tmp1_demorgan = call i2 @_ssdm_op_BitConcatenate.i2.i1.i1(i1 %tmp_4_1, i1 %tmp_4), !dbg !1133 ; [#uses=1 type=i2] [debug line = 1887:145@3595:0@60:12]
  %tmp1_demorgan_cast = zext i2 %tmp1_demorgan to i6, !dbg !1133 ; [#uses=1 type=i6] [debug line = 1887:145@3595:0@60:12]
  %tmp1 = xor i6 %tmp1_demorgan_cast, -1, !dbg !1133 ; [#uses=1 type=i6] [debug line = 1887:145@3595:0@60:12]
  %tmp = and i6 %out_p_V_load, %tmp1, !dbg !1133  ; [#uses=1 type=i6] [debug line = 1887:145@3595:0@60:12]
  %tmp2_demorgan = call i6 @_ssdm_op_BitConcatenate.i6.i1.i1.i1.i1.i2(i1 %tmp_4_5, i1 %tmp_4_4, i1 %tmp_4_3, i1 %tmp_4_2, i2 0), !dbg !1133 ; [#uses=1 type=i6] [debug line = 1887:145@3595:0@60:12]
  %tmp2 = xor i6 %tmp2_demorgan, -1, !dbg !1133   ; [#uses=1 type=i6] [debug line = 1887:145@3595:0@60:12]
  %tmp_9_5 = and i6 %tmp, %tmp2, !dbg !1133       ; [#uses=1 type=i6] [debug line = 1887:145@3595:0@60:12]
  %tmp_2 = icmp eq i16 %t_V, 0, !dbg !1673        ; [#uses=1 type=i1] [debug line = 2034:5@3559:0@63:5]
  %p_tmp_9_5 = select i1 %tmp_2, i6 -1, i6 %tmp_9_5, !dbg !1684 ; [#uses=2 type=i6] [debug line = 63:5]
  store i6 %p_tmp_9_5, i6* @out_p_V, align 1, !dbg !1133 ; [debug line = 1887:145@3595:0@60:12]
  call void @llvm.dbg.value(metadata !{i16 %t_V}, i64 0, metadata !1685), !dbg !1689 ; [debug line = 1908:26@66:2] [debug variable = t.V]
  %tmp_s = add i16 %t_V, 1, !dbg !1691            ; [#uses=1 type=i16] [debug line = 1879:145@1909:5@66:2]
  store i16 %tmp_s, i16* @accumulator_V, align 2, !dbg !1691 ; [debug line = 1879:145@1909:5@66:2]
  call void @llvm.dbg.value(metadata !{i6* %out_V}, i64 0, metadata !1940), !dbg !1945 ; [debug line = 280:50@68:2] [debug variable = ssdm_int<6 + 1024 * 0, false>.V]
  call void @_ssdm_op_Write.ap_none.i6P(i6* %out_V, i6 %p_tmp_9_5), !dbg !1947 ; [debug line = 281:5@68:2]
  ret void, !dbg !1949                            ; [debug line = 74:1]
}

; [#uses=4]
declare void @llvm.dbg.value(metadata, i64, metadata) nounwind readnone

; [#uses=1]
define weak void @_ssdm_op_Write.ap_none.i6P(i6*, i6) {
entry:
  store i6 %1, i6* %0
  ret void
}

; [#uses=1]
define weak void @_ssdm_op_SpecTopModule(...) {
entry:
  ret void
}

; [#uses=1]
define weak i32 @_ssdm_op_SpecMemCore(...) {
entry:
  ret i32 0
}

; [#uses=3]
define weak void @_ssdm_op_SpecInterface(...) nounwind {
entry:
  ret void
}

; [#uses=2]
define weak void @_ssdm_op_SpecBitsMap(...) {
entry:
  ret void
}

; [#uses=1]
define weak i6 @_ssdm_op_BitConcatenate.i6.i1.i1.i1.i1.i2(i1, i1, i1, i1, i2) nounwind readnone {
entry:
  %empty = zext i1 %3 to i3                       ; [#uses=1 type=i3]
  %empty_2 = zext i2 %4 to i3                     ; [#uses=1 type=i3]
  %empty_3 = shl i3 %empty, 2                     ; [#uses=1 type=i3]
  %empty_4 = or i3 %empty_3, %empty_2             ; [#uses=1 type=i3]
  %empty_5 = zext i1 %2 to i4                     ; [#uses=1 type=i4]
  %empty_6 = zext i3 %empty_4 to i4               ; [#uses=1 type=i4]
  %empty_7 = shl i4 %empty_5, 3                   ; [#uses=1 type=i4]
  %empty_8 = or i4 %empty_7, %empty_6             ; [#uses=1 type=i4]
  %empty_9 = zext i1 %1 to i5                     ; [#uses=1 type=i5]
  %empty_10 = zext i4 %empty_8 to i5              ; [#uses=1 type=i5]
  %empty_11 = shl i5 %empty_9, 4                  ; [#uses=1 type=i5]
  %empty_12 = or i5 %empty_11, %empty_10          ; [#uses=1 type=i5]
  %empty_13 = zext i1 %0 to i6                    ; [#uses=1 type=i6]
  %empty_14 = zext i5 %empty_12 to i6             ; [#uses=1 type=i6]
  %empty_15 = shl i6 %empty_13, 5                 ; [#uses=1 type=i6]
  %empty_16 = or i6 %empty_15, %empty_14          ; [#uses=1 type=i6]
  ret i6 %empty_16
}

; [#uses=1]
define weak i2 @_ssdm_op_BitConcatenate.i2.i1.i1(i1, i1) nounwind readnone {
entry:
  %empty = zext i1 %0 to i2                       ; [#uses=1 type=i2]
  %empty_17 = zext i1 %1 to i2                    ; [#uses=1 type=i2]
  %empty_18 = shl i2 %empty, 1                    ; [#uses=1 type=i2]
  %empty_19 = or i2 %empty_18, %empty_17          ; [#uses=1 type=i2]
  ret i2 %empty_19
}

!opencl.kernels = !{!0, !7, !13, !13, !15, !21, !24, !26, !13, !13, !15, !30, !32, !30, !34, !36, !38, !38, !15, !15, !15, !15, !15, !15, !38, !38, !15, !40, !43, !15, !15, !15, !45, !13, !13, !48, !50, !50, !52, !52, !15, !15, !36, !15, !15, !15, !15, !38, !38, !54}
!hls.encrypted.func = !{}
!llvm.map.gv = !{!57}

!0 = metadata !{null, metadata !1, metadata !2, metadata !3, metadata !4, metadata !5, metadata !6}
!1 = metadata !{metadata !"kernel_arg_addr_space", i32 1, i32 0}
!2 = metadata !{metadata !"kernel_arg_access_qual", metadata !"none", metadata !"none"}
!3 = metadata !{metadata !"kernel_arg_type", metadata !"N_t*", metadata !"O_t &"}
!4 = metadata !{metadata !"kernel_arg_type_qual", metadata !"", metadata !""}
!5 = metadata !{metadata !"kernel_arg_name", metadata !"m", metadata !"out"}
!6 = metadata !{metadata !"reqd_work_group_size", i32 1, i32 1, i32 1}
!7 = metadata !{null, metadata !8, metadata !9, metadata !10, metadata !11, metadata !12, metadata !6}
!8 = metadata !{metadata !"kernel_arg_addr_space", i32 0}
!9 = metadata !{metadata !"kernel_arg_access_qual", metadata !"none"}
!10 = metadata !{metadata !"kernel_arg_type", metadata !"int"}
!11 = metadata !{metadata !"kernel_arg_type_qual", metadata !""}
!12 = metadata !{metadata !"kernel_arg_name", metadata !""}
!13 = metadata !{null, metadata !8, metadata !9, metadata !10, metadata !11, metadata !14, metadata !6}
!14 = metadata !{metadata !"kernel_arg_name", metadata !"op"}
!15 = metadata !{null, metadata !16, metadata !17, metadata !18, metadata !19, metadata !20, metadata !6}
!16 = metadata !{metadata !"kernel_arg_addr_space"}
!17 = metadata !{metadata !"kernel_arg_access_qual"}
!18 = metadata !{metadata !"kernel_arg_type"}
!19 = metadata !{metadata !"kernel_arg_type_qual"}
!20 = metadata !{metadata !"kernel_arg_name"}
!21 = metadata !{null, metadata !8, metadata !9, metadata !22, metadata !11, metadata !23, metadata !6}
!22 = metadata !{metadata !"kernel_arg_type", metadata !"const ap_int_base<1, false> &"}
!23 = metadata !{metadata !"kernel_arg_name", metadata !"op2"}
!24 = metadata !{null, metadata !8, metadata !9, metadata !25, metadata !11, metadata !23, metadata !6}
!25 = metadata !{metadata !"kernel_arg_type", metadata !"const ap_uint<6> &"}
!26 = metadata !{null, metadata !27, metadata !2, metadata !28, metadata !4, metadata !29, metadata !6}
!27 = metadata !{metadata !"kernel_arg_addr_space", i32 0, i32 0}
!28 = metadata !{metadata !"kernel_arg_type", metadata !"const ap_int_base<16, false> &", metadata !"int"}
!29 = metadata !{metadata !"kernel_arg_name", metadata !"op", metadata !"op2"}
!30 = metadata !{null, metadata !8, metadata !9, metadata !31, metadata !11, metadata !23, metadata !6}
!31 = metadata !{metadata !"kernel_arg_type", metadata !"const ap_int_base<32, true> &"}
!32 = metadata !{null, metadata !27, metadata !2, metadata !33, metadata !4, metadata !29, metadata !6}
!33 = metadata !{metadata !"kernel_arg_type", metadata !"ap_int_base<6, false> &", metadata !"int"}
!34 = metadata !{null, metadata !8, metadata !9, metadata !35, metadata !11, metadata !23, metadata !6}
!35 = metadata !{metadata !"kernel_arg_type", metadata !"const ap_int_base<16, false> &"}
!36 = metadata !{null, metadata !8, metadata !9, metadata !37, metadata !11, metadata !23, metadata !6}
!37 = metadata !{metadata !"kernel_arg_type", metadata !"const ap_uint<16> &"}
!38 = metadata !{null, metadata !8, metadata !9, metadata !10, metadata !11, metadata !39, metadata !6}
!39 = metadata !{metadata !"kernel_arg_name", metadata !"val"}
!40 = metadata !{null, metadata !27, metadata !2, metadata !41, metadata !4, metadata !42, metadata !6}
!41 = metadata !{metadata !"kernel_arg_type", metadata !"std::ostream &", metadata !"const ap_int_base<32, true> &"}
!42 = metadata !{metadata !"kernel_arg_name", metadata !"os", metadata !"x"}
!43 = metadata !{null, metadata !27, metadata !2, metadata !44, metadata !4, metadata !29, metadata !6}
!44 = metadata !{metadata !"kernel_arg_type", metadata !"const ap_int_base<32, true> &", metadata !"int"}
!45 = metadata !{null, metadata !27, metadata !2, metadata !46, metadata !4, metadata !47, metadata !6}
!46 = metadata !{metadata !"kernel_arg_type", metadata !"const ap_int_base<6, false> &", metadata !"int"}
!47 = metadata !{metadata !"kernel_arg_name", metadata !"op", metadata !"i_op"}
!48 = metadata !{null, metadata !27, metadata !2, metadata !49, metadata !4, metadata !29, metadata !6}
!49 = metadata !{metadata !"kernel_arg_type", metadata !"const ap_int_base<6, false> &", metadata !"const ap_int_base<32, true> &"}
!50 = metadata !{null, metadata !8, metadata !9, metadata !51, metadata !11, metadata !14, metadata !6}
!51 = metadata !{metadata !"kernel_arg_type", metadata !"const ap_int_base<6, false> &"}
!52 = metadata !{null, metadata !8, metadata !9, metadata !53, metadata !11, metadata !39, metadata !6}
!53 = metadata !{metadata !"kernel_arg_type", metadata !"long"}
!54 = metadata !{null, metadata !27, metadata !2, metadata !55, metadata !4, metadata !56, metadata !6}
!55 = metadata !{metadata !"kernel_arg_type", metadata !"enum std::_Ios_Openmode", metadata !"enum std::_Ios_Openmode"}
!56 = metadata !{metadata !"kernel_arg_name", metadata !"__a", metadata !"__b"}
!57 = metadata !{metadata !58, [0 x i32]* @llvm_global_ctors_0}
!58 = metadata !{metadata !59}
!59 = metadata !{i32 0, i32 31, metadata !60}
!60 = metadata !{metadata !61}
!61 = metadata !{metadata !"llvm.global_ctors.0", metadata !62, metadata !"", i32 0, i32 31}
!62 = metadata !{metadata !63}
!63 = metadata !{i32 0, i32 0, i32 1}
!64 = metadata !{metadata !65}
!65 = metadata !{i32 0, i32 15, metadata !66}
!66 = metadata !{metadata !67}
!67 = metadata !{metadata !"m.V", metadata !68, metadata !"uint16", i32 0, i32 15}
!68 = metadata !{metadata !69}
!69 = metadata !{i32 0, i32 5, i32 1}
!70 = metadata !{metadata !71}
!71 = metadata !{i32 0, i32 5, metadata !72}
!72 = metadata !{metadata !73}
!73 = metadata !{metadata !"out.V", metadata !62, metadata !"uint6", i32 0, i32 5}
!74 = metadata !{i32 790531, metadata !75, metadata !"m.V", null, i32 42, metadata !1098, i32 0, i32 0} ; [ DW_TAG_arg_variable_field ]
!75 = metadata !{i32 786689, metadata !76, metadata !"m", metadata !77, i32 16777258, metadata !80, i32 0, i32 0} ; [ DW_TAG_arg_variable ]
!76 = metadata !{i32 786478, i32 0, metadata !77, metadata !"pwm", metadata !"pwm", metadata !"_Z3pwmP7ap_uintILi16EERS_ILi6EE", metadata !77, i32 42, metadata !78, i1 false, i1 true, i32 0, i32 0, null, i32 256, i1 false, null, null, null, metadata !99, i32 42} ; [ DW_TAG_subprogram ]
!77 = metadata !{i32 786473, metadata !"pwm.cpp", metadata !"/home/brennan/Documents/pynq-copter/pynqcopter/ip/pwm", null} ; [ DW_TAG_file_type ]
!78 = metadata !{i32 786453, i32 0, metadata !"", i32 0, i32 0, i64 0, i64 0, i64 0, i32 0, null, metadata !79, i32 0, i32 0} ; [ DW_TAG_subroutine_type ]
!79 = metadata !{null, metadata !80, metadata !749}
!80 = metadata !{i32 786447, null, metadata !"", null, i32 0, i64 64, i64 64, i64 0, i32 0, metadata !81} ; [ DW_TAG_pointer_type ]
!81 = metadata !{i32 786454, null, metadata !"N_t", metadata !77, i32 48, i64 0, i64 0, i64 0, i32 0, metadata !82} ; [ DW_TAG_typedef ]
!82 = metadata !{i32 786434, null, metadata !"ap_uint<16>", metadata !83, i32 183, i64 16, i64 16, i32 0, i32 0, null, metadata !84, i32 0, null, metadata !748} ; [ DW_TAG_class_type ]
!83 = metadata !{i32 786473, metadata !"/home/brennan/Vivado/Vivado/2017.4/common/technology/autopilot/ap_int.h", metadata !"/home/brennan/Documents/pynq-copter/pynqcopter/ip/pwm", null} ; [ DW_TAG_file_type ]
!84 = metadata !{metadata !85, metadata !665, metadata !669, metadata !675, metadata !681, metadata !684, metadata !687, metadata !690, metadata !693, metadata !696, metadata !699, metadata !702, metadata !705, metadata !708, metadata !711, metadata !714, metadata !717, metadata !720, metadata !723, metadata !726, metadata !729, metadata !732, metadata !736, metadata !739, metadata !743, metadata !746, metadata !747}
!85 = metadata !{i32 786460, metadata !82, null, metadata !83, i32 0, i64 0, i64 0, i64 0, i32 0, metadata !86} ; [ DW_TAG_inheritance ]
!86 = metadata !{i32 786434, null, metadata !"ap_int_base<16, false, true>", metadata !87, i32 1453, i64 16, i64 16, i32 0, i32 0, null, metadata !88, i32 0, null, metadata !663} ; [ DW_TAG_class_type ]
!87 = metadata !{i32 786473, metadata !"/home/brennan/Vivado/Vivado/2017.4/common/technology/autopilot/ap_int_syn.h", metadata !"/home/brennan/Documents/pynq-copter/pynqcopter/ip/pwm", null} ; [ DW_TAG_file_type ]
!88 = metadata !{metadata !89, metadata !111, metadata !115, metadata !123, metadata !129, metadata !132, metadata !136, metadata !140, metadata !144, metadata !148, metadata !151, metadata !155, metadata !159, metadata !163, metadata !168, metadata !173, metadata !178, metadata !182, metadata !186, metadata !192, metadata !195, metadata !199, metadata !202, metadata !205, metadata !206, metadata !210, metadata !213, metadata !216, metadata !219, metadata !222, metadata !225, metadata !228, metadata !231, metadata !234, metadata !237, metadata !240, metadata !243, metadata !253, metadata !256, metadata !259, metadata !262, metadata !265, metadata !268, metadata !271, metadata !274, metadata !277, metadata !280, metadata !283, metadata !286, metadata !289, metadata !290, metadata !294, metadata !297, metadata !298, metadata !299, metadata !300, metadata !301, metadata !302, metadata !305, metadata !306, metadata !309, metadata !310, metadata !311, metadata !312, metadata !313, metadata !314, metadata !317, metadata !318, metadata !319, metadata !322, metadata !323, metadata !326, metadata !327, metadata !619, metadata !622, metadata !626, metadata !627, metadata !630, metadata !631, metadata !635, metadata !636, metadata !637, metadata !638, metadata !641, metadata !642, metadata !643, metadata !644, metadata !645, metadata !646, metadata !647, metadata !648, metadata !649, metadata !650, metadata !651, metadata !652, metadata !655, metadata !658, metadata !661, metadata !662}
!89 = metadata !{i32 786460, metadata !86, null, metadata !87, i32 0, i64 0, i64 0, i64 0, i32 0, metadata !90} ; [ DW_TAG_inheritance ]
!90 = metadata !{i32 786434, null, metadata !"ssdm_int<16 + 1024 * 0, false>", metadata !91, i32 18, i64 16, i64 16, i32 0, i32 0, null, metadata !92, i32 0, null, metadata !106} ; [ DW_TAG_class_type ]
!91 = metadata !{i32 786473, metadata !"/home/brennan/Vivado/Vivado/2017.4/common/technology/autopilot/etc/autopilot_dt.def", metadata !"/home/brennan/Documents/pynq-copter/pynqcopter/ip/pwm", null} ; [ DW_TAG_file_type ]
!92 = metadata !{metadata !93, metadata !95, metadata !101}
!93 = metadata !{i32 786445, metadata !90, metadata !"V", metadata !91, i32 18, i64 16, i64 16, i64 0, i32 0, metadata !94} ; [ DW_TAG_member ]
!94 = metadata !{i32 786468, null, metadata !"uint16", null, i32 0, i64 16, i64 16, i64 0, i32 0, i32 7} ; [ DW_TAG_base_type ]
!95 = metadata !{i32 786478, i32 0, metadata !90, metadata !"ssdm_int", metadata !"ssdm_int", metadata !"", metadata !91, i32 18, metadata !96, i1 false, i1 false, i32 0, i32 0, null, i32 256, i1 false, null, null, i32 0, metadata !99, i32 18} ; [ DW_TAG_subprogram ]
!96 = metadata !{i32 786453, i32 0, metadata !"", i32 0, i32 0, i64 0, i64 0, i64 0, i32 0, null, metadata !97, i32 0, i32 0} ; [ DW_TAG_subroutine_type ]
!97 = metadata !{null, metadata !98}
!98 = metadata !{i32 786447, i32 0, metadata !"", i32 0, i32 0, i64 64, i64 64, i64 0, i32 64, metadata !90} ; [ DW_TAG_pointer_type ]
!99 = metadata !{metadata !100}
!100 = metadata !{i32 786468}                     ; [ DW_TAG_base_type ]
!101 = metadata !{i32 786478, i32 0, metadata !90, metadata !"ssdm_int", metadata !"ssdm_int", metadata !"", metadata !91, i32 18, metadata !102, i1 false, i1 false, i32 0, i32 0, null, i32 320, i1 false, null, null, i32 0, metadata !99, i32 18} ; [ DW_TAG_subprogram ]
!102 = metadata !{i32 786453, i32 0, metadata !"", i32 0, i32 0, i64 0, i64 0, i64 0, i32 0, null, metadata !103, i32 0, i32 0} ; [ DW_TAG_subroutine_type ]
!103 = metadata !{null, metadata !98, metadata !104}
!104 = metadata !{i32 786448, null, null, null, i32 0, i64 0, i64 0, i64 0, i32 0, metadata !105} ; [ DW_TAG_reference_type ]
!105 = metadata !{i32 786470, null, metadata !"", null, i32 0, i64 0, i64 0, i64 0, i32 0, metadata !90} ; [ DW_TAG_const_type ]
!106 = metadata !{metadata !107, metadata !109}
!107 = metadata !{i32 786480, null, metadata !"_AP_N", metadata !108, i64 16, null, i32 0, i32 0} ; [ DW_TAG_template_value_parameter ]
!108 = metadata !{i32 786468, null, metadata !"int", null, i32 0, i64 32, i64 32, i64 0, i32 0, i32 5} ; [ DW_TAG_base_type ]
!109 = metadata !{i32 786480, null, metadata !"_AP_S", metadata !110, i64 0, null, i32 0, i32 0} ; [ DW_TAG_template_value_parameter ]
!110 = metadata !{i32 786468, null, metadata !"bool", null, i32 0, i64 8, i64 8, i64 0, i32 0, i32 2} ; [ DW_TAG_base_type ]
!111 = metadata !{i32 786478, i32 0, metadata !86, metadata !"ap_int_base", metadata !"ap_int_base", metadata !"", metadata !87, i32 1494, metadata !112, i1 false, i1 false, i32 0, i32 0, null, i32 256, i1 false, null, null, i32 0, metadata !99, i32 1494} ; [ DW_TAG_subprogram ]
!112 = metadata !{i32 786453, i32 0, metadata !"", i32 0, i32 0, i64 0, i64 0, i64 0, i32 0, null, metadata !113, i32 0, i32 0} ; [ DW_TAG_subroutine_type ]
!113 = metadata !{null, metadata !114}
!114 = metadata !{i32 786447, i32 0, metadata !"", i32 0, i32 0, i64 64, i64 64, i64 0, i32 64, metadata !86} ; [ DW_TAG_pointer_type ]
!115 = metadata !{i32 786478, i32 0, metadata !86, metadata !"ap_int_base<16, false>", metadata !"ap_int_base<16, false>", metadata !"", metadata !87, i32 1506, metadata !116, i1 false, i1 false, i32 0, i32 0, null, i32 256, i1 false, null, metadata !120, i32 0, metadata !99, i32 1506} ; [ DW_TAG_subprogram ]
!116 = metadata !{i32 786453, i32 0, metadata !"", i32 0, i32 0, i64 0, i64 0, i64 0, i32 0, null, metadata !117, i32 0, i32 0} ; [ DW_TAG_subroutine_type ]
!117 = metadata !{null, metadata !114, metadata !118}
!118 = metadata !{i32 786448, null, null, null, i32 0, i64 0, i64 0, i64 0, i32 0, metadata !119} ; [ DW_TAG_reference_type ]
!119 = metadata !{i32 786470, null, metadata !"", null, i32 0, i64 0, i64 0, i64 0, i32 0, metadata !86} ; [ DW_TAG_const_type ]
!120 = metadata !{metadata !121, metadata !122}
!121 = metadata !{i32 786480, null, metadata !"_AP_W2", metadata !108, i64 16, null, i32 0, i32 0} ; [ DW_TAG_template_value_parameter ]
!122 = metadata !{i32 786480, null, metadata !"_AP_S2", metadata !110, i64 0, null, i32 0, i32 0} ; [ DW_TAG_template_value_parameter ]
!123 = metadata !{i32 786478, i32 0, metadata !86, metadata !"ap_int_base<16, false>", metadata !"ap_int_base<16, false>", metadata !"", metadata !87, i32 1509, metadata !124, i1 false, i1 false, i32 0, i32 0, null, i32 256, i1 false, null, metadata !120, i32 0, metadata !99, i32 1509} ; [ DW_TAG_subprogram ]
!124 = metadata !{i32 786453, i32 0, metadata !"", i32 0, i32 0, i64 0, i64 0, i64 0, i32 0, null, metadata !125, i32 0, i32 0} ; [ DW_TAG_subroutine_type ]
!125 = metadata !{null, metadata !114, metadata !126}
!126 = metadata !{i32 786448, null, null, null, i32 0, i64 0, i64 0, i64 0, i32 0, metadata !127} ; [ DW_TAG_reference_type ]
!127 = metadata !{i32 786470, null, metadata !"", null, i32 0, i64 0, i64 0, i64 0, i32 0, metadata !128} ; [ DW_TAG_const_type ]
!128 = metadata !{i32 786485, null, metadata !"", null, i32 0, i64 0, i64 0, i64 0, i32 0, metadata !86} ; [ DW_TAG_volatile_type ]
!129 = metadata !{i32 786478, i32 0, metadata !86, metadata !"ap_int_base", metadata !"ap_int_base", metadata !"", metadata !87, i32 1516, metadata !130, i1 false, i1 false, i32 0, i32 0, null, i32 384, i1 false, null, null, i32 0, metadata !99, i32 1516} ; [ DW_TAG_subprogram ]
!130 = metadata !{i32 786453, i32 0, metadata !"", i32 0, i32 0, i64 0, i64 0, i64 0, i32 0, null, metadata !131, i32 0, i32 0} ; [ DW_TAG_subroutine_type ]
!131 = metadata !{null, metadata !114, metadata !110}
!132 = metadata !{i32 786478, i32 0, metadata !86, metadata !"ap_int_base", metadata !"ap_int_base", metadata !"", metadata !87, i32 1517, metadata !133, i1 false, i1 false, i32 0, i32 0, null, i32 384, i1 false, null, null, i32 0, metadata !99, i32 1517} ; [ DW_TAG_subprogram ]
!133 = metadata !{i32 786453, i32 0, metadata !"", i32 0, i32 0, i64 0, i64 0, i64 0, i32 0, null, metadata !134, i32 0, i32 0} ; [ DW_TAG_subroutine_type ]
!134 = metadata !{null, metadata !114, metadata !135}
!135 = metadata !{i32 786468, null, metadata !"signed char", null, i32 0, i64 8, i64 8, i64 0, i32 0, i32 6} ; [ DW_TAG_base_type ]
!136 = metadata !{i32 786478, i32 0, metadata !86, metadata !"ap_int_base", metadata !"ap_int_base", metadata !"", metadata !87, i32 1518, metadata !137, i1 false, i1 false, i32 0, i32 0, null, i32 384, i1 false, null, null, i32 0, metadata !99, i32 1518} ; [ DW_TAG_subprogram ]
!137 = metadata !{i32 786453, i32 0, metadata !"", i32 0, i32 0, i64 0, i64 0, i64 0, i32 0, null, metadata !138, i32 0, i32 0} ; [ DW_TAG_subroutine_type ]
!138 = metadata !{null, metadata !114, metadata !139}
!139 = metadata !{i32 786468, null, metadata !"unsigned char", null, i32 0, i64 8, i64 8, i64 0, i32 0, i32 8} ; [ DW_TAG_base_type ]
!140 = metadata !{i32 786478, i32 0, metadata !86, metadata !"ap_int_base", metadata !"ap_int_base", metadata !"", metadata !87, i32 1519, metadata !141, i1 false, i1 false, i32 0, i32 0, null, i32 384, i1 false, null, null, i32 0, metadata !99, i32 1519} ; [ DW_TAG_subprogram ]
!141 = metadata !{i32 786453, i32 0, metadata !"", i32 0, i32 0, i64 0, i64 0, i64 0, i32 0, null, metadata !142, i32 0, i32 0} ; [ DW_TAG_subroutine_type ]
!142 = metadata !{null, metadata !114, metadata !143}
!143 = metadata !{i32 786468, null, metadata !"short", null, i32 0, i64 16, i64 16, i64 0, i32 0, i32 5} ; [ DW_TAG_base_type ]
!144 = metadata !{i32 786478, i32 0, metadata !86, metadata !"ap_int_base", metadata !"ap_int_base", metadata !"", metadata !87, i32 1520, metadata !145, i1 false, i1 false, i32 0, i32 0, null, i32 384, i1 false, null, null, i32 0, metadata !99, i32 1520} ; [ DW_TAG_subprogram ]
!145 = metadata !{i32 786453, i32 0, metadata !"", i32 0, i32 0, i64 0, i64 0, i64 0, i32 0, null, metadata !146, i32 0, i32 0} ; [ DW_TAG_subroutine_type ]
!146 = metadata !{null, metadata !114, metadata !147}
!147 = metadata !{i32 786468, null, metadata !"unsigned short", null, i32 0, i64 16, i64 16, i64 0, i32 0, i32 7} ; [ DW_TAG_base_type ]
!148 = metadata !{i32 786478, i32 0, metadata !86, metadata !"ap_int_base", metadata !"ap_int_base", metadata !"", metadata !87, i32 1521, metadata !149, i1 false, i1 false, i32 0, i32 0, null, i32 384, i1 false, null, null, i32 0, metadata !99, i32 1521} ; [ DW_TAG_subprogram ]
!149 = metadata !{i32 786453, i32 0, metadata !"", i32 0, i32 0, i64 0, i64 0, i64 0, i32 0, null, metadata !150, i32 0, i32 0} ; [ DW_TAG_subroutine_type ]
!150 = metadata !{null, metadata !114, metadata !108}
!151 = metadata !{i32 786478, i32 0, metadata !86, metadata !"ap_int_base", metadata !"ap_int_base", metadata !"", metadata !87, i32 1522, metadata !152, i1 false, i1 false, i32 0, i32 0, null, i32 384, i1 false, null, null, i32 0, metadata !99, i32 1522} ; [ DW_TAG_subprogram ]
!152 = metadata !{i32 786453, i32 0, metadata !"", i32 0, i32 0, i64 0, i64 0, i64 0, i32 0, null, metadata !153, i32 0, i32 0} ; [ DW_TAG_subroutine_type ]
!153 = metadata !{null, metadata !114, metadata !154}
!154 = metadata !{i32 786468, null, metadata !"unsigned int", null, i32 0, i64 32, i64 32, i64 0, i32 0, i32 7} ; [ DW_TAG_base_type ]
!155 = metadata !{i32 786478, i32 0, metadata !86, metadata !"ap_int_base", metadata !"ap_int_base", metadata !"", metadata !87, i32 1523, metadata !156, i1 false, i1 false, i32 0, i32 0, null, i32 384, i1 false, null, null, i32 0, metadata !99, i32 1523} ; [ DW_TAG_subprogram ]
!156 = metadata !{i32 786453, i32 0, metadata !"", i32 0, i32 0, i64 0, i64 0, i64 0, i32 0, null, metadata !157, i32 0, i32 0} ; [ DW_TAG_subroutine_type ]
!157 = metadata !{null, metadata !114, metadata !158}
!158 = metadata !{i32 786468, null, metadata !"long int", null, i32 0, i64 64, i64 64, i64 0, i32 0, i32 5} ; [ DW_TAG_base_type ]
!159 = metadata !{i32 786478, i32 0, metadata !86, metadata !"ap_int_base", metadata !"ap_int_base", metadata !"", metadata !87, i32 1524, metadata !160, i1 false, i1 false, i32 0, i32 0, null, i32 384, i1 false, null, null, i32 0, metadata !99, i32 1524} ; [ DW_TAG_subprogram ]
!160 = metadata !{i32 786453, i32 0, metadata !"", i32 0, i32 0, i64 0, i64 0, i64 0, i32 0, null, metadata !161, i32 0, i32 0} ; [ DW_TAG_subroutine_type ]
!161 = metadata !{null, metadata !114, metadata !162}
!162 = metadata !{i32 786468, null, metadata !"long unsigned int", null, i32 0, i64 64, i64 64, i64 0, i32 0, i32 7} ; [ DW_TAG_base_type ]
!163 = metadata !{i32 786478, i32 0, metadata !86, metadata !"ap_int_base", metadata !"ap_int_base", metadata !"", metadata !87, i32 1525, metadata !164, i1 false, i1 false, i32 0, i32 0, null, i32 384, i1 false, null, null, i32 0, metadata !99, i32 1525} ; [ DW_TAG_subprogram ]
!164 = metadata !{i32 786453, i32 0, metadata !"", i32 0, i32 0, i64 0, i64 0, i64 0, i32 0, null, metadata !165, i32 0, i32 0} ; [ DW_TAG_subroutine_type ]
!165 = metadata !{null, metadata !114, metadata !166}
!166 = metadata !{i32 786454, null, metadata !"ap_slong", metadata !87, i32 112, i64 0, i64 0, i64 0, i32 0, metadata !167} ; [ DW_TAG_typedef ]
!167 = metadata !{i32 786468, null, metadata !"long long int", null, i32 0, i64 64, i64 64, i64 0, i32 0, i32 5} ; [ DW_TAG_base_type ]
!168 = metadata !{i32 786478, i32 0, metadata !86, metadata !"ap_int_base", metadata !"ap_int_base", metadata !"", metadata !87, i32 1526, metadata !169, i1 false, i1 false, i32 0, i32 0, null, i32 384, i1 false, null, null, i32 0, metadata !99, i32 1526} ; [ DW_TAG_subprogram ]
!169 = metadata !{i32 786453, i32 0, metadata !"", i32 0, i32 0, i64 0, i64 0, i64 0, i32 0, null, metadata !170, i32 0, i32 0} ; [ DW_TAG_subroutine_type ]
!170 = metadata !{null, metadata !114, metadata !171}
!171 = metadata !{i32 786454, null, metadata !"ap_ulong", metadata !87, i32 111, i64 0, i64 0, i64 0, i32 0, metadata !172} ; [ DW_TAG_typedef ]
!172 = metadata !{i32 786468, null, metadata !"long long unsigned int", null, i32 0, i64 64, i64 64, i64 0, i32 0, i32 7} ; [ DW_TAG_base_type ]
!173 = metadata !{i32 786478, i32 0, metadata !86, metadata !"ap_int_base", metadata !"ap_int_base", metadata !"", metadata !87, i32 1527, metadata !174, i1 false, i1 false, i32 0, i32 0, null, i32 384, i1 false, null, null, i32 0, metadata !99, i32 1527} ; [ DW_TAG_subprogram ]
!174 = metadata !{i32 786453, i32 0, metadata !"", i32 0, i32 0, i64 0, i64 0, i64 0, i32 0, null, metadata !175, i32 0, i32 0} ; [ DW_TAG_subroutine_type ]
!175 = metadata !{null, metadata !114, metadata !176}
!176 = metadata !{i32 786454, null, metadata !"half", metadata !87, i32 54, i64 0, i64 0, i64 0, i32 0, metadata !177} ; [ DW_TAG_typedef ]
!177 = metadata !{i32 786468, null, metadata !"half", null, i32 0, i64 16, i64 16, i64 0, i32 0, i32 4} ; [ DW_TAG_base_type ]
!178 = metadata !{i32 786478, i32 0, metadata !86, metadata !"ap_int_base", metadata !"ap_int_base", metadata !"", metadata !87, i32 1528, metadata !179, i1 false, i1 false, i32 0, i32 0, null, i32 384, i1 false, null, null, i32 0, metadata !99, i32 1528} ; [ DW_TAG_subprogram ]
!179 = metadata !{i32 786453, i32 0, metadata !"", i32 0, i32 0, i64 0, i64 0, i64 0, i32 0, null, metadata !180, i32 0, i32 0} ; [ DW_TAG_subroutine_type ]
!180 = metadata !{null, metadata !114, metadata !181}
!181 = metadata !{i32 786468, null, metadata !"float", null, i32 0, i64 32, i64 32, i64 0, i32 0, i32 4} ; [ DW_TAG_base_type ]
!182 = metadata !{i32 786478, i32 0, metadata !86, metadata !"ap_int_base", metadata !"ap_int_base", metadata !"", metadata !87, i32 1529, metadata !183, i1 false, i1 false, i32 0, i32 0, null, i32 384, i1 false, null, null, i32 0, metadata !99, i32 1529} ; [ DW_TAG_subprogram ]
!183 = metadata !{i32 786453, i32 0, metadata !"", i32 0, i32 0, i64 0, i64 0, i64 0, i32 0, null, metadata !184, i32 0, i32 0} ; [ DW_TAG_subroutine_type ]
!184 = metadata !{null, metadata !114, metadata !185}
!185 = metadata !{i32 786468, null, metadata !"double", null, i32 0, i64 64, i64 64, i64 0, i32 0, i32 4} ; [ DW_TAG_base_type ]
!186 = metadata !{i32 786478, i32 0, metadata !86, metadata !"ap_int_base", metadata !"ap_int_base", metadata !"", metadata !87, i32 1556, metadata !187, i1 false, i1 false, i32 0, i32 0, null, i32 256, i1 false, null, null, i32 0, metadata !99, i32 1556} ; [ DW_TAG_subprogram ]
!187 = metadata !{i32 786453, i32 0, metadata !"", i32 0, i32 0, i64 0, i64 0, i64 0, i32 0, null, metadata !188, i32 0, i32 0} ; [ DW_TAG_subroutine_type ]
!188 = metadata !{null, metadata !114, metadata !189}
!189 = metadata !{i32 786447, null, metadata !"", null, i32 0, i64 64, i64 64, i64 0, i32 0, metadata !190} ; [ DW_TAG_pointer_type ]
!190 = metadata !{i32 786470, null, metadata !"", null, i32 0, i64 0, i64 0, i64 0, i32 0, metadata !191} ; [ DW_TAG_const_type ]
!191 = metadata !{i32 786468, null, metadata !"char", null, i32 0, i64 8, i64 8, i64 0, i32 0, i32 6} ; [ DW_TAG_base_type ]
!192 = metadata !{i32 786478, i32 0, metadata !86, metadata !"ap_int_base", metadata !"ap_int_base", metadata !"", metadata !87, i32 1563, metadata !193, i1 false, i1 false, i32 0, i32 0, null, i32 256, i1 false, null, null, i32 0, metadata !99, i32 1563} ; [ DW_TAG_subprogram ]
!193 = metadata !{i32 786453, i32 0, metadata !"", i32 0, i32 0, i64 0, i64 0, i64 0, i32 0, null, metadata !194, i32 0, i32 0} ; [ DW_TAG_subroutine_type ]
!194 = metadata !{null, metadata !114, metadata !189, metadata !135}
!195 = metadata !{i32 786478, i32 0, metadata !86, metadata !"read", metadata !"read", metadata !"_ZNV11ap_int_baseILi16ELb0ELb1EE4readEv", metadata !87, i32 1584, metadata !196, i1 false, i1 false, i32 0, i32 0, null, i32 256, i1 false, null, null, i32 0, metadata !99, i32 1584} ; [ DW_TAG_subprogram ]
!196 = metadata !{i32 786453, i32 0, metadata !"", i32 0, i32 0, i64 0, i64 0, i64 0, i32 0, null, metadata !197, i32 0, i32 0} ; [ DW_TAG_subroutine_type ]
!197 = metadata !{metadata !86, metadata !198}
!198 = metadata !{i32 786447, i32 0, metadata !"", i32 0, i32 0, i64 64, i64 64, i64 0, i32 64, metadata !128} ; [ DW_TAG_pointer_type ]
!199 = metadata !{i32 786478, i32 0, metadata !86, metadata !"write", metadata !"write", metadata !"_ZNV11ap_int_baseILi16ELb0ELb1EE5writeERKS0_", metadata !87, i32 1590, metadata !200, i1 false, i1 false, i32 0, i32 0, null, i32 256, i1 false, null, null, i32 0, metadata !99, i32 1590} ; [ DW_TAG_subprogram ]
!200 = metadata !{i32 786453, i32 0, metadata !"", i32 0, i32 0, i64 0, i64 0, i64 0, i32 0, null, metadata !201, i32 0, i32 0} ; [ DW_TAG_subroutine_type ]
!201 = metadata !{null, metadata !198, metadata !118}
!202 = metadata !{i32 786478, i32 0, metadata !86, metadata !"operator=", metadata !"operator=", metadata !"_ZNV11ap_int_baseILi16ELb0ELb1EEaSERVKS0_", metadata !87, i32 1602, metadata !203, i1 false, i1 false, i32 0, i32 0, null, i32 256, i1 false, null, null, i32 0, metadata !99, i32 1602} ; [ DW_TAG_subprogram ]
!203 = metadata !{i32 786453, i32 0, metadata !"", i32 0, i32 0, i64 0, i64 0, i64 0, i32 0, null, metadata !204, i32 0, i32 0} ; [ DW_TAG_subroutine_type ]
!204 = metadata !{null, metadata !198, metadata !126}
!205 = metadata !{i32 786478, i32 0, metadata !86, metadata !"operator=", metadata !"operator=", metadata !"_ZNV11ap_int_baseILi16ELb0ELb1EEaSERKS0_", metadata !87, i32 1611, metadata !200, i1 false, i1 false, i32 0, i32 0, null, i32 256, i1 false, null, null, i32 0, metadata !99, i32 1611} ; [ DW_TAG_subprogram ]
!206 = metadata !{i32 786478, i32 0, metadata !86, metadata !"operator=", metadata !"operator=", metadata !"_ZN11ap_int_baseILi16ELb0ELb1EEaSERVKS0_", metadata !87, i32 1634, metadata !207, i1 false, i1 false, i32 0, i32 0, null, i32 256, i1 false, null, null, i32 0, metadata !99, i32 1634} ; [ DW_TAG_subprogram ]
!207 = metadata !{i32 786453, i32 0, metadata !"", i32 0, i32 0, i64 0, i64 0, i64 0, i32 0, null, metadata !208, i32 0, i32 0} ; [ DW_TAG_subroutine_type ]
!208 = metadata !{metadata !209, metadata !114, metadata !126}
!209 = metadata !{i32 786448, null, null, null, i32 0, i64 0, i64 0, i64 0, i32 0, metadata !86} ; [ DW_TAG_reference_type ]
!210 = metadata !{i32 786478, i32 0, metadata !86, metadata !"operator=", metadata !"operator=", metadata !"_ZN11ap_int_baseILi16ELb0ELb1EEaSERKS0_", metadata !87, i32 1639, metadata !211, i1 false, i1 false, i32 0, i32 0, null, i32 256, i1 false, null, null, i32 0, metadata !99, i32 1639} ; [ DW_TAG_subprogram ]
!211 = metadata !{i32 786453, i32 0, metadata !"", i32 0, i32 0, i64 0, i64 0, i64 0, i32 0, null, metadata !212, i32 0, i32 0} ; [ DW_TAG_subroutine_type ]
!212 = metadata !{metadata !209, metadata !114, metadata !118}
!213 = metadata !{i32 786478, i32 0, metadata !86, metadata !"operator=", metadata !"operator=", metadata !"_ZN11ap_int_baseILi16ELb0ELb1EEaSEPKc", metadata !87, i32 1643, metadata !214, i1 false, i1 false, i32 0, i32 0, null, i32 256, i1 false, null, null, i32 0, metadata !99, i32 1643} ; [ DW_TAG_subprogram ]
!214 = metadata !{i32 786453, i32 0, metadata !"", i32 0, i32 0, i64 0, i64 0, i64 0, i32 0, null, metadata !215, i32 0, i32 0} ; [ DW_TAG_subroutine_type ]
!215 = metadata !{metadata !209, metadata !114, metadata !189}
!216 = metadata !{i32 786478, i32 0, metadata !86, metadata !"set", metadata !"set", metadata !"_ZN11ap_int_baseILi16ELb0ELb1EE3setEPKca", metadata !87, i32 1651, metadata !217, i1 false, i1 false, i32 0, i32 0, null, i32 256, i1 false, null, null, i32 0, metadata !99, i32 1651} ; [ DW_TAG_subprogram ]
!217 = metadata !{i32 786453, i32 0, metadata !"", i32 0, i32 0, i64 0, i64 0, i64 0, i32 0, null, metadata !218, i32 0, i32 0} ; [ DW_TAG_subroutine_type ]
!218 = metadata !{metadata !209, metadata !114, metadata !189, metadata !135}
!219 = metadata !{i32 786478, i32 0, metadata !86, metadata !"operator=", metadata !"operator=", metadata !"_ZN11ap_int_baseILi16ELb0ELb1EEaSEa", metadata !87, i32 1665, metadata !220, i1 false, i1 false, i32 0, i32 0, null, i32 256, i1 false, null, null, i32 0, metadata !99, i32 1665} ; [ DW_TAG_subprogram ]
!220 = metadata !{i32 786453, i32 0, metadata !"", i32 0, i32 0, i64 0, i64 0, i64 0, i32 0, null, metadata !221, i32 0, i32 0} ; [ DW_TAG_subroutine_type ]
!221 = metadata !{metadata !209, metadata !114, metadata !135}
!222 = metadata !{i32 786478, i32 0, metadata !86, metadata !"operator=", metadata !"operator=", metadata !"_ZN11ap_int_baseILi16ELb0ELb1EEaSEh", metadata !87, i32 1666, metadata !223, i1 false, i1 false, i32 0, i32 0, null, i32 256, i1 false, null, null, i32 0, metadata !99, i32 1666} ; [ DW_TAG_subprogram ]
!223 = metadata !{i32 786453, i32 0, metadata !"", i32 0, i32 0, i64 0, i64 0, i64 0, i32 0, null, metadata !224, i32 0, i32 0} ; [ DW_TAG_subroutine_type ]
!224 = metadata !{metadata !209, metadata !114, metadata !139}
!225 = metadata !{i32 786478, i32 0, metadata !86, metadata !"operator=", metadata !"operator=", metadata !"_ZN11ap_int_baseILi16ELb0ELb1EEaSEs", metadata !87, i32 1667, metadata !226, i1 false, i1 false, i32 0, i32 0, null, i32 256, i1 false, null, null, i32 0, metadata !99, i32 1667} ; [ DW_TAG_subprogram ]
!226 = metadata !{i32 786453, i32 0, metadata !"", i32 0, i32 0, i64 0, i64 0, i64 0, i32 0, null, metadata !227, i32 0, i32 0} ; [ DW_TAG_subroutine_type ]
!227 = metadata !{metadata !209, metadata !114, metadata !143}
!228 = metadata !{i32 786478, i32 0, metadata !86, metadata !"operator=", metadata !"operator=", metadata !"_ZN11ap_int_baseILi16ELb0ELb1EEaSEt", metadata !87, i32 1668, metadata !229, i1 false, i1 false, i32 0, i32 0, null, i32 256, i1 false, null, null, i32 0, metadata !99, i32 1668} ; [ DW_TAG_subprogram ]
!229 = metadata !{i32 786453, i32 0, metadata !"", i32 0, i32 0, i64 0, i64 0, i64 0, i32 0, null, metadata !230, i32 0, i32 0} ; [ DW_TAG_subroutine_type ]
!230 = metadata !{metadata !209, metadata !114, metadata !147}
!231 = metadata !{i32 786478, i32 0, metadata !86, metadata !"operator=", metadata !"operator=", metadata !"_ZN11ap_int_baseILi16ELb0ELb1EEaSEi", metadata !87, i32 1669, metadata !232, i1 false, i1 false, i32 0, i32 0, null, i32 256, i1 false, null, null, i32 0, metadata !99, i32 1669} ; [ DW_TAG_subprogram ]
!232 = metadata !{i32 786453, i32 0, metadata !"", i32 0, i32 0, i64 0, i64 0, i64 0, i32 0, null, metadata !233, i32 0, i32 0} ; [ DW_TAG_subroutine_type ]
!233 = metadata !{metadata !209, metadata !114, metadata !108}
!234 = metadata !{i32 786478, i32 0, metadata !86, metadata !"operator=", metadata !"operator=", metadata !"_ZN11ap_int_baseILi16ELb0ELb1EEaSEj", metadata !87, i32 1670, metadata !235, i1 false, i1 false, i32 0, i32 0, null, i32 256, i1 false, null, null, i32 0, metadata !99, i32 1670} ; [ DW_TAG_subprogram ]
!235 = metadata !{i32 786453, i32 0, metadata !"", i32 0, i32 0, i64 0, i64 0, i64 0, i32 0, null, metadata !236, i32 0, i32 0} ; [ DW_TAG_subroutine_type ]
!236 = metadata !{metadata !209, metadata !114, metadata !154}
!237 = metadata !{i32 786478, i32 0, metadata !86, metadata !"operator=", metadata !"operator=", metadata !"_ZN11ap_int_baseILi16ELb0ELb1EEaSEx", metadata !87, i32 1671, metadata !238, i1 false, i1 false, i32 0, i32 0, null, i32 256, i1 false, null, null, i32 0, metadata !99, i32 1671} ; [ DW_TAG_subprogram ]
!238 = metadata !{i32 786453, i32 0, metadata !"", i32 0, i32 0, i64 0, i64 0, i64 0, i32 0, null, metadata !239, i32 0, i32 0} ; [ DW_TAG_subroutine_type ]
!239 = metadata !{metadata !209, metadata !114, metadata !166}
!240 = metadata !{i32 786478, i32 0, metadata !86, metadata !"operator=", metadata !"operator=", metadata !"_ZN11ap_int_baseILi16ELb0ELb1EEaSEy", metadata !87, i32 1672, metadata !241, i1 false, i1 false, i32 0, i32 0, null, i32 256, i1 false, null, null, i32 0, metadata !99, i32 1672} ; [ DW_TAG_subprogram ]
!241 = metadata !{i32 786453, i32 0, metadata !"", i32 0, i32 0, i64 0, i64 0, i64 0, i32 0, null, metadata !242, i32 0, i32 0} ; [ DW_TAG_subroutine_type ]
!242 = metadata !{metadata !209, metadata !114, metadata !171}
!243 = metadata !{i32 786478, i32 0, metadata !86, metadata !"operator unsigned short", metadata !"operator unsigned short", metadata !"_ZNK11ap_int_baseILi16ELb0ELb1EEcvtEv", metadata !87, i32 1710, metadata !244, i1 false, i1 false, i32 0, i32 0, null, i32 256, i1 false, null, null, i32 0, metadata !99, i32 1710} ; [ DW_TAG_subprogram ]
!244 = metadata !{i32 786453, i32 0, metadata !"", i32 0, i32 0, i64 0, i64 0, i64 0, i32 0, null, metadata !245, i32 0, i32 0} ; [ DW_TAG_subroutine_type ]
!245 = metadata !{metadata !246, metadata !252}
!246 = metadata !{i32 786454, metadata !86, metadata !"RetType", metadata !87, i32 1458, i64 0, i64 0, i64 0, i32 0, metadata !247} ; [ DW_TAG_typedef ]
!247 = metadata !{i32 786454, metadata !248, metadata !"Type", metadata !87, i32 1432, i64 0, i64 0, i64 0, i32 0, metadata !147} ; [ DW_TAG_typedef ]
!248 = metadata !{i32 786434, null, metadata !"retval<2, false>", metadata !87, i32 1431, i64 8, i64 8, i32 0, i32 0, null, metadata !249, i32 0, null, metadata !250} ; [ DW_TAG_class_type ]
!249 = metadata !{i32 0}
!250 = metadata !{metadata !251, metadata !109}
!251 = metadata !{i32 786480, null, metadata !"_AP_N", metadata !108, i64 2, null, i32 0, i32 0} ; [ DW_TAG_template_value_parameter ]
!252 = metadata !{i32 786447, i32 0, metadata !"", i32 0, i32 0, i64 64, i64 64, i64 0, i32 64, metadata !119} ; [ DW_TAG_pointer_type ]
!253 = metadata !{i32 786478, i32 0, metadata !86, metadata !"to_bool", metadata !"to_bool", metadata !"_ZNK11ap_int_baseILi16ELb0ELb1EE7to_boolEv", metadata !87, i32 1716, metadata !254, i1 false, i1 false, i32 0, i32 0, null, i32 256, i1 false, null, null, i32 0, metadata !99, i32 1716} ; [ DW_TAG_subprogram ]
!254 = metadata !{i32 786453, i32 0, metadata !"", i32 0, i32 0, i64 0, i64 0, i64 0, i32 0, null, metadata !255, i32 0, i32 0} ; [ DW_TAG_subroutine_type ]
!255 = metadata !{metadata !110, metadata !252}
!256 = metadata !{i32 786478, i32 0, metadata !86, metadata !"to_uchar", metadata !"to_uchar", metadata !"_ZNK11ap_int_baseILi16ELb0ELb1EE8to_ucharEv", metadata !87, i32 1717, metadata !257, i1 false, i1 false, i32 0, i32 0, null, i32 256, i1 false, null, null, i32 0, metadata !99, i32 1717} ; [ DW_TAG_subprogram ]
!257 = metadata !{i32 786453, i32 0, metadata !"", i32 0, i32 0, i64 0, i64 0, i64 0, i32 0, null, metadata !258, i32 0, i32 0} ; [ DW_TAG_subroutine_type ]
!258 = metadata !{metadata !139, metadata !252}
!259 = metadata !{i32 786478, i32 0, metadata !86, metadata !"to_char", metadata !"to_char", metadata !"_ZNK11ap_int_baseILi16ELb0ELb1EE7to_charEv", metadata !87, i32 1718, metadata !260, i1 false, i1 false, i32 0, i32 0, null, i32 256, i1 false, null, null, i32 0, metadata !99, i32 1718} ; [ DW_TAG_subprogram ]
!260 = metadata !{i32 786453, i32 0, metadata !"", i32 0, i32 0, i64 0, i64 0, i64 0, i32 0, null, metadata !261, i32 0, i32 0} ; [ DW_TAG_subroutine_type ]
!261 = metadata !{metadata !135, metadata !252}
!262 = metadata !{i32 786478, i32 0, metadata !86, metadata !"to_ushort", metadata !"to_ushort", metadata !"_ZNK11ap_int_baseILi16ELb0ELb1EE9to_ushortEv", metadata !87, i32 1719, metadata !263, i1 false, i1 false, i32 0, i32 0, null, i32 256, i1 false, null, null, i32 0, metadata !99, i32 1719} ; [ DW_TAG_subprogram ]
!263 = metadata !{i32 786453, i32 0, metadata !"", i32 0, i32 0, i64 0, i64 0, i64 0, i32 0, null, metadata !264, i32 0, i32 0} ; [ DW_TAG_subroutine_type ]
!264 = metadata !{metadata !147, metadata !252}
!265 = metadata !{i32 786478, i32 0, metadata !86, metadata !"to_short", metadata !"to_short", metadata !"_ZNK11ap_int_baseILi16ELb0ELb1EE8to_shortEv", metadata !87, i32 1720, metadata !266, i1 false, i1 false, i32 0, i32 0, null, i32 256, i1 false, null, null, i32 0, metadata !99, i32 1720} ; [ DW_TAG_subprogram ]
!266 = metadata !{i32 786453, i32 0, metadata !"", i32 0, i32 0, i64 0, i64 0, i64 0, i32 0, null, metadata !267, i32 0, i32 0} ; [ DW_TAG_subroutine_type ]
!267 = metadata !{metadata !143, metadata !252}
!268 = metadata !{i32 786478, i32 0, metadata !86, metadata !"to_int", metadata !"to_int", metadata !"_ZNK11ap_int_baseILi16ELb0ELb1EE6to_intEv", metadata !87, i32 1721, metadata !269, i1 false, i1 false, i32 0, i32 0, null, i32 256, i1 false, null, null, i32 0, metadata !99, i32 1721} ; [ DW_TAG_subprogram ]
!269 = metadata !{i32 786453, i32 0, metadata !"", i32 0, i32 0, i64 0, i64 0, i64 0, i32 0, null, metadata !270, i32 0, i32 0} ; [ DW_TAG_subroutine_type ]
!270 = metadata !{metadata !108, metadata !252}
!271 = metadata !{i32 786478, i32 0, metadata !86, metadata !"to_uint", metadata !"to_uint", metadata !"_ZNK11ap_int_baseILi16ELb0ELb1EE7to_uintEv", metadata !87, i32 1722, metadata !272, i1 false, i1 false, i32 0, i32 0, null, i32 256, i1 false, null, null, i32 0, metadata !99, i32 1722} ; [ DW_TAG_subprogram ]
!272 = metadata !{i32 786453, i32 0, metadata !"", i32 0, i32 0, i64 0, i64 0, i64 0, i32 0, null, metadata !273, i32 0, i32 0} ; [ DW_TAG_subroutine_type ]
!273 = metadata !{metadata !154, metadata !252}
!274 = metadata !{i32 786478, i32 0, metadata !86, metadata !"to_long", metadata !"to_long", metadata !"_ZNK11ap_int_baseILi16ELb0ELb1EE7to_longEv", metadata !87, i32 1723, metadata !275, i1 false, i1 false, i32 0, i32 0, null, i32 256, i1 false, null, null, i32 0, metadata !99, i32 1723} ; [ DW_TAG_subprogram ]
!275 = metadata !{i32 786453, i32 0, metadata !"", i32 0, i32 0, i64 0, i64 0, i64 0, i32 0, null, metadata !276, i32 0, i32 0} ; [ DW_TAG_subroutine_type ]
!276 = metadata !{metadata !158, metadata !252}
!277 = metadata !{i32 786478, i32 0, metadata !86, metadata !"to_ulong", metadata !"to_ulong", metadata !"_ZNK11ap_int_baseILi16ELb0ELb1EE8to_ulongEv", metadata !87, i32 1724, metadata !278, i1 false, i1 false, i32 0, i32 0, null, i32 256, i1 false, null, null, i32 0, metadata !99, i32 1724} ; [ DW_TAG_subprogram ]
!278 = metadata !{i32 786453, i32 0, metadata !"", i32 0, i32 0, i64 0, i64 0, i64 0, i32 0, null, metadata !279, i32 0, i32 0} ; [ DW_TAG_subroutine_type ]
!279 = metadata !{metadata !162, metadata !252}
!280 = metadata !{i32 786478, i32 0, metadata !86, metadata !"to_int64", metadata !"to_int64", metadata !"_ZNK11ap_int_baseILi16ELb0ELb1EE8to_int64Ev", metadata !87, i32 1725, metadata !281, i1 false, i1 false, i32 0, i32 0, null, i32 256, i1 false, null, null, i32 0, metadata !99, i32 1725} ; [ DW_TAG_subprogram ]
!281 = metadata !{i32 786453, i32 0, metadata !"", i32 0, i32 0, i64 0, i64 0, i64 0, i32 0, null, metadata !282, i32 0, i32 0} ; [ DW_TAG_subroutine_type ]
!282 = metadata !{metadata !166, metadata !252}
!283 = metadata !{i32 786478, i32 0, metadata !86, metadata !"to_uint64", metadata !"to_uint64", metadata !"_ZNK11ap_int_baseILi16ELb0ELb1EE9to_uint64Ev", metadata !87, i32 1726, metadata !284, i1 false, i1 false, i32 0, i32 0, null, i32 256, i1 false, null, null, i32 0, metadata !99, i32 1726} ; [ DW_TAG_subprogram ]
!284 = metadata !{i32 786453, i32 0, metadata !"", i32 0, i32 0, i64 0, i64 0, i64 0, i32 0, null, metadata !285, i32 0, i32 0} ; [ DW_TAG_subroutine_type ]
!285 = metadata !{metadata !171, metadata !252}
!286 = metadata !{i32 786478, i32 0, metadata !86, metadata !"to_double", metadata !"to_double", metadata !"_ZNK11ap_int_baseILi16ELb0ELb1EE9to_doubleEv", metadata !87, i32 1727, metadata !287, i1 false, i1 false, i32 0, i32 0, null, i32 256, i1 false, null, null, i32 0, metadata !99, i32 1727} ; [ DW_TAG_subprogram ]
!287 = metadata !{i32 786453, i32 0, metadata !"", i32 0, i32 0, i64 0, i64 0, i64 0, i32 0, null, metadata !288, i32 0, i32 0} ; [ DW_TAG_subroutine_type ]
!288 = metadata !{metadata !185, metadata !252}
!289 = metadata !{i32 786478, i32 0, metadata !86, metadata !"length", metadata !"length", metadata !"_ZNK11ap_int_baseILi16ELb0ELb1EE6lengthEv", metadata !87, i32 1741, metadata !269, i1 false, i1 false, i32 0, i32 0, null, i32 256, i1 false, null, null, i32 0, metadata !99, i32 1741} ; [ DW_TAG_subprogram ]
!290 = metadata !{i32 786478, i32 0, metadata !86, metadata !"length", metadata !"length", metadata !"_ZNVK11ap_int_baseILi16ELb0ELb1EE6lengthEv", metadata !87, i32 1742, metadata !291, i1 false, i1 false, i32 0, i32 0, null, i32 256, i1 false, null, null, i32 0, metadata !99, i32 1742} ; [ DW_TAG_subprogram ]
!291 = metadata !{i32 786453, i32 0, metadata !"", i32 0, i32 0, i64 0, i64 0, i64 0, i32 0, null, metadata !292, i32 0, i32 0} ; [ DW_TAG_subroutine_type ]
!292 = metadata !{metadata !108, metadata !293}
!293 = metadata !{i32 786447, i32 0, metadata !"", i32 0, i32 0, i64 64, i64 64, i64 0, i32 64, metadata !127} ; [ DW_TAG_pointer_type ]
!294 = metadata !{i32 786478, i32 0, metadata !86, metadata !"reverse", metadata !"reverse", metadata !"_ZN11ap_int_baseILi16ELb0ELb1EE7reverseEv", metadata !87, i32 1747, metadata !295, i1 false, i1 false, i32 0, i32 0, null, i32 256, i1 false, null, null, i32 0, metadata !99, i32 1747} ; [ DW_TAG_subprogram ]
!295 = metadata !{i32 786453, i32 0, metadata !"", i32 0, i32 0, i64 0, i64 0, i64 0, i32 0, null, metadata !296, i32 0, i32 0} ; [ DW_TAG_subroutine_type ]
!296 = metadata !{metadata !209, metadata !114}
!297 = metadata !{i32 786478, i32 0, metadata !86, metadata !"iszero", metadata !"iszero", metadata !"_ZNK11ap_int_baseILi16ELb0ELb1EE6iszeroEv", metadata !87, i32 1753, metadata !254, i1 false, i1 false, i32 0, i32 0, null, i32 256, i1 false, null, null, i32 0, metadata !99, i32 1753} ; [ DW_TAG_subprogram ]
!298 = metadata !{i32 786478, i32 0, metadata !86, metadata !"is_zero", metadata !"is_zero", metadata !"_ZNK11ap_int_baseILi16ELb0ELb1EE7is_zeroEv", metadata !87, i32 1758, metadata !254, i1 false, i1 false, i32 0, i32 0, null, i32 256, i1 false, null, null, i32 0, metadata !99, i32 1758} ; [ DW_TAG_subprogram ]
!299 = metadata !{i32 786478, i32 0, metadata !86, metadata !"sign", metadata !"sign", metadata !"_ZNK11ap_int_baseILi16ELb0ELb1EE4signEv", metadata !87, i32 1763, metadata !254, i1 false, i1 false, i32 0, i32 0, null, i32 256, i1 false, null, null, i32 0, metadata !99, i32 1763} ; [ DW_TAG_subprogram ]
!300 = metadata !{i32 786478, i32 0, metadata !86, metadata !"clear", metadata !"clear", metadata !"_ZN11ap_int_baseILi16ELb0ELb1EE5clearEi", metadata !87, i32 1771, metadata !149, i1 false, i1 false, i32 0, i32 0, null, i32 256, i1 false, null, null, i32 0, metadata !99, i32 1771} ; [ DW_TAG_subprogram ]
!301 = metadata !{i32 786478, i32 0, metadata !86, metadata !"invert", metadata !"invert", metadata !"_ZN11ap_int_baseILi16ELb0ELb1EE6invertEi", metadata !87, i32 1777, metadata !149, i1 false, i1 false, i32 0, i32 0, null, i32 256, i1 false, null, null, i32 0, metadata !99, i32 1777} ; [ DW_TAG_subprogram ]
!302 = metadata !{i32 786478, i32 0, metadata !86, metadata !"test", metadata !"test", metadata !"_ZNK11ap_int_baseILi16ELb0ELb1EE4testEi", metadata !87, i32 1785, metadata !303, i1 false, i1 false, i32 0, i32 0, null, i32 256, i1 false, null, null, i32 0, metadata !99, i32 1785} ; [ DW_TAG_subprogram ]
!303 = metadata !{i32 786453, i32 0, metadata !"", i32 0, i32 0, i64 0, i64 0, i64 0, i32 0, null, metadata !304, i32 0, i32 0} ; [ DW_TAG_subroutine_type ]
!304 = metadata !{metadata !110, metadata !252, metadata !108}
!305 = metadata !{i32 786478, i32 0, metadata !86, metadata !"set", metadata !"set", metadata !"_ZN11ap_int_baseILi16ELb0ELb1EE3setEi", metadata !87, i32 1791, metadata !149, i1 false, i1 false, i32 0, i32 0, null, i32 256, i1 false, null, null, i32 0, metadata !99, i32 1791} ; [ DW_TAG_subprogram ]
!306 = metadata !{i32 786478, i32 0, metadata !86, metadata !"set", metadata !"set", metadata !"_ZN11ap_int_baseILi16ELb0ELb1EE3setEib", metadata !87, i32 1797, metadata !307, i1 false, i1 false, i32 0, i32 0, null, i32 256, i1 false, null, null, i32 0, metadata !99, i32 1797} ; [ DW_TAG_subprogram ]
!307 = metadata !{i32 786453, i32 0, metadata !"", i32 0, i32 0, i64 0, i64 0, i64 0, i32 0, null, metadata !308, i32 0, i32 0} ; [ DW_TAG_subroutine_type ]
!308 = metadata !{null, metadata !114, metadata !108, metadata !110}
!309 = metadata !{i32 786478, i32 0, metadata !86, metadata !"lrotate", metadata !"lrotate", metadata !"_ZN11ap_int_baseILi16ELb0ELb1EE7lrotateEi", metadata !87, i32 1804, metadata !149, i1 false, i1 false, i32 0, i32 0, null, i32 256, i1 false, null, null, i32 0, metadata !99, i32 1804} ; [ DW_TAG_subprogram ]
!310 = metadata !{i32 786478, i32 0, metadata !86, metadata !"rrotate", metadata !"rrotate", metadata !"_ZN11ap_int_baseILi16ELb0ELb1EE7rrotateEi", metadata !87, i32 1813, metadata !149, i1 false, i1 false, i32 0, i32 0, null, i32 256, i1 false, null, null, i32 0, metadata !99, i32 1813} ; [ DW_TAG_subprogram ]
!311 = metadata !{i32 786478, i32 0, metadata !86, metadata !"set_bit", metadata !"set_bit", metadata !"_ZN11ap_int_baseILi16ELb0ELb1EE7set_bitEib", metadata !87, i32 1821, metadata !307, i1 false, i1 false, i32 0, i32 0, null, i32 256, i1 false, null, null, i32 0, metadata !99, i32 1821} ; [ DW_TAG_subprogram ]
!312 = metadata !{i32 786478, i32 0, metadata !86, metadata !"get_bit", metadata !"get_bit", metadata !"_ZNK11ap_int_baseILi16ELb0ELb1EE7get_bitEi", metadata !87, i32 1826, metadata !303, i1 false, i1 false, i32 0, i32 0, null, i32 256, i1 false, null, null, i32 0, metadata !99, i32 1826} ; [ DW_TAG_subprogram ]
!313 = metadata !{i32 786478, i32 0, metadata !86, metadata !"b_not", metadata !"b_not", metadata !"_ZN11ap_int_baseILi16ELb0ELb1EE5b_notEv", metadata !87, i32 1831, metadata !112, i1 false, i1 false, i32 0, i32 0, null, i32 256, i1 false, null, null, i32 0, metadata !99, i32 1831} ; [ DW_TAG_subprogram ]
!314 = metadata !{i32 786478, i32 0, metadata !86, metadata !"countLeadingZeros", metadata !"countLeadingZeros", metadata !"_ZN11ap_int_baseILi16ELb0ELb1EE17countLeadingZerosEv", metadata !87, i32 1838, metadata !315, i1 false, i1 false, i32 0, i32 0, null, i32 256, i1 false, null, null, i32 0, metadata !99, i32 1838} ; [ DW_TAG_subprogram ]
!315 = metadata !{i32 786453, i32 0, metadata !"", i32 0, i32 0, i64 0, i64 0, i64 0, i32 0, null, metadata !316, i32 0, i32 0} ; [ DW_TAG_subroutine_type ]
!316 = metadata !{metadata !108, metadata !114}
!317 = metadata !{i32 786478, i32 0, metadata !86, metadata !"operator++", metadata !"operator++", metadata !"_ZN11ap_int_baseILi16ELb0ELb1EEppEv", metadata !87, i32 1895, metadata !295, i1 false, i1 false, i32 0, i32 0, null, i32 256, i1 false, null, null, i32 0, metadata !99, i32 1895} ; [ DW_TAG_subprogram ]
!318 = metadata !{i32 786478, i32 0, metadata !86, metadata !"operator--", metadata !"operator--", metadata !"_ZN11ap_int_baseILi16ELb0ELb1EEmmEv", metadata !87, i32 1899, metadata !295, i1 false, i1 false, i32 0, i32 0, null, i32 256, i1 false, null, null, i32 0, metadata !99, i32 1899} ; [ DW_TAG_subprogram ]
!319 = metadata !{i32 786478, i32 0, metadata !86, metadata !"operator++", metadata !"operator++", metadata !"_ZN11ap_int_baseILi16ELb0ELb1EEppEi", metadata !87, i32 1907, metadata !320, i1 false, i1 false, i32 0, i32 0, null, i32 256, i1 false, null, null, i32 0, metadata !99, i32 1907} ; [ DW_TAG_subprogram ]
!320 = metadata !{i32 786453, i32 0, metadata !"", i32 0, i32 0, i64 0, i64 0, i64 0, i32 0, null, metadata !321, i32 0, i32 0} ; [ DW_TAG_subroutine_type ]
!321 = metadata !{metadata !119, metadata !114, metadata !108}
!322 = metadata !{i32 786478, i32 0, metadata !86, metadata !"operator--", metadata !"operator--", metadata !"_ZN11ap_int_baseILi16ELb0ELb1EEmmEi", metadata !87, i32 1912, metadata !320, i1 false, i1 false, i32 0, i32 0, null, i32 256, i1 false, null, null, i32 0, metadata !99, i32 1912} ; [ DW_TAG_subprogram ]
!323 = metadata !{i32 786478, i32 0, metadata !86, metadata !"operator+", metadata !"operator+", metadata !"_ZNK11ap_int_baseILi16ELb0ELb1EEpsEv", metadata !87, i32 1921, metadata !324, i1 false, i1 false, i32 0, i32 0, null, i32 256, i1 false, null, null, i32 0, metadata !99, i32 1921} ; [ DW_TAG_subprogram ]
!324 = metadata !{i32 786453, i32 0, metadata !"", i32 0, i32 0, i64 0, i64 0, i64 0, i32 0, null, metadata !325, i32 0, i32 0} ; [ DW_TAG_subroutine_type ]
!325 = metadata !{metadata !86, metadata !252}
!326 = metadata !{i32 786478, i32 0, metadata !86, metadata !"operator!", metadata !"operator!", metadata !"_ZNK11ap_int_baseILi16ELb0ELb1EEntEv", metadata !87, i32 1927, metadata !254, i1 false, i1 false, i32 0, i32 0, null, i32 256, i1 false, null, null, i32 0, metadata !99, i32 1927} ; [ DW_TAG_subprogram ]
!327 = metadata !{i32 786478, i32 0, metadata !86, metadata !"operator-", metadata !"operator-", metadata !"_ZNK11ap_int_baseILi16ELb0ELb1EEngEv", metadata !87, i32 1932, metadata !328, i1 false, i1 false, i32 0, i32 0, null, i32 256, i1 false, null, null, i32 0, metadata !99, i32 1932} ; [ DW_TAG_subprogram ]
!328 = metadata !{i32 786453, i32 0, metadata !"", i32 0, i32 0, i64 0, i64 0, i64 0, i32 0, null, metadata !329, i32 0, i32 0} ; [ DW_TAG_subroutine_type ]
!329 = metadata !{metadata !330, metadata !252}
!330 = metadata !{i32 786434, null, metadata !"ap_int_base<17, true, true>", metadata !87, i32 1453, i64 32, i64 32, i32 0, i32 0, null, metadata !331, i32 0, null, metadata !617} ; [ DW_TAG_class_type ]
!331 = metadata !{metadata !332, metadata !344, metadata !348, metadata !351, metadata !354, metadata !357, metadata !360, metadata !363, metadata !366, metadata !369, metadata !372, metadata !375, metadata !378, metadata !381, metadata !384, metadata !387, metadata !390, metadata !393, metadata !396, metadata !401, metadata !406, metadata !411, metadata !412, metadata !416, metadata !419, metadata !422, metadata !425, metadata !428, metadata !431, metadata !434, metadata !437, metadata !440, metadata !443, metadata !446, metadata !449, metadata !458, metadata !461, metadata !464, metadata !467, metadata !470, metadata !473, metadata !476, metadata !479, metadata !482, metadata !485, metadata !488, metadata !491, metadata !494, metadata !495, metadata !499, metadata !502, metadata !503, metadata !504, metadata !505, metadata !506, metadata !507, metadata !510, metadata !511, metadata !514, metadata !515, metadata !516, metadata !517, metadata !518, metadata !519, metadata !522, metadata !523, metadata !524, metadata !527, metadata !528, metadata !531, metadata !532, metadata !536, metadata !540, metadata !541, metadata !544, metadata !545, metadata !584, metadata !585, metadata !586, metadata !587, metadata !590, metadata !591, metadata !592, metadata !593, metadata !594, metadata !595, metadata !596, metadata !597, metadata !598, metadata !599, metadata !600, metadata !601, metadata !611, metadata !614}
!332 = metadata !{i32 786460, metadata !330, null, metadata !87, i32 0, i64 0, i64 0, i64 0, i32 0, metadata !333} ; [ DW_TAG_inheritance ]
!333 = metadata !{i32 786434, null, metadata !"ssdm_int<17 + 1024 * 0, true>", metadata !91, i32 19, i64 32, i64 32, i32 0, i32 0, null, metadata !334, i32 0, null, metadata !341} ; [ DW_TAG_class_type ]
!334 = metadata !{metadata !335, metadata !337}
!335 = metadata !{i32 786445, metadata !333, metadata !"V", metadata !91, i32 19, i64 17, i64 32, i64 0, i32 0, metadata !336} ; [ DW_TAG_member ]
!336 = metadata !{i32 786468, null, metadata !"int17", null, i32 0, i64 17, i64 32, i64 0, i32 0, i32 5} ; [ DW_TAG_base_type ]
!337 = metadata !{i32 786478, i32 0, metadata !333, metadata !"ssdm_int", metadata !"ssdm_int", metadata !"", metadata !91, i32 19, metadata !338, i1 false, i1 false, i32 0, i32 0, null, i32 256, i1 false, null, null, i32 0, metadata !99, i32 19} ; [ DW_TAG_subprogram ]
!338 = metadata !{i32 786453, i32 0, metadata !"", i32 0, i32 0, i64 0, i64 0, i64 0, i32 0, null, metadata !339, i32 0, i32 0} ; [ DW_TAG_subroutine_type ]
!339 = metadata !{null, metadata !340}
!340 = metadata !{i32 786447, i32 0, metadata !"", i32 0, i32 0, i64 64, i64 64, i64 0, i32 64, metadata !333} ; [ DW_TAG_pointer_type ]
!341 = metadata !{metadata !342, metadata !343}
!342 = metadata !{i32 786480, null, metadata !"_AP_N", metadata !108, i64 17, null, i32 0, i32 0} ; [ DW_TAG_template_value_parameter ]
!343 = metadata !{i32 786480, null, metadata !"_AP_S", metadata !110, i64 1, null, i32 0, i32 0} ; [ DW_TAG_template_value_parameter ]
!344 = metadata !{i32 786478, i32 0, metadata !330, metadata !"ap_int_base", metadata !"ap_int_base", metadata !"", metadata !87, i32 1494, metadata !345, i1 false, i1 false, i32 0, i32 0, null, i32 256, i1 false, null, null, i32 0, metadata !99, i32 1494} ; [ DW_TAG_subprogram ]
!345 = metadata !{i32 786453, i32 0, metadata !"", i32 0, i32 0, i64 0, i64 0, i64 0, i32 0, null, metadata !346, i32 0, i32 0} ; [ DW_TAG_subroutine_type ]
!346 = metadata !{null, metadata !347}
!347 = metadata !{i32 786447, i32 0, metadata !"", i32 0, i32 0, i64 64, i64 64, i64 0, i32 64, metadata !330} ; [ DW_TAG_pointer_type ]
!348 = metadata !{i32 786478, i32 0, metadata !330, metadata !"ap_int_base", metadata !"ap_int_base", metadata !"", metadata !87, i32 1516, metadata !349, i1 false, i1 false, i32 0, i32 0, null, i32 384, i1 false, null, null, i32 0, metadata !99, i32 1516} ; [ DW_TAG_subprogram ]
!349 = metadata !{i32 786453, i32 0, metadata !"", i32 0, i32 0, i64 0, i64 0, i64 0, i32 0, null, metadata !350, i32 0, i32 0} ; [ DW_TAG_subroutine_type ]
!350 = metadata !{null, metadata !347, metadata !110}
!351 = metadata !{i32 786478, i32 0, metadata !330, metadata !"ap_int_base", metadata !"ap_int_base", metadata !"", metadata !87, i32 1517, metadata !352, i1 false, i1 false, i32 0, i32 0, null, i32 384, i1 false, null, null, i32 0, metadata !99, i32 1517} ; [ DW_TAG_subprogram ]
!352 = metadata !{i32 786453, i32 0, metadata !"", i32 0, i32 0, i64 0, i64 0, i64 0, i32 0, null, metadata !353, i32 0, i32 0} ; [ DW_TAG_subroutine_type ]
!353 = metadata !{null, metadata !347, metadata !135}
!354 = metadata !{i32 786478, i32 0, metadata !330, metadata !"ap_int_base", metadata !"ap_int_base", metadata !"", metadata !87, i32 1518, metadata !355, i1 false, i1 false, i32 0, i32 0, null, i32 384, i1 false, null, null, i32 0, metadata !99, i32 1518} ; [ DW_TAG_subprogram ]
!355 = metadata !{i32 786453, i32 0, metadata !"", i32 0, i32 0, i64 0, i64 0, i64 0, i32 0, null, metadata !356, i32 0, i32 0} ; [ DW_TAG_subroutine_type ]
!356 = metadata !{null, metadata !347, metadata !139}
!357 = metadata !{i32 786478, i32 0, metadata !330, metadata !"ap_int_base", metadata !"ap_int_base", metadata !"", metadata !87, i32 1519, metadata !358, i1 false, i1 false, i32 0, i32 0, null, i32 384, i1 false, null, null, i32 0, metadata !99, i32 1519} ; [ DW_TAG_subprogram ]
!358 = metadata !{i32 786453, i32 0, metadata !"", i32 0, i32 0, i64 0, i64 0, i64 0, i32 0, null, metadata !359, i32 0, i32 0} ; [ DW_TAG_subroutine_type ]
!359 = metadata !{null, metadata !347, metadata !143}
!360 = metadata !{i32 786478, i32 0, metadata !330, metadata !"ap_int_base", metadata !"ap_int_base", metadata !"", metadata !87, i32 1520, metadata !361, i1 false, i1 false, i32 0, i32 0, null, i32 384, i1 false, null, null, i32 0, metadata !99, i32 1520} ; [ DW_TAG_subprogram ]
!361 = metadata !{i32 786453, i32 0, metadata !"", i32 0, i32 0, i64 0, i64 0, i64 0, i32 0, null, metadata !362, i32 0, i32 0} ; [ DW_TAG_subroutine_type ]
!362 = metadata !{null, metadata !347, metadata !147}
!363 = metadata !{i32 786478, i32 0, metadata !330, metadata !"ap_int_base", metadata !"ap_int_base", metadata !"", metadata !87, i32 1521, metadata !364, i1 false, i1 false, i32 0, i32 0, null, i32 384, i1 false, null, null, i32 0, metadata !99, i32 1521} ; [ DW_TAG_subprogram ]
!364 = metadata !{i32 786453, i32 0, metadata !"", i32 0, i32 0, i64 0, i64 0, i64 0, i32 0, null, metadata !365, i32 0, i32 0} ; [ DW_TAG_subroutine_type ]
!365 = metadata !{null, metadata !347, metadata !108}
!366 = metadata !{i32 786478, i32 0, metadata !330, metadata !"ap_int_base", metadata !"ap_int_base", metadata !"", metadata !87, i32 1522, metadata !367, i1 false, i1 false, i32 0, i32 0, null, i32 384, i1 false, null, null, i32 0, metadata !99, i32 1522} ; [ DW_TAG_subprogram ]
!367 = metadata !{i32 786453, i32 0, metadata !"", i32 0, i32 0, i64 0, i64 0, i64 0, i32 0, null, metadata !368, i32 0, i32 0} ; [ DW_TAG_subroutine_type ]
!368 = metadata !{null, metadata !347, metadata !154}
!369 = metadata !{i32 786478, i32 0, metadata !330, metadata !"ap_int_base", metadata !"ap_int_base", metadata !"", metadata !87, i32 1523, metadata !370, i1 false, i1 false, i32 0, i32 0, null, i32 384, i1 false, null, null, i32 0, metadata !99, i32 1523} ; [ DW_TAG_subprogram ]
!370 = metadata !{i32 786453, i32 0, metadata !"", i32 0, i32 0, i64 0, i64 0, i64 0, i32 0, null, metadata !371, i32 0, i32 0} ; [ DW_TAG_subroutine_type ]
!371 = metadata !{null, metadata !347, metadata !158}
!372 = metadata !{i32 786478, i32 0, metadata !330, metadata !"ap_int_base", metadata !"ap_int_base", metadata !"", metadata !87, i32 1524, metadata !373, i1 false, i1 false, i32 0, i32 0, null, i32 384, i1 false, null, null, i32 0, metadata !99, i32 1524} ; [ DW_TAG_subprogram ]
!373 = metadata !{i32 786453, i32 0, metadata !"", i32 0, i32 0, i64 0, i64 0, i64 0, i32 0, null, metadata !374, i32 0, i32 0} ; [ DW_TAG_subroutine_type ]
!374 = metadata !{null, metadata !347, metadata !162}
!375 = metadata !{i32 786478, i32 0, metadata !330, metadata !"ap_int_base", metadata !"ap_int_base", metadata !"", metadata !87, i32 1525, metadata !376, i1 false, i1 false, i32 0, i32 0, null, i32 384, i1 false, null, null, i32 0, metadata !99, i32 1525} ; [ DW_TAG_subprogram ]
!376 = metadata !{i32 786453, i32 0, metadata !"", i32 0, i32 0, i64 0, i64 0, i64 0, i32 0, null, metadata !377, i32 0, i32 0} ; [ DW_TAG_subroutine_type ]
!377 = metadata !{null, metadata !347, metadata !166}
!378 = metadata !{i32 786478, i32 0, metadata !330, metadata !"ap_int_base", metadata !"ap_int_base", metadata !"", metadata !87, i32 1526, metadata !379, i1 false, i1 false, i32 0, i32 0, null, i32 384, i1 false, null, null, i32 0, metadata !99, i32 1526} ; [ DW_TAG_subprogram ]
!379 = metadata !{i32 786453, i32 0, metadata !"", i32 0, i32 0, i64 0, i64 0, i64 0, i32 0, null, metadata !380, i32 0, i32 0} ; [ DW_TAG_subroutine_type ]
!380 = metadata !{null, metadata !347, metadata !171}
!381 = metadata !{i32 786478, i32 0, metadata !330, metadata !"ap_int_base", metadata !"ap_int_base", metadata !"", metadata !87, i32 1527, metadata !382, i1 false, i1 false, i32 0, i32 0, null, i32 384, i1 false, null, null, i32 0, metadata !99, i32 1527} ; [ DW_TAG_subprogram ]
!382 = metadata !{i32 786453, i32 0, metadata !"", i32 0, i32 0, i64 0, i64 0, i64 0, i32 0, null, metadata !383, i32 0, i32 0} ; [ DW_TAG_subroutine_type ]
!383 = metadata !{null, metadata !347, metadata !176}
!384 = metadata !{i32 786478, i32 0, metadata !330, metadata !"ap_int_base", metadata !"ap_int_base", metadata !"", metadata !87, i32 1528, metadata !385, i1 false, i1 false, i32 0, i32 0, null, i32 384, i1 false, null, null, i32 0, metadata !99, i32 1528} ; [ DW_TAG_subprogram ]
!385 = metadata !{i32 786453, i32 0, metadata !"", i32 0, i32 0, i64 0, i64 0, i64 0, i32 0, null, metadata !386, i32 0, i32 0} ; [ DW_TAG_subroutine_type ]
!386 = metadata !{null, metadata !347, metadata !181}
!387 = metadata !{i32 786478, i32 0, metadata !330, metadata !"ap_int_base", metadata !"ap_int_base", metadata !"", metadata !87, i32 1529, metadata !388, i1 false, i1 false, i32 0, i32 0, null, i32 384, i1 false, null, null, i32 0, metadata !99, i32 1529} ; [ DW_TAG_subprogram ]
!388 = metadata !{i32 786453, i32 0, metadata !"", i32 0, i32 0, i64 0, i64 0, i64 0, i32 0, null, metadata !389, i32 0, i32 0} ; [ DW_TAG_subroutine_type ]
!389 = metadata !{null, metadata !347, metadata !185}
!390 = metadata !{i32 786478, i32 0, metadata !330, metadata !"ap_int_base", metadata !"ap_int_base", metadata !"", metadata !87, i32 1556, metadata !391, i1 false, i1 false, i32 0, i32 0, null, i32 256, i1 false, null, null, i32 0, metadata !99, i32 1556} ; [ DW_TAG_subprogram ]
!391 = metadata !{i32 786453, i32 0, metadata !"", i32 0, i32 0, i64 0, i64 0, i64 0, i32 0, null, metadata !392, i32 0, i32 0} ; [ DW_TAG_subroutine_type ]
!392 = metadata !{null, metadata !347, metadata !189}
!393 = metadata !{i32 786478, i32 0, metadata !330, metadata !"ap_int_base", metadata !"ap_int_base", metadata !"", metadata !87, i32 1563, metadata !394, i1 false, i1 false, i32 0, i32 0, null, i32 256, i1 false, null, null, i32 0, metadata !99, i32 1563} ; [ DW_TAG_subprogram ]
!394 = metadata !{i32 786453, i32 0, metadata !"", i32 0, i32 0, i64 0, i64 0, i64 0, i32 0, null, metadata !395, i32 0, i32 0} ; [ DW_TAG_subroutine_type ]
!395 = metadata !{null, metadata !347, metadata !189, metadata !135}
!396 = metadata !{i32 786478, i32 0, metadata !330, metadata !"read", metadata !"read", metadata !"_ZNV11ap_int_baseILi17ELb1ELb1EE4readEv", metadata !87, i32 1584, metadata !397, i1 false, i1 false, i32 0, i32 0, null, i32 256, i1 false, null, null, i32 0, metadata !99, i32 1584} ; [ DW_TAG_subprogram ]
!397 = metadata !{i32 786453, i32 0, metadata !"", i32 0, i32 0, i64 0, i64 0, i64 0, i32 0, null, metadata !398, i32 0, i32 0} ; [ DW_TAG_subroutine_type ]
!398 = metadata !{metadata !330, metadata !399}
!399 = metadata !{i32 786447, i32 0, metadata !"", i32 0, i32 0, i64 64, i64 64, i64 0, i32 64, metadata !400} ; [ DW_TAG_pointer_type ]
!400 = metadata !{i32 786485, null, metadata !"", null, i32 0, i64 0, i64 0, i64 0, i32 0, metadata !330} ; [ DW_TAG_volatile_type ]
!401 = metadata !{i32 786478, i32 0, metadata !330, metadata !"write", metadata !"write", metadata !"_ZNV11ap_int_baseILi17ELb1ELb1EE5writeERKS0_", metadata !87, i32 1590, metadata !402, i1 false, i1 false, i32 0, i32 0, null, i32 256, i1 false, null, null, i32 0, metadata !99, i32 1590} ; [ DW_TAG_subprogram ]
!402 = metadata !{i32 786453, i32 0, metadata !"", i32 0, i32 0, i64 0, i64 0, i64 0, i32 0, null, metadata !403, i32 0, i32 0} ; [ DW_TAG_subroutine_type ]
!403 = metadata !{null, metadata !399, metadata !404}
!404 = metadata !{i32 786448, null, null, null, i32 0, i64 0, i64 0, i64 0, i32 0, metadata !405} ; [ DW_TAG_reference_type ]
!405 = metadata !{i32 786470, null, metadata !"", null, i32 0, i64 0, i64 0, i64 0, i32 0, metadata !330} ; [ DW_TAG_const_type ]
!406 = metadata !{i32 786478, i32 0, metadata !330, metadata !"operator=", metadata !"operator=", metadata !"_ZNV11ap_int_baseILi17ELb1ELb1EEaSERVKS0_", metadata !87, i32 1602, metadata !407, i1 false, i1 false, i32 0, i32 0, null, i32 256, i1 false, null, null, i32 0, metadata !99, i32 1602} ; [ DW_TAG_subprogram ]
!407 = metadata !{i32 786453, i32 0, metadata !"", i32 0, i32 0, i64 0, i64 0, i64 0, i32 0, null, metadata !408, i32 0, i32 0} ; [ DW_TAG_subroutine_type ]
!408 = metadata !{null, metadata !399, metadata !409}
!409 = metadata !{i32 786448, null, null, null, i32 0, i64 0, i64 0, i64 0, i32 0, metadata !410} ; [ DW_TAG_reference_type ]
!410 = metadata !{i32 786470, null, metadata !"", null, i32 0, i64 0, i64 0, i64 0, i32 0, metadata !400} ; [ DW_TAG_const_type ]
!411 = metadata !{i32 786478, i32 0, metadata !330, metadata !"operator=", metadata !"operator=", metadata !"_ZNV11ap_int_baseILi17ELb1ELb1EEaSERKS0_", metadata !87, i32 1611, metadata !402, i1 false, i1 false, i32 0, i32 0, null, i32 256, i1 false, null, null, i32 0, metadata !99, i32 1611} ; [ DW_TAG_subprogram ]
!412 = metadata !{i32 786478, i32 0, metadata !330, metadata !"operator=", metadata !"operator=", metadata !"_ZN11ap_int_baseILi17ELb1ELb1EEaSERVKS0_", metadata !87, i32 1634, metadata !413, i1 false, i1 false, i32 0, i32 0, null, i32 256, i1 false, null, null, i32 0, metadata !99, i32 1634} ; [ DW_TAG_subprogram ]
!413 = metadata !{i32 786453, i32 0, metadata !"", i32 0, i32 0, i64 0, i64 0, i64 0, i32 0, null, metadata !414, i32 0, i32 0} ; [ DW_TAG_subroutine_type ]
!414 = metadata !{metadata !415, metadata !347, metadata !409}
!415 = metadata !{i32 786448, null, null, null, i32 0, i64 0, i64 0, i64 0, i32 0, metadata !330} ; [ DW_TAG_reference_type ]
!416 = metadata !{i32 786478, i32 0, metadata !330, metadata !"operator=", metadata !"operator=", metadata !"_ZN11ap_int_baseILi17ELb1ELb1EEaSERKS0_", metadata !87, i32 1639, metadata !417, i1 false, i1 false, i32 0, i32 0, null, i32 256, i1 false, null, null, i32 0, metadata !99, i32 1639} ; [ DW_TAG_subprogram ]
!417 = metadata !{i32 786453, i32 0, metadata !"", i32 0, i32 0, i64 0, i64 0, i64 0, i32 0, null, metadata !418, i32 0, i32 0} ; [ DW_TAG_subroutine_type ]
!418 = metadata !{metadata !415, metadata !347, metadata !404}
!419 = metadata !{i32 786478, i32 0, metadata !330, metadata !"operator=", metadata !"operator=", metadata !"_ZN11ap_int_baseILi17ELb1ELb1EEaSEPKc", metadata !87, i32 1643, metadata !420, i1 false, i1 false, i32 0, i32 0, null, i32 256, i1 false, null, null, i32 0, metadata !99, i32 1643} ; [ DW_TAG_subprogram ]
!420 = metadata !{i32 786453, i32 0, metadata !"", i32 0, i32 0, i64 0, i64 0, i64 0, i32 0, null, metadata !421, i32 0, i32 0} ; [ DW_TAG_subroutine_type ]
!421 = metadata !{metadata !415, metadata !347, metadata !189}
!422 = metadata !{i32 786478, i32 0, metadata !330, metadata !"set", metadata !"set", metadata !"_ZN11ap_int_baseILi17ELb1ELb1EE3setEPKca", metadata !87, i32 1651, metadata !423, i1 false, i1 false, i32 0, i32 0, null, i32 256, i1 false, null, null, i32 0, metadata !99, i32 1651} ; [ DW_TAG_subprogram ]
!423 = metadata !{i32 786453, i32 0, metadata !"", i32 0, i32 0, i64 0, i64 0, i64 0, i32 0, null, metadata !424, i32 0, i32 0} ; [ DW_TAG_subroutine_type ]
!424 = metadata !{metadata !415, metadata !347, metadata !189, metadata !135}
!425 = metadata !{i32 786478, i32 0, metadata !330, metadata !"operator=", metadata !"operator=", metadata !"_ZN11ap_int_baseILi17ELb1ELb1EEaSEa", metadata !87, i32 1665, metadata !426, i1 false, i1 false, i32 0, i32 0, null, i32 256, i1 false, null, null, i32 0, metadata !99, i32 1665} ; [ DW_TAG_subprogram ]
!426 = metadata !{i32 786453, i32 0, metadata !"", i32 0, i32 0, i64 0, i64 0, i64 0, i32 0, null, metadata !427, i32 0, i32 0} ; [ DW_TAG_subroutine_type ]
!427 = metadata !{metadata !415, metadata !347, metadata !135}
!428 = metadata !{i32 786478, i32 0, metadata !330, metadata !"operator=", metadata !"operator=", metadata !"_ZN11ap_int_baseILi17ELb1ELb1EEaSEh", metadata !87, i32 1666, metadata !429, i1 false, i1 false, i32 0, i32 0, null, i32 256, i1 false, null, null, i32 0, metadata !99, i32 1666} ; [ DW_TAG_subprogram ]
!429 = metadata !{i32 786453, i32 0, metadata !"", i32 0, i32 0, i64 0, i64 0, i64 0, i32 0, null, metadata !430, i32 0, i32 0} ; [ DW_TAG_subroutine_type ]
!430 = metadata !{metadata !415, metadata !347, metadata !139}
!431 = metadata !{i32 786478, i32 0, metadata !330, metadata !"operator=", metadata !"operator=", metadata !"_ZN11ap_int_baseILi17ELb1ELb1EEaSEs", metadata !87, i32 1667, metadata !432, i1 false, i1 false, i32 0, i32 0, null, i32 256, i1 false, null, null, i32 0, metadata !99, i32 1667} ; [ DW_TAG_subprogram ]
!432 = metadata !{i32 786453, i32 0, metadata !"", i32 0, i32 0, i64 0, i64 0, i64 0, i32 0, null, metadata !433, i32 0, i32 0} ; [ DW_TAG_subroutine_type ]
!433 = metadata !{metadata !415, metadata !347, metadata !143}
!434 = metadata !{i32 786478, i32 0, metadata !330, metadata !"operator=", metadata !"operator=", metadata !"_ZN11ap_int_baseILi17ELb1ELb1EEaSEt", metadata !87, i32 1668, metadata !435, i1 false, i1 false, i32 0, i32 0, null, i32 256, i1 false, null, null, i32 0, metadata !99, i32 1668} ; [ DW_TAG_subprogram ]
!435 = metadata !{i32 786453, i32 0, metadata !"", i32 0, i32 0, i64 0, i64 0, i64 0, i32 0, null, metadata !436, i32 0, i32 0} ; [ DW_TAG_subroutine_type ]
!436 = metadata !{metadata !415, metadata !347, metadata !147}
!437 = metadata !{i32 786478, i32 0, metadata !330, metadata !"operator=", metadata !"operator=", metadata !"_ZN11ap_int_baseILi17ELb1ELb1EEaSEi", metadata !87, i32 1669, metadata !438, i1 false, i1 false, i32 0, i32 0, null, i32 256, i1 false, null, null, i32 0, metadata !99, i32 1669} ; [ DW_TAG_subprogram ]
!438 = metadata !{i32 786453, i32 0, metadata !"", i32 0, i32 0, i64 0, i64 0, i64 0, i32 0, null, metadata !439, i32 0, i32 0} ; [ DW_TAG_subroutine_type ]
!439 = metadata !{metadata !415, metadata !347, metadata !108}
!440 = metadata !{i32 786478, i32 0, metadata !330, metadata !"operator=", metadata !"operator=", metadata !"_ZN11ap_int_baseILi17ELb1ELb1EEaSEj", metadata !87, i32 1670, metadata !441, i1 false, i1 false, i32 0, i32 0, null, i32 256, i1 false, null, null, i32 0, metadata !99, i32 1670} ; [ DW_TAG_subprogram ]
!441 = metadata !{i32 786453, i32 0, metadata !"", i32 0, i32 0, i64 0, i64 0, i64 0, i32 0, null, metadata !442, i32 0, i32 0} ; [ DW_TAG_subroutine_type ]
!442 = metadata !{metadata !415, metadata !347, metadata !154}
!443 = metadata !{i32 786478, i32 0, metadata !330, metadata !"operator=", metadata !"operator=", metadata !"_ZN11ap_int_baseILi17ELb1ELb1EEaSEx", metadata !87, i32 1671, metadata !444, i1 false, i1 false, i32 0, i32 0, null, i32 256, i1 false, null, null, i32 0, metadata !99, i32 1671} ; [ DW_TAG_subprogram ]
!444 = metadata !{i32 786453, i32 0, metadata !"", i32 0, i32 0, i64 0, i64 0, i64 0, i32 0, null, metadata !445, i32 0, i32 0} ; [ DW_TAG_subroutine_type ]
!445 = metadata !{metadata !415, metadata !347, metadata !166}
!446 = metadata !{i32 786478, i32 0, metadata !330, metadata !"operator=", metadata !"operator=", metadata !"_ZN11ap_int_baseILi17ELb1ELb1EEaSEy", metadata !87, i32 1672, metadata !447, i1 false, i1 false, i32 0, i32 0, null, i32 256, i1 false, null, null, i32 0, metadata !99, i32 1672} ; [ DW_TAG_subprogram ]
!447 = metadata !{i32 786453, i32 0, metadata !"", i32 0, i32 0, i64 0, i64 0, i64 0, i32 0, null, metadata !448, i32 0, i32 0} ; [ DW_TAG_subroutine_type ]
!448 = metadata !{metadata !415, metadata !347, metadata !171}
!449 = metadata !{i32 786478, i32 0, metadata !330, metadata !"operator int", metadata !"operator int", metadata !"_ZNK11ap_int_baseILi17ELb1ELb1EEcviEv", metadata !87, i32 1710, metadata !450, i1 false, i1 false, i32 0, i32 0, null, i32 256, i1 false, null, null, i32 0, metadata !99, i32 1710} ; [ DW_TAG_subprogram ]
!450 = metadata !{i32 786453, i32 0, metadata !"", i32 0, i32 0, i64 0, i64 0, i64 0, i32 0, null, metadata !451, i32 0, i32 0} ; [ DW_TAG_subroutine_type ]
!451 = metadata !{metadata !452, metadata !457}
!452 = metadata !{i32 786454, metadata !330, metadata !"RetType", metadata !87, i32 1458, i64 0, i64 0, i64 0, i32 0, metadata !453} ; [ DW_TAG_typedef ]
!453 = metadata !{i32 786454, metadata !454, metadata !"Type", metadata !87, i32 1435, i64 0, i64 0, i64 0, i32 0, metadata !108} ; [ DW_TAG_typedef ]
!454 = metadata !{i32 786434, null, metadata !"retval<3, true>", metadata !87, i32 1434, i64 8, i64 8, i32 0, i32 0, null, metadata !249, i32 0, null, metadata !455} ; [ DW_TAG_class_type ]
!455 = metadata !{metadata !456, metadata !343}
!456 = metadata !{i32 786480, null, metadata !"_AP_N", metadata !108, i64 3, null, i32 0, i32 0} ; [ DW_TAG_template_value_parameter ]
!457 = metadata !{i32 786447, i32 0, metadata !"", i32 0, i32 0, i64 64, i64 64, i64 0, i32 64, metadata !405} ; [ DW_TAG_pointer_type ]
!458 = metadata !{i32 786478, i32 0, metadata !330, metadata !"to_bool", metadata !"to_bool", metadata !"_ZNK11ap_int_baseILi17ELb1ELb1EE7to_boolEv", metadata !87, i32 1716, metadata !459, i1 false, i1 false, i32 0, i32 0, null, i32 256, i1 false, null, null, i32 0, metadata !99, i32 1716} ; [ DW_TAG_subprogram ]
!459 = metadata !{i32 786453, i32 0, metadata !"", i32 0, i32 0, i64 0, i64 0, i64 0, i32 0, null, metadata !460, i32 0, i32 0} ; [ DW_TAG_subroutine_type ]
!460 = metadata !{metadata !110, metadata !457}
!461 = metadata !{i32 786478, i32 0, metadata !330, metadata !"to_uchar", metadata !"to_uchar", metadata !"_ZNK11ap_int_baseILi17ELb1ELb1EE8to_ucharEv", metadata !87, i32 1717, metadata !462, i1 false, i1 false, i32 0, i32 0, null, i32 256, i1 false, null, null, i32 0, metadata !99, i32 1717} ; [ DW_TAG_subprogram ]
!462 = metadata !{i32 786453, i32 0, metadata !"", i32 0, i32 0, i64 0, i64 0, i64 0, i32 0, null, metadata !463, i32 0, i32 0} ; [ DW_TAG_subroutine_type ]
!463 = metadata !{metadata !139, metadata !457}
!464 = metadata !{i32 786478, i32 0, metadata !330, metadata !"to_char", metadata !"to_char", metadata !"_ZNK11ap_int_baseILi17ELb1ELb1EE7to_charEv", metadata !87, i32 1718, metadata !465, i1 false, i1 false, i32 0, i32 0, null, i32 256, i1 false, null, null, i32 0, metadata !99, i32 1718} ; [ DW_TAG_subprogram ]
!465 = metadata !{i32 786453, i32 0, metadata !"", i32 0, i32 0, i64 0, i64 0, i64 0, i32 0, null, metadata !466, i32 0, i32 0} ; [ DW_TAG_subroutine_type ]
!466 = metadata !{metadata !135, metadata !457}
!467 = metadata !{i32 786478, i32 0, metadata !330, metadata !"to_ushort", metadata !"to_ushort", metadata !"_ZNK11ap_int_baseILi17ELb1ELb1EE9to_ushortEv", metadata !87, i32 1719, metadata !468, i1 false, i1 false, i32 0, i32 0, null, i32 256, i1 false, null, null, i32 0, metadata !99, i32 1719} ; [ DW_TAG_subprogram ]
!468 = metadata !{i32 786453, i32 0, metadata !"", i32 0, i32 0, i64 0, i64 0, i64 0, i32 0, null, metadata !469, i32 0, i32 0} ; [ DW_TAG_subroutine_type ]
!469 = metadata !{metadata !147, metadata !457}
!470 = metadata !{i32 786478, i32 0, metadata !330, metadata !"to_short", metadata !"to_short", metadata !"_ZNK11ap_int_baseILi17ELb1ELb1EE8to_shortEv", metadata !87, i32 1720, metadata !471, i1 false, i1 false, i32 0, i32 0, null, i32 256, i1 false, null, null, i32 0, metadata !99, i32 1720} ; [ DW_TAG_subprogram ]
!471 = metadata !{i32 786453, i32 0, metadata !"", i32 0, i32 0, i64 0, i64 0, i64 0, i32 0, null, metadata !472, i32 0, i32 0} ; [ DW_TAG_subroutine_type ]
!472 = metadata !{metadata !143, metadata !457}
!473 = metadata !{i32 786478, i32 0, metadata !330, metadata !"to_int", metadata !"to_int", metadata !"_ZNK11ap_int_baseILi17ELb1ELb1EE6to_intEv", metadata !87, i32 1721, metadata !474, i1 false, i1 false, i32 0, i32 0, null, i32 256, i1 false, null, null, i32 0, metadata !99, i32 1721} ; [ DW_TAG_subprogram ]
!474 = metadata !{i32 786453, i32 0, metadata !"", i32 0, i32 0, i64 0, i64 0, i64 0, i32 0, null, metadata !475, i32 0, i32 0} ; [ DW_TAG_subroutine_type ]
!475 = metadata !{metadata !108, metadata !457}
!476 = metadata !{i32 786478, i32 0, metadata !330, metadata !"to_uint", metadata !"to_uint", metadata !"_ZNK11ap_int_baseILi17ELb1ELb1EE7to_uintEv", metadata !87, i32 1722, metadata !477, i1 false, i1 false, i32 0, i32 0, null, i32 256, i1 false, null, null, i32 0, metadata !99, i32 1722} ; [ DW_TAG_subprogram ]
!477 = metadata !{i32 786453, i32 0, metadata !"", i32 0, i32 0, i64 0, i64 0, i64 0, i32 0, null, metadata !478, i32 0, i32 0} ; [ DW_TAG_subroutine_type ]
!478 = metadata !{metadata !154, metadata !457}
!479 = metadata !{i32 786478, i32 0, metadata !330, metadata !"to_long", metadata !"to_long", metadata !"_ZNK11ap_int_baseILi17ELb1ELb1EE7to_longEv", metadata !87, i32 1723, metadata !480, i1 false, i1 false, i32 0, i32 0, null, i32 256, i1 false, null, null, i32 0, metadata !99, i32 1723} ; [ DW_TAG_subprogram ]
!480 = metadata !{i32 786453, i32 0, metadata !"", i32 0, i32 0, i64 0, i64 0, i64 0, i32 0, null, metadata !481, i32 0, i32 0} ; [ DW_TAG_subroutine_type ]
!481 = metadata !{metadata !158, metadata !457}
!482 = metadata !{i32 786478, i32 0, metadata !330, metadata !"to_ulong", metadata !"to_ulong", metadata !"_ZNK11ap_int_baseILi17ELb1ELb1EE8to_ulongEv", metadata !87, i32 1724, metadata !483, i1 false, i1 false, i32 0, i32 0, null, i32 256, i1 false, null, null, i32 0, metadata !99, i32 1724} ; [ DW_TAG_subprogram ]
!483 = metadata !{i32 786453, i32 0, metadata !"", i32 0, i32 0, i64 0, i64 0, i64 0, i32 0, null, metadata !484, i32 0, i32 0} ; [ DW_TAG_subroutine_type ]
!484 = metadata !{metadata !162, metadata !457}
!485 = metadata !{i32 786478, i32 0, metadata !330, metadata !"to_int64", metadata !"to_int64", metadata !"_ZNK11ap_int_baseILi17ELb1ELb1EE8to_int64Ev", metadata !87, i32 1725, metadata !486, i1 false, i1 false, i32 0, i32 0, null, i32 256, i1 false, null, null, i32 0, metadata !99, i32 1725} ; [ DW_TAG_subprogram ]
!486 = metadata !{i32 786453, i32 0, metadata !"", i32 0, i32 0, i64 0, i64 0, i64 0, i32 0, null, metadata !487, i32 0, i32 0} ; [ DW_TAG_subroutine_type ]
!487 = metadata !{metadata !166, metadata !457}
!488 = metadata !{i32 786478, i32 0, metadata !330, metadata !"to_uint64", metadata !"to_uint64", metadata !"_ZNK11ap_int_baseILi17ELb1ELb1EE9to_uint64Ev", metadata !87, i32 1726, metadata !489, i1 false, i1 false, i32 0, i32 0, null, i32 256, i1 false, null, null, i32 0, metadata !99, i32 1726} ; [ DW_TAG_subprogram ]
!489 = metadata !{i32 786453, i32 0, metadata !"", i32 0, i32 0, i64 0, i64 0, i64 0, i32 0, null, metadata !490, i32 0, i32 0} ; [ DW_TAG_subroutine_type ]
!490 = metadata !{metadata !171, metadata !457}
!491 = metadata !{i32 786478, i32 0, metadata !330, metadata !"to_double", metadata !"to_double", metadata !"_ZNK11ap_int_baseILi17ELb1ELb1EE9to_doubleEv", metadata !87, i32 1727, metadata !492, i1 false, i1 false, i32 0, i32 0, null, i32 256, i1 false, null, null, i32 0, metadata !99, i32 1727} ; [ DW_TAG_subprogram ]
!492 = metadata !{i32 786453, i32 0, metadata !"", i32 0, i32 0, i64 0, i64 0, i64 0, i32 0, null, metadata !493, i32 0, i32 0} ; [ DW_TAG_subroutine_type ]
!493 = metadata !{metadata !185, metadata !457}
!494 = metadata !{i32 786478, i32 0, metadata !330, metadata !"length", metadata !"length", metadata !"_ZNK11ap_int_baseILi17ELb1ELb1EE6lengthEv", metadata !87, i32 1741, metadata !474, i1 false, i1 false, i32 0, i32 0, null, i32 256, i1 false, null, null, i32 0, metadata !99, i32 1741} ; [ DW_TAG_subprogram ]
!495 = metadata !{i32 786478, i32 0, metadata !330, metadata !"length", metadata !"length", metadata !"_ZNVK11ap_int_baseILi17ELb1ELb1EE6lengthEv", metadata !87, i32 1742, metadata !496, i1 false, i1 false, i32 0, i32 0, null, i32 256, i1 false, null, null, i32 0, metadata !99, i32 1742} ; [ DW_TAG_subprogram ]
!496 = metadata !{i32 786453, i32 0, metadata !"", i32 0, i32 0, i64 0, i64 0, i64 0, i32 0, null, metadata !497, i32 0, i32 0} ; [ DW_TAG_subroutine_type ]
!497 = metadata !{metadata !108, metadata !498}
!498 = metadata !{i32 786447, i32 0, metadata !"", i32 0, i32 0, i64 64, i64 64, i64 0, i32 64, metadata !410} ; [ DW_TAG_pointer_type ]
!499 = metadata !{i32 786478, i32 0, metadata !330, metadata !"reverse", metadata !"reverse", metadata !"_ZN11ap_int_baseILi17ELb1ELb1EE7reverseEv", metadata !87, i32 1747, metadata !500, i1 false, i1 false, i32 0, i32 0, null, i32 256, i1 false, null, null, i32 0, metadata !99, i32 1747} ; [ DW_TAG_subprogram ]
!500 = metadata !{i32 786453, i32 0, metadata !"", i32 0, i32 0, i64 0, i64 0, i64 0, i32 0, null, metadata !501, i32 0, i32 0} ; [ DW_TAG_subroutine_type ]
!501 = metadata !{metadata !415, metadata !347}
!502 = metadata !{i32 786478, i32 0, metadata !330, metadata !"iszero", metadata !"iszero", metadata !"_ZNK11ap_int_baseILi17ELb1ELb1EE6iszeroEv", metadata !87, i32 1753, metadata !459, i1 false, i1 false, i32 0, i32 0, null, i32 256, i1 false, null, null, i32 0, metadata !99, i32 1753} ; [ DW_TAG_subprogram ]
!503 = metadata !{i32 786478, i32 0, metadata !330, metadata !"is_zero", metadata !"is_zero", metadata !"_ZNK11ap_int_baseILi17ELb1ELb1EE7is_zeroEv", metadata !87, i32 1758, metadata !459, i1 false, i1 false, i32 0, i32 0, null, i32 256, i1 false, null, null, i32 0, metadata !99, i32 1758} ; [ DW_TAG_subprogram ]
!504 = metadata !{i32 786478, i32 0, metadata !330, metadata !"sign", metadata !"sign", metadata !"_ZNK11ap_int_baseILi17ELb1ELb1EE4signEv", metadata !87, i32 1763, metadata !459, i1 false, i1 false, i32 0, i32 0, null, i32 256, i1 false, null, null, i32 0, metadata !99, i32 1763} ; [ DW_TAG_subprogram ]
!505 = metadata !{i32 786478, i32 0, metadata !330, metadata !"clear", metadata !"clear", metadata !"_ZN11ap_int_baseILi17ELb1ELb1EE5clearEi", metadata !87, i32 1771, metadata !364, i1 false, i1 false, i32 0, i32 0, null, i32 256, i1 false, null, null, i32 0, metadata !99, i32 1771} ; [ DW_TAG_subprogram ]
!506 = metadata !{i32 786478, i32 0, metadata !330, metadata !"invert", metadata !"invert", metadata !"_ZN11ap_int_baseILi17ELb1ELb1EE6invertEi", metadata !87, i32 1777, metadata !364, i1 false, i1 false, i32 0, i32 0, null, i32 256, i1 false, null, null, i32 0, metadata !99, i32 1777} ; [ DW_TAG_subprogram ]
!507 = metadata !{i32 786478, i32 0, metadata !330, metadata !"test", metadata !"test", metadata !"_ZNK11ap_int_baseILi17ELb1ELb1EE4testEi", metadata !87, i32 1785, metadata !508, i1 false, i1 false, i32 0, i32 0, null, i32 256, i1 false, null, null, i32 0, metadata !99, i32 1785} ; [ DW_TAG_subprogram ]
!508 = metadata !{i32 786453, i32 0, metadata !"", i32 0, i32 0, i64 0, i64 0, i64 0, i32 0, null, metadata !509, i32 0, i32 0} ; [ DW_TAG_subroutine_type ]
!509 = metadata !{metadata !110, metadata !457, metadata !108}
!510 = metadata !{i32 786478, i32 0, metadata !330, metadata !"set", metadata !"set", metadata !"_ZN11ap_int_baseILi17ELb1ELb1EE3setEi", metadata !87, i32 1791, metadata !364, i1 false, i1 false, i32 0, i32 0, null, i32 256, i1 false, null, null, i32 0, metadata !99, i32 1791} ; [ DW_TAG_subprogram ]
!511 = metadata !{i32 786478, i32 0, metadata !330, metadata !"set", metadata !"set", metadata !"_ZN11ap_int_baseILi17ELb1ELb1EE3setEib", metadata !87, i32 1797, metadata !512, i1 false, i1 false, i32 0, i32 0, null, i32 256, i1 false, null, null, i32 0, metadata !99, i32 1797} ; [ DW_TAG_subprogram ]
!512 = metadata !{i32 786453, i32 0, metadata !"", i32 0, i32 0, i64 0, i64 0, i64 0, i32 0, null, metadata !513, i32 0, i32 0} ; [ DW_TAG_subroutine_type ]
!513 = metadata !{null, metadata !347, metadata !108, metadata !110}
!514 = metadata !{i32 786478, i32 0, metadata !330, metadata !"lrotate", metadata !"lrotate", metadata !"_ZN11ap_int_baseILi17ELb1ELb1EE7lrotateEi", metadata !87, i32 1804, metadata !364, i1 false, i1 false, i32 0, i32 0, null, i32 256, i1 false, null, null, i32 0, metadata !99, i32 1804} ; [ DW_TAG_subprogram ]
!515 = metadata !{i32 786478, i32 0, metadata !330, metadata !"rrotate", metadata !"rrotate", metadata !"_ZN11ap_int_baseILi17ELb1ELb1EE7rrotateEi", metadata !87, i32 1813, metadata !364, i1 false, i1 false, i32 0, i32 0, null, i32 256, i1 false, null, null, i32 0, metadata !99, i32 1813} ; [ DW_TAG_subprogram ]
!516 = metadata !{i32 786478, i32 0, metadata !330, metadata !"set_bit", metadata !"set_bit", metadata !"_ZN11ap_int_baseILi17ELb1ELb1EE7set_bitEib", metadata !87, i32 1821, metadata !512, i1 false, i1 false, i32 0, i32 0, null, i32 256, i1 false, null, null, i32 0, metadata !99, i32 1821} ; [ DW_TAG_subprogram ]
!517 = metadata !{i32 786478, i32 0, metadata !330, metadata !"get_bit", metadata !"get_bit", metadata !"_ZNK11ap_int_baseILi17ELb1ELb1EE7get_bitEi", metadata !87, i32 1826, metadata !508, i1 false, i1 false, i32 0, i32 0, null, i32 256, i1 false, null, null, i32 0, metadata !99, i32 1826} ; [ DW_TAG_subprogram ]
!518 = metadata !{i32 786478, i32 0, metadata !330, metadata !"b_not", metadata !"b_not", metadata !"_ZN11ap_int_baseILi17ELb1ELb1EE5b_notEv", metadata !87, i32 1831, metadata !345, i1 false, i1 false, i32 0, i32 0, null, i32 256, i1 false, null, null, i32 0, metadata !99, i32 1831} ; [ DW_TAG_subprogram ]
!519 = metadata !{i32 786478, i32 0, metadata !330, metadata !"countLeadingZeros", metadata !"countLeadingZeros", metadata !"_ZN11ap_int_baseILi17ELb1ELb1EE17countLeadingZerosEv", metadata !87, i32 1838, metadata !520, i1 false, i1 false, i32 0, i32 0, null, i32 256, i1 false, null, null, i32 0, metadata !99, i32 1838} ; [ DW_TAG_subprogram ]
!520 = metadata !{i32 786453, i32 0, metadata !"", i32 0, i32 0, i64 0, i64 0, i64 0, i32 0, null, metadata !521, i32 0, i32 0} ; [ DW_TAG_subroutine_type ]
!521 = metadata !{metadata !108, metadata !347}
!522 = metadata !{i32 786478, i32 0, metadata !330, metadata !"operator++", metadata !"operator++", metadata !"_ZN11ap_int_baseILi17ELb1ELb1EEppEv", metadata !87, i32 1895, metadata !500, i1 false, i1 false, i32 0, i32 0, null, i32 256, i1 false, null, null, i32 0, metadata !99, i32 1895} ; [ DW_TAG_subprogram ]
!523 = metadata !{i32 786478, i32 0, metadata !330, metadata !"operator--", metadata !"operator--", metadata !"_ZN11ap_int_baseILi17ELb1ELb1EEmmEv", metadata !87, i32 1899, metadata !500, i1 false, i1 false, i32 0, i32 0, null, i32 256, i1 false, null, null, i32 0, metadata !99, i32 1899} ; [ DW_TAG_subprogram ]
!524 = metadata !{i32 786478, i32 0, metadata !330, metadata !"operator++", metadata !"operator++", metadata !"_ZN11ap_int_baseILi17ELb1ELb1EEppEi", metadata !87, i32 1907, metadata !525, i1 false, i1 false, i32 0, i32 0, null, i32 256, i1 false, null, null, i32 0, metadata !99, i32 1907} ; [ DW_TAG_subprogram ]
!525 = metadata !{i32 786453, i32 0, metadata !"", i32 0, i32 0, i64 0, i64 0, i64 0, i32 0, null, metadata !526, i32 0, i32 0} ; [ DW_TAG_subroutine_type ]
!526 = metadata !{metadata !405, metadata !347, metadata !108}
!527 = metadata !{i32 786478, i32 0, metadata !330, metadata !"operator--", metadata !"operator--", metadata !"_ZN11ap_int_baseILi17ELb1ELb1EEmmEi", metadata !87, i32 1912, metadata !525, i1 false, i1 false, i32 0, i32 0, null, i32 256, i1 false, null, null, i32 0, metadata !99, i32 1912} ; [ DW_TAG_subprogram ]
!528 = metadata !{i32 786478, i32 0, metadata !330, metadata !"operator+", metadata !"operator+", metadata !"_ZNK11ap_int_baseILi17ELb1ELb1EEpsEv", metadata !87, i32 1921, metadata !529, i1 false, i1 false, i32 0, i32 0, null, i32 256, i1 false, null, null, i32 0, metadata !99, i32 1921} ; [ DW_TAG_subprogram ]
!529 = metadata !{i32 786453, i32 0, metadata !"", i32 0, i32 0, i64 0, i64 0, i64 0, i32 0, null, metadata !530, i32 0, i32 0} ; [ DW_TAG_subroutine_type ]
!530 = metadata !{metadata !330, metadata !457}
!531 = metadata !{i32 786478, i32 0, metadata !330, metadata !"operator!", metadata !"operator!", metadata !"_ZNK11ap_int_baseILi17ELb1ELb1EEntEv", metadata !87, i32 1927, metadata !459, i1 false, i1 false, i32 0, i32 0, null, i32 256, i1 false, null, null, i32 0, metadata !99, i32 1927} ; [ DW_TAG_subprogram ]
!532 = metadata !{i32 786478, i32 0, metadata !330, metadata !"operator-", metadata !"operator-", metadata !"_ZNK11ap_int_baseILi17ELb1ELb1EEngEv", metadata !87, i32 1932, metadata !533, i1 false, i1 false, i32 0, i32 0, null, i32 256, i1 false, null, null, i32 0, metadata !99, i32 1932} ; [ DW_TAG_subprogram ]
!533 = metadata !{i32 786453, i32 0, metadata !"", i32 0, i32 0, i64 0, i64 0, i64 0, i32 0, null, metadata !534, i32 0, i32 0} ; [ DW_TAG_subroutine_type ]
!534 = metadata !{metadata !535, metadata !457}
!535 = metadata !{i32 786434, null, metadata !"ap_int_base<18, true, true>", metadata !87, i32 651, i32 0, i32 0, i32 0, i32 4, null, null, i32 0} ; [ DW_TAG_class_type ]
!536 = metadata !{i32 786478, i32 0, metadata !330, metadata !"range", metadata !"range", metadata !"_ZN11ap_int_baseILi17ELb1ELb1EE5rangeEii", metadata !87, i32 2062, metadata !537, i1 false, i1 false, i32 0, i32 0, null, i32 256, i1 false, null, null, i32 0, metadata !99, i32 2062} ; [ DW_TAG_subprogram ]
!537 = metadata !{i32 786453, i32 0, metadata !"", i32 0, i32 0, i64 0, i64 0, i64 0, i32 0, null, metadata !538, i32 0, i32 0} ; [ DW_TAG_subroutine_type ]
!538 = metadata !{metadata !539, metadata !347, metadata !108, metadata !108}
!539 = metadata !{i32 786434, null, metadata !"ap_range_ref<17, true>", metadata !87, i32 925, i32 0, i32 0, i32 0, i32 4, null, null, i32 0} ; [ DW_TAG_class_type ]
!540 = metadata !{i32 786478, i32 0, metadata !330, metadata !"operator()", metadata !"operator()", metadata !"_ZN11ap_int_baseILi17ELb1ELb1EEclEii", metadata !87, i32 2068, metadata !537, i1 false, i1 false, i32 0, i32 0, null, i32 256, i1 false, null, null, i32 0, metadata !99, i32 2068} ; [ DW_TAG_subprogram ]
!541 = metadata !{i32 786478, i32 0, metadata !330, metadata !"range", metadata !"range", metadata !"_ZNK11ap_int_baseILi17ELb1ELb1EE5rangeEii", metadata !87, i32 2074, metadata !542, i1 false, i1 false, i32 0, i32 0, null, i32 256, i1 false, null, null, i32 0, metadata !99, i32 2074} ; [ DW_TAG_subprogram ]
!542 = metadata !{i32 786453, i32 0, metadata !"", i32 0, i32 0, i64 0, i64 0, i64 0, i32 0, null, metadata !543, i32 0, i32 0} ; [ DW_TAG_subroutine_type ]
!543 = metadata !{metadata !539, metadata !457, metadata !108, metadata !108}
!544 = metadata !{i32 786478, i32 0, metadata !330, metadata !"operator()", metadata !"operator()", metadata !"_ZNK11ap_int_baseILi17ELb1ELb1EEclEii", metadata !87, i32 2080, metadata !542, i1 false, i1 false, i32 0, i32 0, null, i32 256, i1 false, null, null, i32 0, metadata !99, i32 2080} ; [ DW_TAG_subprogram ]
!545 = metadata !{i32 786478, i32 0, metadata !330, metadata !"operator[]", metadata !"operator[]", metadata !"_ZN11ap_int_baseILi17ELb1ELb1EEixEi", metadata !87, i32 2099, metadata !546, i1 false, i1 false, i32 0, i32 0, null, i32 256, i1 false, null, null, i32 0, metadata !99, i32 2099} ; [ DW_TAG_subprogram ]
!546 = metadata !{i32 786453, i32 0, metadata !"", i32 0, i32 0, i64 0, i64 0, i64 0, i32 0, null, metadata !547, i32 0, i32 0} ; [ DW_TAG_subroutine_type ]
!547 = metadata !{metadata !548, metadata !347, metadata !108}
!548 = metadata !{i32 786434, null, metadata !"ap_bit_ref<17, true>", metadata !87, i32 1249, i64 128, i64 64, i32 0, i32 0, null, metadata !549, i32 0, null, metadata !582} ; [ DW_TAG_class_type ]
!549 = metadata !{metadata !550, metadata !551, metadata !552, metadata !558, metadata !562, metadata !566, metadata !567, metadata !571, metadata !574, metadata !575, metadata !578, metadata !579}
!550 = metadata !{i32 786445, metadata !548, metadata !"d_bv", metadata !87, i32 1250, i64 64, i64 64, i64 0, i32 0, metadata !415} ; [ DW_TAG_member ]
!551 = metadata !{i32 786445, metadata !548, metadata !"d_index", metadata !87, i32 1251, i64 32, i64 32, i64 64, i32 0, metadata !108} ; [ DW_TAG_member ]
!552 = metadata !{i32 786478, i32 0, metadata !548, metadata !"ap_bit_ref", metadata !"ap_bit_ref", metadata !"", metadata !87, i32 1254, metadata !553, i1 false, i1 false, i32 0, i32 0, null, i32 256, i1 false, null, null, i32 0, metadata !99, i32 1254} ; [ DW_TAG_subprogram ]
!553 = metadata !{i32 786453, i32 0, metadata !"", i32 0, i32 0, i64 0, i64 0, i64 0, i32 0, null, metadata !554, i32 0, i32 0} ; [ DW_TAG_subroutine_type ]
!554 = metadata !{null, metadata !555, metadata !556}
!555 = metadata !{i32 786447, i32 0, metadata !"", i32 0, i32 0, i64 64, i64 64, i64 0, i32 64, metadata !548} ; [ DW_TAG_pointer_type ]
!556 = metadata !{i32 786448, null, null, null, i32 0, i64 0, i64 0, i64 0, i32 0, metadata !557} ; [ DW_TAG_reference_type ]
!557 = metadata !{i32 786470, null, metadata !"", null, i32 0, i64 0, i64 0, i64 0, i32 0, metadata !548} ; [ DW_TAG_const_type ]
!558 = metadata !{i32 786478, i32 0, metadata !548, metadata !"ap_bit_ref", metadata !"ap_bit_ref", metadata !"", metadata !87, i32 1257, metadata !559, i1 false, i1 false, i32 0, i32 0, null, i32 256, i1 false, null, null, i32 0, metadata !99, i32 1257} ; [ DW_TAG_subprogram ]
!559 = metadata !{i32 786453, i32 0, metadata !"", i32 0, i32 0, i64 0, i64 0, i64 0, i32 0, null, metadata !560, i32 0, i32 0} ; [ DW_TAG_subroutine_type ]
!560 = metadata !{null, metadata !555, metadata !561, metadata !108}
!561 = metadata !{i32 786447, null, metadata !"", null, i32 0, i64 64, i64 64, i64 0, i32 0, metadata !330} ; [ DW_TAG_pointer_type ]
!562 = metadata !{i32 786478, i32 0, metadata !548, metadata !"operator _Bool", metadata !"operator _Bool", metadata !"_ZNK10ap_bit_refILi17ELb1EEcvbEv", metadata !87, i32 1259, metadata !563, i1 false, i1 false, i32 0, i32 0, null, i32 256, i1 false, null, null, i32 0, metadata !99, i32 1259} ; [ DW_TAG_subprogram ]
!563 = metadata !{i32 786453, i32 0, metadata !"", i32 0, i32 0, i64 0, i64 0, i64 0, i32 0, null, metadata !564, i32 0, i32 0} ; [ DW_TAG_subroutine_type ]
!564 = metadata !{metadata !110, metadata !565}
!565 = metadata !{i32 786447, i32 0, metadata !"", i32 0, i32 0, i64 64, i64 64, i64 0, i32 64, metadata !557} ; [ DW_TAG_pointer_type ]
!566 = metadata !{i32 786478, i32 0, metadata !548, metadata !"to_bool", metadata !"to_bool", metadata !"_ZNK10ap_bit_refILi17ELb1EE7to_boolEv", metadata !87, i32 1260, metadata !563, i1 false, i1 false, i32 0, i32 0, null, i32 256, i1 false, null, null, i32 0, metadata !99, i32 1260} ; [ DW_TAG_subprogram ]
!567 = metadata !{i32 786478, i32 0, metadata !548, metadata !"operator=", metadata !"operator=", metadata !"_ZN10ap_bit_refILi17ELb1EEaSEy", metadata !87, i32 1262, metadata !568, i1 false, i1 false, i32 0, i32 0, null, i32 256, i1 false, null, null, i32 0, metadata !99, i32 1262} ; [ DW_TAG_subprogram ]
!568 = metadata !{i32 786453, i32 0, metadata !"", i32 0, i32 0, i64 0, i64 0, i64 0, i32 0, null, metadata !569, i32 0, i32 0} ; [ DW_TAG_subroutine_type ]
!569 = metadata !{metadata !570, metadata !555, metadata !172}
!570 = metadata !{i32 786448, null, null, null, i32 0, i64 0, i64 0, i64 0, i32 0, metadata !548} ; [ DW_TAG_reference_type ]
!571 = metadata !{i32 786478, i32 0, metadata !548, metadata !"operator=", metadata !"operator=", metadata !"_ZN10ap_bit_refILi17ELb1EEaSERKS0_", metadata !87, i32 1282, metadata !572, i1 false, i1 false, i32 0, i32 0, null, i32 256, i1 false, null, null, i32 0, metadata !99, i32 1282} ; [ DW_TAG_subprogram ]
!572 = metadata !{i32 786453, i32 0, metadata !"", i32 0, i32 0, i64 0, i64 0, i64 0, i32 0, null, metadata !573, i32 0, i32 0} ; [ DW_TAG_subroutine_type ]
!573 = metadata !{metadata !570, metadata !555, metadata !556}
!574 = metadata !{i32 786478, i32 0, metadata !548, metadata !"get", metadata !"get", metadata !"_ZNK10ap_bit_refILi17ELb1EE3getEv", metadata !87, i32 1390, metadata !563, i1 false, i1 false, i32 0, i32 0, null, i32 256, i1 false, null, null, i32 0, metadata !99, i32 1390} ; [ DW_TAG_subprogram ]
!575 = metadata !{i32 786478, i32 0, metadata !548, metadata !"get", metadata !"get", metadata !"_ZN10ap_bit_refILi17ELb1EE3getEv", metadata !87, i32 1394, metadata !576, i1 false, i1 false, i32 0, i32 0, null, i32 256, i1 false, null, null, i32 0, metadata !99, i32 1394} ; [ DW_TAG_subprogram ]
!576 = metadata !{i32 786453, i32 0, metadata !"", i32 0, i32 0, i64 0, i64 0, i64 0, i32 0, null, metadata !577, i32 0, i32 0} ; [ DW_TAG_subroutine_type ]
!577 = metadata !{metadata !110, metadata !555}
!578 = metadata !{i32 786478, i32 0, metadata !548, metadata !"operator~", metadata !"operator~", metadata !"_ZNK10ap_bit_refILi17ELb1EEcoEv", metadata !87, i32 1403, metadata !563, i1 false, i1 false, i32 0, i32 0, null, i32 256, i1 false, null, null, i32 0, metadata !99, i32 1403} ; [ DW_TAG_subprogram ]
!579 = metadata !{i32 786478, i32 0, metadata !548, metadata !"length", metadata !"length", metadata !"_ZNK10ap_bit_refILi17ELb1EE6lengthEv", metadata !87, i32 1408, metadata !580, i1 false, i1 false, i32 0, i32 0, null, i32 256, i1 false, null, null, i32 0, metadata !99, i32 1408} ; [ DW_TAG_subprogram ]
!580 = metadata !{i32 786453, i32 0, metadata !"", i32 0, i32 0, i64 0, i64 0, i64 0, i32 0, null, metadata !581, i32 0, i32 0} ; [ DW_TAG_subroutine_type ]
!581 = metadata !{metadata !108, metadata !565}
!582 = metadata !{metadata !583, metadata !343}
!583 = metadata !{i32 786480, null, metadata !"_AP_W", metadata !108, i64 17, null, i32 0, i32 0} ; [ DW_TAG_template_value_parameter ]
!584 = metadata !{i32 786478, i32 0, metadata !330, metadata !"operator[]", metadata !"operator[]", metadata !"_ZNK11ap_int_baseILi17ELb1ELb1EEixEi", metadata !87, i32 2113, metadata !508, i1 false, i1 false, i32 0, i32 0, null, i32 256, i1 false, null, null, i32 0, metadata !99, i32 2113} ; [ DW_TAG_subprogram ]
!585 = metadata !{i32 786478, i32 0, metadata !330, metadata !"bit", metadata !"bit", metadata !"_ZN11ap_int_baseILi17ELb1ELb1EE3bitEi", metadata !87, i32 2127, metadata !546, i1 false, i1 false, i32 0, i32 0, null, i32 256, i1 false, null, null, i32 0, metadata !99, i32 2127} ; [ DW_TAG_subprogram ]
!586 = metadata !{i32 786478, i32 0, metadata !330, metadata !"bit", metadata !"bit", metadata !"_ZNK11ap_int_baseILi17ELb1ELb1EE3bitEi", metadata !87, i32 2141, metadata !508, i1 false, i1 false, i32 0, i32 0, null, i32 256, i1 false, null, null, i32 0, metadata !99, i32 2141} ; [ DW_TAG_subprogram ]
!587 = metadata !{i32 786478, i32 0, metadata !330, metadata !"and_reduce", metadata !"and_reduce", metadata !"_ZN11ap_int_baseILi17ELb1ELb1EE10and_reduceEv", metadata !87, i32 2321, metadata !588, i1 false, i1 false, i32 0, i32 0, null, i32 256, i1 false, null, null, i32 0, metadata !99, i32 2321} ; [ DW_TAG_subprogram ]
!588 = metadata !{i32 786453, i32 0, metadata !"", i32 0, i32 0, i64 0, i64 0, i64 0, i32 0, null, metadata !589, i32 0, i32 0} ; [ DW_TAG_subroutine_type ]
!589 = metadata !{metadata !110, metadata !347}
!590 = metadata !{i32 786478, i32 0, metadata !330, metadata !"nand_reduce", metadata !"nand_reduce", metadata !"_ZN11ap_int_baseILi17ELb1ELb1EE11nand_reduceEv", metadata !87, i32 2324, metadata !588, i1 false, i1 false, i32 0, i32 0, null, i32 256, i1 false, null, null, i32 0, metadata !99, i32 2324} ; [ DW_TAG_subprogram ]
!591 = metadata !{i32 786478, i32 0, metadata !330, metadata !"or_reduce", metadata !"or_reduce", metadata !"_ZN11ap_int_baseILi17ELb1ELb1EE9or_reduceEv", metadata !87, i32 2327, metadata !588, i1 false, i1 false, i32 0, i32 0, null, i32 256, i1 false, null, null, i32 0, metadata !99, i32 2327} ; [ DW_TAG_subprogram ]
!592 = metadata !{i32 786478, i32 0, metadata !330, metadata !"nor_reduce", metadata !"nor_reduce", metadata !"_ZN11ap_int_baseILi17ELb1ELb1EE10nor_reduceEv", metadata !87, i32 2330, metadata !588, i1 false, i1 false, i32 0, i32 0, null, i32 256, i1 false, null, null, i32 0, metadata !99, i32 2330} ; [ DW_TAG_subprogram ]
!593 = metadata !{i32 786478, i32 0, metadata !330, metadata !"xor_reduce", metadata !"xor_reduce", metadata !"_ZN11ap_int_baseILi17ELb1ELb1EE10xor_reduceEv", metadata !87, i32 2333, metadata !588, i1 false, i1 false, i32 0, i32 0, null, i32 256, i1 false, null, null, i32 0, metadata !99, i32 2333} ; [ DW_TAG_subprogram ]
!594 = metadata !{i32 786478, i32 0, metadata !330, metadata !"xnor_reduce", metadata !"xnor_reduce", metadata !"_ZN11ap_int_baseILi17ELb1ELb1EE11xnor_reduceEv", metadata !87, i32 2336, metadata !588, i1 false, i1 false, i32 0, i32 0, null, i32 256, i1 false, null, null, i32 0, metadata !99, i32 2336} ; [ DW_TAG_subprogram ]
!595 = metadata !{i32 786478, i32 0, metadata !330, metadata !"and_reduce", metadata !"and_reduce", metadata !"_ZNK11ap_int_baseILi17ELb1ELb1EE10and_reduceEv", metadata !87, i32 2340, metadata !459, i1 false, i1 false, i32 0, i32 0, null, i32 256, i1 false, null, null, i32 0, metadata !99, i32 2340} ; [ DW_TAG_subprogram ]
!596 = metadata !{i32 786478, i32 0, metadata !330, metadata !"nand_reduce", metadata !"nand_reduce", metadata !"_ZNK11ap_int_baseILi17ELb1ELb1EE11nand_reduceEv", metadata !87, i32 2343, metadata !459, i1 false, i1 false, i32 0, i32 0, null, i32 256, i1 false, null, null, i32 0, metadata !99, i32 2343} ; [ DW_TAG_subprogram ]
!597 = metadata !{i32 786478, i32 0, metadata !330, metadata !"or_reduce", metadata !"or_reduce", metadata !"_ZNK11ap_int_baseILi17ELb1ELb1EE9or_reduceEv", metadata !87, i32 2346, metadata !459, i1 false, i1 false, i32 0, i32 0, null, i32 256, i1 false, null, null, i32 0, metadata !99, i32 2346} ; [ DW_TAG_subprogram ]
!598 = metadata !{i32 786478, i32 0, metadata !330, metadata !"nor_reduce", metadata !"nor_reduce", metadata !"_ZNK11ap_int_baseILi17ELb1ELb1EE10nor_reduceEv", metadata !87, i32 2349, metadata !459, i1 false, i1 false, i32 0, i32 0, null, i32 256, i1 false, null, null, i32 0, metadata !99, i32 2349} ; [ DW_TAG_subprogram ]
!599 = metadata !{i32 786478, i32 0, metadata !330, metadata !"xor_reduce", metadata !"xor_reduce", metadata !"_ZNK11ap_int_baseILi17ELb1ELb1EE10xor_reduceEv", metadata !87, i32 2352, metadata !459, i1 false, i1 false, i32 0, i32 0, null, i32 256, i1 false, null, null, i32 0, metadata !99, i32 2352} ; [ DW_TAG_subprogram ]
!600 = metadata !{i32 786478, i32 0, metadata !330, metadata !"xnor_reduce", metadata !"xnor_reduce", metadata !"_ZNK11ap_int_baseILi17ELb1ELb1EE11xnor_reduceEv", metadata !87, i32 2355, metadata !459, i1 false, i1 false, i32 0, i32 0, null, i32 256, i1 false, null, null, i32 0, metadata !99, i32 2355} ; [ DW_TAG_subprogram ]
!601 = metadata !{i32 786478, i32 0, metadata !330, metadata !"to_string", metadata !"to_string", metadata !"_ZNK11ap_int_baseILi17ELb1ELb1EE9to_stringEPci8BaseModeb", metadata !87, i32 2362, metadata !602, i1 false, i1 false, i32 0, i32 0, null, i32 256, i1 false, null, null, i32 0, metadata !99, i32 2362} ; [ DW_TAG_subprogram ]
!602 = metadata !{i32 786453, i32 0, metadata !"", i32 0, i32 0, i64 0, i64 0, i64 0, i32 0, null, metadata !603, i32 0, i32 0} ; [ DW_TAG_subroutine_type ]
!603 = metadata !{null, metadata !457, metadata !604, metadata !108, metadata !605, metadata !110}
!604 = metadata !{i32 786447, null, metadata !"", null, i32 0, i64 64, i64 64, i64 0, i32 0, metadata !191} ; [ DW_TAG_pointer_type ]
!605 = metadata !{i32 786436, null, metadata !"BaseMode", metadata !87, i32 603, i64 5, i64 8, i32 0, i32 0, null, metadata !606, i32 0, i32 0} ; [ DW_TAG_enumeration_type ]
!606 = metadata !{metadata !607, metadata !608, metadata !609, metadata !610}
!607 = metadata !{i32 786472, metadata !"SC_BIN", i64 2} ; [ DW_TAG_enumerator ]
!608 = metadata !{i32 786472, metadata !"SC_OCT", i64 8} ; [ DW_TAG_enumerator ]
!609 = metadata !{i32 786472, metadata !"SC_DEC", i64 10} ; [ DW_TAG_enumerator ]
!610 = metadata !{i32 786472, metadata !"SC_HEX", i64 16} ; [ DW_TAG_enumerator ]
!611 = metadata !{i32 786478, i32 0, metadata !330, metadata !"to_string", metadata !"to_string", metadata !"_ZNK11ap_int_baseILi17ELb1ELb1EE9to_stringE8BaseModeb", metadata !87, i32 2389, metadata !612, i1 false, i1 false, i32 0, i32 0, null, i32 256, i1 false, null, null, i32 0, metadata !99, i32 2389} ; [ DW_TAG_subprogram ]
!612 = metadata !{i32 786453, i32 0, metadata !"", i32 0, i32 0, i64 0, i64 0, i64 0, i32 0, null, metadata !613, i32 0, i32 0} ; [ DW_TAG_subroutine_type ]
!613 = metadata !{metadata !604, metadata !457, metadata !605, metadata !110}
!614 = metadata !{i32 786478, i32 0, metadata !330, metadata !"to_string", metadata !"to_string", metadata !"_ZNK11ap_int_baseILi17ELb1ELb1EE9to_stringEab", metadata !87, i32 2393, metadata !615, i1 false, i1 false, i32 0, i32 0, null, i32 256, i1 false, null, null, i32 0, metadata !99, i32 2393} ; [ DW_TAG_subprogram ]
!615 = metadata !{i32 786453, i32 0, metadata !"", i32 0, i32 0, i64 0, i64 0, i64 0, i32 0, null, metadata !616, i32 0, i32 0} ; [ DW_TAG_subroutine_type ]
!616 = metadata !{metadata !604, metadata !457, metadata !135, metadata !110}
!617 = metadata !{metadata !583, metadata !343, metadata !618}
!618 = metadata !{i32 786480, null, metadata !"_AP_C", metadata !110, i64 1, null, i32 0, i32 0} ; [ DW_TAG_template_value_parameter ]
!619 = metadata !{i32 786478, i32 0, metadata !86, metadata !"operator><16, false>", metadata !"operator><16, false>", metadata !"_ZNK11ap_int_baseILi16ELb0ELb1EEgtILi16ELb0EEEbRKS_IXT_EXT0_EXleT_Li64EEE", metadata !87, i32 2049, metadata !620, i1 false, i1 false, i32 0, i32 0, null, i32 256, i1 false, null, metadata !120, i32 0, metadata !99, i32 2049} ; [ DW_TAG_subprogram ]
!620 = metadata !{i32 786453, i32 0, metadata !"", i32 0, i32 0, i64 0, i64 0, i64 0, i32 0, null, metadata !621, i32 0, i32 0} ; [ DW_TAG_subroutine_type ]
!621 = metadata !{metadata !110, metadata !252, metadata !118}
!622 = metadata !{i32 786478, i32 0, metadata !86, metadata !"range", metadata !"range", metadata !"_ZN11ap_int_baseILi16ELb0ELb1EE5rangeEii", metadata !87, i32 2062, metadata !623, i1 false, i1 false, i32 0, i32 0, null, i32 256, i1 false, null, null, i32 0, metadata !99, i32 2062} ; [ DW_TAG_subprogram ]
!623 = metadata !{i32 786453, i32 0, metadata !"", i32 0, i32 0, i64 0, i64 0, i64 0, i32 0, null, metadata !624, i32 0, i32 0} ; [ DW_TAG_subroutine_type ]
!624 = metadata !{metadata !625, metadata !114, metadata !108, metadata !108}
!625 = metadata !{i32 786434, null, metadata !"ap_range_ref<16, false>", metadata !87, i32 925, i32 0, i32 0, i32 0, i32 4, null, null, i32 0} ; [ DW_TAG_class_type ]
!626 = metadata !{i32 786478, i32 0, metadata !86, metadata !"operator()", metadata !"operator()", metadata !"_ZN11ap_int_baseILi16ELb0ELb1EEclEii", metadata !87, i32 2068, metadata !623, i1 false, i1 false, i32 0, i32 0, null, i32 256, i1 false, null, null, i32 0, metadata !99, i32 2068} ; [ DW_TAG_subprogram ]
!627 = metadata !{i32 786478, i32 0, metadata !86, metadata !"range", metadata !"range", metadata !"_ZNK11ap_int_baseILi16ELb0ELb1EE5rangeEii", metadata !87, i32 2074, metadata !628, i1 false, i1 false, i32 0, i32 0, null, i32 256, i1 false, null, null, i32 0, metadata !99, i32 2074} ; [ DW_TAG_subprogram ]
!628 = metadata !{i32 786453, i32 0, metadata !"", i32 0, i32 0, i64 0, i64 0, i64 0, i32 0, null, metadata !629, i32 0, i32 0} ; [ DW_TAG_subroutine_type ]
!629 = metadata !{metadata !625, metadata !252, metadata !108, metadata !108}
!630 = metadata !{i32 786478, i32 0, metadata !86, metadata !"operator()", metadata !"operator()", metadata !"_ZNK11ap_int_baseILi16ELb0ELb1EEclEii", metadata !87, i32 2080, metadata !628, i1 false, i1 false, i32 0, i32 0, null, i32 256, i1 false, null, null, i32 0, metadata !99, i32 2080} ; [ DW_TAG_subprogram ]
!631 = metadata !{i32 786478, i32 0, metadata !86, metadata !"operator[]", metadata !"operator[]", metadata !"_ZN11ap_int_baseILi16ELb0ELb1EEixEi", metadata !87, i32 2099, metadata !632, i1 false, i1 false, i32 0, i32 0, null, i32 256, i1 false, null, null, i32 0, metadata !99, i32 2099} ; [ DW_TAG_subprogram ]
!632 = metadata !{i32 786453, i32 0, metadata !"", i32 0, i32 0, i64 0, i64 0, i64 0, i32 0, null, metadata !633, i32 0, i32 0} ; [ DW_TAG_subroutine_type ]
!633 = metadata !{metadata !634, metadata !114, metadata !108}
!634 = metadata !{i32 786434, null, metadata !"ap_bit_ref<16, false>", metadata !87, i32 1249, i32 0, i32 0, i32 0, i32 4, null, null, i32 0} ; [ DW_TAG_class_type ]
!635 = metadata !{i32 786478, i32 0, metadata !86, metadata !"operator[]", metadata !"operator[]", metadata !"_ZNK11ap_int_baseILi16ELb0ELb1EEixEi", metadata !87, i32 2113, metadata !303, i1 false, i1 false, i32 0, i32 0, null, i32 256, i1 false, null, null, i32 0, metadata !99, i32 2113} ; [ DW_TAG_subprogram ]
!636 = metadata !{i32 786478, i32 0, metadata !86, metadata !"bit", metadata !"bit", metadata !"_ZN11ap_int_baseILi16ELb0ELb1EE3bitEi", metadata !87, i32 2127, metadata !632, i1 false, i1 false, i32 0, i32 0, null, i32 256, i1 false, null, null, i32 0, metadata !99, i32 2127} ; [ DW_TAG_subprogram ]
!637 = metadata !{i32 786478, i32 0, metadata !86, metadata !"bit", metadata !"bit", metadata !"_ZNK11ap_int_baseILi16ELb0ELb1EE3bitEi", metadata !87, i32 2141, metadata !303, i1 false, i1 false, i32 0, i32 0, null, i32 256, i1 false, null, null, i32 0, metadata !99, i32 2141} ; [ DW_TAG_subprogram ]
!638 = metadata !{i32 786478, i32 0, metadata !86, metadata !"and_reduce", metadata !"and_reduce", metadata !"_ZN11ap_int_baseILi16ELb0ELb1EE10and_reduceEv", metadata !87, i32 2321, metadata !639, i1 false, i1 false, i32 0, i32 0, null, i32 256, i1 false, null, null, i32 0, metadata !99, i32 2321} ; [ DW_TAG_subprogram ]
!639 = metadata !{i32 786453, i32 0, metadata !"", i32 0, i32 0, i64 0, i64 0, i64 0, i32 0, null, metadata !640, i32 0, i32 0} ; [ DW_TAG_subroutine_type ]
!640 = metadata !{metadata !110, metadata !114}
!641 = metadata !{i32 786478, i32 0, metadata !86, metadata !"nand_reduce", metadata !"nand_reduce", metadata !"_ZN11ap_int_baseILi16ELb0ELb1EE11nand_reduceEv", metadata !87, i32 2324, metadata !639, i1 false, i1 false, i32 0, i32 0, null, i32 256, i1 false, null, null, i32 0, metadata !99, i32 2324} ; [ DW_TAG_subprogram ]
!642 = metadata !{i32 786478, i32 0, metadata !86, metadata !"or_reduce", metadata !"or_reduce", metadata !"_ZN11ap_int_baseILi16ELb0ELb1EE9or_reduceEv", metadata !87, i32 2327, metadata !639, i1 false, i1 false, i32 0, i32 0, null, i32 256, i1 false, null, null, i32 0, metadata !99, i32 2327} ; [ DW_TAG_subprogram ]
!643 = metadata !{i32 786478, i32 0, metadata !86, metadata !"nor_reduce", metadata !"nor_reduce", metadata !"_ZN11ap_int_baseILi16ELb0ELb1EE10nor_reduceEv", metadata !87, i32 2330, metadata !639, i1 false, i1 false, i32 0, i32 0, null, i32 256, i1 false, null, null, i32 0, metadata !99, i32 2330} ; [ DW_TAG_subprogram ]
!644 = metadata !{i32 786478, i32 0, metadata !86, metadata !"xor_reduce", metadata !"xor_reduce", metadata !"_ZN11ap_int_baseILi16ELb0ELb1EE10xor_reduceEv", metadata !87, i32 2333, metadata !639, i1 false, i1 false, i32 0, i32 0, null, i32 256, i1 false, null, null, i32 0, metadata !99, i32 2333} ; [ DW_TAG_subprogram ]
!645 = metadata !{i32 786478, i32 0, metadata !86, metadata !"xnor_reduce", metadata !"xnor_reduce", metadata !"_ZN11ap_int_baseILi16ELb0ELb1EE11xnor_reduceEv", metadata !87, i32 2336, metadata !639, i1 false, i1 false, i32 0, i32 0, null, i32 256, i1 false, null, null, i32 0, metadata !99, i32 2336} ; [ DW_TAG_subprogram ]
!646 = metadata !{i32 786478, i32 0, metadata !86, metadata !"and_reduce", metadata !"and_reduce", metadata !"_ZNK11ap_int_baseILi16ELb0ELb1EE10and_reduceEv", metadata !87, i32 2340, metadata !254, i1 false, i1 false, i32 0, i32 0, null, i32 256, i1 false, null, null, i32 0, metadata !99, i32 2340} ; [ DW_TAG_subprogram ]
!647 = metadata !{i32 786478, i32 0, metadata !86, metadata !"nand_reduce", metadata !"nand_reduce", metadata !"_ZNK11ap_int_baseILi16ELb0ELb1EE11nand_reduceEv", metadata !87, i32 2343, metadata !254, i1 false, i1 false, i32 0, i32 0, null, i32 256, i1 false, null, null, i32 0, metadata !99, i32 2343} ; [ DW_TAG_subprogram ]
!648 = metadata !{i32 786478, i32 0, metadata !86, metadata !"or_reduce", metadata !"or_reduce", metadata !"_ZNK11ap_int_baseILi16ELb0ELb1EE9or_reduceEv", metadata !87, i32 2346, metadata !254, i1 false, i1 false, i32 0, i32 0, null, i32 256, i1 false, null, null, i32 0, metadata !99, i32 2346} ; [ DW_TAG_subprogram ]
!649 = metadata !{i32 786478, i32 0, metadata !86, metadata !"nor_reduce", metadata !"nor_reduce", metadata !"_ZNK11ap_int_baseILi16ELb0ELb1EE10nor_reduceEv", metadata !87, i32 2349, metadata !254, i1 false, i1 false, i32 0, i32 0, null, i32 256, i1 false, null, null, i32 0, metadata !99, i32 2349} ; [ DW_TAG_subprogram ]
!650 = metadata !{i32 786478, i32 0, metadata !86, metadata !"xor_reduce", metadata !"xor_reduce", metadata !"_ZNK11ap_int_baseILi16ELb0ELb1EE10xor_reduceEv", metadata !87, i32 2352, metadata !254, i1 false, i1 false, i32 0, i32 0, null, i32 256, i1 false, null, null, i32 0, metadata !99, i32 2352} ; [ DW_TAG_subprogram ]
!651 = metadata !{i32 786478, i32 0, metadata !86, metadata !"xnor_reduce", metadata !"xnor_reduce", metadata !"_ZNK11ap_int_baseILi16ELb0ELb1EE11xnor_reduceEv", metadata !87, i32 2355, metadata !254, i1 false, i1 false, i32 0, i32 0, null, i32 256, i1 false, null, null, i32 0, metadata !99, i32 2355} ; [ DW_TAG_subprogram ]
!652 = metadata !{i32 786478, i32 0, metadata !86, metadata !"to_string", metadata !"to_string", metadata !"_ZNK11ap_int_baseILi16ELb0ELb1EE9to_stringEPci8BaseModeb", metadata !87, i32 2362, metadata !653, i1 false, i1 false, i32 0, i32 0, null, i32 256, i1 false, null, null, i32 0, metadata !99, i32 2362} ; [ DW_TAG_subprogram ]
!653 = metadata !{i32 786453, i32 0, metadata !"", i32 0, i32 0, i64 0, i64 0, i64 0, i32 0, null, metadata !654, i32 0, i32 0} ; [ DW_TAG_subroutine_type ]
!654 = metadata !{null, metadata !252, metadata !604, metadata !108, metadata !605, metadata !110}
!655 = metadata !{i32 786478, i32 0, metadata !86, metadata !"to_string", metadata !"to_string", metadata !"_ZNK11ap_int_baseILi16ELb0ELb1EE9to_stringE8BaseModeb", metadata !87, i32 2389, metadata !656, i1 false, i1 false, i32 0, i32 0, null, i32 256, i1 false, null, null, i32 0, metadata !99, i32 2389} ; [ DW_TAG_subprogram ]
!656 = metadata !{i32 786453, i32 0, metadata !"", i32 0, i32 0, i64 0, i64 0, i64 0, i32 0, null, metadata !657, i32 0, i32 0} ; [ DW_TAG_subroutine_type ]
!657 = metadata !{metadata !604, metadata !252, metadata !605, metadata !110}
!658 = metadata !{i32 786478, i32 0, metadata !86, metadata !"to_string", metadata !"to_string", metadata !"_ZNK11ap_int_baseILi16ELb0ELb1EE9to_stringEab", metadata !87, i32 2393, metadata !659, i1 false, i1 false, i32 0, i32 0, null, i32 256, i1 false, null, null, i32 0, metadata !99, i32 2393} ; [ DW_TAG_subprogram ]
!659 = metadata !{i32 786453, i32 0, metadata !"", i32 0, i32 0, i64 0, i64 0, i64 0, i32 0, null, metadata !660, i32 0, i32 0} ; [ DW_TAG_subroutine_type ]
!660 = metadata !{metadata !604, metadata !252, metadata !135, metadata !110}
!661 = metadata !{i32 786478, i32 0, metadata !86, metadata !"ap_int_base", metadata !"ap_int_base", metadata !"", metadata !87, i32 1453, metadata !116, i1 false, i1 false, i32 0, i32 0, null, i32 320, i1 false, null, null, i32 0, metadata !99, i32 1453} ; [ DW_TAG_subprogram ]
!662 = metadata !{i32 786478, i32 0, metadata !86, metadata !"~ap_int_base", metadata !"~ap_int_base", metadata !"", metadata !87, i32 1453, metadata !112, i1 false, i1 false, i32 0, i32 0, null, i32 320, i1 false, null, null, i32 0, metadata !99, i32 1453} ; [ DW_TAG_subprogram ]
!663 = metadata !{metadata !664, metadata !109, metadata !618}
!664 = metadata !{i32 786480, null, metadata !"_AP_W", metadata !108, i64 16, null, i32 0, i32 0} ; [ DW_TAG_template_value_parameter ]
!665 = metadata !{i32 786478, i32 0, metadata !82, metadata !"ap_uint", metadata !"ap_uint", metadata !"", metadata !83, i32 186, metadata !666, i1 false, i1 false, i32 0, i32 0, null, i32 256, i1 false, null, null, i32 0, metadata !99, i32 186} ; [ DW_TAG_subprogram ]
!666 = metadata !{i32 786453, i32 0, metadata !"", i32 0, i32 0, i64 0, i64 0, i64 0, i32 0, null, metadata !667, i32 0, i32 0} ; [ DW_TAG_subroutine_type ]
!667 = metadata !{null, metadata !668}
!668 = metadata !{i32 786447, i32 0, metadata !"", i32 0, i32 0, i64 64, i64 64, i64 0, i32 64, metadata !82} ; [ DW_TAG_pointer_type ]
!669 = metadata !{i32 786478, i32 0, metadata !82, metadata !"ap_uint<16>", metadata !"ap_uint<16>", metadata !"", metadata !83, i32 188, metadata !670, i1 false, i1 false, i32 0, i32 0, null, i32 256, i1 false, null, metadata !674, i32 0, metadata !99, i32 188} ; [ DW_TAG_subprogram ]
!670 = metadata !{i32 786453, i32 0, metadata !"", i32 0, i32 0, i64 0, i64 0, i64 0, i32 0, null, metadata !671, i32 0, i32 0} ; [ DW_TAG_subroutine_type ]
!671 = metadata !{null, metadata !668, metadata !672}
!672 = metadata !{i32 786448, null, null, null, i32 0, i64 0, i64 0, i64 0, i32 0, metadata !673} ; [ DW_TAG_reference_type ]
!673 = metadata !{i32 786470, null, metadata !"", null, i32 0, i64 0, i64 0, i64 0, i32 0, metadata !82} ; [ DW_TAG_const_type ]
!674 = metadata !{metadata !121}
!675 = metadata !{i32 786478, i32 0, metadata !82, metadata !"ap_uint<16>", metadata !"ap_uint<16>", metadata !"", metadata !83, i32 194, metadata !676, i1 false, i1 false, i32 0, i32 0, null, i32 256, i1 false, null, metadata !674, i32 0, metadata !99, i32 194} ; [ DW_TAG_subprogram ]
!676 = metadata !{i32 786453, i32 0, metadata !"", i32 0, i32 0, i64 0, i64 0, i64 0, i32 0, null, metadata !677, i32 0, i32 0} ; [ DW_TAG_subroutine_type ]
!677 = metadata !{null, metadata !668, metadata !678}
!678 = metadata !{i32 786448, null, null, null, i32 0, i64 0, i64 0, i64 0, i32 0, metadata !679} ; [ DW_TAG_reference_type ]
!679 = metadata !{i32 786470, null, metadata !"", null, i32 0, i64 0, i64 0, i64 0, i32 0, metadata !680} ; [ DW_TAG_const_type ]
!680 = metadata !{i32 786485, null, metadata !"", null, i32 0, i64 0, i64 0, i64 0, i32 0, metadata !82} ; [ DW_TAG_volatile_type ]
!681 = metadata !{i32 786478, i32 0, metadata !82, metadata !"ap_uint<16, false>", metadata !"ap_uint<16, false>", metadata !"", metadata !83, i32 229, metadata !682, i1 false, i1 false, i32 0, i32 0, null, i32 256, i1 false, null, metadata !120, i32 0, metadata !99, i32 229} ; [ DW_TAG_subprogram ]
!682 = metadata !{i32 786453, i32 0, metadata !"", i32 0, i32 0, i64 0, i64 0, i64 0, i32 0, null, metadata !683, i32 0, i32 0} ; [ DW_TAG_subroutine_type ]
!683 = metadata !{null, metadata !668, metadata !118}
!684 = metadata !{i32 786478, i32 0, metadata !82, metadata !"ap_uint", metadata !"ap_uint", metadata !"", metadata !83, i32 248, metadata !685, i1 false, i1 false, i32 0, i32 0, null, i32 256, i1 false, null, null, i32 0, metadata !99, i32 248} ; [ DW_TAG_subprogram ]
!685 = metadata !{i32 786453, i32 0, metadata !"", i32 0, i32 0, i64 0, i64 0, i64 0, i32 0, null, metadata !686, i32 0, i32 0} ; [ DW_TAG_subroutine_type ]
!686 = metadata !{null, metadata !668, metadata !110}
!687 = metadata !{i32 786478, i32 0, metadata !82, metadata !"ap_uint", metadata !"ap_uint", metadata !"", metadata !83, i32 249, metadata !688, i1 false, i1 false, i32 0, i32 0, null, i32 256, i1 false, null, null, i32 0, metadata !99, i32 249} ; [ DW_TAG_subprogram ]
!688 = metadata !{i32 786453, i32 0, metadata !"", i32 0, i32 0, i64 0, i64 0, i64 0, i32 0, null, metadata !689, i32 0, i32 0} ; [ DW_TAG_subroutine_type ]
!689 = metadata !{null, metadata !668, metadata !135}
!690 = metadata !{i32 786478, i32 0, metadata !82, metadata !"ap_uint", metadata !"ap_uint", metadata !"", metadata !83, i32 250, metadata !691, i1 false, i1 false, i32 0, i32 0, null, i32 256, i1 false, null, null, i32 0, metadata !99, i32 250} ; [ DW_TAG_subprogram ]
!691 = metadata !{i32 786453, i32 0, metadata !"", i32 0, i32 0, i64 0, i64 0, i64 0, i32 0, null, metadata !692, i32 0, i32 0} ; [ DW_TAG_subroutine_type ]
!692 = metadata !{null, metadata !668, metadata !139}
!693 = metadata !{i32 786478, i32 0, metadata !82, metadata !"ap_uint", metadata !"ap_uint", metadata !"", metadata !83, i32 251, metadata !694, i1 false, i1 false, i32 0, i32 0, null, i32 256, i1 false, null, null, i32 0, metadata !99, i32 251} ; [ DW_TAG_subprogram ]
!694 = metadata !{i32 786453, i32 0, metadata !"", i32 0, i32 0, i64 0, i64 0, i64 0, i32 0, null, metadata !695, i32 0, i32 0} ; [ DW_TAG_subroutine_type ]
!695 = metadata !{null, metadata !668, metadata !143}
!696 = metadata !{i32 786478, i32 0, metadata !82, metadata !"ap_uint", metadata !"ap_uint", metadata !"", metadata !83, i32 252, metadata !697, i1 false, i1 false, i32 0, i32 0, null, i32 256, i1 false, null, null, i32 0, metadata !99, i32 252} ; [ DW_TAG_subprogram ]
!697 = metadata !{i32 786453, i32 0, metadata !"", i32 0, i32 0, i64 0, i64 0, i64 0, i32 0, null, metadata !698, i32 0, i32 0} ; [ DW_TAG_subroutine_type ]
!698 = metadata !{null, metadata !668, metadata !147}
!699 = metadata !{i32 786478, i32 0, metadata !82, metadata !"ap_uint", metadata !"ap_uint", metadata !"", metadata !83, i32 253, metadata !700, i1 false, i1 false, i32 0, i32 0, null, i32 256, i1 false, null, null, i32 0, metadata !99, i32 253} ; [ DW_TAG_subprogram ]
!700 = metadata !{i32 786453, i32 0, metadata !"", i32 0, i32 0, i64 0, i64 0, i64 0, i32 0, null, metadata !701, i32 0, i32 0} ; [ DW_TAG_subroutine_type ]
!701 = metadata !{null, metadata !668, metadata !108}
!702 = metadata !{i32 786478, i32 0, metadata !82, metadata !"ap_uint", metadata !"ap_uint", metadata !"", metadata !83, i32 254, metadata !703, i1 false, i1 false, i32 0, i32 0, null, i32 256, i1 false, null, null, i32 0, metadata !99, i32 254} ; [ DW_TAG_subprogram ]
!703 = metadata !{i32 786453, i32 0, metadata !"", i32 0, i32 0, i64 0, i64 0, i64 0, i32 0, null, metadata !704, i32 0, i32 0} ; [ DW_TAG_subroutine_type ]
!704 = metadata !{null, metadata !668, metadata !154}
!705 = metadata !{i32 786478, i32 0, metadata !82, metadata !"ap_uint", metadata !"ap_uint", metadata !"", metadata !83, i32 255, metadata !706, i1 false, i1 false, i32 0, i32 0, null, i32 256, i1 false, null, null, i32 0, metadata !99, i32 255} ; [ DW_TAG_subprogram ]
!706 = metadata !{i32 786453, i32 0, metadata !"", i32 0, i32 0, i64 0, i64 0, i64 0, i32 0, null, metadata !707, i32 0, i32 0} ; [ DW_TAG_subroutine_type ]
!707 = metadata !{null, metadata !668, metadata !158}
!708 = metadata !{i32 786478, i32 0, metadata !82, metadata !"ap_uint", metadata !"ap_uint", metadata !"", metadata !83, i32 256, metadata !709, i1 false, i1 false, i32 0, i32 0, null, i32 256, i1 false, null, null, i32 0, metadata !99, i32 256} ; [ DW_TAG_subprogram ]
!709 = metadata !{i32 786453, i32 0, metadata !"", i32 0, i32 0, i64 0, i64 0, i64 0, i32 0, null, metadata !710, i32 0, i32 0} ; [ DW_TAG_subroutine_type ]
!710 = metadata !{null, metadata !668, metadata !162}
!711 = metadata !{i32 786478, i32 0, metadata !82, metadata !"ap_uint", metadata !"ap_uint", metadata !"", metadata !83, i32 257, metadata !712, i1 false, i1 false, i32 0, i32 0, null, i32 256, i1 false, null, null, i32 0, metadata !99, i32 257} ; [ DW_TAG_subprogram ]
!712 = metadata !{i32 786453, i32 0, metadata !"", i32 0, i32 0, i64 0, i64 0, i64 0, i32 0, null, metadata !713, i32 0, i32 0} ; [ DW_TAG_subroutine_type ]
!713 = metadata !{null, metadata !668, metadata !172}
!714 = metadata !{i32 786478, i32 0, metadata !82, metadata !"ap_uint", metadata !"ap_uint", metadata !"", metadata !83, i32 258, metadata !715, i1 false, i1 false, i32 0, i32 0, null, i32 256, i1 false, null, null, i32 0, metadata !99, i32 258} ; [ DW_TAG_subprogram ]
!715 = metadata !{i32 786453, i32 0, metadata !"", i32 0, i32 0, i64 0, i64 0, i64 0, i32 0, null, metadata !716, i32 0, i32 0} ; [ DW_TAG_subroutine_type ]
!716 = metadata !{null, metadata !668, metadata !167}
!717 = metadata !{i32 786478, i32 0, metadata !82, metadata !"ap_uint", metadata !"ap_uint", metadata !"", metadata !83, i32 259, metadata !718, i1 false, i1 false, i32 0, i32 0, null, i32 256, i1 false, null, null, i32 0, metadata !99, i32 259} ; [ DW_TAG_subprogram ]
!718 = metadata !{i32 786453, i32 0, metadata !"", i32 0, i32 0, i64 0, i64 0, i64 0, i32 0, null, metadata !719, i32 0, i32 0} ; [ DW_TAG_subroutine_type ]
!719 = metadata !{null, metadata !668, metadata !176}
!720 = metadata !{i32 786478, i32 0, metadata !82, metadata !"ap_uint", metadata !"ap_uint", metadata !"", metadata !83, i32 260, metadata !721, i1 false, i1 false, i32 0, i32 0, null, i32 256, i1 false, null, null, i32 0, metadata !99, i32 260} ; [ DW_TAG_subprogram ]
!721 = metadata !{i32 786453, i32 0, metadata !"", i32 0, i32 0, i64 0, i64 0, i64 0, i32 0, null, metadata !722, i32 0, i32 0} ; [ DW_TAG_subroutine_type ]
!722 = metadata !{null, metadata !668, metadata !181}
!723 = metadata !{i32 786478, i32 0, metadata !82, metadata !"ap_uint", metadata !"ap_uint", metadata !"", metadata !83, i32 261, metadata !724, i1 false, i1 false, i32 0, i32 0, null, i32 256, i1 false, null, null, i32 0, metadata !99, i32 261} ; [ DW_TAG_subprogram ]
!724 = metadata !{i32 786453, i32 0, metadata !"", i32 0, i32 0, i64 0, i64 0, i64 0, i32 0, null, metadata !725, i32 0, i32 0} ; [ DW_TAG_subroutine_type ]
!725 = metadata !{null, metadata !668, metadata !185}
!726 = metadata !{i32 786478, i32 0, metadata !82, metadata !"ap_uint", metadata !"ap_uint", metadata !"", metadata !83, i32 263, metadata !727, i1 false, i1 false, i32 0, i32 0, null, i32 256, i1 false, null, null, i32 0, metadata !99, i32 263} ; [ DW_TAG_subprogram ]
!727 = metadata !{i32 786453, i32 0, metadata !"", i32 0, i32 0, i64 0, i64 0, i64 0, i32 0, null, metadata !728, i32 0, i32 0} ; [ DW_TAG_subroutine_type ]
!728 = metadata !{null, metadata !668, metadata !189}
!729 = metadata !{i32 786478, i32 0, metadata !82, metadata !"ap_uint", metadata !"ap_uint", metadata !"", metadata !83, i32 264, metadata !730, i1 false, i1 false, i32 0, i32 0, null, i32 256, i1 false, null, null, i32 0, metadata !99, i32 264} ; [ DW_TAG_subprogram ]
!730 = metadata !{i32 786453, i32 0, metadata !"", i32 0, i32 0, i64 0, i64 0, i64 0, i32 0, null, metadata !731, i32 0, i32 0} ; [ DW_TAG_subroutine_type ]
!731 = metadata !{null, metadata !668, metadata !189, metadata !135}
!732 = metadata !{i32 786478, i32 0, metadata !82, metadata !"operator=", metadata !"operator=", metadata !"_ZNV7ap_uintILi16EEaSERKS0_", metadata !83, i32 267, metadata !733, i1 false, i1 false, i32 0, i32 0, null, i32 256, i1 false, null, null, i32 0, metadata !99, i32 267} ; [ DW_TAG_subprogram ]
!733 = metadata !{i32 786453, i32 0, metadata !"", i32 0, i32 0, i64 0, i64 0, i64 0, i32 0, null, metadata !734, i32 0, i32 0} ; [ DW_TAG_subroutine_type ]
!734 = metadata !{null, metadata !735, metadata !672}
!735 = metadata !{i32 786447, i32 0, metadata !"", i32 0, i32 0, i64 64, i64 64, i64 0, i32 64, metadata !680} ; [ DW_TAG_pointer_type ]
!736 = metadata !{i32 786478, i32 0, metadata !82, metadata !"operator=", metadata !"operator=", metadata !"_ZNV7ap_uintILi16EEaSERVKS0_", metadata !83, i32 271, metadata !737, i1 false, i1 false, i32 0, i32 0, null, i32 256, i1 false, null, null, i32 0, metadata !99, i32 271} ; [ DW_TAG_subprogram ]
!737 = metadata !{i32 786453, i32 0, metadata !"", i32 0, i32 0, i64 0, i64 0, i64 0, i32 0, null, metadata !738, i32 0, i32 0} ; [ DW_TAG_subroutine_type ]
!738 = metadata !{null, metadata !735, metadata !678}
!739 = metadata !{i32 786478, i32 0, metadata !82, metadata !"operator=", metadata !"operator=", metadata !"_ZN7ap_uintILi16EEaSERVKS0_", metadata !83, i32 275, metadata !740, i1 false, i1 false, i32 0, i32 0, null, i32 256, i1 false, null, null, i32 0, metadata !99, i32 275} ; [ DW_TAG_subprogram ]
!740 = metadata !{i32 786453, i32 0, metadata !"", i32 0, i32 0, i64 0, i64 0, i64 0, i32 0, null, metadata !741, i32 0, i32 0} ; [ DW_TAG_subroutine_type ]
!741 = metadata !{metadata !742, metadata !668, metadata !678}
!742 = metadata !{i32 786448, null, null, null, i32 0, i64 0, i64 0, i64 0, i32 0, metadata !82} ; [ DW_TAG_reference_type ]
!743 = metadata !{i32 786478, i32 0, metadata !82, metadata !"operator=", metadata !"operator=", metadata !"_ZN7ap_uintILi16EEaSERKS0_", metadata !83, i32 280, metadata !744, i1 false, i1 false, i32 0, i32 0, null, i32 256, i1 false, null, null, i32 0, metadata !99, i32 280} ; [ DW_TAG_subprogram ]
!744 = metadata !{i32 786453, i32 0, metadata !"", i32 0, i32 0, i64 0, i64 0, i64 0, i32 0, null, metadata !745, i32 0, i32 0} ; [ DW_TAG_subroutine_type ]
!745 = metadata !{metadata !742, metadata !668, metadata !672}
!746 = metadata !{i32 786478, i32 0, metadata !82, metadata !"ap_uint", metadata !"ap_uint", metadata !"", metadata !83, i32 183, metadata !670, i1 false, i1 false, i32 0, i32 0, null, i32 320, i1 false, null, null, i32 0, metadata !99, i32 183} ; [ DW_TAG_subprogram ]
!747 = metadata !{i32 786478, i32 0, metadata !82, metadata !"~ap_uint", metadata !"~ap_uint", metadata !"", metadata !83, i32 183, metadata !666, i1 false, i1 false, i32 0, i32 0, null, i32 320, i1 false, null, null, i32 0, metadata !99, i32 183} ; [ DW_TAG_subprogram ]
!748 = metadata !{metadata !664}
!749 = metadata !{i32 786448, null, null, null, i32 0, i64 0, i64 0, i64 0, i32 0, metadata !750} ; [ DW_TAG_reference_type ]
!750 = metadata !{i32 786454, null, metadata !"O_t", metadata !77, i32 49, i64 0, i64 0, i64 0, i32 0, metadata !751} ; [ DW_TAG_typedef ]
!751 = metadata !{i32 786434, null, metadata !"ap_uint<6>", metadata !83, i32 183, i64 8, i64 8, i32 0, i32 0, null, metadata !752, i32 0, null, metadata !1097} ; [ DW_TAG_class_type ]
!752 = metadata !{metadata !753, metadata !1014, metadata !1018, metadata !1024, metadata !1030, metadata !1033, metadata !1036, metadata !1039, metadata !1042, metadata !1045, metadata !1048, metadata !1051, metadata !1054, metadata !1057, metadata !1060, metadata !1063, metadata !1066, metadata !1069, metadata !1072, metadata !1075, metadata !1078, metadata !1081, metadata !1085, metadata !1088, metadata !1092, metadata !1095, metadata !1096}
!753 = metadata !{i32 786460, metadata !751, null, metadata !83, i32 0, i64 0, i64 0, i64 0, i32 0, metadata !754} ; [ DW_TAG_inheritance ]
!754 = metadata !{i32 786434, null, metadata !"ap_int_base<6, false, true>", metadata !87, i32 1453, i64 8, i64 8, i32 0, i32 0, null, metadata !755, i32 0, null, metadata !1012} ; [ DW_TAG_class_type ]
!755 = metadata !{metadata !756, metadata !772, metadata !776, metadata !783, metadata !789, metadata !792, metadata !795, metadata !798, metadata !801, metadata !804, metadata !807, metadata !810, metadata !813, metadata !816, metadata !819, metadata !822, metadata !825, metadata !828, metadata !831, metadata !834, metadata !837, metadata !841, metadata !844, metadata !847, metadata !848, metadata !852, metadata !855, metadata !858, metadata !861, metadata !864, metadata !867, metadata !870, metadata !873, metadata !876, metadata !879, metadata !882, metadata !885, metadata !894, metadata !897, metadata !900, metadata !903, metadata !906, metadata !909, metadata !912, metadata !915, metadata !918, metadata !921, metadata !924, metadata !927, metadata !930, metadata !931, metadata !935, metadata !938, metadata !939, metadata !940, metadata !941, metadata !942, metadata !943, metadata !946, metadata !947, metadata !950, metadata !951, metadata !952, metadata !953, metadata !954, metadata !955, metadata !958, metadata !959, metadata !960, metadata !963, metadata !964, metadata !967, metadata !968, metadata !972, metadata !976, metadata !977, metadata !980, metadata !981, metadata !985, metadata !986, metadata !987, metadata !988, metadata !991, metadata !992, metadata !993, metadata !994, metadata !995, metadata !996, metadata !997, metadata !998, metadata !999, metadata !1000, metadata !1001, metadata !1002, metadata !1005, metadata !1008, metadata !1011}
!756 = metadata !{i32 786460, metadata !754, null, metadata !87, i32 0, i64 0, i64 0, i64 0, i32 0, metadata !757} ; [ DW_TAG_inheritance ]
!757 = metadata !{i32 786434, null, metadata !"ssdm_int<6 + 1024 * 0, false>", metadata !91, i32 8, i64 8, i64 8, i32 0, i32 0, null, metadata !758, i32 0, null, metadata !770} ; [ DW_TAG_class_type ]
!758 = metadata !{metadata !759, metadata !761, metadata !765}
!759 = metadata !{i32 786445, metadata !757, metadata !"V", metadata !91, i32 8, i64 6, i64 8, i64 0, i32 0, metadata !760} ; [ DW_TAG_member ]
!760 = metadata !{i32 786468, null, metadata !"uint6", null, i32 0, i64 6, i64 8, i64 0, i32 0, i32 7} ; [ DW_TAG_base_type ]
!761 = metadata !{i32 786478, i32 0, metadata !757, metadata !"ssdm_int", metadata !"ssdm_int", metadata !"", metadata !91, i32 8, metadata !762, i1 false, i1 false, i32 0, i32 0, null, i32 256, i1 false, null, null, i32 0, metadata !99, i32 8} ; [ DW_TAG_subprogram ]
!762 = metadata !{i32 786453, i32 0, metadata !"", i32 0, i32 0, i64 0, i64 0, i64 0, i32 0, null, metadata !763, i32 0, i32 0} ; [ DW_TAG_subroutine_type ]
!763 = metadata !{null, metadata !764}
!764 = metadata !{i32 786447, i32 0, metadata !"", i32 0, i32 0, i64 64, i64 64, i64 0, i32 64, metadata !757} ; [ DW_TAG_pointer_type ]
!765 = metadata !{i32 786478, i32 0, metadata !757, metadata !"ssdm_int", metadata !"ssdm_int", metadata !"", metadata !91, i32 8, metadata !766, i1 false, i1 false, i32 0, i32 0, null, i32 320, i1 false, null, null, i32 0, metadata !99, i32 8} ; [ DW_TAG_subprogram ]
!766 = metadata !{i32 786453, i32 0, metadata !"", i32 0, i32 0, i64 0, i64 0, i64 0, i32 0, null, metadata !767, i32 0, i32 0} ; [ DW_TAG_subroutine_type ]
!767 = metadata !{null, metadata !764, metadata !768}
!768 = metadata !{i32 786448, null, null, null, i32 0, i64 0, i64 0, i64 0, i32 0, metadata !769} ; [ DW_TAG_reference_type ]
!769 = metadata !{i32 786470, null, metadata !"", null, i32 0, i64 0, i64 0, i64 0, i32 0, metadata !757} ; [ DW_TAG_const_type ]
!770 = metadata !{metadata !771, metadata !109}
!771 = metadata !{i32 786480, null, metadata !"_AP_N", metadata !108, i64 6, null, i32 0, i32 0} ; [ DW_TAG_template_value_parameter ]
!772 = metadata !{i32 786478, i32 0, metadata !754, metadata !"ap_int_base", metadata !"ap_int_base", metadata !"", metadata !87, i32 1494, metadata !773, i1 false, i1 false, i32 0, i32 0, null, i32 256, i1 false, null, null, i32 0, metadata !99, i32 1494} ; [ DW_TAG_subprogram ]
!773 = metadata !{i32 786453, i32 0, metadata !"", i32 0, i32 0, i64 0, i64 0, i64 0, i32 0, null, metadata !774, i32 0, i32 0} ; [ DW_TAG_subroutine_type ]
!774 = metadata !{null, metadata !775}
!775 = metadata !{i32 786447, i32 0, metadata !"", i32 0, i32 0, i64 64, i64 64, i64 0, i32 64, metadata !754} ; [ DW_TAG_pointer_type ]
!776 = metadata !{i32 786478, i32 0, metadata !754, metadata !"ap_int_base<6, false>", metadata !"ap_int_base<6, false>", metadata !"", metadata !87, i32 1506, metadata !777, i1 false, i1 false, i32 0, i32 0, null, i32 256, i1 false, null, metadata !781, i32 0, metadata !99, i32 1506} ; [ DW_TAG_subprogram ]
!777 = metadata !{i32 786453, i32 0, metadata !"", i32 0, i32 0, i64 0, i64 0, i64 0, i32 0, null, metadata !778, i32 0, i32 0} ; [ DW_TAG_subroutine_type ]
!778 = metadata !{null, metadata !775, metadata !779}
!779 = metadata !{i32 786448, null, null, null, i32 0, i64 0, i64 0, i64 0, i32 0, metadata !780} ; [ DW_TAG_reference_type ]
!780 = metadata !{i32 786470, null, metadata !"", null, i32 0, i64 0, i64 0, i64 0, i32 0, metadata !754} ; [ DW_TAG_const_type ]
!781 = metadata !{metadata !782, metadata !122}
!782 = metadata !{i32 786480, null, metadata !"_AP_W2", metadata !108, i64 6, null, i32 0, i32 0} ; [ DW_TAG_template_value_parameter ]
!783 = metadata !{i32 786478, i32 0, metadata !754, metadata !"ap_int_base<6, false>", metadata !"ap_int_base<6, false>", metadata !"", metadata !87, i32 1509, metadata !784, i1 false, i1 false, i32 0, i32 0, null, i32 256, i1 false, null, metadata !781, i32 0, metadata !99, i32 1509} ; [ DW_TAG_subprogram ]
!784 = metadata !{i32 786453, i32 0, metadata !"", i32 0, i32 0, i64 0, i64 0, i64 0, i32 0, null, metadata !785, i32 0, i32 0} ; [ DW_TAG_subroutine_type ]
!785 = metadata !{null, metadata !775, metadata !786}
!786 = metadata !{i32 786448, null, null, null, i32 0, i64 0, i64 0, i64 0, i32 0, metadata !787} ; [ DW_TAG_reference_type ]
!787 = metadata !{i32 786470, null, metadata !"", null, i32 0, i64 0, i64 0, i64 0, i32 0, metadata !788} ; [ DW_TAG_const_type ]
!788 = metadata !{i32 786485, null, metadata !"", null, i32 0, i64 0, i64 0, i64 0, i32 0, metadata !754} ; [ DW_TAG_volatile_type ]
!789 = metadata !{i32 786478, i32 0, metadata !754, metadata !"ap_int_base", metadata !"ap_int_base", metadata !"", metadata !87, i32 1516, metadata !790, i1 false, i1 false, i32 0, i32 0, null, i32 384, i1 false, null, null, i32 0, metadata !99, i32 1516} ; [ DW_TAG_subprogram ]
!790 = metadata !{i32 786453, i32 0, metadata !"", i32 0, i32 0, i64 0, i64 0, i64 0, i32 0, null, metadata !791, i32 0, i32 0} ; [ DW_TAG_subroutine_type ]
!791 = metadata !{null, metadata !775, metadata !110}
!792 = metadata !{i32 786478, i32 0, metadata !754, metadata !"ap_int_base", metadata !"ap_int_base", metadata !"", metadata !87, i32 1517, metadata !793, i1 false, i1 false, i32 0, i32 0, null, i32 384, i1 false, null, null, i32 0, metadata !99, i32 1517} ; [ DW_TAG_subprogram ]
!793 = metadata !{i32 786453, i32 0, metadata !"", i32 0, i32 0, i64 0, i64 0, i64 0, i32 0, null, metadata !794, i32 0, i32 0} ; [ DW_TAG_subroutine_type ]
!794 = metadata !{null, metadata !775, metadata !135}
!795 = metadata !{i32 786478, i32 0, metadata !754, metadata !"ap_int_base", metadata !"ap_int_base", metadata !"", metadata !87, i32 1518, metadata !796, i1 false, i1 false, i32 0, i32 0, null, i32 384, i1 false, null, null, i32 0, metadata !99, i32 1518} ; [ DW_TAG_subprogram ]
!796 = metadata !{i32 786453, i32 0, metadata !"", i32 0, i32 0, i64 0, i64 0, i64 0, i32 0, null, metadata !797, i32 0, i32 0} ; [ DW_TAG_subroutine_type ]
!797 = metadata !{null, metadata !775, metadata !139}
!798 = metadata !{i32 786478, i32 0, metadata !754, metadata !"ap_int_base", metadata !"ap_int_base", metadata !"", metadata !87, i32 1519, metadata !799, i1 false, i1 false, i32 0, i32 0, null, i32 384, i1 false, null, null, i32 0, metadata !99, i32 1519} ; [ DW_TAG_subprogram ]
!799 = metadata !{i32 786453, i32 0, metadata !"", i32 0, i32 0, i64 0, i64 0, i64 0, i32 0, null, metadata !800, i32 0, i32 0} ; [ DW_TAG_subroutine_type ]
!800 = metadata !{null, metadata !775, metadata !143}
!801 = metadata !{i32 786478, i32 0, metadata !754, metadata !"ap_int_base", metadata !"ap_int_base", metadata !"", metadata !87, i32 1520, metadata !802, i1 false, i1 false, i32 0, i32 0, null, i32 384, i1 false, null, null, i32 0, metadata !99, i32 1520} ; [ DW_TAG_subprogram ]
!802 = metadata !{i32 786453, i32 0, metadata !"", i32 0, i32 0, i64 0, i64 0, i64 0, i32 0, null, metadata !803, i32 0, i32 0} ; [ DW_TAG_subroutine_type ]
!803 = metadata !{null, metadata !775, metadata !147}
!804 = metadata !{i32 786478, i32 0, metadata !754, metadata !"ap_int_base", metadata !"ap_int_base", metadata !"", metadata !87, i32 1521, metadata !805, i1 false, i1 false, i32 0, i32 0, null, i32 384, i1 false, null, null, i32 0, metadata !99, i32 1521} ; [ DW_TAG_subprogram ]
!805 = metadata !{i32 786453, i32 0, metadata !"", i32 0, i32 0, i64 0, i64 0, i64 0, i32 0, null, metadata !806, i32 0, i32 0} ; [ DW_TAG_subroutine_type ]
!806 = metadata !{null, metadata !775, metadata !108}
!807 = metadata !{i32 786478, i32 0, metadata !754, metadata !"ap_int_base", metadata !"ap_int_base", metadata !"", metadata !87, i32 1522, metadata !808, i1 false, i1 false, i32 0, i32 0, null, i32 384, i1 false, null, null, i32 0, metadata !99, i32 1522} ; [ DW_TAG_subprogram ]
!808 = metadata !{i32 786453, i32 0, metadata !"", i32 0, i32 0, i64 0, i64 0, i64 0, i32 0, null, metadata !809, i32 0, i32 0} ; [ DW_TAG_subroutine_type ]
!809 = metadata !{null, metadata !775, metadata !154}
!810 = metadata !{i32 786478, i32 0, metadata !754, metadata !"ap_int_base", metadata !"ap_int_base", metadata !"", metadata !87, i32 1523, metadata !811, i1 false, i1 false, i32 0, i32 0, null, i32 384, i1 false, null, null, i32 0, metadata !99, i32 1523} ; [ DW_TAG_subprogram ]
!811 = metadata !{i32 786453, i32 0, metadata !"", i32 0, i32 0, i64 0, i64 0, i64 0, i32 0, null, metadata !812, i32 0, i32 0} ; [ DW_TAG_subroutine_type ]
!812 = metadata !{null, metadata !775, metadata !158}
!813 = metadata !{i32 786478, i32 0, metadata !754, metadata !"ap_int_base", metadata !"ap_int_base", metadata !"", metadata !87, i32 1524, metadata !814, i1 false, i1 false, i32 0, i32 0, null, i32 384, i1 false, null, null, i32 0, metadata !99, i32 1524} ; [ DW_TAG_subprogram ]
!814 = metadata !{i32 786453, i32 0, metadata !"", i32 0, i32 0, i64 0, i64 0, i64 0, i32 0, null, metadata !815, i32 0, i32 0} ; [ DW_TAG_subroutine_type ]
!815 = metadata !{null, metadata !775, metadata !162}
!816 = metadata !{i32 786478, i32 0, metadata !754, metadata !"ap_int_base", metadata !"ap_int_base", metadata !"", metadata !87, i32 1525, metadata !817, i1 false, i1 false, i32 0, i32 0, null, i32 384, i1 false, null, null, i32 0, metadata !99, i32 1525} ; [ DW_TAG_subprogram ]
!817 = metadata !{i32 786453, i32 0, metadata !"", i32 0, i32 0, i64 0, i64 0, i64 0, i32 0, null, metadata !818, i32 0, i32 0} ; [ DW_TAG_subroutine_type ]
!818 = metadata !{null, metadata !775, metadata !166}
!819 = metadata !{i32 786478, i32 0, metadata !754, metadata !"ap_int_base", metadata !"ap_int_base", metadata !"", metadata !87, i32 1526, metadata !820, i1 false, i1 false, i32 0, i32 0, null, i32 384, i1 false, null, null, i32 0, metadata !99, i32 1526} ; [ DW_TAG_subprogram ]
!820 = metadata !{i32 786453, i32 0, metadata !"", i32 0, i32 0, i64 0, i64 0, i64 0, i32 0, null, metadata !821, i32 0, i32 0} ; [ DW_TAG_subroutine_type ]
!821 = metadata !{null, metadata !775, metadata !171}
!822 = metadata !{i32 786478, i32 0, metadata !754, metadata !"ap_int_base", metadata !"ap_int_base", metadata !"", metadata !87, i32 1527, metadata !823, i1 false, i1 false, i32 0, i32 0, null, i32 384, i1 false, null, null, i32 0, metadata !99, i32 1527} ; [ DW_TAG_subprogram ]
!823 = metadata !{i32 786453, i32 0, metadata !"", i32 0, i32 0, i64 0, i64 0, i64 0, i32 0, null, metadata !824, i32 0, i32 0} ; [ DW_TAG_subroutine_type ]
!824 = metadata !{null, metadata !775, metadata !176}
!825 = metadata !{i32 786478, i32 0, metadata !754, metadata !"ap_int_base", metadata !"ap_int_base", metadata !"", metadata !87, i32 1528, metadata !826, i1 false, i1 false, i32 0, i32 0, null, i32 384, i1 false, null, null, i32 0, metadata !99, i32 1528} ; [ DW_TAG_subprogram ]
!826 = metadata !{i32 786453, i32 0, metadata !"", i32 0, i32 0, i64 0, i64 0, i64 0, i32 0, null, metadata !827, i32 0, i32 0} ; [ DW_TAG_subroutine_type ]
!827 = metadata !{null, metadata !775, metadata !181}
!828 = metadata !{i32 786478, i32 0, metadata !754, metadata !"ap_int_base", metadata !"ap_int_base", metadata !"", metadata !87, i32 1529, metadata !829, i1 false, i1 false, i32 0, i32 0, null, i32 384, i1 false, null, null, i32 0, metadata !99, i32 1529} ; [ DW_TAG_subprogram ]
!829 = metadata !{i32 786453, i32 0, metadata !"", i32 0, i32 0, i64 0, i64 0, i64 0, i32 0, null, metadata !830, i32 0, i32 0} ; [ DW_TAG_subroutine_type ]
!830 = metadata !{null, metadata !775, metadata !185}
!831 = metadata !{i32 786478, i32 0, metadata !754, metadata !"ap_int_base", metadata !"ap_int_base", metadata !"", metadata !87, i32 1556, metadata !832, i1 false, i1 false, i32 0, i32 0, null, i32 256, i1 false, null, null, i32 0, metadata !99, i32 1556} ; [ DW_TAG_subprogram ]
!832 = metadata !{i32 786453, i32 0, metadata !"", i32 0, i32 0, i64 0, i64 0, i64 0, i32 0, null, metadata !833, i32 0, i32 0} ; [ DW_TAG_subroutine_type ]
!833 = metadata !{null, metadata !775, metadata !189}
!834 = metadata !{i32 786478, i32 0, metadata !754, metadata !"ap_int_base", metadata !"ap_int_base", metadata !"", metadata !87, i32 1563, metadata !835, i1 false, i1 false, i32 0, i32 0, null, i32 256, i1 false, null, null, i32 0, metadata !99, i32 1563} ; [ DW_TAG_subprogram ]
!835 = metadata !{i32 786453, i32 0, metadata !"", i32 0, i32 0, i64 0, i64 0, i64 0, i32 0, null, metadata !836, i32 0, i32 0} ; [ DW_TAG_subroutine_type ]
!836 = metadata !{null, metadata !775, metadata !189, metadata !135}
!837 = metadata !{i32 786478, i32 0, metadata !754, metadata !"read", metadata !"read", metadata !"_ZNV11ap_int_baseILi6ELb0ELb1EE4readEv", metadata !87, i32 1584, metadata !838, i1 false, i1 false, i32 0, i32 0, null, i32 256, i1 false, null, null, i32 0, metadata !99, i32 1584} ; [ DW_TAG_subprogram ]
!838 = metadata !{i32 786453, i32 0, metadata !"", i32 0, i32 0, i64 0, i64 0, i64 0, i32 0, null, metadata !839, i32 0, i32 0} ; [ DW_TAG_subroutine_type ]
!839 = metadata !{metadata !754, metadata !840}
!840 = metadata !{i32 786447, i32 0, metadata !"", i32 0, i32 0, i64 64, i64 64, i64 0, i32 64, metadata !788} ; [ DW_TAG_pointer_type ]
!841 = metadata !{i32 786478, i32 0, metadata !754, metadata !"write", metadata !"write", metadata !"_ZNV11ap_int_baseILi6ELb0ELb1EE5writeERKS0_", metadata !87, i32 1590, metadata !842, i1 false, i1 false, i32 0, i32 0, null, i32 256, i1 false, null, null, i32 0, metadata !99, i32 1590} ; [ DW_TAG_subprogram ]
!842 = metadata !{i32 786453, i32 0, metadata !"", i32 0, i32 0, i64 0, i64 0, i64 0, i32 0, null, metadata !843, i32 0, i32 0} ; [ DW_TAG_subroutine_type ]
!843 = metadata !{null, metadata !840, metadata !779}
!844 = metadata !{i32 786478, i32 0, metadata !754, metadata !"operator=", metadata !"operator=", metadata !"_ZNV11ap_int_baseILi6ELb0ELb1EEaSERVKS0_", metadata !87, i32 1602, metadata !845, i1 false, i1 false, i32 0, i32 0, null, i32 256, i1 false, null, null, i32 0, metadata !99, i32 1602} ; [ DW_TAG_subprogram ]
!845 = metadata !{i32 786453, i32 0, metadata !"", i32 0, i32 0, i64 0, i64 0, i64 0, i32 0, null, metadata !846, i32 0, i32 0} ; [ DW_TAG_subroutine_type ]
!846 = metadata !{null, metadata !840, metadata !786}
!847 = metadata !{i32 786478, i32 0, metadata !754, metadata !"operator=", metadata !"operator=", metadata !"_ZNV11ap_int_baseILi6ELb0ELb1EEaSERKS0_", metadata !87, i32 1611, metadata !842, i1 false, i1 false, i32 0, i32 0, null, i32 256, i1 false, null, null, i32 0, metadata !99, i32 1611} ; [ DW_TAG_subprogram ]
!848 = metadata !{i32 786478, i32 0, metadata !754, metadata !"operator=", metadata !"operator=", metadata !"_ZN11ap_int_baseILi6ELb0ELb1EEaSERVKS0_", metadata !87, i32 1634, metadata !849, i1 false, i1 false, i32 0, i32 0, null, i32 256, i1 false, null, null, i32 0, metadata !99, i32 1634} ; [ DW_TAG_subprogram ]
!849 = metadata !{i32 786453, i32 0, metadata !"", i32 0, i32 0, i64 0, i64 0, i64 0, i32 0, null, metadata !850, i32 0, i32 0} ; [ DW_TAG_subroutine_type ]
!850 = metadata !{metadata !851, metadata !775, metadata !786}
!851 = metadata !{i32 786448, null, null, null, i32 0, i64 0, i64 0, i64 0, i32 0, metadata !754} ; [ DW_TAG_reference_type ]
!852 = metadata !{i32 786478, i32 0, metadata !754, metadata !"operator=", metadata !"operator=", metadata !"_ZN11ap_int_baseILi6ELb0ELb1EEaSERKS0_", metadata !87, i32 1639, metadata !853, i1 false, i1 false, i32 0, i32 0, null, i32 256, i1 false, null, null, i32 0, metadata !99, i32 1639} ; [ DW_TAG_subprogram ]
!853 = metadata !{i32 786453, i32 0, metadata !"", i32 0, i32 0, i64 0, i64 0, i64 0, i32 0, null, metadata !854, i32 0, i32 0} ; [ DW_TAG_subroutine_type ]
!854 = metadata !{metadata !851, metadata !775, metadata !779}
!855 = metadata !{i32 786478, i32 0, metadata !754, metadata !"operator=", metadata !"operator=", metadata !"_ZN11ap_int_baseILi6ELb0ELb1EEaSEPKc", metadata !87, i32 1643, metadata !856, i1 false, i1 false, i32 0, i32 0, null, i32 256, i1 false, null, null, i32 0, metadata !99, i32 1643} ; [ DW_TAG_subprogram ]
!856 = metadata !{i32 786453, i32 0, metadata !"", i32 0, i32 0, i64 0, i64 0, i64 0, i32 0, null, metadata !857, i32 0, i32 0} ; [ DW_TAG_subroutine_type ]
!857 = metadata !{metadata !851, metadata !775, metadata !189}
!858 = metadata !{i32 786478, i32 0, metadata !754, metadata !"set", metadata !"set", metadata !"_ZN11ap_int_baseILi6ELb0ELb1EE3setEPKca", metadata !87, i32 1651, metadata !859, i1 false, i1 false, i32 0, i32 0, null, i32 256, i1 false, null, null, i32 0, metadata !99, i32 1651} ; [ DW_TAG_subprogram ]
!859 = metadata !{i32 786453, i32 0, metadata !"", i32 0, i32 0, i64 0, i64 0, i64 0, i32 0, null, metadata !860, i32 0, i32 0} ; [ DW_TAG_subroutine_type ]
!860 = metadata !{metadata !851, metadata !775, metadata !189, metadata !135}
!861 = metadata !{i32 786478, i32 0, metadata !754, metadata !"operator=", metadata !"operator=", metadata !"_ZN11ap_int_baseILi6ELb0ELb1EEaSEa", metadata !87, i32 1665, metadata !862, i1 false, i1 false, i32 0, i32 0, null, i32 256, i1 false, null, null, i32 0, metadata !99, i32 1665} ; [ DW_TAG_subprogram ]
!862 = metadata !{i32 786453, i32 0, metadata !"", i32 0, i32 0, i64 0, i64 0, i64 0, i32 0, null, metadata !863, i32 0, i32 0} ; [ DW_TAG_subroutine_type ]
!863 = metadata !{metadata !851, metadata !775, metadata !135}
!864 = metadata !{i32 786478, i32 0, metadata !754, metadata !"operator=", metadata !"operator=", metadata !"_ZN11ap_int_baseILi6ELb0ELb1EEaSEh", metadata !87, i32 1666, metadata !865, i1 false, i1 false, i32 0, i32 0, null, i32 256, i1 false, null, null, i32 0, metadata !99, i32 1666} ; [ DW_TAG_subprogram ]
!865 = metadata !{i32 786453, i32 0, metadata !"", i32 0, i32 0, i64 0, i64 0, i64 0, i32 0, null, metadata !866, i32 0, i32 0} ; [ DW_TAG_subroutine_type ]
!866 = metadata !{metadata !851, metadata !775, metadata !139}
!867 = metadata !{i32 786478, i32 0, metadata !754, metadata !"operator=", metadata !"operator=", metadata !"_ZN11ap_int_baseILi6ELb0ELb1EEaSEs", metadata !87, i32 1667, metadata !868, i1 false, i1 false, i32 0, i32 0, null, i32 256, i1 false, null, null, i32 0, metadata !99, i32 1667} ; [ DW_TAG_subprogram ]
!868 = metadata !{i32 786453, i32 0, metadata !"", i32 0, i32 0, i64 0, i64 0, i64 0, i32 0, null, metadata !869, i32 0, i32 0} ; [ DW_TAG_subroutine_type ]
!869 = metadata !{metadata !851, metadata !775, metadata !143}
!870 = metadata !{i32 786478, i32 0, metadata !754, metadata !"operator=", metadata !"operator=", metadata !"_ZN11ap_int_baseILi6ELb0ELb1EEaSEt", metadata !87, i32 1668, metadata !871, i1 false, i1 false, i32 0, i32 0, null, i32 256, i1 false, null, null, i32 0, metadata !99, i32 1668} ; [ DW_TAG_subprogram ]
!871 = metadata !{i32 786453, i32 0, metadata !"", i32 0, i32 0, i64 0, i64 0, i64 0, i32 0, null, metadata !872, i32 0, i32 0} ; [ DW_TAG_subroutine_type ]
!872 = metadata !{metadata !851, metadata !775, metadata !147}
!873 = metadata !{i32 786478, i32 0, metadata !754, metadata !"operator=", metadata !"operator=", metadata !"_ZN11ap_int_baseILi6ELb0ELb1EEaSEi", metadata !87, i32 1669, metadata !874, i1 false, i1 false, i32 0, i32 0, null, i32 256, i1 false, null, null, i32 0, metadata !99, i32 1669} ; [ DW_TAG_subprogram ]
!874 = metadata !{i32 786453, i32 0, metadata !"", i32 0, i32 0, i64 0, i64 0, i64 0, i32 0, null, metadata !875, i32 0, i32 0} ; [ DW_TAG_subroutine_type ]
!875 = metadata !{metadata !851, metadata !775, metadata !108}
!876 = metadata !{i32 786478, i32 0, metadata !754, metadata !"operator=", metadata !"operator=", metadata !"_ZN11ap_int_baseILi6ELb0ELb1EEaSEj", metadata !87, i32 1670, metadata !877, i1 false, i1 false, i32 0, i32 0, null, i32 256, i1 false, null, null, i32 0, metadata !99, i32 1670} ; [ DW_TAG_subprogram ]
!877 = metadata !{i32 786453, i32 0, metadata !"", i32 0, i32 0, i64 0, i64 0, i64 0, i32 0, null, metadata !878, i32 0, i32 0} ; [ DW_TAG_subroutine_type ]
!878 = metadata !{metadata !851, metadata !775, metadata !154}
!879 = metadata !{i32 786478, i32 0, metadata !754, metadata !"operator=", metadata !"operator=", metadata !"_ZN11ap_int_baseILi6ELb0ELb1EEaSEx", metadata !87, i32 1671, metadata !880, i1 false, i1 false, i32 0, i32 0, null, i32 256, i1 false, null, null, i32 0, metadata !99, i32 1671} ; [ DW_TAG_subprogram ]
!880 = metadata !{i32 786453, i32 0, metadata !"", i32 0, i32 0, i64 0, i64 0, i64 0, i32 0, null, metadata !881, i32 0, i32 0} ; [ DW_TAG_subroutine_type ]
!881 = metadata !{metadata !851, metadata !775, metadata !166}
!882 = metadata !{i32 786478, i32 0, metadata !754, metadata !"operator=", metadata !"operator=", metadata !"_ZN11ap_int_baseILi6ELb0ELb1EEaSEy", metadata !87, i32 1672, metadata !883, i1 false, i1 false, i32 0, i32 0, null, i32 256, i1 false, null, null, i32 0, metadata !99, i32 1672} ; [ DW_TAG_subprogram ]
!883 = metadata !{i32 786453, i32 0, metadata !"", i32 0, i32 0, i64 0, i64 0, i64 0, i32 0, null, metadata !884, i32 0, i32 0} ; [ DW_TAG_subroutine_type ]
!884 = metadata !{metadata !851, metadata !775, metadata !171}
!885 = metadata !{i32 786478, i32 0, metadata !754, metadata !"operator unsigned char", metadata !"operator unsigned char", metadata !"_ZNK11ap_int_baseILi6ELb0ELb1EEcvhEv", metadata !87, i32 1710, metadata !886, i1 false, i1 false, i32 0, i32 0, null, i32 256, i1 false, null, null, i32 0, metadata !99, i32 1710} ; [ DW_TAG_subprogram ]
!886 = metadata !{i32 786453, i32 0, metadata !"", i32 0, i32 0, i64 0, i64 0, i64 0, i32 0, null, metadata !887, i32 0, i32 0} ; [ DW_TAG_subroutine_type ]
!887 = metadata !{metadata !888, metadata !893}
!888 = metadata !{i32 786454, metadata !754, metadata !"RetType", metadata !87, i32 1458, i64 0, i64 0, i64 0, i32 0, metadata !889} ; [ DW_TAG_typedef ]
!889 = metadata !{i32 786454, metadata !890, metadata !"Type", metadata !87, i32 1426, i64 0, i64 0, i64 0, i32 0, metadata !139} ; [ DW_TAG_typedef ]
!890 = metadata !{i32 786434, null, metadata !"retval<1, false>", metadata !87, i32 1425, i64 8, i64 8, i32 0, i32 0, null, metadata !249, i32 0, null, metadata !891} ; [ DW_TAG_class_type ]
!891 = metadata !{metadata !892, metadata !109}
!892 = metadata !{i32 786480, null, metadata !"_AP_N", metadata !108, i64 1, null, i32 0, i32 0} ; [ DW_TAG_template_value_parameter ]
!893 = metadata !{i32 786447, i32 0, metadata !"", i32 0, i32 0, i64 64, i64 64, i64 0, i32 64, metadata !780} ; [ DW_TAG_pointer_type ]
!894 = metadata !{i32 786478, i32 0, metadata !754, metadata !"to_bool", metadata !"to_bool", metadata !"_ZNK11ap_int_baseILi6ELb0ELb1EE7to_boolEv", metadata !87, i32 1716, metadata !895, i1 false, i1 false, i32 0, i32 0, null, i32 256, i1 false, null, null, i32 0, metadata !99, i32 1716} ; [ DW_TAG_subprogram ]
!895 = metadata !{i32 786453, i32 0, metadata !"", i32 0, i32 0, i64 0, i64 0, i64 0, i32 0, null, metadata !896, i32 0, i32 0} ; [ DW_TAG_subroutine_type ]
!896 = metadata !{metadata !110, metadata !893}
!897 = metadata !{i32 786478, i32 0, metadata !754, metadata !"to_uchar", metadata !"to_uchar", metadata !"_ZNK11ap_int_baseILi6ELb0ELb1EE8to_ucharEv", metadata !87, i32 1717, metadata !898, i1 false, i1 false, i32 0, i32 0, null, i32 256, i1 false, null, null, i32 0, metadata !99, i32 1717} ; [ DW_TAG_subprogram ]
!898 = metadata !{i32 786453, i32 0, metadata !"", i32 0, i32 0, i64 0, i64 0, i64 0, i32 0, null, metadata !899, i32 0, i32 0} ; [ DW_TAG_subroutine_type ]
!899 = metadata !{metadata !139, metadata !893}
!900 = metadata !{i32 786478, i32 0, metadata !754, metadata !"to_char", metadata !"to_char", metadata !"_ZNK11ap_int_baseILi6ELb0ELb1EE7to_charEv", metadata !87, i32 1718, metadata !901, i1 false, i1 false, i32 0, i32 0, null, i32 256, i1 false, null, null, i32 0, metadata !99, i32 1718} ; [ DW_TAG_subprogram ]
!901 = metadata !{i32 786453, i32 0, metadata !"", i32 0, i32 0, i64 0, i64 0, i64 0, i32 0, null, metadata !902, i32 0, i32 0} ; [ DW_TAG_subroutine_type ]
!902 = metadata !{metadata !135, metadata !893}
!903 = metadata !{i32 786478, i32 0, metadata !754, metadata !"to_ushort", metadata !"to_ushort", metadata !"_ZNK11ap_int_baseILi6ELb0ELb1EE9to_ushortEv", metadata !87, i32 1719, metadata !904, i1 false, i1 false, i32 0, i32 0, null, i32 256, i1 false, null, null, i32 0, metadata !99, i32 1719} ; [ DW_TAG_subprogram ]
!904 = metadata !{i32 786453, i32 0, metadata !"", i32 0, i32 0, i64 0, i64 0, i64 0, i32 0, null, metadata !905, i32 0, i32 0} ; [ DW_TAG_subroutine_type ]
!905 = metadata !{metadata !147, metadata !893}
!906 = metadata !{i32 786478, i32 0, metadata !754, metadata !"to_short", metadata !"to_short", metadata !"_ZNK11ap_int_baseILi6ELb0ELb1EE8to_shortEv", metadata !87, i32 1720, metadata !907, i1 false, i1 false, i32 0, i32 0, null, i32 256, i1 false, null, null, i32 0, metadata !99, i32 1720} ; [ DW_TAG_subprogram ]
!907 = metadata !{i32 786453, i32 0, metadata !"", i32 0, i32 0, i64 0, i64 0, i64 0, i32 0, null, metadata !908, i32 0, i32 0} ; [ DW_TAG_subroutine_type ]
!908 = metadata !{metadata !143, metadata !893}
!909 = metadata !{i32 786478, i32 0, metadata !754, metadata !"to_int", metadata !"to_int", metadata !"_ZNK11ap_int_baseILi6ELb0ELb1EE6to_intEv", metadata !87, i32 1721, metadata !910, i1 false, i1 false, i32 0, i32 0, null, i32 256, i1 false, null, null, i32 0, metadata !99, i32 1721} ; [ DW_TAG_subprogram ]
!910 = metadata !{i32 786453, i32 0, metadata !"", i32 0, i32 0, i64 0, i64 0, i64 0, i32 0, null, metadata !911, i32 0, i32 0} ; [ DW_TAG_subroutine_type ]
!911 = metadata !{metadata !108, metadata !893}
!912 = metadata !{i32 786478, i32 0, metadata !754, metadata !"to_uint", metadata !"to_uint", metadata !"_ZNK11ap_int_baseILi6ELb0ELb1EE7to_uintEv", metadata !87, i32 1722, metadata !913, i1 false, i1 false, i32 0, i32 0, null, i32 256, i1 false, null, null, i32 0, metadata !99, i32 1722} ; [ DW_TAG_subprogram ]
!913 = metadata !{i32 786453, i32 0, metadata !"", i32 0, i32 0, i64 0, i64 0, i64 0, i32 0, null, metadata !914, i32 0, i32 0} ; [ DW_TAG_subroutine_type ]
!914 = metadata !{metadata !154, metadata !893}
!915 = metadata !{i32 786478, i32 0, metadata !754, metadata !"to_long", metadata !"to_long", metadata !"_ZNK11ap_int_baseILi6ELb0ELb1EE7to_longEv", metadata !87, i32 1723, metadata !916, i1 false, i1 false, i32 0, i32 0, null, i32 256, i1 false, null, null, i32 0, metadata !99, i32 1723} ; [ DW_TAG_subprogram ]
!916 = metadata !{i32 786453, i32 0, metadata !"", i32 0, i32 0, i64 0, i64 0, i64 0, i32 0, null, metadata !917, i32 0, i32 0} ; [ DW_TAG_subroutine_type ]
!917 = metadata !{metadata !158, metadata !893}
!918 = metadata !{i32 786478, i32 0, metadata !754, metadata !"to_ulong", metadata !"to_ulong", metadata !"_ZNK11ap_int_baseILi6ELb0ELb1EE8to_ulongEv", metadata !87, i32 1724, metadata !919, i1 false, i1 false, i32 0, i32 0, null, i32 256, i1 false, null, null, i32 0, metadata !99, i32 1724} ; [ DW_TAG_subprogram ]
!919 = metadata !{i32 786453, i32 0, metadata !"", i32 0, i32 0, i64 0, i64 0, i64 0, i32 0, null, metadata !920, i32 0, i32 0} ; [ DW_TAG_subroutine_type ]
!920 = metadata !{metadata !162, metadata !893}
!921 = metadata !{i32 786478, i32 0, metadata !754, metadata !"to_int64", metadata !"to_int64", metadata !"_ZNK11ap_int_baseILi6ELb0ELb1EE8to_int64Ev", metadata !87, i32 1725, metadata !922, i1 false, i1 false, i32 0, i32 0, null, i32 256, i1 false, null, null, i32 0, metadata !99, i32 1725} ; [ DW_TAG_subprogram ]
!922 = metadata !{i32 786453, i32 0, metadata !"", i32 0, i32 0, i64 0, i64 0, i64 0, i32 0, null, metadata !923, i32 0, i32 0} ; [ DW_TAG_subroutine_type ]
!923 = metadata !{metadata !166, metadata !893}
!924 = metadata !{i32 786478, i32 0, metadata !754, metadata !"to_uint64", metadata !"to_uint64", metadata !"_ZNK11ap_int_baseILi6ELb0ELb1EE9to_uint64Ev", metadata !87, i32 1726, metadata !925, i1 false, i1 false, i32 0, i32 0, null, i32 256, i1 false, null, null, i32 0, metadata !99, i32 1726} ; [ DW_TAG_subprogram ]
!925 = metadata !{i32 786453, i32 0, metadata !"", i32 0, i32 0, i64 0, i64 0, i64 0, i32 0, null, metadata !926, i32 0, i32 0} ; [ DW_TAG_subroutine_type ]
!926 = metadata !{metadata !171, metadata !893}
!927 = metadata !{i32 786478, i32 0, metadata !754, metadata !"to_double", metadata !"to_double", metadata !"_ZNK11ap_int_baseILi6ELb0ELb1EE9to_doubleEv", metadata !87, i32 1727, metadata !928, i1 false, i1 false, i32 0, i32 0, null, i32 256, i1 false, null, null, i32 0, metadata !99, i32 1727} ; [ DW_TAG_subprogram ]
!928 = metadata !{i32 786453, i32 0, metadata !"", i32 0, i32 0, i64 0, i64 0, i64 0, i32 0, null, metadata !929, i32 0, i32 0} ; [ DW_TAG_subroutine_type ]
!929 = metadata !{metadata !185, metadata !893}
!930 = metadata !{i32 786478, i32 0, metadata !754, metadata !"length", metadata !"length", metadata !"_ZNK11ap_int_baseILi6ELb0ELb1EE6lengthEv", metadata !87, i32 1741, metadata !910, i1 false, i1 false, i32 0, i32 0, null, i32 256, i1 false, null, null, i32 0, metadata !99, i32 1741} ; [ DW_TAG_subprogram ]
!931 = metadata !{i32 786478, i32 0, metadata !754, metadata !"length", metadata !"length", metadata !"_ZNVK11ap_int_baseILi6ELb0ELb1EE6lengthEv", metadata !87, i32 1742, metadata !932, i1 false, i1 false, i32 0, i32 0, null, i32 256, i1 false, null, null, i32 0, metadata !99, i32 1742} ; [ DW_TAG_subprogram ]
!932 = metadata !{i32 786453, i32 0, metadata !"", i32 0, i32 0, i64 0, i64 0, i64 0, i32 0, null, metadata !933, i32 0, i32 0} ; [ DW_TAG_subroutine_type ]
!933 = metadata !{metadata !108, metadata !934}
!934 = metadata !{i32 786447, i32 0, metadata !"", i32 0, i32 0, i64 64, i64 64, i64 0, i32 64, metadata !787} ; [ DW_TAG_pointer_type ]
!935 = metadata !{i32 786478, i32 0, metadata !754, metadata !"reverse", metadata !"reverse", metadata !"_ZN11ap_int_baseILi6ELb0ELb1EE7reverseEv", metadata !87, i32 1747, metadata !936, i1 false, i1 false, i32 0, i32 0, null, i32 256, i1 false, null, null, i32 0, metadata !99, i32 1747} ; [ DW_TAG_subprogram ]
!936 = metadata !{i32 786453, i32 0, metadata !"", i32 0, i32 0, i64 0, i64 0, i64 0, i32 0, null, metadata !937, i32 0, i32 0} ; [ DW_TAG_subroutine_type ]
!937 = metadata !{metadata !851, metadata !775}
!938 = metadata !{i32 786478, i32 0, metadata !754, metadata !"iszero", metadata !"iszero", metadata !"_ZNK11ap_int_baseILi6ELb0ELb1EE6iszeroEv", metadata !87, i32 1753, metadata !895, i1 false, i1 false, i32 0, i32 0, null, i32 256, i1 false, null, null, i32 0, metadata !99, i32 1753} ; [ DW_TAG_subprogram ]
!939 = metadata !{i32 786478, i32 0, metadata !754, metadata !"is_zero", metadata !"is_zero", metadata !"_ZNK11ap_int_baseILi6ELb0ELb1EE7is_zeroEv", metadata !87, i32 1758, metadata !895, i1 false, i1 false, i32 0, i32 0, null, i32 256, i1 false, null, null, i32 0, metadata !99, i32 1758} ; [ DW_TAG_subprogram ]
!940 = metadata !{i32 786478, i32 0, metadata !754, metadata !"sign", metadata !"sign", metadata !"_ZNK11ap_int_baseILi6ELb0ELb1EE4signEv", metadata !87, i32 1763, metadata !895, i1 false, i1 false, i32 0, i32 0, null, i32 256, i1 false, null, null, i32 0, metadata !99, i32 1763} ; [ DW_TAG_subprogram ]
!941 = metadata !{i32 786478, i32 0, metadata !754, metadata !"clear", metadata !"clear", metadata !"_ZN11ap_int_baseILi6ELb0ELb1EE5clearEi", metadata !87, i32 1771, metadata !805, i1 false, i1 false, i32 0, i32 0, null, i32 256, i1 false, null, null, i32 0, metadata !99, i32 1771} ; [ DW_TAG_subprogram ]
!942 = metadata !{i32 786478, i32 0, metadata !754, metadata !"invert", metadata !"invert", metadata !"_ZN11ap_int_baseILi6ELb0ELb1EE6invertEi", metadata !87, i32 1777, metadata !805, i1 false, i1 false, i32 0, i32 0, null, i32 256, i1 false, null, null, i32 0, metadata !99, i32 1777} ; [ DW_TAG_subprogram ]
!943 = metadata !{i32 786478, i32 0, metadata !754, metadata !"test", metadata !"test", metadata !"_ZNK11ap_int_baseILi6ELb0ELb1EE4testEi", metadata !87, i32 1785, metadata !944, i1 false, i1 false, i32 0, i32 0, null, i32 256, i1 false, null, null, i32 0, metadata !99, i32 1785} ; [ DW_TAG_subprogram ]
!944 = metadata !{i32 786453, i32 0, metadata !"", i32 0, i32 0, i64 0, i64 0, i64 0, i32 0, null, metadata !945, i32 0, i32 0} ; [ DW_TAG_subroutine_type ]
!945 = metadata !{metadata !110, metadata !893, metadata !108}
!946 = metadata !{i32 786478, i32 0, metadata !754, metadata !"set", metadata !"set", metadata !"_ZN11ap_int_baseILi6ELb0ELb1EE3setEi", metadata !87, i32 1791, metadata !805, i1 false, i1 false, i32 0, i32 0, null, i32 256, i1 false, null, null, i32 0, metadata !99, i32 1791} ; [ DW_TAG_subprogram ]
!947 = metadata !{i32 786478, i32 0, metadata !754, metadata !"set", metadata !"set", metadata !"_ZN11ap_int_baseILi6ELb0ELb1EE3setEib", metadata !87, i32 1797, metadata !948, i1 false, i1 false, i32 0, i32 0, null, i32 256, i1 false, null, null, i32 0, metadata !99, i32 1797} ; [ DW_TAG_subprogram ]
!948 = metadata !{i32 786453, i32 0, metadata !"", i32 0, i32 0, i64 0, i64 0, i64 0, i32 0, null, metadata !949, i32 0, i32 0} ; [ DW_TAG_subroutine_type ]
!949 = metadata !{null, metadata !775, metadata !108, metadata !110}
!950 = metadata !{i32 786478, i32 0, metadata !754, metadata !"lrotate", metadata !"lrotate", metadata !"_ZN11ap_int_baseILi6ELb0ELb1EE7lrotateEi", metadata !87, i32 1804, metadata !805, i1 false, i1 false, i32 0, i32 0, null, i32 256, i1 false, null, null, i32 0, metadata !99, i32 1804} ; [ DW_TAG_subprogram ]
!951 = metadata !{i32 786478, i32 0, metadata !754, metadata !"rrotate", metadata !"rrotate", metadata !"_ZN11ap_int_baseILi6ELb0ELb1EE7rrotateEi", metadata !87, i32 1813, metadata !805, i1 false, i1 false, i32 0, i32 0, null, i32 256, i1 false, null, null, i32 0, metadata !99, i32 1813} ; [ DW_TAG_subprogram ]
!952 = metadata !{i32 786478, i32 0, metadata !754, metadata !"set_bit", metadata !"set_bit", metadata !"_ZN11ap_int_baseILi6ELb0ELb1EE7set_bitEib", metadata !87, i32 1821, metadata !948, i1 false, i1 false, i32 0, i32 0, null, i32 256, i1 false, null, null, i32 0, metadata !99, i32 1821} ; [ DW_TAG_subprogram ]
!953 = metadata !{i32 786478, i32 0, metadata !754, metadata !"get_bit", metadata !"get_bit", metadata !"_ZNK11ap_int_baseILi6ELb0ELb1EE7get_bitEi", metadata !87, i32 1826, metadata !944, i1 false, i1 false, i32 0, i32 0, null, i32 256, i1 false, null, null, i32 0, metadata !99, i32 1826} ; [ DW_TAG_subprogram ]
!954 = metadata !{i32 786478, i32 0, metadata !754, metadata !"b_not", metadata !"b_not", metadata !"_ZN11ap_int_baseILi6ELb0ELb1EE5b_notEv", metadata !87, i32 1831, metadata !773, i1 false, i1 false, i32 0, i32 0, null, i32 256, i1 false, null, null, i32 0, metadata !99, i32 1831} ; [ DW_TAG_subprogram ]
!955 = metadata !{i32 786478, i32 0, metadata !754, metadata !"countLeadingZeros", metadata !"countLeadingZeros", metadata !"_ZN11ap_int_baseILi6ELb0ELb1EE17countLeadingZerosEv", metadata !87, i32 1838, metadata !956, i1 false, i1 false, i32 0, i32 0, null, i32 256, i1 false, null, null, i32 0, metadata !99, i32 1838} ; [ DW_TAG_subprogram ]
!956 = metadata !{i32 786453, i32 0, metadata !"", i32 0, i32 0, i64 0, i64 0, i64 0, i32 0, null, metadata !957, i32 0, i32 0} ; [ DW_TAG_subroutine_type ]
!957 = metadata !{metadata !108, metadata !775}
!958 = metadata !{i32 786478, i32 0, metadata !754, metadata !"operator++", metadata !"operator++", metadata !"_ZN11ap_int_baseILi6ELb0ELb1EEppEv", metadata !87, i32 1895, metadata !936, i1 false, i1 false, i32 0, i32 0, null, i32 256, i1 false, null, null, i32 0, metadata !99, i32 1895} ; [ DW_TAG_subprogram ]
!959 = metadata !{i32 786478, i32 0, metadata !754, metadata !"operator--", metadata !"operator--", metadata !"_ZN11ap_int_baseILi6ELb0ELb1EEmmEv", metadata !87, i32 1899, metadata !936, i1 false, i1 false, i32 0, i32 0, null, i32 256, i1 false, null, null, i32 0, metadata !99, i32 1899} ; [ DW_TAG_subprogram ]
!960 = metadata !{i32 786478, i32 0, metadata !754, metadata !"operator++", metadata !"operator++", metadata !"_ZN11ap_int_baseILi6ELb0ELb1EEppEi", metadata !87, i32 1907, metadata !961, i1 false, i1 false, i32 0, i32 0, null, i32 256, i1 false, null, null, i32 0, metadata !99, i32 1907} ; [ DW_TAG_subprogram ]
!961 = metadata !{i32 786453, i32 0, metadata !"", i32 0, i32 0, i64 0, i64 0, i64 0, i32 0, null, metadata !962, i32 0, i32 0} ; [ DW_TAG_subroutine_type ]
!962 = metadata !{metadata !780, metadata !775, metadata !108}
!963 = metadata !{i32 786478, i32 0, metadata !754, metadata !"operator--", metadata !"operator--", metadata !"_ZN11ap_int_baseILi6ELb0ELb1EEmmEi", metadata !87, i32 1912, metadata !961, i1 false, i1 false, i32 0, i32 0, null, i32 256, i1 false, null, null, i32 0, metadata !99, i32 1912} ; [ DW_TAG_subprogram ]
!964 = metadata !{i32 786478, i32 0, metadata !754, metadata !"operator+", metadata !"operator+", metadata !"_ZNK11ap_int_baseILi6ELb0ELb1EEpsEv", metadata !87, i32 1921, metadata !965, i1 false, i1 false, i32 0, i32 0, null, i32 256, i1 false, null, null, i32 0, metadata !99, i32 1921} ; [ DW_TAG_subprogram ]
!965 = metadata !{i32 786453, i32 0, metadata !"", i32 0, i32 0, i64 0, i64 0, i64 0, i32 0, null, metadata !966, i32 0, i32 0} ; [ DW_TAG_subroutine_type ]
!966 = metadata !{metadata !754, metadata !893}
!967 = metadata !{i32 786478, i32 0, metadata !754, metadata !"operator!", metadata !"operator!", metadata !"_ZNK11ap_int_baseILi6ELb0ELb1EEntEv", metadata !87, i32 1927, metadata !895, i1 false, i1 false, i32 0, i32 0, null, i32 256, i1 false, null, null, i32 0, metadata !99, i32 1927} ; [ DW_TAG_subprogram ]
!968 = metadata !{i32 786478, i32 0, metadata !754, metadata !"operator-", metadata !"operator-", metadata !"_ZNK11ap_int_baseILi6ELb0ELb1EEngEv", metadata !87, i32 1932, metadata !969, i1 false, i1 false, i32 0, i32 0, null, i32 256, i1 false, null, null, i32 0, metadata !99, i32 1932} ; [ DW_TAG_subprogram ]
!969 = metadata !{i32 786453, i32 0, metadata !"", i32 0, i32 0, i64 0, i64 0, i64 0, i32 0, null, metadata !970, i32 0, i32 0} ; [ DW_TAG_subroutine_type ]
!970 = metadata !{metadata !971, metadata !893}
!971 = metadata !{i32 786434, null, metadata !"ap_int_base<7, true, true>", metadata !87, i32 651, i32 0, i32 0, i32 0, i32 4, null, null, i32 0} ; [ DW_TAG_class_type ]
!972 = metadata !{i32 786478, i32 0, metadata !754, metadata !"range", metadata !"range", metadata !"_ZN11ap_int_baseILi6ELb0ELb1EE5rangeEii", metadata !87, i32 2062, metadata !973, i1 false, i1 false, i32 0, i32 0, null, i32 256, i1 false, null, null, i32 0, metadata !99, i32 2062} ; [ DW_TAG_subprogram ]
!973 = metadata !{i32 786453, i32 0, metadata !"", i32 0, i32 0, i64 0, i64 0, i64 0, i32 0, null, metadata !974, i32 0, i32 0} ; [ DW_TAG_subroutine_type ]
!974 = metadata !{metadata !975, metadata !775, metadata !108, metadata !108}
!975 = metadata !{i32 786434, null, metadata !"ap_range_ref<6, false>", metadata !87, i32 925, i32 0, i32 0, i32 0, i32 4, null, null, i32 0} ; [ DW_TAG_class_type ]
!976 = metadata !{i32 786478, i32 0, metadata !754, metadata !"operator()", metadata !"operator()", metadata !"_ZN11ap_int_baseILi6ELb0ELb1EEclEii", metadata !87, i32 2068, metadata !973, i1 false, i1 false, i32 0, i32 0, null, i32 256, i1 false, null, null, i32 0, metadata !99, i32 2068} ; [ DW_TAG_subprogram ]
!977 = metadata !{i32 786478, i32 0, metadata !754, metadata !"range", metadata !"range", metadata !"_ZNK11ap_int_baseILi6ELb0ELb1EE5rangeEii", metadata !87, i32 2074, metadata !978, i1 false, i1 false, i32 0, i32 0, null, i32 256, i1 false, null, null, i32 0, metadata !99, i32 2074} ; [ DW_TAG_subprogram ]
!978 = metadata !{i32 786453, i32 0, metadata !"", i32 0, i32 0, i64 0, i64 0, i64 0, i32 0, null, metadata !979, i32 0, i32 0} ; [ DW_TAG_subroutine_type ]
!979 = metadata !{metadata !975, metadata !893, metadata !108, metadata !108}
!980 = metadata !{i32 786478, i32 0, metadata !754, metadata !"operator()", metadata !"operator()", metadata !"_ZNK11ap_int_baseILi6ELb0ELb1EEclEii", metadata !87, i32 2080, metadata !978, i1 false, i1 false, i32 0, i32 0, null, i32 256, i1 false, null, null, i32 0, metadata !99, i32 2080} ; [ DW_TAG_subprogram ]
!981 = metadata !{i32 786478, i32 0, metadata !754, metadata !"operator[]", metadata !"operator[]", metadata !"_ZN11ap_int_baseILi6ELb0ELb1EEixEi", metadata !87, i32 2099, metadata !982, i1 false, i1 false, i32 0, i32 0, null, i32 256, i1 false, null, null, i32 0, metadata !99, i32 2099} ; [ DW_TAG_subprogram ]
!982 = metadata !{i32 786453, i32 0, metadata !"", i32 0, i32 0, i64 0, i64 0, i64 0, i32 0, null, metadata !983, i32 0, i32 0} ; [ DW_TAG_subroutine_type ]
!983 = metadata !{metadata !984, metadata !775, metadata !108}
!984 = metadata !{i32 786434, null, metadata !"ap_bit_ref<6, false>", metadata !87, i32 1249, i32 0, i32 0, i32 0, i32 4, null, null, i32 0} ; [ DW_TAG_class_type ]
!985 = metadata !{i32 786478, i32 0, metadata !754, metadata !"operator[]", metadata !"operator[]", metadata !"_ZNK11ap_int_baseILi6ELb0ELb1EEixEi", metadata !87, i32 2113, metadata !944, i1 false, i1 false, i32 0, i32 0, null, i32 256, i1 false, null, null, i32 0, metadata !99, i32 2113} ; [ DW_TAG_subprogram ]
!986 = metadata !{i32 786478, i32 0, metadata !754, metadata !"bit", metadata !"bit", metadata !"_ZN11ap_int_baseILi6ELb0ELb1EE3bitEi", metadata !87, i32 2127, metadata !982, i1 false, i1 false, i32 0, i32 0, null, i32 256, i1 false, null, null, i32 0, metadata !99, i32 2127} ; [ DW_TAG_subprogram ]
!987 = metadata !{i32 786478, i32 0, metadata !754, metadata !"bit", metadata !"bit", metadata !"_ZNK11ap_int_baseILi6ELb0ELb1EE3bitEi", metadata !87, i32 2141, metadata !944, i1 false, i1 false, i32 0, i32 0, null, i32 256, i1 false, null, null, i32 0, metadata !99, i32 2141} ; [ DW_TAG_subprogram ]
!988 = metadata !{i32 786478, i32 0, metadata !754, metadata !"and_reduce", metadata !"and_reduce", metadata !"_ZN11ap_int_baseILi6ELb0ELb1EE10and_reduceEv", metadata !87, i32 2321, metadata !989, i1 false, i1 false, i32 0, i32 0, null, i32 256, i1 false, null, null, i32 0, metadata !99, i32 2321} ; [ DW_TAG_subprogram ]
!989 = metadata !{i32 786453, i32 0, metadata !"", i32 0, i32 0, i64 0, i64 0, i64 0, i32 0, null, metadata !990, i32 0, i32 0} ; [ DW_TAG_subroutine_type ]
!990 = metadata !{metadata !110, metadata !775}
!991 = metadata !{i32 786478, i32 0, metadata !754, metadata !"nand_reduce", metadata !"nand_reduce", metadata !"_ZN11ap_int_baseILi6ELb0ELb1EE11nand_reduceEv", metadata !87, i32 2324, metadata !989, i1 false, i1 false, i32 0, i32 0, null, i32 256, i1 false, null, null, i32 0, metadata !99, i32 2324} ; [ DW_TAG_subprogram ]
!992 = metadata !{i32 786478, i32 0, metadata !754, metadata !"or_reduce", metadata !"or_reduce", metadata !"_ZN11ap_int_baseILi6ELb0ELb1EE9or_reduceEv", metadata !87, i32 2327, metadata !989, i1 false, i1 false, i32 0, i32 0, null, i32 256, i1 false, null, null, i32 0, metadata !99, i32 2327} ; [ DW_TAG_subprogram ]
!993 = metadata !{i32 786478, i32 0, metadata !754, metadata !"nor_reduce", metadata !"nor_reduce", metadata !"_ZN11ap_int_baseILi6ELb0ELb1EE10nor_reduceEv", metadata !87, i32 2330, metadata !989, i1 false, i1 false, i32 0, i32 0, null, i32 256, i1 false, null, null, i32 0, metadata !99, i32 2330} ; [ DW_TAG_subprogram ]
!994 = metadata !{i32 786478, i32 0, metadata !754, metadata !"xor_reduce", metadata !"xor_reduce", metadata !"_ZN11ap_int_baseILi6ELb0ELb1EE10xor_reduceEv", metadata !87, i32 2333, metadata !989, i1 false, i1 false, i32 0, i32 0, null, i32 256, i1 false, null, null, i32 0, metadata !99, i32 2333} ; [ DW_TAG_subprogram ]
!995 = metadata !{i32 786478, i32 0, metadata !754, metadata !"xnor_reduce", metadata !"xnor_reduce", metadata !"_ZN11ap_int_baseILi6ELb0ELb1EE11xnor_reduceEv", metadata !87, i32 2336, metadata !989, i1 false, i1 false, i32 0, i32 0, null, i32 256, i1 false, null, null, i32 0, metadata !99, i32 2336} ; [ DW_TAG_subprogram ]
!996 = metadata !{i32 786478, i32 0, metadata !754, metadata !"and_reduce", metadata !"and_reduce", metadata !"_ZNK11ap_int_baseILi6ELb0ELb1EE10and_reduceEv", metadata !87, i32 2340, metadata !895, i1 false, i1 false, i32 0, i32 0, null, i32 256, i1 false, null, null, i32 0, metadata !99, i32 2340} ; [ DW_TAG_subprogram ]
!997 = metadata !{i32 786478, i32 0, metadata !754, metadata !"nand_reduce", metadata !"nand_reduce", metadata !"_ZNK11ap_int_baseILi6ELb0ELb1EE11nand_reduceEv", metadata !87, i32 2343, metadata !895, i1 false, i1 false, i32 0, i32 0, null, i32 256, i1 false, null, null, i32 0, metadata !99, i32 2343} ; [ DW_TAG_subprogram ]
!998 = metadata !{i32 786478, i32 0, metadata !754, metadata !"or_reduce", metadata !"or_reduce", metadata !"_ZNK11ap_int_baseILi6ELb0ELb1EE9or_reduceEv", metadata !87, i32 2346, metadata !895, i1 false, i1 false, i32 0, i32 0, null, i32 256, i1 false, null, null, i32 0, metadata !99, i32 2346} ; [ DW_TAG_subprogram ]
!999 = metadata !{i32 786478, i32 0, metadata !754, metadata !"nor_reduce", metadata !"nor_reduce", metadata !"_ZNK11ap_int_baseILi6ELb0ELb1EE10nor_reduceEv", metadata !87, i32 2349, metadata !895, i1 false, i1 false, i32 0, i32 0, null, i32 256, i1 false, null, null, i32 0, metadata !99, i32 2349} ; [ DW_TAG_subprogram ]
!1000 = metadata !{i32 786478, i32 0, metadata !754, metadata !"xor_reduce", metadata !"xor_reduce", metadata !"_ZNK11ap_int_baseILi6ELb0ELb1EE10xor_reduceEv", metadata !87, i32 2352, metadata !895, i1 false, i1 false, i32 0, i32 0, null, i32 256, i1 false, null, null, i32 0, metadata !99, i32 2352} ; [ DW_TAG_subprogram ]
!1001 = metadata !{i32 786478, i32 0, metadata !754, metadata !"xnor_reduce", metadata !"xnor_reduce", metadata !"_ZNK11ap_int_baseILi6ELb0ELb1EE11xnor_reduceEv", metadata !87, i32 2355, metadata !895, i1 false, i1 false, i32 0, i32 0, null, i32 256, i1 false, null, null, i32 0, metadata !99, i32 2355} ; [ DW_TAG_subprogram ]
!1002 = metadata !{i32 786478, i32 0, metadata !754, metadata !"to_string", metadata !"to_string", metadata !"_ZNK11ap_int_baseILi6ELb0ELb1EE9to_stringEPci8BaseModeb", metadata !87, i32 2362, metadata !1003, i1 false, i1 false, i32 0, i32 0, null, i32 256, i1 false, null, null, i32 0, metadata !99, i32 2362} ; [ DW_TAG_subprogram ]
!1003 = metadata !{i32 786453, i32 0, metadata !"", i32 0, i32 0, i64 0, i64 0, i64 0, i32 0, null, metadata !1004, i32 0, i32 0} ; [ DW_TAG_subroutine_type ]
!1004 = metadata !{null, metadata !893, metadata !604, metadata !108, metadata !605, metadata !110}
!1005 = metadata !{i32 786478, i32 0, metadata !754, metadata !"to_string", metadata !"to_string", metadata !"_ZNK11ap_int_baseILi6ELb0ELb1EE9to_stringE8BaseModeb", metadata !87, i32 2389, metadata !1006, i1 false, i1 false, i32 0, i32 0, null, i32 256, i1 false, null, null, i32 0, metadata !99, i32 2389} ; [ DW_TAG_subprogram ]
!1006 = metadata !{i32 786453, i32 0, metadata !"", i32 0, i32 0, i64 0, i64 0, i64 0, i32 0, null, metadata !1007, i32 0, i32 0} ; [ DW_TAG_subroutine_type ]
!1007 = metadata !{metadata !604, metadata !893, metadata !605, metadata !110}
!1008 = metadata !{i32 786478, i32 0, metadata !754, metadata !"to_string", metadata !"to_string", metadata !"_ZNK11ap_int_baseILi6ELb0ELb1EE9to_stringEab", metadata !87, i32 2393, metadata !1009, i1 false, i1 false, i32 0, i32 0, null, i32 256, i1 false, null, null, i32 0, metadata !99, i32 2393} ; [ DW_TAG_subprogram ]
!1009 = metadata !{i32 786453, i32 0, metadata !"", i32 0, i32 0, i64 0, i64 0, i64 0, i32 0, null, metadata !1010, i32 0, i32 0} ; [ DW_TAG_subroutine_type ]
!1010 = metadata !{metadata !604, metadata !893, metadata !135, metadata !110}
!1011 = metadata !{i32 786478, i32 0, metadata !754, metadata !"ap_int_base", metadata !"ap_int_base", metadata !"", metadata !87, i32 1453, metadata !777, i1 false, i1 false, i32 0, i32 0, null, i32 320, i1 false, null, null, i32 0, metadata !99, i32 1453} ; [ DW_TAG_subprogram ]
!1012 = metadata !{metadata !1013, metadata !109, metadata !618}
!1013 = metadata !{i32 786480, null, metadata !"_AP_W", metadata !108, i64 6, null, i32 0, i32 0} ; [ DW_TAG_template_value_parameter ]
!1014 = metadata !{i32 786478, i32 0, metadata !751, metadata !"ap_uint", metadata !"ap_uint", metadata !"", metadata !83, i32 186, metadata !1015, i1 false, i1 false, i32 0, i32 0, null, i32 256, i1 false, null, null, i32 0, metadata !99, i32 186} ; [ DW_TAG_subprogram ]
!1015 = metadata !{i32 786453, i32 0, metadata !"", i32 0, i32 0, i64 0, i64 0, i64 0, i32 0, null, metadata !1016, i32 0, i32 0} ; [ DW_TAG_subroutine_type ]
!1016 = metadata !{null, metadata !1017}
!1017 = metadata !{i32 786447, i32 0, metadata !"", i32 0, i32 0, i64 64, i64 64, i64 0, i32 64, metadata !751} ; [ DW_TAG_pointer_type ]
!1018 = metadata !{i32 786478, i32 0, metadata !751, metadata !"ap_uint<6>", metadata !"ap_uint<6>", metadata !"", metadata !83, i32 188, metadata !1019, i1 false, i1 false, i32 0, i32 0, null, i32 256, i1 false, null, metadata !1023, i32 0, metadata !99, i32 188} ; [ DW_TAG_subprogram ]
!1019 = metadata !{i32 786453, i32 0, metadata !"", i32 0, i32 0, i64 0, i64 0, i64 0, i32 0, null, metadata !1020, i32 0, i32 0} ; [ DW_TAG_subroutine_type ]
!1020 = metadata !{null, metadata !1017, metadata !1021}
!1021 = metadata !{i32 786448, null, null, null, i32 0, i64 0, i64 0, i64 0, i32 0, metadata !1022} ; [ DW_TAG_reference_type ]
!1022 = metadata !{i32 786470, null, metadata !"", null, i32 0, i64 0, i64 0, i64 0, i32 0, metadata !751} ; [ DW_TAG_const_type ]
!1023 = metadata !{metadata !782}
!1024 = metadata !{i32 786478, i32 0, metadata !751, metadata !"ap_uint<6>", metadata !"ap_uint<6>", metadata !"", metadata !83, i32 194, metadata !1025, i1 false, i1 false, i32 0, i32 0, null, i32 256, i1 false, null, metadata !1023, i32 0, metadata !99, i32 194} ; [ DW_TAG_subprogram ]
!1025 = metadata !{i32 786453, i32 0, metadata !"", i32 0, i32 0, i64 0, i64 0, i64 0, i32 0, null, metadata !1026, i32 0, i32 0} ; [ DW_TAG_subroutine_type ]
!1026 = metadata !{null, metadata !1017, metadata !1027}
!1027 = metadata !{i32 786448, null, null, null, i32 0, i64 0, i64 0, i64 0, i32 0, metadata !1028} ; [ DW_TAG_reference_type ]
!1028 = metadata !{i32 786470, null, metadata !"", null, i32 0, i64 0, i64 0, i64 0, i32 0, metadata !1029} ; [ DW_TAG_const_type ]
!1029 = metadata !{i32 786485, null, metadata !"", null, i32 0, i64 0, i64 0, i64 0, i32 0, metadata !751} ; [ DW_TAG_volatile_type ]
!1030 = metadata !{i32 786478, i32 0, metadata !751, metadata !"ap_uint<6, false>", metadata !"ap_uint<6, false>", metadata !"", metadata !83, i32 229, metadata !1031, i1 false, i1 false, i32 0, i32 0, null, i32 256, i1 false, null, metadata !781, i32 0, metadata !99, i32 229} ; [ DW_TAG_subprogram ]
!1031 = metadata !{i32 786453, i32 0, metadata !"", i32 0, i32 0, i64 0, i64 0, i64 0, i32 0, null, metadata !1032, i32 0, i32 0} ; [ DW_TAG_subroutine_type ]
!1032 = metadata !{null, metadata !1017, metadata !779}
!1033 = metadata !{i32 786478, i32 0, metadata !751, metadata !"ap_uint", metadata !"ap_uint", metadata !"", metadata !83, i32 248, metadata !1034, i1 false, i1 false, i32 0, i32 0, null, i32 256, i1 false, null, null, i32 0, metadata !99, i32 248} ; [ DW_TAG_subprogram ]
!1034 = metadata !{i32 786453, i32 0, metadata !"", i32 0, i32 0, i64 0, i64 0, i64 0, i32 0, null, metadata !1035, i32 0, i32 0} ; [ DW_TAG_subroutine_type ]
!1035 = metadata !{null, metadata !1017, metadata !110}
!1036 = metadata !{i32 786478, i32 0, metadata !751, metadata !"ap_uint", metadata !"ap_uint", metadata !"", metadata !83, i32 249, metadata !1037, i1 false, i1 false, i32 0, i32 0, null, i32 256, i1 false, null, null, i32 0, metadata !99, i32 249} ; [ DW_TAG_subprogram ]
!1037 = metadata !{i32 786453, i32 0, metadata !"", i32 0, i32 0, i64 0, i64 0, i64 0, i32 0, null, metadata !1038, i32 0, i32 0} ; [ DW_TAG_subroutine_type ]
!1038 = metadata !{null, metadata !1017, metadata !135}
!1039 = metadata !{i32 786478, i32 0, metadata !751, metadata !"ap_uint", metadata !"ap_uint", metadata !"", metadata !83, i32 250, metadata !1040, i1 false, i1 false, i32 0, i32 0, null, i32 256, i1 false, null, null, i32 0, metadata !99, i32 250} ; [ DW_TAG_subprogram ]
!1040 = metadata !{i32 786453, i32 0, metadata !"", i32 0, i32 0, i64 0, i64 0, i64 0, i32 0, null, metadata !1041, i32 0, i32 0} ; [ DW_TAG_subroutine_type ]
!1041 = metadata !{null, metadata !1017, metadata !139}
!1042 = metadata !{i32 786478, i32 0, metadata !751, metadata !"ap_uint", metadata !"ap_uint", metadata !"", metadata !83, i32 251, metadata !1043, i1 false, i1 false, i32 0, i32 0, null, i32 256, i1 false, null, null, i32 0, metadata !99, i32 251} ; [ DW_TAG_subprogram ]
!1043 = metadata !{i32 786453, i32 0, metadata !"", i32 0, i32 0, i64 0, i64 0, i64 0, i32 0, null, metadata !1044, i32 0, i32 0} ; [ DW_TAG_subroutine_type ]
!1044 = metadata !{null, metadata !1017, metadata !143}
!1045 = metadata !{i32 786478, i32 0, metadata !751, metadata !"ap_uint", metadata !"ap_uint", metadata !"", metadata !83, i32 252, metadata !1046, i1 false, i1 false, i32 0, i32 0, null, i32 256, i1 false, null, null, i32 0, metadata !99, i32 252} ; [ DW_TAG_subprogram ]
!1046 = metadata !{i32 786453, i32 0, metadata !"", i32 0, i32 0, i64 0, i64 0, i64 0, i32 0, null, metadata !1047, i32 0, i32 0} ; [ DW_TAG_subroutine_type ]
!1047 = metadata !{null, metadata !1017, metadata !147}
!1048 = metadata !{i32 786478, i32 0, metadata !751, metadata !"ap_uint", metadata !"ap_uint", metadata !"", metadata !83, i32 253, metadata !1049, i1 false, i1 false, i32 0, i32 0, null, i32 256, i1 false, null, null, i32 0, metadata !99, i32 253} ; [ DW_TAG_subprogram ]
!1049 = metadata !{i32 786453, i32 0, metadata !"", i32 0, i32 0, i64 0, i64 0, i64 0, i32 0, null, metadata !1050, i32 0, i32 0} ; [ DW_TAG_subroutine_type ]
!1050 = metadata !{null, metadata !1017, metadata !108}
!1051 = metadata !{i32 786478, i32 0, metadata !751, metadata !"ap_uint", metadata !"ap_uint", metadata !"", metadata !83, i32 254, metadata !1052, i1 false, i1 false, i32 0, i32 0, null, i32 256, i1 false, null, null, i32 0, metadata !99, i32 254} ; [ DW_TAG_subprogram ]
!1052 = metadata !{i32 786453, i32 0, metadata !"", i32 0, i32 0, i64 0, i64 0, i64 0, i32 0, null, metadata !1053, i32 0, i32 0} ; [ DW_TAG_subroutine_type ]
!1053 = metadata !{null, metadata !1017, metadata !154}
!1054 = metadata !{i32 786478, i32 0, metadata !751, metadata !"ap_uint", metadata !"ap_uint", metadata !"", metadata !83, i32 255, metadata !1055, i1 false, i1 false, i32 0, i32 0, null, i32 256, i1 false, null, null, i32 0, metadata !99, i32 255} ; [ DW_TAG_subprogram ]
!1055 = metadata !{i32 786453, i32 0, metadata !"", i32 0, i32 0, i64 0, i64 0, i64 0, i32 0, null, metadata !1056, i32 0, i32 0} ; [ DW_TAG_subroutine_type ]
!1056 = metadata !{null, metadata !1017, metadata !158}
!1057 = metadata !{i32 786478, i32 0, metadata !751, metadata !"ap_uint", metadata !"ap_uint", metadata !"", metadata !83, i32 256, metadata !1058, i1 false, i1 false, i32 0, i32 0, null, i32 256, i1 false, null, null, i32 0, metadata !99, i32 256} ; [ DW_TAG_subprogram ]
!1058 = metadata !{i32 786453, i32 0, metadata !"", i32 0, i32 0, i64 0, i64 0, i64 0, i32 0, null, metadata !1059, i32 0, i32 0} ; [ DW_TAG_subroutine_type ]
!1059 = metadata !{null, metadata !1017, metadata !162}
!1060 = metadata !{i32 786478, i32 0, metadata !751, metadata !"ap_uint", metadata !"ap_uint", metadata !"", metadata !83, i32 257, metadata !1061, i1 false, i1 false, i32 0, i32 0, null, i32 256, i1 false, null, null, i32 0, metadata !99, i32 257} ; [ DW_TAG_subprogram ]
!1061 = metadata !{i32 786453, i32 0, metadata !"", i32 0, i32 0, i64 0, i64 0, i64 0, i32 0, null, metadata !1062, i32 0, i32 0} ; [ DW_TAG_subroutine_type ]
!1062 = metadata !{null, metadata !1017, metadata !172}
!1063 = metadata !{i32 786478, i32 0, metadata !751, metadata !"ap_uint", metadata !"ap_uint", metadata !"", metadata !83, i32 258, metadata !1064, i1 false, i1 false, i32 0, i32 0, null, i32 256, i1 false, null, null, i32 0, metadata !99, i32 258} ; [ DW_TAG_subprogram ]
!1064 = metadata !{i32 786453, i32 0, metadata !"", i32 0, i32 0, i64 0, i64 0, i64 0, i32 0, null, metadata !1065, i32 0, i32 0} ; [ DW_TAG_subroutine_type ]
!1065 = metadata !{null, metadata !1017, metadata !167}
!1066 = metadata !{i32 786478, i32 0, metadata !751, metadata !"ap_uint", metadata !"ap_uint", metadata !"", metadata !83, i32 259, metadata !1067, i1 false, i1 false, i32 0, i32 0, null, i32 256, i1 false, null, null, i32 0, metadata !99, i32 259} ; [ DW_TAG_subprogram ]
!1067 = metadata !{i32 786453, i32 0, metadata !"", i32 0, i32 0, i64 0, i64 0, i64 0, i32 0, null, metadata !1068, i32 0, i32 0} ; [ DW_TAG_subroutine_type ]
!1068 = metadata !{null, metadata !1017, metadata !176}
!1069 = metadata !{i32 786478, i32 0, metadata !751, metadata !"ap_uint", metadata !"ap_uint", metadata !"", metadata !83, i32 260, metadata !1070, i1 false, i1 false, i32 0, i32 0, null, i32 256, i1 false, null, null, i32 0, metadata !99, i32 260} ; [ DW_TAG_subprogram ]
!1070 = metadata !{i32 786453, i32 0, metadata !"", i32 0, i32 0, i64 0, i64 0, i64 0, i32 0, null, metadata !1071, i32 0, i32 0} ; [ DW_TAG_subroutine_type ]
!1071 = metadata !{null, metadata !1017, metadata !181}
!1072 = metadata !{i32 786478, i32 0, metadata !751, metadata !"ap_uint", metadata !"ap_uint", metadata !"", metadata !83, i32 261, metadata !1073, i1 false, i1 false, i32 0, i32 0, null, i32 256, i1 false, null, null, i32 0, metadata !99, i32 261} ; [ DW_TAG_subprogram ]
!1073 = metadata !{i32 786453, i32 0, metadata !"", i32 0, i32 0, i64 0, i64 0, i64 0, i32 0, null, metadata !1074, i32 0, i32 0} ; [ DW_TAG_subroutine_type ]
!1074 = metadata !{null, metadata !1017, metadata !185}
!1075 = metadata !{i32 786478, i32 0, metadata !751, metadata !"ap_uint", metadata !"ap_uint", metadata !"", metadata !83, i32 263, metadata !1076, i1 false, i1 false, i32 0, i32 0, null, i32 256, i1 false, null, null, i32 0, metadata !99, i32 263} ; [ DW_TAG_subprogram ]
!1076 = metadata !{i32 786453, i32 0, metadata !"", i32 0, i32 0, i64 0, i64 0, i64 0, i32 0, null, metadata !1077, i32 0, i32 0} ; [ DW_TAG_subroutine_type ]
!1077 = metadata !{null, metadata !1017, metadata !189}
!1078 = metadata !{i32 786478, i32 0, metadata !751, metadata !"ap_uint", metadata !"ap_uint", metadata !"", metadata !83, i32 264, metadata !1079, i1 false, i1 false, i32 0, i32 0, null, i32 256, i1 false, null, null, i32 0, metadata !99, i32 264} ; [ DW_TAG_subprogram ]
!1079 = metadata !{i32 786453, i32 0, metadata !"", i32 0, i32 0, i64 0, i64 0, i64 0, i32 0, null, metadata !1080, i32 0, i32 0} ; [ DW_TAG_subroutine_type ]
!1080 = metadata !{null, metadata !1017, metadata !189, metadata !135}
!1081 = metadata !{i32 786478, i32 0, metadata !751, metadata !"operator=", metadata !"operator=", metadata !"_ZNV7ap_uintILi6EEaSERKS0_", metadata !83, i32 267, metadata !1082, i1 false, i1 false, i32 0, i32 0, null, i32 256, i1 false, null, null, i32 0, metadata !99, i32 267} ; [ DW_TAG_subprogram ]
!1082 = metadata !{i32 786453, i32 0, metadata !"", i32 0, i32 0, i64 0, i64 0, i64 0, i32 0, null, metadata !1083, i32 0, i32 0} ; [ DW_TAG_subroutine_type ]
!1083 = metadata !{null, metadata !1084, metadata !1021}
!1084 = metadata !{i32 786447, i32 0, metadata !"", i32 0, i32 0, i64 64, i64 64, i64 0, i32 64, metadata !1029} ; [ DW_TAG_pointer_type ]
!1085 = metadata !{i32 786478, i32 0, metadata !751, metadata !"operator=", metadata !"operator=", metadata !"_ZNV7ap_uintILi6EEaSERVKS0_", metadata !83, i32 271, metadata !1086, i1 false, i1 false, i32 0, i32 0, null, i32 256, i1 false, null, null, i32 0, metadata !99, i32 271} ; [ DW_TAG_subprogram ]
!1086 = metadata !{i32 786453, i32 0, metadata !"", i32 0, i32 0, i64 0, i64 0, i64 0, i32 0, null, metadata !1087, i32 0, i32 0} ; [ DW_TAG_subroutine_type ]
!1087 = metadata !{null, metadata !1084, metadata !1027}
!1088 = metadata !{i32 786478, i32 0, metadata !751, metadata !"operator=", metadata !"operator=", metadata !"_ZN7ap_uintILi6EEaSERVKS0_", metadata !83, i32 275, metadata !1089, i1 false, i1 false, i32 0, i32 0, null, i32 256, i1 false, null, null, i32 0, metadata !99, i32 275} ; [ DW_TAG_subprogram ]
!1089 = metadata !{i32 786453, i32 0, metadata !"", i32 0, i32 0, i64 0, i64 0, i64 0, i32 0, null, metadata !1090, i32 0, i32 0} ; [ DW_TAG_subroutine_type ]
!1090 = metadata !{metadata !1091, metadata !1017, metadata !1027}
!1091 = metadata !{i32 786448, null, null, null, i32 0, i64 0, i64 0, i64 0, i32 0, metadata !751} ; [ DW_TAG_reference_type ]
!1092 = metadata !{i32 786478, i32 0, metadata !751, metadata !"operator=", metadata !"operator=", metadata !"_ZN7ap_uintILi6EEaSERKS0_", metadata !83, i32 280, metadata !1093, i1 false, i1 false, i32 0, i32 0, null, i32 256, i1 false, null, null, i32 0, metadata !99, i32 280} ; [ DW_TAG_subprogram ]
!1093 = metadata !{i32 786453, i32 0, metadata !"", i32 0, i32 0, i64 0, i64 0, i64 0, i32 0, null, metadata !1094, i32 0, i32 0} ; [ DW_TAG_subroutine_type ]
!1094 = metadata !{metadata !1091, metadata !1017, metadata !1021}
!1095 = metadata !{i32 786478, i32 0, metadata !751, metadata !"ap_uint", metadata !"ap_uint", metadata !"", metadata !83, i32 183, metadata !1019, i1 false, i1 false, i32 0, i32 0, null, i32 320, i1 false, null, null, i32 0, metadata !99, i32 183} ; [ DW_TAG_subprogram ]
!1096 = metadata !{i32 786478, i32 0, metadata !751, metadata !"~ap_uint", metadata !"~ap_uint", metadata !"", metadata !83, i32 183, metadata !1015, i1 false, i1 false, i32 0, i32 0, null, i32 320, i1 false, null, null, i32 0, metadata !99, i32 183} ; [ DW_TAG_subprogram ]
!1097 = metadata !{metadata !1013}
!1098 = metadata !{i32 786433, null, metadata !"", null, i32 0, i64 96, i64 16, i32 0, i32 0, metadata !1099, metadata !1105, i32 0, i32 0} ; [ DW_TAG_array_type ]
!1099 = metadata !{i32 786438, null, metadata !"ap_uint<16>", metadata !83, i32 183, i64 16, i64 16, i32 0, i32 0, null, metadata !1100, i32 0, null, metadata !748} ; [ DW_TAG_class_field_type ]
!1100 = metadata !{metadata !1101}
!1101 = metadata !{i32 786438, null, metadata !"ap_int_base<16, false, true>", metadata !87, i32 1453, i64 16, i64 16, i32 0, i32 0, null, metadata !1102, i32 0, null, metadata !663} ; [ DW_TAG_class_field_type ]
!1102 = metadata !{metadata !1103}
!1103 = metadata !{i32 786438, null, metadata !"ssdm_int<16 + 1024 * 0, false>", metadata !91, i32 18, i64 16, i64 16, i32 0, i32 0, null, metadata !1104, i32 0, null, metadata !106} ; [ DW_TAG_class_field_type ]
!1104 = metadata !{metadata !93}
!1105 = metadata !{metadata !1106}
!1106 = metadata !{i32 786465, i64 0, i64 5}      ; [ DW_TAG_subrange_type ]
!1107 = metadata !{i32 42, i32 14, metadata !76, null}
!1108 = metadata !{i32 790531, metadata !1109, metadata !"out.V", null, i32 42, metadata !1110, i32 0, i32 0} ; [ DW_TAG_arg_variable_field ]
!1109 = metadata !{i32 786689, metadata !76, metadata !"out", metadata !77, i32 33554474, metadata !749, i32 0, i32 0} ; [ DW_TAG_arg_variable ]
!1110 = metadata !{i32 786447, null, metadata !"", null, i32 0, i64 0, i64 0, i64 0, i32 0, metadata !1111} ; [ DW_TAG_pointer_type ]
!1111 = metadata !{i32 786438, null, metadata !"ap_uint<6>", metadata !83, i32 183, i64 6, i64 8, i32 0, i32 0, null, metadata !1112, i32 0, null, metadata !1097} ; [ DW_TAG_class_field_type ]
!1112 = metadata !{metadata !1113}
!1113 = metadata !{i32 786438, null, metadata !"ap_int_base<6, false, true>", metadata !87, i32 1453, i64 6, i64 8, i32 0, i32 0, null, metadata !1114, i32 0, null, metadata !1012} ; [ DW_TAG_class_field_type ]
!1114 = metadata !{metadata !1115}
!1115 = metadata !{i32 786438, null, metadata !"ssdm_int<6 + 1024 * 0, false>", metadata !91, i32 8, i64 6, i64 8, i32 0, i32 0, null, metadata !1116, i32 0, null, metadata !770} ; [ DW_TAG_class_field_type ]
!1116 = metadata !{metadata !759}
!1117 = metadata !{i32 42, i32 26, metadata !76, null}
!1118 = metadata !{i32 44, i32 1, metadata !1119, null}
!1119 = metadata !{i32 786443, metadata !76, i32 42, i32 31, metadata !77, i32 0} ; [ DW_TAG_lexical_block ]
!1120 = metadata !{i32 45, i32 1, metadata !1119, null}
!1121 = metadata !{i32 281, i32 5, metadata !1122, metadata !1124}
!1122 = metadata !{i32 786443, metadata !1123, i32 280, i32 89, metadata !83, i32 19} ; [ DW_TAG_lexical_block ]
!1123 = metadata !{i32 786478, i32 0, null, metadata !"operator=", metadata !"operator=", metadata !"_ZN7ap_uintILi16EEaSERKS0_", metadata !83, i32 280, metadata !744, i1 false, i1 true, i32 0, i32 0, null, i32 256, i1 false, null, null, metadata !743, metadata !99, i32 280} ; [ DW_TAG_subprogram ]
!1124 = metadata !{i32 54, i32 2, metadata !1125, null}
!1125 = metadata !{i32 786443, metadata !1126, i32 52, i32 28, metadata !77, i32 2} ; [ DW_TAG_lexical_block ]
!1126 = metadata !{i32 786443, metadata !1119, i32 52, i32 2, metadata !77, i32 1} ; [ DW_TAG_lexical_block ]
!1127 = metadata !{i32 2050, i32 5, metadata !1128, metadata !1130}
!1128 = metadata !{i32 786443, metadata !1129, i32 2049, i32 104, metadata !87, i32 18} ; [ DW_TAG_lexical_block ]
!1129 = metadata !{i32 786478, i32 0, null, metadata !"operator><16, false>", metadata !"operator><16, false>", metadata !"_ZNK11ap_int_baseILi16ELb0ELb1EEgtILi16ELb0EEEbRKS_IXT_EXT0_EXleT_Li64EEE", metadata !87, i32 2049, metadata !620, i1 false, i1 true, i32 0, i32 0, null, i32 256, i1 false, null, metadata !120, metadata !619, metadata !99, i32 2049} ; [ DW_TAG_subprogram ]
!1130 = metadata !{i32 60, i32 12, metadata !1131, null}
!1131 = metadata !{i32 786443, metadata !1132, i32 58, i32 27, metadata !77, i32 4} ; [ DW_TAG_lexical_block ]
!1132 = metadata !{i32 786443, metadata !1119, i32 58, i32 2, metadata !77, i32 3} ; [ DW_TAG_lexical_block ]
!1133 = metadata !{i32 1887, i32 145, metadata !1134, metadata !1667}
!1134 = metadata !{i32 786443, metadata !1135, i32 1887, i32 141, metadata !87, i32 17} ; [ DW_TAG_lexical_block ]
!1135 = metadata !{i32 786478, i32 0, null, metadata !"operator&=<32, true>", metadata !"operator&=<32, true>", metadata !"_ZN11ap_int_baseILi6ELb0ELb1EEaNILi32ELb1EEERS0_RKS_IXT_EXT0_EXleT_Li64EEE", metadata !87, i32 1887, metadata !1136, i1 false, i1 true, i32 0, i32 0, null, i32 256, i1 false, null, metadata !1664, null, metadata !99, i32 1887} ; [ DW_TAG_subprogram ]
!1136 = metadata !{i32 786453, i32 0, metadata !"", i32 0, i32 0, i64 0, i64 0, i64 0, i32 0, null, metadata !1137, i32 0, i32 0} ; [ DW_TAG_subroutine_type ]
!1137 = metadata !{metadata !851, metadata !775, metadata !1138}
!1138 = metadata !{i32 786448, null, null, null, i32 0, i64 0, i64 0, i64 0, i32 0, metadata !1139} ; [ DW_TAG_reference_type ]
!1139 = metadata !{i32 786470, null, metadata !"", null, i32 0, i64 0, i64 0, i64 0, i32 0, metadata !1140} ; [ DW_TAG_const_type ]
!1140 = metadata !{i32 786434, null, metadata !"ap_int_base<32, true, true>", metadata !87, i32 1453, i64 32, i64 32, i32 0, i32 0, null, metadata !1141, i32 0, null, metadata !1662} ; [ DW_TAG_class_type ]
!1141 = metadata !{metadata !1142, metadata !1153, metadata !1157, metadata !1160, metadata !1163, metadata !1166, metadata !1169, metadata !1172, metadata !1175, metadata !1178, metadata !1181, metadata !1184, metadata !1187, metadata !1190, metadata !1193, metadata !1196, metadata !1199, metadata !1202, metadata !1205, metadata !1210, metadata !1213, metadata !1218, metadata !1219, metadata !1223, metadata !1226, metadata !1229, metadata !1232, metadata !1235, metadata !1238, metadata !1241, metadata !1244, metadata !1247, metadata !1250, metadata !1253, metadata !1256, metadata !1265, metadata !1268, metadata !1271, metadata !1274, metadata !1277, metadata !1280, metadata !1283, metadata !1286, metadata !1289, metadata !1292, metadata !1295, metadata !1298, metadata !1301, metadata !1302, metadata !1306, metadata !1309, metadata !1310, metadata !1311, metadata !1312, metadata !1313, metadata !1314, metadata !1317, metadata !1318, metadata !1321, metadata !1322, metadata !1323, metadata !1324, metadata !1325, metadata !1326, metadata !1329, metadata !1330, metadata !1331, metadata !1334, metadata !1335, metadata !1338, metadata !1339, metadata !1622, metadata !1626, metadata !1627, metadata !1630, metadata !1631, metadata !1635, metadata !1636, metadata !1637, metadata !1638, metadata !1641, metadata !1642, metadata !1643, metadata !1644, metadata !1645, metadata !1646, metadata !1647, metadata !1648, metadata !1649, metadata !1650, metadata !1651, metadata !1652, metadata !1655, metadata !1658, metadata !1661}
!1142 = metadata !{i32 786460, metadata !1140, null, metadata !87, i32 0, i64 0, i64 0, i64 0, i32 0, metadata !1143} ; [ DW_TAG_inheritance ]
!1143 = metadata !{i32 786434, null, metadata !"ssdm_int<32 + 1024 * 0, true>", metadata !91, i32 34, i64 32, i64 32, i32 0, i32 0, null, metadata !1144, i32 0, null, metadata !1151} ; [ DW_TAG_class_type ]
!1144 = metadata !{metadata !1145, metadata !1147}
!1145 = metadata !{i32 786445, metadata !1143, metadata !"V", metadata !91, i32 34, i64 32, i64 32, i64 0, i32 0, metadata !1146} ; [ DW_TAG_member ]
!1146 = metadata !{i32 786468, null, metadata !"int32", null, i32 0, i64 32, i64 32, i64 0, i32 0, i32 5} ; [ DW_TAG_base_type ]
!1147 = metadata !{i32 786478, i32 0, metadata !1143, metadata !"ssdm_int", metadata !"ssdm_int", metadata !"", metadata !91, i32 34, metadata !1148, i1 false, i1 false, i32 0, i32 0, null, i32 256, i1 false, null, null, i32 0, metadata !99, i32 34} ; [ DW_TAG_subprogram ]
!1148 = metadata !{i32 786453, i32 0, metadata !"", i32 0, i32 0, i64 0, i64 0, i64 0, i32 0, null, metadata !1149, i32 0, i32 0} ; [ DW_TAG_subroutine_type ]
!1149 = metadata !{null, metadata !1150}
!1150 = metadata !{i32 786447, i32 0, metadata !"", i32 0, i32 0, i64 64, i64 64, i64 0, i32 64, metadata !1143} ; [ DW_TAG_pointer_type ]
!1151 = metadata !{metadata !1152, metadata !343}
!1152 = metadata !{i32 786480, null, metadata !"_AP_N", metadata !108, i64 32, null, i32 0, i32 0} ; [ DW_TAG_template_value_parameter ]
!1153 = metadata !{i32 786478, i32 0, metadata !1140, metadata !"ap_int_base", metadata !"ap_int_base", metadata !"", metadata !87, i32 1494, metadata !1154, i1 false, i1 false, i32 0, i32 0, null, i32 256, i1 false, null, null, i32 0, metadata !99, i32 1494} ; [ DW_TAG_subprogram ]
!1154 = metadata !{i32 786453, i32 0, metadata !"", i32 0, i32 0, i64 0, i64 0, i64 0, i32 0, null, metadata !1155, i32 0, i32 0} ; [ DW_TAG_subroutine_type ]
!1155 = metadata !{null, metadata !1156}
!1156 = metadata !{i32 786447, i32 0, metadata !"", i32 0, i32 0, i64 64, i64 64, i64 0, i32 64, metadata !1140} ; [ DW_TAG_pointer_type ]
!1157 = metadata !{i32 786478, i32 0, metadata !1140, metadata !"ap_int_base", metadata !"ap_int_base", metadata !"", metadata !87, i32 1516, metadata !1158, i1 false, i1 false, i32 0, i32 0, null, i32 384, i1 false, null, null, i32 0, metadata !99, i32 1516} ; [ DW_TAG_subprogram ]
!1158 = metadata !{i32 786453, i32 0, metadata !"", i32 0, i32 0, i64 0, i64 0, i64 0, i32 0, null, metadata !1159, i32 0, i32 0} ; [ DW_TAG_subroutine_type ]
!1159 = metadata !{null, metadata !1156, metadata !110}
!1160 = metadata !{i32 786478, i32 0, metadata !1140, metadata !"ap_int_base", metadata !"ap_int_base", metadata !"", metadata !87, i32 1517, metadata !1161, i1 false, i1 false, i32 0, i32 0, null, i32 384, i1 false, null, null, i32 0, metadata !99, i32 1517} ; [ DW_TAG_subprogram ]
!1161 = metadata !{i32 786453, i32 0, metadata !"", i32 0, i32 0, i64 0, i64 0, i64 0, i32 0, null, metadata !1162, i32 0, i32 0} ; [ DW_TAG_subroutine_type ]
!1162 = metadata !{null, metadata !1156, metadata !135}
!1163 = metadata !{i32 786478, i32 0, metadata !1140, metadata !"ap_int_base", metadata !"ap_int_base", metadata !"", metadata !87, i32 1518, metadata !1164, i1 false, i1 false, i32 0, i32 0, null, i32 384, i1 false, null, null, i32 0, metadata !99, i32 1518} ; [ DW_TAG_subprogram ]
!1164 = metadata !{i32 786453, i32 0, metadata !"", i32 0, i32 0, i64 0, i64 0, i64 0, i32 0, null, metadata !1165, i32 0, i32 0} ; [ DW_TAG_subroutine_type ]
!1165 = metadata !{null, metadata !1156, metadata !139}
!1166 = metadata !{i32 786478, i32 0, metadata !1140, metadata !"ap_int_base", metadata !"ap_int_base", metadata !"", metadata !87, i32 1519, metadata !1167, i1 false, i1 false, i32 0, i32 0, null, i32 384, i1 false, null, null, i32 0, metadata !99, i32 1519} ; [ DW_TAG_subprogram ]
!1167 = metadata !{i32 786453, i32 0, metadata !"", i32 0, i32 0, i64 0, i64 0, i64 0, i32 0, null, metadata !1168, i32 0, i32 0} ; [ DW_TAG_subroutine_type ]
!1168 = metadata !{null, metadata !1156, metadata !143}
!1169 = metadata !{i32 786478, i32 0, metadata !1140, metadata !"ap_int_base", metadata !"ap_int_base", metadata !"", metadata !87, i32 1520, metadata !1170, i1 false, i1 false, i32 0, i32 0, null, i32 384, i1 false, null, null, i32 0, metadata !99, i32 1520} ; [ DW_TAG_subprogram ]
!1170 = metadata !{i32 786453, i32 0, metadata !"", i32 0, i32 0, i64 0, i64 0, i64 0, i32 0, null, metadata !1171, i32 0, i32 0} ; [ DW_TAG_subroutine_type ]
!1171 = metadata !{null, metadata !1156, metadata !147}
!1172 = metadata !{i32 786478, i32 0, metadata !1140, metadata !"ap_int_base", metadata !"ap_int_base", metadata !"", metadata !87, i32 1521, metadata !1173, i1 false, i1 false, i32 0, i32 0, null, i32 384, i1 false, null, null, i32 0, metadata !99, i32 1521} ; [ DW_TAG_subprogram ]
!1173 = metadata !{i32 786453, i32 0, metadata !"", i32 0, i32 0, i64 0, i64 0, i64 0, i32 0, null, metadata !1174, i32 0, i32 0} ; [ DW_TAG_subroutine_type ]
!1174 = metadata !{null, metadata !1156, metadata !108}
!1175 = metadata !{i32 786478, i32 0, metadata !1140, metadata !"ap_int_base", metadata !"ap_int_base", metadata !"", metadata !87, i32 1522, metadata !1176, i1 false, i1 false, i32 0, i32 0, null, i32 384, i1 false, null, null, i32 0, metadata !99, i32 1522} ; [ DW_TAG_subprogram ]
!1176 = metadata !{i32 786453, i32 0, metadata !"", i32 0, i32 0, i64 0, i64 0, i64 0, i32 0, null, metadata !1177, i32 0, i32 0} ; [ DW_TAG_subroutine_type ]
!1177 = metadata !{null, metadata !1156, metadata !154}
!1178 = metadata !{i32 786478, i32 0, metadata !1140, metadata !"ap_int_base", metadata !"ap_int_base", metadata !"", metadata !87, i32 1523, metadata !1179, i1 false, i1 false, i32 0, i32 0, null, i32 384, i1 false, null, null, i32 0, metadata !99, i32 1523} ; [ DW_TAG_subprogram ]
!1179 = metadata !{i32 786453, i32 0, metadata !"", i32 0, i32 0, i64 0, i64 0, i64 0, i32 0, null, metadata !1180, i32 0, i32 0} ; [ DW_TAG_subroutine_type ]
!1180 = metadata !{null, metadata !1156, metadata !158}
!1181 = metadata !{i32 786478, i32 0, metadata !1140, metadata !"ap_int_base", metadata !"ap_int_base", metadata !"", metadata !87, i32 1524, metadata !1182, i1 false, i1 false, i32 0, i32 0, null, i32 384, i1 false, null, null, i32 0, metadata !99, i32 1524} ; [ DW_TAG_subprogram ]
!1182 = metadata !{i32 786453, i32 0, metadata !"", i32 0, i32 0, i64 0, i64 0, i64 0, i32 0, null, metadata !1183, i32 0, i32 0} ; [ DW_TAG_subroutine_type ]
!1183 = metadata !{null, metadata !1156, metadata !162}
!1184 = metadata !{i32 786478, i32 0, metadata !1140, metadata !"ap_int_base", metadata !"ap_int_base", metadata !"", metadata !87, i32 1525, metadata !1185, i1 false, i1 false, i32 0, i32 0, null, i32 384, i1 false, null, null, i32 0, metadata !99, i32 1525} ; [ DW_TAG_subprogram ]
!1185 = metadata !{i32 786453, i32 0, metadata !"", i32 0, i32 0, i64 0, i64 0, i64 0, i32 0, null, metadata !1186, i32 0, i32 0} ; [ DW_TAG_subroutine_type ]
!1186 = metadata !{null, metadata !1156, metadata !166}
!1187 = metadata !{i32 786478, i32 0, metadata !1140, metadata !"ap_int_base", metadata !"ap_int_base", metadata !"", metadata !87, i32 1526, metadata !1188, i1 false, i1 false, i32 0, i32 0, null, i32 384, i1 false, null, null, i32 0, metadata !99, i32 1526} ; [ DW_TAG_subprogram ]
!1188 = metadata !{i32 786453, i32 0, metadata !"", i32 0, i32 0, i64 0, i64 0, i64 0, i32 0, null, metadata !1189, i32 0, i32 0} ; [ DW_TAG_subroutine_type ]
!1189 = metadata !{null, metadata !1156, metadata !171}
!1190 = metadata !{i32 786478, i32 0, metadata !1140, metadata !"ap_int_base", metadata !"ap_int_base", metadata !"", metadata !87, i32 1527, metadata !1191, i1 false, i1 false, i32 0, i32 0, null, i32 384, i1 false, null, null, i32 0, metadata !99, i32 1527} ; [ DW_TAG_subprogram ]
!1191 = metadata !{i32 786453, i32 0, metadata !"", i32 0, i32 0, i64 0, i64 0, i64 0, i32 0, null, metadata !1192, i32 0, i32 0} ; [ DW_TAG_subroutine_type ]
!1192 = metadata !{null, metadata !1156, metadata !176}
!1193 = metadata !{i32 786478, i32 0, metadata !1140, metadata !"ap_int_base", metadata !"ap_int_base", metadata !"", metadata !87, i32 1528, metadata !1194, i1 false, i1 false, i32 0, i32 0, null, i32 384, i1 false, null, null, i32 0, metadata !99, i32 1528} ; [ DW_TAG_subprogram ]
!1194 = metadata !{i32 786453, i32 0, metadata !"", i32 0, i32 0, i64 0, i64 0, i64 0, i32 0, null, metadata !1195, i32 0, i32 0} ; [ DW_TAG_subroutine_type ]
!1195 = metadata !{null, metadata !1156, metadata !181}
!1196 = metadata !{i32 786478, i32 0, metadata !1140, metadata !"ap_int_base", metadata !"ap_int_base", metadata !"", metadata !87, i32 1529, metadata !1197, i1 false, i1 false, i32 0, i32 0, null, i32 384, i1 false, null, null, i32 0, metadata !99, i32 1529} ; [ DW_TAG_subprogram ]
!1197 = metadata !{i32 786453, i32 0, metadata !"", i32 0, i32 0, i64 0, i64 0, i64 0, i32 0, null, metadata !1198, i32 0, i32 0} ; [ DW_TAG_subroutine_type ]
!1198 = metadata !{null, metadata !1156, metadata !185}
!1199 = metadata !{i32 786478, i32 0, metadata !1140, metadata !"ap_int_base", metadata !"ap_int_base", metadata !"", metadata !87, i32 1556, metadata !1200, i1 false, i1 false, i32 0, i32 0, null, i32 256, i1 false, null, null, i32 0, metadata !99, i32 1556} ; [ DW_TAG_subprogram ]
!1200 = metadata !{i32 786453, i32 0, metadata !"", i32 0, i32 0, i64 0, i64 0, i64 0, i32 0, null, metadata !1201, i32 0, i32 0} ; [ DW_TAG_subroutine_type ]
!1201 = metadata !{null, metadata !1156, metadata !189}
!1202 = metadata !{i32 786478, i32 0, metadata !1140, metadata !"ap_int_base", metadata !"ap_int_base", metadata !"", metadata !87, i32 1563, metadata !1203, i1 false, i1 false, i32 0, i32 0, null, i32 256, i1 false, null, null, i32 0, metadata !99, i32 1563} ; [ DW_TAG_subprogram ]
!1203 = metadata !{i32 786453, i32 0, metadata !"", i32 0, i32 0, i64 0, i64 0, i64 0, i32 0, null, metadata !1204, i32 0, i32 0} ; [ DW_TAG_subroutine_type ]
!1204 = metadata !{null, metadata !1156, metadata !189, metadata !135}
!1205 = metadata !{i32 786478, i32 0, metadata !1140, metadata !"read", metadata !"read", metadata !"_ZNV11ap_int_baseILi32ELb1ELb1EE4readEv", metadata !87, i32 1584, metadata !1206, i1 false, i1 false, i32 0, i32 0, null, i32 256, i1 false, null, null, i32 0, metadata !99, i32 1584} ; [ DW_TAG_subprogram ]
!1206 = metadata !{i32 786453, i32 0, metadata !"", i32 0, i32 0, i64 0, i64 0, i64 0, i32 0, null, metadata !1207, i32 0, i32 0} ; [ DW_TAG_subroutine_type ]
!1207 = metadata !{metadata !1140, metadata !1208}
!1208 = metadata !{i32 786447, i32 0, metadata !"", i32 0, i32 0, i64 64, i64 64, i64 0, i32 64, metadata !1209} ; [ DW_TAG_pointer_type ]
!1209 = metadata !{i32 786485, null, metadata !"", null, i32 0, i64 0, i64 0, i64 0, i32 0, metadata !1140} ; [ DW_TAG_volatile_type ]
!1210 = metadata !{i32 786478, i32 0, metadata !1140, metadata !"write", metadata !"write", metadata !"_ZNV11ap_int_baseILi32ELb1ELb1EE5writeERKS0_", metadata !87, i32 1590, metadata !1211, i1 false, i1 false, i32 0, i32 0, null, i32 256, i1 false, null, null, i32 0, metadata !99, i32 1590} ; [ DW_TAG_subprogram ]
!1211 = metadata !{i32 786453, i32 0, metadata !"", i32 0, i32 0, i64 0, i64 0, i64 0, i32 0, null, metadata !1212, i32 0, i32 0} ; [ DW_TAG_subroutine_type ]
!1212 = metadata !{null, metadata !1208, metadata !1138}
!1213 = metadata !{i32 786478, i32 0, metadata !1140, metadata !"operator=", metadata !"operator=", metadata !"_ZNV11ap_int_baseILi32ELb1ELb1EEaSERVKS0_", metadata !87, i32 1602, metadata !1214, i1 false, i1 false, i32 0, i32 0, null, i32 256, i1 false, null, null, i32 0, metadata !99, i32 1602} ; [ DW_TAG_subprogram ]
!1214 = metadata !{i32 786453, i32 0, metadata !"", i32 0, i32 0, i64 0, i64 0, i64 0, i32 0, null, metadata !1215, i32 0, i32 0} ; [ DW_TAG_subroutine_type ]
!1215 = metadata !{null, metadata !1208, metadata !1216}
!1216 = metadata !{i32 786448, null, null, null, i32 0, i64 0, i64 0, i64 0, i32 0, metadata !1217} ; [ DW_TAG_reference_type ]
!1217 = metadata !{i32 786470, null, metadata !"", null, i32 0, i64 0, i64 0, i64 0, i32 0, metadata !1209} ; [ DW_TAG_const_type ]
!1218 = metadata !{i32 786478, i32 0, metadata !1140, metadata !"operator=", metadata !"operator=", metadata !"_ZNV11ap_int_baseILi32ELb1ELb1EEaSERKS0_", metadata !87, i32 1611, metadata !1211, i1 false, i1 false, i32 0, i32 0, null, i32 256, i1 false, null, null, i32 0, metadata !99, i32 1611} ; [ DW_TAG_subprogram ]
!1219 = metadata !{i32 786478, i32 0, metadata !1140, metadata !"operator=", metadata !"operator=", metadata !"_ZN11ap_int_baseILi32ELb1ELb1EEaSERVKS0_", metadata !87, i32 1634, metadata !1220, i1 false, i1 false, i32 0, i32 0, null, i32 256, i1 false, null, null, i32 0, metadata !99, i32 1634} ; [ DW_TAG_subprogram ]
!1220 = metadata !{i32 786453, i32 0, metadata !"", i32 0, i32 0, i64 0, i64 0, i64 0, i32 0, null, metadata !1221, i32 0, i32 0} ; [ DW_TAG_subroutine_type ]
!1221 = metadata !{metadata !1222, metadata !1156, metadata !1216}
!1222 = metadata !{i32 786448, null, null, null, i32 0, i64 0, i64 0, i64 0, i32 0, metadata !1140} ; [ DW_TAG_reference_type ]
!1223 = metadata !{i32 786478, i32 0, metadata !1140, metadata !"operator=", metadata !"operator=", metadata !"_ZN11ap_int_baseILi32ELb1ELb1EEaSERKS0_", metadata !87, i32 1639, metadata !1224, i1 false, i1 false, i32 0, i32 0, null, i32 256, i1 false, null, null, i32 0, metadata !99, i32 1639} ; [ DW_TAG_subprogram ]
!1224 = metadata !{i32 786453, i32 0, metadata !"", i32 0, i32 0, i64 0, i64 0, i64 0, i32 0, null, metadata !1225, i32 0, i32 0} ; [ DW_TAG_subroutine_type ]
!1225 = metadata !{metadata !1222, metadata !1156, metadata !1138}
!1226 = metadata !{i32 786478, i32 0, metadata !1140, metadata !"operator=", metadata !"operator=", metadata !"_ZN11ap_int_baseILi32ELb1ELb1EEaSEPKc", metadata !87, i32 1643, metadata !1227, i1 false, i1 false, i32 0, i32 0, null, i32 256, i1 false, null, null, i32 0, metadata !99, i32 1643} ; [ DW_TAG_subprogram ]
!1227 = metadata !{i32 786453, i32 0, metadata !"", i32 0, i32 0, i64 0, i64 0, i64 0, i32 0, null, metadata !1228, i32 0, i32 0} ; [ DW_TAG_subroutine_type ]
!1228 = metadata !{metadata !1222, metadata !1156, metadata !189}
!1229 = metadata !{i32 786478, i32 0, metadata !1140, metadata !"set", metadata !"set", metadata !"_ZN11ap_int_baseILi32ELb1ELb1EE3setEPKca", metadata !87, i32 1651, metadata !1230, i1 false, i1 false, i32 0, i32 0, null, i32 256, i1 false, null, null, i32 0, metadata !99, i32 1651} ; [ DW_TAG_subprogram ]
!1230 = metadata !{i32 786453, i32 0, metadata !"", i32 0, i32 0, i64 0, i64 0, i64 0, i32 0, null, metadata !1231, i32 0, i32 0} ; [ DW_TAG_subroutine_type ]
!1231 = metadata !{metadata !1222, metadata !1156, metadata !189, metadata !135}
!1232 = metadata !{i32 786478, i32 0, metadata !1140, metadata !"operator=", metadata !"operator=", metadata !"_ZN11ap_int_baseILi32ELb1ELb1EEaSEa", metadata !87, i32 1665, metadata !1233, i1 false, i1 false, i32 0, i32 0, null, i32 256, i1 false, null, null, i32 0, metadata !99, i32 1665} ; [ DW_TAG_subprogram ]
!1233 = metadata !{i32 786453, i32 0, metadata !"", i32 0, i32 0, i64 0, i64 0, i64 0, i32 0, null, metadata !1234, i32 0, i32 0} ; [ DW_TAG_subroutine_type ]
!1234 = metadata !{metadata !1222, metadata !1156, metadata !135}
!1235 = metadata !{i32 786478, i32 0, metadata !1140, metadata !"operator=", metadata !"operator=", metadata !"_ZN11ap_int_baseILi32ELb1ELb1EEaSEh", metadata !87, i32 1666, metadata !1236, i1 false, i1 false, i32 0, i32 0, null, i32 256, i1 false, null, null, i32 0, metadata !99, i32 1666} ; [ DW_TAG_subprogram ]
!1236 = metadata !{i32 786453, i32 0, metadata !"", i32 0, i32 0, i64 0, i64 0, i64 0, i32 0, null, metadata !1237, i32 0, i32 0} ; [ DW_TAG_subroutine_type ]
!1237 = metadata !{metadata !1222, metadata !1156, metadata !139}
!1238 = metadata !{i32 786478, i32 0, metadata !1140, metadata !"operator=", metadata !"operator=", metadata !"_ZN11ap_int_baseILi32ELb1ELb1EEaSEs", metadata !87, i32 1667, metadata !1239, i1 false, i1 false, i32 0, i32 0, null, i32 256, i1 false, null, null, i32 0, metadata !99, i32 1667} ; [ DW_TAG_subprogram ]
!1239 = metadata !{i32 786453, i32 0, metadata !"", i32 0, i32 0, i64 0, i64 0, i64 0, i32 0, null, metadata !1240, i32 0, i32 0} ; [ DW_TAG_subroutine_type ]
!1240 = metadata !{metadata !1222, metadata !1156, metadata !143}
!1241 = metadata !{i32 786478, i32 0, metadata !1140, metadata !"operator=", metadata !"operator=", metadata !"_ZN11ap_int_baseILi32ELb1ELb1EEaSEt", metadata !87, i32 1668, metadata !1242, i1 false, i1 false, i32 0, i32 0, null, i32 256, i1 false, null, null, i32 0, metadata !99, i32 1668} ; [ DW_TAG_subprogram ]
!1242 = metadata !{i32 786453, i32 0, metadata !"", i32 0, i32 0, i64 0, i64 0, i64 0, i32 0, null, metadata !1243, i32 0, i32 0} ; [ DW_TAG_subroutine_type ]
!1243 = metadata !{metadata !1222, metadata !1156, metadata !147}
!1244 = metadata !{i32 786478, i32 0, metadata !1140, metadata !"operator=", metadata !"operator=", metadata !"_ZN11ap_int_baseILi32ELb1ELb1EEaSEi", metadata !87, i32 1669, metadata !1245, i1 false, i1 false, i32 0, i32 0, null, i32 256, i1 false, null, null, i32 0, metadata !99, i32 1669} ; [ DW_TAG_subprogram ]
!1245 = metadata !{i32 786453, i32 0, metadata !"", i32 0, i32 0, i64 0, i64 0, i64 0, i32 0, null, metadata !1246, i32 0, i32 0} ; [ DW_TAG_subroutine_type ]
!1246 = metadata !{metadata !1222, metadata !1156, metadata !108}
!1247 = metadata !{i32 786478, i32 0, metadata !1140, metadata !"operator=", metadata !"operator=", metadata !"_ZN11ap_int_baseILi32ELb1ELb1EEaSEj", metadata !87, i32 1670, metadata !1248, i1 false, i1 false, i32 0, i32 0, null, i32 256, i1 false, null, null, i32 0, metadata !99, i32 1670} ; [ DW_TAG_subprogram ]
!1248 = metadata !{i32 786453, i32 0, metadata !"", i32 0, i32 0, i64 0, i64 0, i64 0, i32 0, null, metadata !1249, i32 0, i32 0} ; [ DW_TAG_subroutine_type ]
!1249 = metadata !{metadata !1222, metadata !1156, metadata !154}
!1250 = metadata !{i32 786478, i32 0, metadata !1140, metadata !"operator=", metadata !"operator=", metadata !"_ZN11ap_int_baseILi32ELb1ELb1EEaSEx", metadata !87, i32 1671, metadata !1251, i1 false, i1 false, i32 0, i32 0, null, i32 256, i1 false, null, null, i32 0, metadata !99, i32 1671} ; [ DW_TAG_subprogram ]
!1251 = metadata !{i32 786453, i32 0, metadata !"", i32 0, i32 0, i64 0, i64 0, i64 0, i32 0, null, metadata !1252, i32 0, i32 0} ; [ DW_TAG_subroutine_type ]
!1252 = metadata !{metadata !1222, metadata !1156, metadata !166}
!1253 = metadata !{i32 786478, i32 0, metadata !1140, metadata !"operator=", metadata !"operator=", metadata !"_ZN11ap_int_baseILi32ELb1ELb1EEaSEy", metadata !87, i32 1672, metadata !1254, i1 false, i1 false, i32 0, i32 0, null, i32 256, i1 false, null, null, i32 0, metadata !99, i32 1672} ; [ DW_TAG_subprogram ]
!1254 = metadata !{i32 786453, i32 0, metadata !"", i32 0, i32 0, i64 0, i64 0, i64 0, i32 0, null, metadata !1255, i32 0, i32 0} ; [ DW_TAG_subroutine_type ]
!1255 = metadata !{metadata !1222, metadata !1156, metadata !171}
!1256 = metadata !{i32 786478, i32 0, metadata !1140, metadata !"operator int", metadata !"operator int", metadata !"_ZNK11ap_int_baseILi32ELb1ELb1EEcviEv", metadata !87, i32 1710, metadata !1257, i1 false, i1 false, i32 0, i32 0, null, i32 256, i1 false, null, null, i32 0, metadata !99, i32 1710} ; [ DW_TAG_subprogram ]
!1257 = metadata !{i32 786453, i32 0, metadata !"", i32 0, i32 0, i64 0, i64 0, i64 0, i32 0, null, metadata !1258, i32 0, i32 0} ; [ DW_TAG_subroutine_type ]
!1258 = metadata !{metadata !1259, metadata !1264}
!1259 = metadata !{i32 786454, metadata !1140, metadata !"RetType", metadata !87, i32 1458, i64 0, i64 0, i64 0, i32 0, metadata !1260} ; [ DW_TAG_typedef ]
!1260 = metadata !{i32 786454, metadata !1261, metadata !"Type", metadata !87, i32 1441, i64 0, i64 0, i64 0, i32 0, metadata !108} ; [ DW_TAG_typedef ]
!1261 = metadata !{i32 786434, null, metadata !"retval<4, true>", metadata !87, i32 1440, i64 8, i64 8, i32 0, i32 0, null, metadata !249, i32 0, null, metadata !1262} ; [ DW_TAG_class_type ]
!1262 = metadata !{metadata !1263, metadata !343}
!1263 = metadata !{i32 786480, null, metadata !"_AP_N", metadata !108, i64 4, null, i32 0, i32 0} ; [ DW_TAG_template_value_parameter ]
!1264 = metadata !{i32 786447, i32 0, metadata !"", i32 0, i32 0, i64 64, i64 64, i64 0, i32 64, metadata !1139} ; [ DW_TAG_pointer_type ]
!1265 = metadata !{i32 786478, i32 0, metadata !1140, metadata !"to_bool", metadata !"to_bool", metadata !"_ZNK11ap_int_baseILi32ELb1ELb1EE7to_boolEv", metadata !87, i32 1716, metadata !1266, i1 false, i1 false, i32 0, i32 0, null, i32 256, i1 false, null, null, i32 0, metadata !99, i32 1716} ; [ DW_TAG_subprogram ]
!1266 = metadata !{i32 786453, i32 0, metadata !"", i32 0, i32 0, i64 0, i64 0, i64 0, i32 0, null, metadata !1267, i32 0, i32 0} ; [ DW_TAG_subroutine_type ]
!1267 = metadata !{metadata !110, metadata !1264}
!1268 = metadata !{i32 786478, i32 0, metadata !1140, metadata !"to_uchar", metadata !"to_uchar", metadata !"_ZNK11ap_int_baseILi32ELb1ELb1EE8to_ucharEv", metadata !87, i32 1717, metadata !1269, i1 false, i1 false, i32 0, i32 0, null, i32 256, i1 false, null, null, i32 0, metadata !99, i32 1717} ; [ DW_TAG_subprogram ]
!1269 = metadata !{i32 786453, i32 0, metadata !"", i32 0, i32 0, i64 0, i64 0, i64 0, i32 0, null, metadata !1270, i32 0, i32 0} ; [ DW_TAG_subroutine_type ]
!1270 = metadata !{metadata !139, metadata !1264}
!1271 = metadata !{i32 786478, i32 0, metadata !1140, metadata !"to_char", metadata !"to_char", metadata !"_ZNK11ap_int_baseILi32ELb1ELb1EE7to_charEv", metadata !87, i32 1718, metadata !1272, i1 false, i1 false, i32 0, i32 0, null, i32 256, i1 false, null, null, i32 0, metadata !99, i32 1718} ; [ DW_TAG_subprogram ]
!1272 = metadata !{i32 786453, i32 0, metadata !"", i32 0, i32 0, i64 0, i64 0, i64 0, i32 0, null, metadata !1273, i32 0, i32 0} ; [ DW_TAG_subroutine_type ]
!1273 = metadata !{metadata !135, metadata !1264}
!1274 = metadata !{i32 786478, i32 0, metadata !1140, metadata !"to_ushort", metadata !"to_ushort", metadata !"_ZNK11ap_int_baseILi32ELb1ELb1EE9to_ushortEv", metadata !87, i32 1719, metadata !1275, i1 false, i1 false, i32 0, i32 0, null, i32 256, i1 false, null, null, i32 0, metadata !99, i32 1719} ; [ DW_TAG_subprogram ]
!1275 = metadata !{i32 786453, i32 0, metadata !"", i32 0, i32 0, i64 0, i64 0, i64 0, i32 0, null, metadata !1276, i32 0, i32 0} ; [ DW_TAG_subroutine_type ]
!1276 = metadata !{metadata !147, metadata !1264}
!1277 = metadata !{i32 786478, i32 0, metadata !1140, metadata !"to_short", metadata !"to_short", metadata !"_ZNK11ap_int_baseILi32ELb1ELb1EE8to_shortEv", metadata !87, i32 1720, metadata !1278, i1 false, i1 false, i32 0, i32 0, null, i32 256, i1 false, null, null, i32 0, metadata !99, i32 1720} ; [ DW_TAG_subprogram ]
!1278 = metadata !{i32 786453, i32 0, metadata !"", i32 0, i32 0, i64 0, i64 0, i64 0, i32 0, null, metadata !1279, i32 0, i32 0} ; [ DW_TAG_subroutine_type ]
!1279 = metadata !{metadata !143, metadata !1264}
!1280 = metadata !{i32 786478, i32 0, metadata !1140, metadata !"to_int", metadata !"to_int", metadata !"_ZNK11ap_int_baseILi32ELb1ELb1EE6to_intEv", metadata !87, i32 1721, metadata !1281, i1 false, i1 false, i32 0, i32 0, null, i32 256, i1 false, null, null, i32 0, metadata !99, i32 1721} ; [ DW_TAG_subprogram ]
!1281 = metadata !{i32 786453, i32 0, metadata !"", i32 0, i32 0, i64 0, i64 0, i64 0, i32 0, null, metadata !1282, i32 0, i32 0} ; [ DW_TAG_subroutine_type ]
!1282 = metadata !{metadata !108, metadata !1264}
!1283 = metadata !{i32 786478, i32 0, metadata !1140, metadata !"to_uint", metadata !"to_uint", metadata !"_ZNK11ap_int_baseILi32ELb1ELb1EE7to_uintEv", metadata !87, i32 1722, metadata !1284, i1 false, i1 false, i32 0, i32 0, null, i32 256, i1 false, null, null, i32 0, metadata !99, i32 1722} ; [ DW_TAG_subprogram ]
!1284 = metadata !{i32 786453, i32 0, metadata !"", i32 0, i32 0, i64 0, i64 0, i64 0, i32 0, null, metadata !1285, i32 0, i32 0} ; [ DW_TAG_subroutine_type ]
!1285 = metadata !{metadata !154, metadata !1264}
!1286 = metadata !{i32 786478, i32 0, metadata !1140, metadata !"to_long", metadata !"to_long", metadata !"_ZNK11ap_int_baseILi32ELb1ELb1EE7to_longEv", metadata !87, i32 1723, metadata !1287, i1 false, i1 false, i32 0, i32 0, null, i32 256, i1 false, null, null, i32 0, metadata !99, i32 1723} ; [ DW_TAG_subprogram ]
!1287 = metadata !{i32 786453, i32 0, metadata !"", i32 0, i32 0, i64 0, i64 0, i64 0, i32 0, null, metadata !1288, i32 0, i32 0} ; [ DW_TAG_subroutine_type ]
!1288 = metadata !{metadata !158, metadata !1264}
!1289 = metadata !{i32 786478, i32 0, metadata !1140, metadata !"to_ulong", metadata !"to_ulong", metadata !"_ZNK11ap_int_baseILi32ELb1ELb1EE8to_ulongEv", metadata !87, i32 1724, metadata !1290, i1 false, i1 false, i32 0, i32 0, null, i32 256, i1 false, null, null, i32 0, metadata !99, i32 1724} ; [ DW_TAG_subprogram ]
!1290 = metadata !{i32 786453, i32 0, metadata !"", i32 0, i32 0, i64 0, i64 0, i64 0, i32 0, null, metadata !1291, i32 0, i32 0} ; [ DW_TAG_subroutine_type ]
!1291 = metadata !{metadata !162, metadata !1264}
!1292 = metadata !{i32 786478, i32 0, metadata !1140, metadata !"to_int64", metadata !"to_int64", metadata !"_ZNK11ap_int_baseILi32ELb1ELb1EE8to_int64Ev", metadata !87, i32 1725, metadata !1293, i1 false, i1 false, i32 0, i32 0, null, i32 256, i1 false, null, null, i32 0, metadata !99, i32 1725} ; [ DW_TAG_subprogram ]
!1293 = metadata !{i32 786453, i32 0, metadata !"", i32 0, i32 0, i64 0, i64 0, i64 0, i32 0, null, metadata !1294, i32 0, i32 0} ; [ DW_TAG_subroutine_type ]
!1294 = metadata !{metadata !166, metadata !1264}
!1295 = metadata !{i32 786478, i32 0, metadata !1140, metadata !"to_uint64", metadata !"to_uint64", metadata !"_ZNK11ap_int_baseILi32ELb1ELb1EE9to_uint64Ev", metadata !87, i32 1726, metadata !1296, i1 false, i1 false, i32 0, i32 0, null, i32 256, i1 false, null, null, i32 0, metadata !99, i32 1726} ; [ DW_TAG_subprogram ]
!1296 = metadata !{i32 786453, i32 0, metadata !"", i32 0, i32 0, i64 0, i64 0, i64 0, i32 0, null, metadata !1297, i32 0, i32 0} ; [ DW_TAG_subroutine_type ]
!1297 = metadata !{metadata !171, metadata !1264}
!1298 = metadata !{i32 786478, i32 0, metadata !1140, metadata !"to_double", metadata !"to_double", metadata !"_ZNK11ap_int_baseILi32ELb1ELb1EE9to_doubleEv", metadata !87, i32 1727, metadata !1299, i1 false, i1 false, i32 0, i32 0, null, i32 256, i1 false, null, null, i32 0, metadata !99, i32 1727} ; [ DW_TAG_subprogram ]
!1299 = metadata !{i32 786453, i32 0, metadata !"", i32 0, i32 0, i64 0, i64 0, i64 0, i32 0, null, metadata !1300, i32 0, i32 0} ; [ DW_TAG_subroutine_type ]
!1300 = metadata !{metadata !185, metadata !1264}
!1301 = metadata !{i32 786478, i32 0, metadata !1140, metadata !"length", metadata !"length", metadata !"_ZNK11ap_int_baseILi32ELb1ELb1EE6lengthEv", metadata !87, i32 1741, metadata !1281, i1 false, i1 false, i32 0, i32 0, null, i32 256, i1 false, null, null, i32 0, metadata !99, i32 1741} ; [ DW_TAG_subprogram ]
!1302 = metadata !{i32 786478, i32 0, metadata !1140, metadata !"length", metadata !"length", metadata !"_ZNVK11ap_int_baseILi32ELb1ELb1EE6lengthEv", metadata !87, i32 1742, metadata !1303, i1 false, i1 false, i32 0, i32 0, null, i32 256, i1 false, null, null, i32 0, metadata !99, i32 1742} ; [ DW_TAG_subprogram ]
!1303 = metadata !{i32 786453, i32 0, metadata !"", i32 0, i32 0, i64 0, i64 0, i64 0, i32 0, null, metadata !1304, i32 0, i32 0} ; [ DW_TAG_subroutine_type ]
!1304 = metadata !{metadata !108, metadata !1305}
!1305 = metadata !{i32 786447, i32 0, metadata !"", i32 0, i32 0, i64 64, i64 64, i64 0, i32 64, metadata !1217} ; [ DW_TAG_pointer_type ]
!1306 = metadata !{i32 786478, i32 0, metadata !1140, metadata !"reverse", metadata !"reverse", metadata !"_ZN11ap_int_baseILi32ELb1ELb1EE7reverseEv", metadata !87, i32 1747, metadata !1307, i1 false, i1 false, i32 0, i32 0, null, i32 256, i1 false, null, null, i32 0, metadata !99, i32 1747} ; [ DW_TAG_subprogram ]
!1307 = metadata !{i32 786453, i32 0, metadata !"", i32 0, i32 0, i64 0, i64 0, i64 0, i32 0, null, metadata !1308, i32 0, i32 0} ; [ DW_TAG_subroutine_type ]
!1308 = metadata !{metadata !1222, metadata !1156}
!1309 = metadata !{i32 786478, i32 0, metadata !1140, metadata !"iszero", metadata !"iszero", metadata !"_ZNK11ap_int_baseILi32ELb1ELb1EE6iszeroEv", metadata !87, i32 1753, metadata !1266, i1 false, i1 false, i32 0, i32 0, null, i32 256, i1 false, null, null, i32 0, metadata !99, i32 1753} ; [ DW_TAG_subprogram ]
!1310 = metadata !{i32 786478, i32 0, metadata !1140, metadata !"is_zero", metadata !"is_zero", metadata !"_ZNK11ap_int_baseILi32ELb1ELb1EE7is_zeroEv", metadata !87, i32 1758, metadata !1266, i1 false, i1 false, i32 0, i32 0, null, i32 256, i1 false, null, null, i32 0, metadata !99, i32 1758} ; [ DW_TAG_subprogram ]
!1311 = metadata !{i32 786478, i32 0, metadata !1140, metadata !"sign", metadata !"sign", metadata !"_ZNK11ap_int_baseILi32ELb1ELb1EE4signEv", metadata !87, i32 1763, metadata !1266, i1 false, i1 false, i32 0, i32 0, null, i32 256, i1 false, null, null, i32 0, metadata !99, i32 1763} ; [ DW_TAG_subprogram ]
!1312 = metadata !{i32 786478, i32 0, metadata !1140, metadata !"clear", metadata !"clear", metadata !"_ZN11ap_int_baseILi32ELb1ELb1EE5clearEi", metadata !87, i32 1771, metadata !1173, i1 false, i1 false, i32 0, i32 0, null, i32 256, i1 false, null, null, i32 0, metadata !99, i32 1771} ; [ DW_TAG_subprogram ]
!1313 = metadata !{i32 786478, i32 0, metadata !1140, metadata !"invert", metadata !"invert", metadata !"_ZN11ap_int_baseILi32ELb1ELb1EE6invertEi", metadata !87, i32 1777, metadata !1173, i1 false, i1 false, i32 0, i32 0, null, i32 256, i1 false, null, null, i32 0, metadata !99, i32 1777} ; [ DW_TAG_subprogram ]
!1314 = metadata !{i32 786478, i32 0, metadata !1140, metadata !"test", metadata !"test", metadata !"_ZNK11ap_int_baseILi32ELb1ELb1EE4testEi", metadata !87, i32 1785, metadata !1315, i1 false, i1 false, i32 0, i32 0, null, i32 256, i1 false, null, null, i32 0, metadata !99, i32 1785} ; [ DW_TAG_subprogram ]
!1315 = metadata !{i32 786453, i32 0, metadata !"", i32 0, i32 0, i64 0, i64 0, i64 0, i32 0, null, metadata !1316, i32 0, i32 0} ; [ DW_TAG_subroutine_type ]
!1316 = metadata !{metadata !110, metadata !1264, metadata !108}
!1317 = metadata !{i32 786478, i32 0, metadata !1140, metadata !"set", metadata !"set", metadata !"_ZN11ap_int_baseILi32ELb1ELb1EE3setEi", metadata !87, i32 1791, metadata !1173, i1 false, i1 false, i32 0, i32 0, null, i32 256, i1 false, null, null, i32 0, metadata !99, i32 1791} ; [ DW_TAG_subprogram ]
!1318 = metadata !{i32 786478, i32 0, metadata !1140, metadata !"set", metadata !"set", metadata !"_ZN11ap_int_baseILi32ELb1ELb1EE3setEib", metadata !87, i32 1797, metadata !1319, i1 false, i1 false, i32 0, i32 0, null, i32 256, i1 false, null, null, i32 0, metadata !99, i32 1797} ; [ DW_TAG_subprogram ]
!1319 = metadata !{i32 786453, i32 0, metadata !"", i32 0, i32 0, i64 0, i64 0, i64 0, i32 0, null, metadata !1320, i32 0, i32 0} ; [ DW_TAG_subroutine_type ]
!1320 = metadata !{null, metadata !1156, metadata !108, metadata !110}
!1321 = metadata !{i32 786478, i32 0, metadata !1140, metadata !"lrotate", metadata !"lrotate", metadata !"_ZN11ap_int_baseILi32ELb1ELb1EE7lrotateEi", metadata !87, i32 1804, metadata !1173, i1 false, i1 false, i32 0, i32 0, null, i32 256, i1 false, null, null, i32 0, metadata !99, i32 1804} ; [ DW_TAG_subprogram ]
!1322 = metadata !{i32 786478, i32 0, metadata !1140, metadata !"rrotate", metadata !"rrotate", metadata !"_ZN11ap_int_baseILi32ELb1ELb1EE7rrotateEi", metadata !87, i32 1813, metadata !1173, i1 false, i1 false, i32 0, i32 0, null, i32 256, i1 false, null, null, i32 0, metadata !99, i32 1813} ; [ DW_TAG_subprogram ]
!1323 = metadata !{i32 786478, i32 0, metadata !1140, metadata !"set_bit", metadata !"set_bit", metadata !"_ZN11ap_int_baseILi32ELb1ELb1EE7set_bitEib", metadata !87, i32 1821, metadata !1319, i1 false, i1 false, i32 0, i32 0, null, i32 256, i1 false, null, null, i32 0, metadata !99, i32 1821} ; [ DW_TAG_subprogram ]
!1324 = metadata !{i32 786478, i32 0, metadata !1140, metadata !"get_bit", metadata !"get_bit", metadata !"_ZNK11ap_int_baseILi32ELb1ELb1EE7get_bitEi", metadata !87, i32 1826, metadata !1315, i1 false, i1 false, i32 0, i32 0, null, i32 256, i1 false, null, null, i32 0, metadata !99, i32 1826} ; [ DW_TAG_subprogram ]
!1325 = metadata !{i32 786478, i32 0, metadata !1140, metadata !"b_not", metadata !"b_not", metadata !"_ZN11ap_int_baseILi32ELb1ELb1EE5b_notEv", metadata !87, i32 1831, metadata !1154, i1 false, i1 false, i32 0, i32 0, null, i32 256, i1 false, null, null, i32 0, metadata !99, i32 1831} ; [ DW_TAG_subprogram ]
!1326 = metadata !{i32 786478, i32 0, metadata !1140, metadata !"countLeadingZeros", metadata !"countLeadingZeros", metadata !"_ZN11ap_int_baseILi32ELb1ELb1EE17countLeadingZerosEv", metadata !87, i32 1838, metadata !1327, i1 false, i1 false, i32 0, i32 0, null, i32 256, i1 false, null, null, i32 0, metadata !99, i32 1838} ; [ DW_TAG_subprogram ]
!1327 = metadata !{i32 786453, i32 0, metadata !"", i32 0, i32 0, i64 0, i64 0, i64 0, i32 0, null, metadata !1328, i32 0, i32 0} ; [ DW_TAG_subroutine_type ]
!1328 = metadata !{metadata !108, metadata !1156}
!1329 = metadata !{i32 786478, i32 0, metadata !1140, metadata !"operator++", metadata !"operator++", metadata !"_ZN11ap_int_baseILi32ELb1ELb1EEppEv", metadata !87, i32 1895, metadata !1307, i1 false, i1 false, i32 0, i32 0, null, i32 256, i1 false, null, null, i32 0, metadata !99, i32 1895} ; [ DW_TAG_subprogram ]
!1330 = metadata !{i32 786478, i32 0, metadata !1140, metadata !"operator--", metadata !"operator--", metadata !"_ZN11ap_int_baseILi32ELb1ELb1EEmmEv", metadata !87, i32 1899, metadata !1307, i1 false, i1 false, i32 0, i32 0, null, i32 256, i1 false, null, null, i32 0, metadata !99, i32 1899} ; [ DW_TAG_subprogram ]
!1331 = metadata !{i32 786478, i32 0, metadata !1140, metadata !"operator++", metadata !"operator++", metadata !"_ZN11ap_int_baseILi32ELb1ELb1EEppEi", metadata !87, i32 1907, metadata !1332, i1 false, i1 false, i32 0, i32 0, null, i32 256, i1 false, null, null, i32 0, metadata !99, i32 1907} ; [ DW_TAG_subprogram ]
!1332 = metadata !{i32 786453, i32 0, metadata !"", i32 0, i32 0, i64 0, i64 0, i64 0, i32 0, null, metadata !1333, i32 0, i32 0} ; [ DW_TAG_subroutine_type ]
!1333 = metadata !{metadata !1139, metadata !1156, metadata !108}
!1334 = metadata !{i32 786478, i32 0, metadata !1140, metadata !"operator--", metadata !"operator--", metadata !"_ZN11ap_int_baseILi32ELb1ELb1EEmmEi", metadata !87, i32 1912, metadata !1332, i1 false, i1 false, i32 0, i32 0, null, i32 256, i1 false, null, null, i32 0, metadata !99, i32 1912} ; [ DW_TAG_subprogram ]
!1335 = metadata !{i32 786478, i32 0, metadata !1140, metadata !"operator+", metadata !"operator+", metadata !"_ZNK11ap_int_baseILi32ELb1ELb1EEpsEv", metadata !87, i32 1921, metadata !1336, i1 false, i1 false, i32 0, i32 0, null, i32 256, i1 false, null, null, i32 0, metadata !99, i32 1921} ; [ DW_TAG_subprogram ]
!1336 = metadata !{i32 786453, i32 0, metadata !"", i32 0, i32 0, i64 0, i64 0, i64 0, i32 0, null, metadata !1337, i32 0, i32 0} ; [ DW_TAG_subroutine_type ]
!1337 = metadata !{metadata !1140, metadata !1264}
!1338 = metadata !{i32 786478, i32 0, metadata !1140, metadata !"operator!", metadata !"operator!", metadata !"_ZNK11ap_int_baseILi32ELb1ELb1EEntEv", metadata !87, i32 1927, metadata !1266, i1 false, i1 false, i32 0, i32 0, null, i32 256, i1 false, null, null, i32 0, metadata !99, i32 1927} ; [ DW_TAG_subprogram ]
!1339 = metadata !{i32 786478, i32 0, metadata !1140, metadata !"operator-", metadata !"operator-", metadata !"_ZNK11ap_int_baseILi32ELb1ELb1EEngEv", metadata !87, i32 1932, metadata !1340, i1 false, i1 false, i32 0, i32 0, null, i32 256, i1 false, null, null, i32 0, metadata !99, i32 1932} ; [ DW_TAG_subprogram ]
!1340 = metadata !{i32 786453, i32 0, metadata !"", i32 0, i32 0, i64 0, i64 0, i64 0, i32 0, null, metadata !1341, i32 0, i32 0} ; [ DW_TAG_subroutine_type ]
!1341 = metadata !{metadata !1342, metadata !1264}
!1342 = metadata !{i32 786434, null, metadata !"ap_int_base<33, true, true>", metadata !87, i32 1453, i64 64, i64 64, i32 0, i32 0, null, metadata !1343, i32 0, null, metadata !1621} ; [ DW_TAG_class_type ]
!1343 = metadata !{metadata !1344, metadata !1355, metadata !1359, metadata !1362, metadata !1365, metadata !1368, metadata !1371, metadata !1374, metadata !1377, metadata !1380, metadata !1383, metadata !1386, metadata !1389, metadata !1392, metadata !1395, metadata !1398, metadata !1401, metadata !1404, metadata !1407, metadata !1412, metadata !1417, metadata !1422, metadata !1423, metadata !1427, metadata !1430, metadata !1433, metadata !1436, metadata !1439, metadata !1442, metadata !1445, metadata !1448, metadata !1451, metadata !1454, metadata !1457, metadata !1460, metadata !1469, metadata !1472, metadata !1475, metadata !1478, metadata !1481, metadata !1484, metadata !1487, metadata !1490, metadata !1493, metadata !1496, metadata !1499, metadata !1502, metadata !1505, metadata !1506, metadata !1510, metadata !1513, metadata !1514, metadata !1515, metadata !1516, metadata !1517, metadata !1518, metadata !1521, metadata !1522, metadata !1525, metadata !1526, metadata !1527, metadata !1528, metadata !1529, metadata !1530, metadata !1533, metadata !1534, metadata !1535, metadata !1538, metadata !1539, metadata !1542, metadata !1543, metadata !1547, metadata !1551, metadata !1552, metadata !1555, metadata !1556, metadata !1595, metadata !1596, metadata !1597, metadata !1598, metadata !1601, metadata !1602, metadata !1603, metadata !1604, metadata !1605, metadata !1606, metadata !1607, metadata !1608, metadata !1609, metadata !1610, metadata !1611, metadata !1612, metadata !1615, metadata !1618}
!1344 = metadata !{i32 786460, metadata !1342, null, metadata !87, i32 0, i64 0, i64 0, i64 0, i32 0, metadata !1345} ; [ DW_TAG_inheritance ]
!1345 = metadata !{i32 786434, null, metadata !"ssdm_int<33 + 1024 * 0, true>", metadata !91, i32 35, i64 64, i64 64, i32 0, i32 0, null, metadata !1346, i32 0, null, metadata !1353} ; [ DW_TAG_class_type ]
!1346 = metadata !{metadata !1347, metadata !1349}
!1347 = metadata !{i32 786445, metadata !1345, metadata !"V", metadata !91, i32 35, i64 33, i64 64, i64 0, i32 0, metadata !1348} ; [ DW_TAG_member ]
!1348 = metadata !{i32 786468, null, metadata !"int33", null, i32 0, i64 33, i64 64, i64 0, i32 0, i32 5} ; [ DW_TAG_base_type ]
!1349 = metadata !{i32 786478, i32 0, metadata !1345, metadata !"ssdm_int", metadata !"ssdm_int", metadata !"", metadata !91, i32 35, metadata !1350, i1 false, i1 false, i32 0, i32 0, null, i32 256, i1 false, null, null, i32 0, metadata !99, i32 35} ; [ DW_TAG_subprogram ]
!1350 = metadata !{i32 786453, i32 0, metadata !"", i32 0, i32 0, i64 0, i64 0, i64 0, i32 0, null, metadata !1351, i32 0, i32 0} ; [ DW_TAG_subroutine_type ]
!1351 = metadata !{null, metadata !1352}
!1352 = metadata !{i32 786447, i32 0, metadata !"", i32 0, i32 0, i64 64, i64 64, i64 0, i32 64, metadata !1345} ; [ DW_TAG_pointer_type ]
!1353 = metadata !{metadata !1354, metadata !343}
!1354 = metadata !{i32 786480, null, metadata !"_AP_N", metadata !108, i64 33, null, i32 0, i32 0} ; [ DW_TAG_template_value_parameter ]
!1355 = metadata !{i32 786478, i32 0, metadata !1342, metadata !"ap_int_base", metadata !"ap_int_base", metadata !"", metadata !87, i32 1494, metadata !1356, i1 false, i1 false, i32 0, i32 0, null, i32 256, i1 false, null, null, i32 0, metadata !99, i32 1494} ; [ DW_TAG_subprogram ]
!1356 = metadata !{i32 786453, i32 0, metadata !"", i32 0, i32 0, i64 0, i64 0, i64 0, i32 0, null, metadata !1357, i32 0, i32 0} ; [ DW_TAG_subroutine_type ]
