; ModuleID = '/home/iavendano/pynq-copter/pynqcopter/ip/iiccomm4/iiccomm4/iiccomm4/.autopilot/db/a.o.3.bc'
target datalayout = "e-p:64:64:64-i1:8:8-i8:8:8-i16:16:16-i32:32:32-i64:64:64-f32:32:32-f64:64:64-v64:64:64-v128:128:128-a0:0:64-s0:64:64-f80:128:128-n8:16:32:64-S128"
target triple = "x86_64-unknown-linux-gnu"

@memset_sensorData_st = internal unnamed_addr constant [18 x i8] c"memset_sensorData\00" ; [#uses=1 type=[18 x i8]*]
@llvm_global_ctors_1 = appending global [0 x void ()*] zeroinitializer ; [#uses=0 type=[0 x void ()*]*]
@llvm_global_ctors_0 = appending global [0 x i32] zeroinitializer ; [#uses=0 type=[0 x i32]*]
@iiccomm4_str = internal unnamed_addr constant [9 x i8] c"iiccomm4\00" ; [#uses=1 type=[9 x i8]*]
@delay_until_ms_MD_60 = internal unnamed_addr constant [43 x i8] c"delay_until_ms<600ull, 50000000ull>.region\00" ; [#uses=2 type=[43 x i8]*]
@delay_until_ms_MD_10 = internal unnamed_addr constant [42 x i8] c"delay_until_ms<10ull, 50000000ull>.region\00" ; [#uses=4 type=[42 x i8]*]
@p_str2 = private unnamed_addr constant [6 x i8] c"m_axi\00", align 1 ; [#uses=1 type=[6 x i8]*]
@p_str1 = private unnamed_addr constant [1 x i8] zeroinitializer, align 1 ; [#uses=69 type=[1 x i8]*]
@p_str = private unnamed_addr constant [10 x i8] c"s_axilite\00", align 1 ; [#uses=10 type=[10 x i8]*]

; [#uses=29]
declare void @llvm.dbg.value(metadata, i64, metadata) nounwind readnone

; [#uses=0]
define void @iiccomm4(i32* %iic, i32* %empty_pirq_outValue, i32* %full_pirq_outValue, i32* %ctrl_reg_outValue, i32* %stat_reg_outValue1, i32* %stat_reg_val2, i32* %pressure_msb, i32* %pressure_lsb, i32* %pressure_xlsb, i32* %operation) {
  %sensorData = alloca i32                        ; [#uses=2 type=i32*]
  %sensorData_1 = alloca i32                      ; [#uses=2 type=i32*]
  %sensorData_2 = alloca i32                      ; [#uses=2 type=i32*]
  call void (...)* @_ssdm_op_SpecBitsMap(i32* %iic), !map !37
  call void (...)* @_ssdm_op_SpecBitsMap(i32* %empty_pirq_outValue) nounwind, !map !43
  call void (...)* @_ssdm_op_SpecBitsMap(i32* %full_pirq_outValue) nounwind, !map !47
  call void (...)* @_ssdm_op_SpecBitsMap(i32* %ctrl_reg_outValue) nounwind, !map !51
  call void (...)* @_ssdm_op_SpecBitsMap(i32* %stat_reg_outValue1) nounwind, !map !55
  call void (...)* @_ssdm_op_SpecBitsMap(i32* %stat_reg_val2) nounwind, !map !59
  call void (...)* @_ssdm_op_SpecBitsMap(i32* %pressure_msb) nounwind, !map !63
  call void (...)* @_ssdm_op_SpecBitsMap(i32* %pressure_lsb) nounwind, !map !67
  call void (...)* @_ssdm_op_SpecBitsMap(i32* %pressure_xlsb) nounwind, !map !71
  call void (...)* @_ssdm_op_SpecBitsMap(i32* %operation) nounwind, !map !75
  %dummy_2 = alloca i8, align 1                   ; [#uses=2 type=i8*]
  %dummy_4 = alloca i8, align 1                   ; [#uses=2 type=i8*]
  %dummy = alloca i8, align 1                     ; [#uses=2 type=i8*]
  call void (...)* @_ssdm_op_SpecTopModule([9 x i8]* @iiccomm4_str) nounwind
  call void @llvm.dbg.value(metadata !{i32* %iic}, i64 0, metadata !79), !dbg !94 ; [debug line = 40:33] [debug variable = iic]
  call void @llvm.dbg.value(metadata !{i32* %empty_pirq_outValue}, i64 0, metadata !95), !dbg !96 ; [debug line = 41:12] [debug variable = empty_pirq_outValue]
  call void @llvm.dbg.value(metadata !{i32* %full_pirq_outValue}, i64 0, metadata !97), !dbg !98 ; [debug line = 41:43] [debug variable = full_pirq_outValue]
  call void @llvm.dbg.value(metadata !{i32* %ctrl_reg_outValue}, i64 0, metadata !99), !dbg !100 ; [debug line = 41:73] [debug variable = ctrl_reg_outValue]
  call void @llvm.dbg.value(metadata !{i32* %stat_reg_outValue1}, i64 0, metadata !101), !dbg !102 ; [debug line = 42:12] [debug variable = stat_reg_outValue1]
  call void @llvm.dbg.value(metadata !{i32* %stat_reg_val2}, i64 0, metadata !103), !dbg !104 ; [debug line = 42:42] [debug variable = stat_reg_val2]
  call void @llvm.dbg.value(metadata !{i32* %pressure_msb}, i64 0, metadata !105), !dbg !106 ; [debug line = 43:12] [debug variable = pressure_msb]
  call void @llvm.dbg.value(metadata !{i32* %pressure_lsb}, i64 0, metadata !107), !dbg !108 ; [debug line = 43:36] [debug variable = pressure_lsb]
  call void @llvm.dbg.value(metadata !{i32* %pressure_xlsb}, i64 0, metadata !109), !dbg !110 ; [debug line = 43:60] [debug variable = pressure_xlsb]
  call void @llvm.dbg.value(metadata !{i32* %operation}, i64 0, metadata !111), !dbg !112 ; [debug line = 44:12] [debug variable = operation]
  call void (...)* @_ssdm_op_SpecInterface(i32 0, [10 x i8]* @p_str, i32 0, i32 0, [1 x i8]* @p_str1, i32 0, i32 0, [1 x i8]* @p_str1, [1 x i8]* @p_str1, [1 x i8]* @p_str1, i32 0, i32 0, i32 0, i32 0, [1 x i8]* @p_str1, [1 x i8]* @p_str1) nounwind, !dbg !113 ; [debug line = 46:1]
  call void (...)* @_ssdm_op_SpecInterface(i32* %iic, [6 x i8]* @p_str2, i32 0, i32 0, [1 x i8]* @p_str1, i32 0, i32 0, [1 x i8]* @p_str1, [1 x i8]* @p_str1, [1 x i8]* @p_str1, i32 16, i32 16, i32 16, i32 16, [1 x i8]* @p_str1, [1 x i8]* @p_str1)
  call void (...)* @_ssdm_op_SpecInterface(i32* %empty_pirq_outValue, [10 x i8]* @p_str, i32 0, i32 0, [1 x i8]* @p_str1, i32 0, i32 0, [1 x i8]* @p_str1, [1 x i8]* @p_str1, [1 x i8]* @p_str1, i32 0, i32 0, i32 0, i32 0, [1 x i8]* @p_str1, [1 x i8]* @p_str1) nounwind, !dbg !115 ; [debug line = 50:1]
  call void (...)* @_ssdm_op_SpecInterface(i32* %full_pirq_outValue, [10 x i8]* @p_str, i32 0, i32 0, [1 x i8]* @p_str1, i32 0, i32 0, [1 x i8]* @p_str1, [1 x i8]* @p_str1, [1 x i8]* @p_str1, i32 0, i32 0, i32 0, i32 0, [1 x i8]* @p_str1, [1 x i8]* @p_str1) nounwind, !dbg !116 ; [debug line = 51:1]
  call void (...)* @_ssdm_op_SpecInterface(i32* %ctrl_reg_outValue, [10 x i8]* @p_str, i32 0, i32 0, [1 x i8]* @p_str1, i32 0, i32 0, [1 x i8]* @p_str1, [1 x i8]* @p_str1, [1 x i8]* @p_str1, i32 0, i32 0, i32 0, i32 0, [1 x i8]* @p_str1, [1 x i8]* @p_str1) nounwind, !dbg !117 ; [debug line = 52:1]
  call void (...)* @_ssdm_op_SpecInterface(i32* %stat_reg_outValue1, [10 x i8]* @p_str, i32 0, i32 0, [1 x i8]* @p_str1, i32 0, i32 0, [1 x i8]* @p_str1, [1 x i8]* @p_str1, [1 x i8]* @p_str1, i32 0, i32 0, i32 0, i32 0, [1 x i8]* @p_str1, [1 x i8]* @p_str1) nounwind, !dbg !118 ; [debug line = 53:1]
  call void (...)* @_ssdm_op_SpecInterface(i32* %stat_reg_val2, [10 x i8]* @p_str, i32 0, i32 0, [1 x i8]* @p_str1, i32 0, i32 0, [1 x i8]* @p_str1, [1 x i8]* @p_str1, [1 x i8]* @p_str1, i32 0, i32 0, i32 0, i32 0, [1 x i8]* @p_str1, [1 x i8]* @p_str1) nounwind, !dbg !119 ; [debug line = 54:1]
  call void (...)* @_ssdm_op_SpecInterface(i32* %operation, [10 x i8]* @p_str, i32 0, i32 0, [1 x i8]* @p_str1, i32 0, i32 0, [1 x i8]* @p_str1, [1 x i8]* @p_str1, [1 x i8]* @p_str1, i32 0, i32 0, i32 0, i32 0, [1 x i8]* @p_str1, [1 x i8]* @p_str1) nounwind, !dbg !120 ; [debug line = 55:1]
  call void (...)* @_ssdm_op_SpecInterface(i32* %pressure_msb, [10 x i8]* @p_str, i32 0, i32 0, [1 x i8]* @p_str1, i32 0, i32 0, [1 x i8]* @p_str1, [1 x i8]* @p_str1, [1 x i8]* @p_str1, i32 0, i32 0, i32 0, i32 0, [1 x i8]* @p_str1, [1 x i8]* @p_str1) nounwind, !dbg !121 ; [debug line = 56:1]
  call void (...)* @_ssdm_op_SpecInterface(i32* %pressure_lsb, [10 x i8]* @p_str, i32 0, i32 0, [1 x i8]* @p_str1, i32 0, i32 0, [1 x i8]* @p_str1, [1 x i8]* @p_str1, [1 x i8]* @p_str1, i32 0, i32 0, i32 0, i32 0, [1 x i8]* @p_str1, [1 x i8]* @p_str1) nounwind, !dbg !122 ; [debug line = 57:1]
  call void (...)* @_ssdm_op_SpecInterface(i32* %pressure_xlsb, [10 x i8]* @p_str, i32 0, i32 0, [1 x i8]* @p_str1, i32 0, i32 0, [1 x i8]* @p_str1, [1 x i8]* @p_str1, [1 x i8]* @p_str1, i32 0, i32 0, i32 0, i32 0, [1 x i8]* @p_str1, [1 x i8]* @p_str1) nounwind, !dbg !123 ; [debug line = 58:1]
  br label %meminst

meminst:                                          ; preds = %meminst, %0
  %invdar = phi i2 [ 0, %0 ], [ %indvarinc, %meminst ] ; [#uses=5 type=i2]
  %sensorData_load = load i32* %sensorData        ; [#uses=3 type=i32]
  %sensorData_1_load = load i32* %sensorData_1    ; [#uses=3 type=i32]
  %sensorData_2_load = load i32* %sensorData_2    ; [#uses=2 type=i32]
  %indvarinc = add i2 %invdar, 1, !dbg !124       ; [#uses=1 type=i2] [debug line = 66:29]
  %sensorData_0_1 = call i32 @_ssdm_op_Mux.ap_auto.4i32.i2(i32 0, i32 %sensorData_load, i32 %sensorData_load, i32 %sensorData_load, i2 %invdar) nounwind ; [#uses=2 type=i32]
  %sensorData_1_1 = call i32 @_ssdm_op_Mux.ap_auto.4i32.i2(i32 %sensorData_1_load, i32 0, i32 %sensorData_1_load, i32 %sensorData_1_load, i2 %invdar) nounwind ; [#uses=2 type=i32]
  %sensorData_2_1 = call i32 @_ssdm_op_Mux.ap_auto.4i32.i2(i32 %sensorData_2_load, i32 %sensorData_2_load, i32 0, i32 0, i2 %invdar) nounwind ; [#uses=2 type=i32]
  %tmp_1 = icmp eq i2 %invdar, -2, !dbg !124      ; [#uses=1 type=i1] [debug line = 66:29]
  %empty = call i32 (...)* @_ssdm_op_SpecLoopName([18 x i8]* @memset_sensorData_st) nounwind ; [#uses=0 type=i32]
  %empty_2 = call i32 (...)* @_ssdm_op_SpecLoopTripCount(i64 3, i64 3, i64 3) nounwind ; [#uses=0 type=i32]
  store i32 %sensorData_2_1, i32* %sensorData_2
  store i32 %sensorData_1_1, i32* %sensorData_1
  store i32 %sensorData_0_1, i32* %sensorData
  br i1 %tmp_1, label %1, label %meminst, !dbg !124 ; [debug line = 66:29]

; <label>:1                                       ; preds = %meminst
  %iic_addr = getelementptr i32* %iic, i64 268436552 ; [#uses=1 type=i32*]
  %iic_load_req = call i1 @_ssdm_op_ReadReq.m_axi.i32P(i32* %iic_addr, i32 1), !dbg !125 ; [#uses=0 type=i1] [debug line = 70:2]
  %iic_addr_1 = getelementptr i32* %iic, i64 268436552 ; [#uses=1 type=i32*]
  %iic_addr_1_read = call i32 @_ssdm_op_Read.m_axi.volatile.i32P(i32* %iic_addr_1), !dbg !125 ; [#uses=1 type=i32] [debug line = 70:2]
  call void @_ssdm_op_Write.s_axilite.i32P(i32* %empty_pirq_outValue, i32 %iic_addr_1_read), !dbg !126 ; [debug line = 71:2]
  %iic_addr_2 = getelementptr i32* %iic, i64 268436552 ; [#uses=1 type=i32*]
  %iic_addr_req = call i1 @_ssdm_op_WriteReq.m_axi.i32P(i32* %iic_addr_2, i32 1), !dbg !127 ; [#uses=0 type=i1] [debug line = 74:2]
  %iic_addr_3 = getelementptr i32* %iic, i64 268436552 ; [#uses=1 type=i32*]
  call void @_ssdm_op_Write.m_axi.volatile.i32P(i32* %iic_addr_3, i32 15, i4 -1), !dbg !127 ; [debug line = 74:2]
  %iic_addr_4 = getelementptr i32* %iic, i64 268436552 ; [#uses=1 type=i32*]
  %iic_addr_resp = call i1 @_ssdm_op_WriteResp.m_axi.i32P(i32* %iic_addr_4), !dbg !127 ; [#uses=0 type=i1] [debug line = 74:2]
  %iic_addr_5 = getelementptr i32* %iic, i64 268436552 ; [#uses=1 type=i32*]
  %iic_load_1_req = call i1 @_ssdm_op_ReadReq.m_axi.i32P(i32* %iic_addr_5, i32 1), !dbg !128 ; [#uses=0 type=i1] [debug line = 75:2]
  %iic_addr34 = getelementptr i32* %iic, i64 268436552 ; [#uses=1 type=i32*]
  %iic_addr34_read = call i32 @_ssdm_op_Read.m_axi.volatile.i32P(i32* %iic_addr34), !dbg !128 ; [#uses=1 type=i32] [debug line = 75:2]
  call void @_ssdm_op_Write.s_axilite.i32P(i32* %full_pirq_outValue, i32 %iic_addr34_read), !dbg !129 ; [debug line = 76:2]
  %iic_addr_6 = getelementptr i32* %iic, i64 268436544 ; [#uses=1 type=i32*]
  %iic_addr_1_req = call i1 @_ssdm_op_WriteReq.m_axi.i32P(i32* %iic_addr_6, i32 1), !dbg !130 ; [#uses=0 type=i1] [debug line = 79:2]
  %iic_addr_7 = getelementptr i32* %iic, i64 268436544 ; [#uses=1 type=i32*]
  call void @_ssdm_op_Write.m_axi.volatile.i32P(i32* %iic_addr_7, i32 2, i4 -1), !dbg !130 ; [debug line = 79:2]
  %iic_addr_8 = getelementptr i32* %iic, i64 268436544 ; [#uses=1 type=i32*]
  %iic_addr_1_resp = call i1 @_ssdm_op_WriteResp.m_axi.i32P(i32* %iic_addr_8), !dbg !130 ; [#uses=0 type=i1] [debug line = 79:2]
  %iic_addr_9 = getelementptr i32* %iic, i64 268436544 ; [#uses=1 type=i32*]
  %iic_addr_1_req2 = call i1 @_ssdm_op_WriteReq.m_axi.i32P(i32* %iic_addr_9, i32 1), !dbg !131 ; [#uses=0 type=i1] [debug line = 82:2]
  %iic_addr_10 = getelementptr i32* %iic, i64 268436544 ; [#uses=1 type=i32*]
  call void @_ssdm_op_Write.m_axi.volatile.i32P(i32* %iic_addr_10, i32 1, i4 -1), !dbg !131 ; [debug line = 82:2]
  %iic_addr_11 = getelementptr i32* %iic, i64 268436544 ; [#uses=1 type=i32*]
  %iic_addr_1_resp3 = call i1 @_ssdm_op_WriteResp.m_axi.i32P(i32* %iic_addr_11), !dbg !131 ; [#uses=0 type=i1] [debug line = 82:2]
  %iic_addr_12 = getelementptr i32* %iic, i64 268436544 ; [#uses=1 type=i32*]
  %iic_load_2_req = call i1 @_ssdm_op_ReadReq.m_axi.i32P(i32* %iic_addr_12, i32 1), !dbg !132 ; [#uses=0 type=i1] [debug line = 83:2]
  %iic_addr_13 = getelementptr i32* %iic, i64 268436544 ; [#uses=1 type=i32*]
  %iic_addr_13_read = call i32 @_ssdm_op_Read.m_axi.volatile.i32P(i32* %iic_addr_13), !dbg !132 ; [#uses=1 type=i32] [debug line = 83:2]
  call void @_ssdm_op_Write.s_axilite.i32P(i32* %ctrl_reg_outValue, i32 %iic_addr_13_read), !dbg !133 ; [debug line = 84:2]
  %iic_addr_14 = getelementptr i32* %iic, i64 268436545 ; [#uses=1 type=i32*]
  %iic_load_3_req = call i1 @_ssdm_op_ReadReq.m_axi.i32P(i32* %iic_addr_14, i32 1), !dbg !134 ; [#uses=0 type=i1] [debug line = 87:5]
  %iic_addr_15 = getelementptr i32* %iic, i64 268436545 ; [#uses=1 type=i32*]
  %iic_addr_15_read = call i32 @_ssdm_op_Read.m_axi.volatile.i32P(i32* %iic_addr_15), !dbg !134 ; [#uses=1 type=i32] [debug line = 87:5]
  call void @_ssdm_op_Write.s_axilite.i32P(i32* %stat_reg_outValue1, i32 %iic_addr_15_read), !dbg !135 ; [debug line = 88:5]
  %iic_addr_16 = getelementptr i32* %iic, i64 268436546 ; [#uses=1 type=i32*]
  %iic_addr_3_req = call i1 @_ssdm_op_WriteReq.m_axi.i32P(i32* %iic_addr_16, i32 1), !dbg !136 ; [#uses=0 type=i1] [debug line = 92:2]
  %iic_addr_17 = getelementptr i32* %iic, i64 268436546 ; [#uses=1 type=i32*]
  call void @_ssdm_op_Write.m_axi.volatile.i32P(i32* %iic_addr_17, i32 492, i4 -1), !dbg !136 ; [debug line = 92:2]
  %iic_addr_18 = getelementptr i32* %iic, i64 268436546 ; [#uses=1 type=i32*]
  %iic_addr_3_resp = call i1 @_ssdm_op_WriteResp.m_axi.i32P(i32* %iic_addr_18), !dbg !136 ; [#uses=0 type=i1] [debug line = 92:2]
  %iic_addr_19 = getelementptr i32* %iic, i64 268436546 ; [#uses=1 type=i32*]
  %iic_addr_3_req4 = call i1 @_ssdm_op_WriteReq.m_axi.i32P(i32* %iic_addr_19, i32 1), !dbg !137 ; [#uses=0 type=i1] [debug line = 93:2]
  %iic_addr_20 = getelementptr i32* %iic, i64 268436546 ; [#uses=1 type=i32*]
  call void @_ssdm_op_Write.m_axi.volatile.i32P(i32* %iic_addr_20, i32 224, i4 -1), !dbg !137 ; [debug line = 93:2]
  %iic_addr_21 = getelementptr i32* %iic, i64 268436546 ; [#uses=1 type=i32*]
  %iic_addr_3_resp5 = call i1 @_ssdm_op_WriteResp.m_axi.i32P(i32* %iic_addr_21), !dbg !137 ; [#uses=0 type=i1] [debug line = 93:2]
  %iic_addr_22 = getelementptr i32* %iic, i64 268436546 ; [#uses=1 type=i32*]
  %iic_addr_3_req6 = call i1 @_ssdm_op_WriteReq.m_axi.i32P(i32* %iic_addr_22, i32 1), !dbg !138 ; [#uses=0 type=i1] [debug line = 94:2]
  %iic_addr_23 = getelementptr i32* %iic, i64 268436546 ; [#uses=1 type=i32*]
  call void @_ssdm_op_Write.m_axi.volatile.i32P(i32* %iic_addr_23, i32 182, i4 -1), !dbg !138 ; [debug line = 94:2]
  %iic_addr_24 = getelementptr i32* %iic, i64 268436546 ; [#uses=1 type=i32*]
  %iic_addr_3_resp7 = call i1 @_ssdm_op_WriteResp.m_axi.i32P(i32* %iic_addr_24), !dbg !138 ; [#uses=0 type=i1] [debug line = 94:2]
  %iic_addr_25 = getelementptr i32* %iic, i64 268436546 ; [#uses=1 type=i32*]
  %iic_addr_3_req8 = call i1 @_ssdm_op_WriteReq.m_axi.i32P(i32* %iic_addr_25, i32 1), !dbg !139 ; [#uses=0 type=i1] [debug line = 97:2]
  %iic_addr_26 = getelementptr i32* %iic, i64 268436546 ; [#uses=1 type=i32*]
  call void @_ssdm_op_Write.m_axi.volatile.i32P(i32* %iic_addr_26, i32 492, i4 -1), !dbg !139 ; [debug line = 97:2]
  %iic_addr_27 = getelementptr i32* %iic, i64 268436546 ; [#uses=1 type=i32*]
  %iic_addr_3_resp9 = call i1 @_ssdm_op_WriteResp.m_axi.i32P(i32* %iic_addr_27), !dbg !139 ; [#uses=0 type=i1] [debug line = 97:2]
  %iic_addr_28 = getelementptr i32* %iic, i64 268436546 ; [#uses=1 type=i32*]
  %iic_addr_3_req10 = call i1 @_ssdm_op_WriteReq.m_axi.i32P(i32* %iic_addr_28, i32 1), !dbg !140 ; [#uses=0 type=i1] [debug line = 98:2]
  %iic_addr_29 = getelementptr i32* %iic, i64 268436546 ; [#uses=1 type=i32*]
  call void @_ssdm_op_Write.m_axi.volatile.i32P(i32* %iic_addr_29, i32 242, i4 -1), !dbg !140 ; [debug line = 98:2]
  %iic_addr_30 = getelementptr i32* %iic, i64 268436546 ; [#uses=1 type=i32*]
  %iic_addr_3_resp11 = call i1 @_ssdm_op_WriteResp.m_axi.i32P(i32* %iic_addr_30), !dbg !140 ; [#uses=0 type=i1] [debug line = 98:2]
  %iic_addr_31 = getelementptr i32* %iic, i64 268436546 ; [#uses=1 type=i32*]
  %iic_addr_3_req12 = call i1 @_ssdm_op_WriteReq.m_axi.i32P(i32* %iic_addr_31, i32 1), !dbg !141 ; [#uses=0 type=i1] [debug line = 99:2]
  %iic_addr_32 = getelementptr i32* %iic, i64 268436546 ; [#uses=1 type=i32*]
  call void @_ssdm_op_Write.m_axi.volatile.i32P(i32* %iic_addr_32, i32 0, i4 -1), !dbg !141 ; [debug line = 99:2]
  %iic_addr_33 = getelementptr i32* %iic, i64 268436546 ; [#uses=1 type=i32*]
  %iic_addr_3_resp13 = call i1 @_ssdm_op_WriteResp.m_axi.i32P(i32* %iic_addr_33), !dbg !141 ; [#uses=0 type=i1] [debug line = 99:2]
  %iic_addr_34 = getelementptr i32* %iic, i64 268436546 ; [#uses=1 type=i32*]
  %iic_addr_3_req14 = call i1 @_ssdm_op_WriteReq.m_axi.i32P(i32* %iic_addr_34, i32 1), !dbg !142 ; [#uses=0 type=i1] [debug line = 102:2]
  %iic_addr_35 = getelementptr i32* %iic, i64 268436546 ; [#uses=1 type=i32*]
  call void @_ssdm_op_Write.m_axi.volatile.i32P(i32* %iic_addr_35, i32 492, i4 -1), !dbg !142 ; [debug line = 102:2]
  %iic_addr_36 = getelementptr i32* %iic, i64 268436546 ; [#uses=1 type=i32*]
  %iic_addr_3_resp15 = call i1 @_ssdm_op_WriteResp.m_axi.i32P(i32* %iic_addr_36), !dbg !142 ; [#uses=0 type=i1] [debug line = 102:2]
  %iic_addr_37 = getelementptr i32* %iic, i64 268436546 ; [#uses=1 type=i32*]
  %iic_addr_3_req16 = call i1 @_ssdm_op_WriteReq.m_axi.i32P(i32* %iic_addr_37, i32 1), !dbg !143 ; [#uses=0 type=i1] [debug line = 103:2]
  %iic_addr_38 = getelementptr i32* %iic, i64 268436546 ; [#uses=1 type=i32*]
  call void @_ssdm_op_Write.m_axi.volatile.i32P(i32* %iic_addr_38, i32 244, i4 -1), !dbg !143 ; [debug line = 103:2]
  %iic_addr_39 = getelementptr i32* %iic, i64 268436546 ; [#uses=1 type=i32*]
  %iic_addr_3_resp17 = call i1 @_ssdm_op_WriteResp.m_axi.i32P(i32* %iic_addr_39), !dbg !143 ; [#uses=0 type=i1] [debug line = 103:2]
  %iic_addr_40 = getelementptr i32* %iic, i64 268436546 ; [#uses=1 type=i32*]
  %iic_addr_3_req18 = call i1 @_ssdm_op_WriteReq.m_axi.i32P(i32* %iic_addr_40, i32 1), !dbg !144 ; [#uses=0 type=i1] [debug line = 104:2]
  %iic_addr_41 = getelementptr i32* %iic, i64 268436546 ; [#uses=1 type=i32*]
  call void @_ssdm_op_Write.m_axi.volatile.i32P(i32* %iic_addr_41, i32 7, i4 -1), !dbg !144 ; [debug line = 104:2]
  %iic_addr_42 = getelementptr i32* %iic, i64 268436546 ; [#uses=1 type=i32*]
  %iic_addr_3_resp19 = call i1 @_ssdm_op_WriteResp.m_axi.i32P(i32* %iic_addr_42), !dbg !144 ; [#uses=0 type=i1] [debug line = 104:2]
  %iic_addr_43 = getelementptr i32* %iic, i64 268436546 ; [#uses=1 type=i32*]
  %iic_addr_3_req20 = call i1 @_ssdm_op_WriteReq.m_axi.i32P(i32* %iic_addr_43, i32 1), !dbg !145 ; [#uses=0 type=i1] [debug line = 107:2]
  %iic_addr_44 = getelementptr i32* %iic, i64 268436546 ; [#uses=1 type=i32*]
  call void @_ssdm_op_Write.m_axi.volatile.i32P(i32* %iic_addr_44, i32 492, i4 -1), !dbg !145 ; [debug line = 107:2]
  %iic_addr_45 = getelementptr i32* %iic, i64 268436546 ; [#uses=1 type=i32*]
  %iic_addr_3_resp21 = call i1 @_ssdm_op_WriteResp.m_axi.i32P(i32* %iic_addr_45), !dbg !145 ; [#uses=0 type=i1] [debug line = 107:2]
  %iic_addr_46 = getelementptr i32* %iic, i64 268436546 ; [#uses=1 type=i32*]
  %iic_addr_3_req22 = call i1 @_ssdm_op_WriteReq.m_axi.i32P(i32* %iic_addr_46, i32 1), !dbg !146 ; [#uses=0 type=i1] [debug line = 108:2]
  %iic_addr_47 = getelementptr i32* %iic, i64 268436546 ; [#uses=1 type=i32*]
  call void @_ssdm_op_Write.m_axi.volatile.i32P(i32* %iic_addr_47, i32 245, i4 -1), !dbg !146 ; [debug line = 108:2]
  %iic_addr_48 = getelementptr i32* %iic, i64 268436546 ; [#uses=1 type=i32*]
  %iic_addr_3_resp23 = call i1 @_ssdm_op_WriteResp.m_axi.i32P(i32* %iic_addr_48), !dbg !146 ; [#uses=0 type=i1] [debug line = 108:2]
  %iic_addr_49 = getelementptr i32* %iic, i64 268436546 ; [#uses=1 type=i32*]
  %iic_addr_3_req24 = call i1 @_ssdm_op_WriteReq.m_axi.i32P(i32* %iic_addr_49, i32 1), !dbg !147 ; [#uses=0 type=i1] [debug line = 109:2]
  %iic_addr_50 = getelementptr i32* %iic, i64 268436546 ; [#uses=1 type=i32*]
  call void @_ssdm_op_Write.m_axi.volatile.i32P(i32* %iic_addr_50, i32 160, i4 -1), !dbg !147 ; [debug line = 109:2]
  %iic_addr_51 = getelementptr i32* %iic, i64 268436546 ; [#uses=1 type=i32*]
  %iic_addr_3_resp25 = call i1 @_ssdm_op_WriteResp.m_axi.i32P(i32* %iic_addr_51), !dbg !147 ; [#uses=0 type=i1] [debug line = 109:2]
  %rbegin = call i32 (...)* @_ssdm_op_SpecRegionBegin([43 x i8]* @delay_until_ms_MD_60) nounwind ; [#uses=1 type=i32]
  call void (...)* @_ssdm_op_SpecProtocol(i32 0, [1 x i8]* @p_str1) nounwind, !dbg !148 ; [debug line = 57:1@111:2]
  br label %2, !dbg !159                          ; [debug line = 61:10@111:2]

; <label>:2                                       ; preds = %3, %1
  %p_014_0_i = phi i25 [ 0, %1 ], [ %ctr_V, %3 ]  ; [#uses=2 type=i25]
  %tmp_2 = icmp eq i25 %p_014_0_i, -3554432, !dbg !161 ; [#uses=1 type=i1] [debug line = 2042:5@61:19@111:2]
  %empty_3 = call i32 (...)* @_ssdm_op_SpecLoopTripCount(i64 30000000, i64 30000000, i64 30000000) nounwind ; [#uses=0 type=i32]
  %ctr_V = add i25 %p_014_0_i, 1, !dbg !1006      ; [#uses=1 type=i25] [debug line = 1879:145@1896:5@61:30@111:2]
  br i1 %tmp_2, label %"delay_until_ms<600ull, 50000000ull>.exit", label %3, !dbg !1005 ; [debug line = 61:19@111:2]

; <label>:3                                       ; preds = %2
  call void @llvm.dbg.value(metadata !{i8* %dummy}, i64 0, metadata !1013) nounwind, !dbg !1015 ; [debug line = 62:9@111:2] [debug variable = dummy]
  %dummy_1 = load volatile i8* %dummy, align 1, !dbg !1015 ; [#uses=1 type=i8] [debug line = 62:9@111:2]
  call void @llvm.dbg.value(metadata !{i8 %dummy_1}, i64 0, metadata !1013) nounwind, !dbg !1015 ; [debug line = 62:9@111:2] [debug variable = dummy]
  store volatile i8 %dummy_1, i8* %dummy, align 1, !dbg !1015 ; [debug line = 62:9@111:2]
  call void @llvm.dbg.value(metadata !{i25 %ctr_V}, i64 0, metadata !1017) nounwind, !dbg !1006 ; [debug line = 1879:145@1896:5@61:30@111:2] [debug variable = ctr.V]
  br label %2, !dbg !1012                         ; [debug line = 61:30@111:2]

"delay_until_ms<600ull, 50000000ull>.exit":       ; preds = %2
  %rend = call i32 (...)* @_ssdm_op_SpecRegionEnd([43 x i8]* @delay_until_ms_MD_60, i32 %rbegin) nounwind ; [#uses=0 type=i32]
  %iic_addr_52 = getelementptr i32* %iic, i64 268436546 ; [#uses=1 type=i32*]
  %iic_addr_3_req26 = call i1 @_ssdm_op_WriteReq.m_axi.i32P(i32* %iic_addr_52, i32 1), !dbg !1113 ; [#uses=0 type=i1] [debug line = 116:2]
  %iic_addr_53 = getelementptr i32* %iic, i64 268436546 ; [#uses=1 type=i32*]
  call void @_ssdm_op_Write.m_axi.volatile.i32P(i32* %iic_addr_53, i32 492, i4 -1), !dbg !1113 ; [debug line = 116:2]
  %iic_addr_54 = getelementptr i32* %iic, i64 268436546 ; [#uses=1 type=i32*]
  %iic_addr_3_resp27 = call i1 @_ssdm_op_WriteResp.m_axi.i32P(i32* %iic_addr_54), !dbg !1113 ; [#uses=0 type=i1] [debug line = 116:2]
  %iic_addr_55 = getelementptr i32* %iic, i64 268436546 ; [#uses=1 type=i32*]
  %iic_addr_3_req28 = call i1 @_ssdm_op_WriteReq.m_axi.i32P(i32* %iic_addr_55, i32 1), !dbg !1114 ; [#uses=0 type=i1] [debug line = 119:2]
  %iic_addr_56 = getelementptr i32* %iic, i64 268436546 ; [#uses=1 type=i32*]
  call void @_ssdm_op_Write.m_axi.volatile.i32P(i32* %iic_addr_56, i32 247, i4 -1), !dbg !1114 ; [debug line = 119:2]
  %iic_addr_57 = getelementptr i32* %iic, i64 268436546 ; [#uses=1 type=i32*]
  %iic_addr_3_resp29 = call i1 @_ssdm_op_WriteResp.m_axi.i32P(i32* %iic_addr_57), !dbg !1114 ; [#uses=0 type=i1] [debug line = 119:2]
  %iic_addr_58 = getelementptr i32* %iic, i64 268436546 ; [#uses=1 type=i32*]
  %iic_addr_3_req30 = call i1 @_ssdm_op_WriteReq.m_axi.i32P(i32* %iic_addr_58, i32 1), !dbg !1115 ; [#uses=0 type=i1] [debug line = 122:2]
  %iic_addr_59 = getelementptr i32* %iic, i64 268436546 ; [#uses=1 type=i32*]
  call void @_ssdm_op_Write.m_axi.volatile.i32P(i32* %iic_addr_59, i32 493, i4 -1), !dbg !1115 ; [debug line = 122:2]
  %iic_addr_60 = getelementptr i32* %iic, i64 268436546 ; [#uses=1 type=i32*]
  %iic_addr_3_resp31 = call i1 @_ssdm_op_WriteResp.m_axi.i32P(i32* %iic_addr_60), !dbg !1115 ; [#uses=0 type=i1] [debug line = 122:2]
  %iic_addr_61 = getelementptr i32* %iic, i64 268436546 ; [#uses=1 type=i32*]
  %iic_addr_3_req32 = call i1 @_ssdm_op_WriteReq.m_axi.i32P(i32* %iic_addr_61, i32 1), !dbg !1116 ; [#uses=0 type=i1] [debug line = 125:2]
  %iic_addr_62 = getelementptr i32* %iic, i64 268436546 ; [#uses=1 type=i32*]
  call void @_ssdm_op_Write.m_axi.volatile.i32P(i32* %iic_addr_62, i32 515, i4 -1), !dbg !1116 ; [debug line = 125:2]
  %iic_addr_63 = getelementptr i32* %iic, i64 268436546 ; [#uses=1 type=i32*]
  %iic_addr_3_resp33 = call i1 @_ssdm_op_WriteResp.m_axi.i32P(i32* %iic_addr_63), !dbg !1116 ; [#uses=0 type=i1] [debug line = 125:2]
  %rbegin6 = call i32 (...)* @_ssdm_op_SpecRegionBegin([42 x i8]* @delay_until_ms_MD_10) nounwind ; [#uses=1 type=i32]
  call void (...)* @_ssdm_op_SpecProtocol(i32 0, [1 x i8]* @p_str1) nounwind, !dbg !1117 ; [debug line = 57:1@130:2]
  br label %4, !dbg !1123                         ; [debug line = 61:10@130:2]

; <label>:4                                       ; preds = %5, %"delay_until_ms<600ull, 50000000ull>.exit"
  %p_014_0_i9 = phi i19 [ 0, %"delay_until_ms<600ull, 50000000ull>.exit" ], [ %ctr_V_1, %5 ] ; [#uses=2 type=i19]
  %tmp_4 = icmp eq i19 %p_014_0_i9, -24288, !dbg !1125 ; [#uses=1 type=i1] [debug line = 2042:5@61:19@130:2]
  %empty_4 = call i32 (...)* @_ssdm_op_SpecLoopTripCount(i64 500000, i64 500000, i64 500000) nounwind ; [#uses=0 type=i32]
  %ctr_V_1 = add i19 %p_014_0_i9, 1, !dbg !1127   ; [#uses=1 type=i19] [debug line = 1879:145@1896:5@61:30@130:2]
  br i1 %tmp_4, label %"delay_until_ms<10ull, 50000000ull>.exit10", label %5, !dbg !1126 ; [debug line = 61:19@130:2]

; <label>:5                                       ; preds = %4
  call void @llvm.dbg.value(metadata !{i8* %dummy_2}, i64 0, metadata !1130) nounwind, !dbg !1131 ; [debug line = 62:9@130:2] [debug variable = dummy]
  %dummy_3 = load volatile i8* %dummy_2, align 1, !dbg !1131 ; [#uses=1 type=i8] [debug line = 62:9@130:2]
  call void @llvm.dbg.value(metadata !{i8 %dummy_3}, i64 0, metadata !1130) nounwind, !dbg !1131 ; [debug line = 62:9@130:2] [debug variable = dummy]
  store volatile i8 %dummy_3, i8* %dummy_2, align 1, !dbg !1131 ; [debug line = 62:9@130:2]
  call void @llvm.dbg.value(metadata !{i19 %ctr_V_1}, i64 0, metadata !1133) nounwind, !dbg !1127 ; [debug line = 1879:145@1896:5@61:30@130:2] [debug variable = ctr.V]
  br label %4, !dbg !1129                         ; [debug line = 61:30@130:2]

"delay_until_ms<10ull, 50000000ull>.exit10":      ; preds = %4
  %rend7 = call i32 (...)* @_ssdm_op_SpecRegionEnd([42 x i8]* @delay_until_ms_MD_10, i32 %rbegin6) nounwind ; [#uses=0 type=i32]
  %iic_addr_64 = getelementptr i32* %iic, i64 268436545 ; [#uses=1 type=i32*]
  %iic_load_4_req = call i1 @_ssdm_op_ReadReq.m_axi.i32P(i32* %iic_addr_64, i32 1), !dbg !1135 ; [#uses=0 type=i1] [debug line = 133:2]
  %iic_addr_65 = getelementptr i32* %iic, i64 268436545 ; [#uses=1 type=i32*]
  %iic_addr_65_read = call i32 @_ssdm_op_Read.m_axi.volatile.i32P(i32* %iic_addr_65), !dbg !1135 ; [#uses=1 type=i32] [debug line = 133:2]
  br label %6, !dbg !1136                         ; [debug line = 138:2]

; <label>:6                                       ; preds = %"delay_until_ms<10ull, 50000000ull>.exit", %"delay_until_ms<10ull, 50000000ull>.exit10"
  %sensorData_2_2 = phi i32 [ %sensorData_2_1, %"delay_until_ms<10ull, 50000000ull>.exit10" ], [ %sensorData_2_1_6, %"delay_until_ms<10ull, 50000000ull>.exit" ] ; [#uses=3 type=i32]
  %sensorData_1_2 = phi i32 [ %sensorData_1_1, %"delay_until_ms<10ull, 50000000ull>.exit10" ], [ %sensorData_2_3, %"delay_until_ms<10ull, 50000000ull>.exit" ] ; [#uses=3 type=i32]
  %sensorData_2_4 = phi i32 [ %sensorData_0_1, %"delay_until_ms<10ull, 50000000ull>.exit10" ], [ %sensorData_2_5_8, %"delay_until_ms<10ull, 50000000ull>.exit" ] ; [#uses=2 type=i32]
  %storemerge1 = phi i32 [ %iic_addr_65_read, %"delay_until_ms<10ull, 50000000ull>.exit10" ], [ %iic_addr_69_read, %"delay_until_ms<10ull, 50000000ull>.exit" ] ; [#uses=2 type=i32]
  %index = phi i32 [ 0, %"delay_until_ms<10ull, 50000000ull>.exit10" ], [ %index_1, %"delay_until_ms<10ull, 50000000ull>.exit" ] ; [#uses=2 type=i32]
  call void @_ssdm_op_Write.s_axilite.i32P(i32* %stat_reg_val2, i32 %storemerge1), !dbg !1137 ; [debug line = 145:3]
  %tmp = call i1 @_ssdm_op_BitSelect.i1.i32.i32(i32 %storemerge1, i32 6) ; [#uses=1 type=i1]
  %storemerge = call i7 @_ssdm_op_BitConcatenate.i7.i1.i6(i1 %tmp, i6 0), !dbg !1139 ; [#uses=2 type=i7] [debug line = 146:3]
  %storemerge_cast = zext i7 %storemerge to i32, !dbg !1139 ; [#uses=1 type=i32] [debug line = 146:3]
  call void @_ssdm_op_Write.s_axilite.i32P(i32* %operation, i32 %storemerge_cast), !dbg !1139 ; [debug line = 146:3]
  %tmp_6 = icmp eq i7 %storemerge, 0, !dbg !1136  ; [#uses=1 type=i1] [debug line = 138:2]
  %index_1 = add nsw i32 %index, 1, !dbg !1140    ; [#uses=1 type=i32] [debug line = 142:3]
  br i1 %tmp_6, label %_ifconv, label %9, !dbg !1136 ; [debug line = 138:2]

_ifconv:                                          ; preds = %6
  %iic_addr_66 = getelementptr i32* %iic, i64 268436547 ; [#uses=1 type=i32*]
  %sensorData_0_req = call i1 @_ssdm_op_ReadReq.m_axi.i32P(i32* %iic_addr_66, i32 1), !dbg !1141 ; [#uses=0 type=i1] [debug line = 141:3]
  %iic_addr_67 = getelementptr i32* %iic, i64 268436547 ; [#uses=1 type=i32*]
  %sensorData_0 = call i32 @_ssdm_op_Read.m_axi.volatile.i32P(i32* %iic_addr_67), !dbg !1141 ; [#uses=3 type=i32] [debug line = 141:3]
  call void @llvm.dbg.value(metadata !{i32 %sensorData_0}, i64 0, metadata !1142), !dbg !1141 ; [debug line = 141:3] [debug variable = sensorData[0]]
  %tmp_3 = trunc i32 %index to i2                 ; [#uses=2 type=i2]
  call void @llvm.dbg.value(metadata !{i32 %sensorData_0}, i64 0, metadata !1148), !dbg !1141 ; [debug line = 141:3] [debug variable = sensorData[2]]
  call void @llvm.dbg.value(metadata !{i32 %sensorData_0}, i64 0, metadata !1149), !dbg !1141 ; [debug line = 141:3] [debug variable = sensorData[1]]
  %sel_tmp = icmp eq i2 %tmp_3, 1                 ; [#uses=2 type=i1]
  %sensorData_2_5 = select i1 %sel_tmp, i32 %sensorData_2_2, i32 %sensorData_0 ; [#uses=1 type=i32]
  call void @llvm.dbg.value(metadata !{i32 %sensorData_2_5}, i64 0, metadata !1148), !dbg !1141 ; [debug line = 141:3] [debug variable = sensorData[2]]
  %sel_tmp2 = icmp eq i2 %tmp_3, 0                ; [#uses=3 type=i1]
  %sensorData_2_1_6 = select i1 %sel_tmp2, i32 %sensorData_2_2, i32 %sensorData_2_5 ; [#uses=1 type=i32]
  call void @llvm.dbg.value(metadata !{i32 %sensorData_2_1_6}, i64 0, metadata !1148), !dbg !1141 ; [debug line = 141:3] [debug variable = sensorData[2]]
  %sensorData_2_2_7 = select i1 %sel_tmp, i32 %sensorData_0, i32 %sensorData_1_2 ; [#uses=1 type=i32]
  call void @llvm.dbg.value(metadata !{i32 %sensorData_2_2_7}, i64 0, metadata !1148), !dbg !1141 ; [debug line = 141:3] [debug variable = sensorData[2]]
  %sensorData_2_3 = select i1 %sel_tmp2, i32 %sensorData_1_2, i32 %sensorData_2_2_7 ; [#uses=1 type=i32]
  call void @llvm.dbg.value(metadata !{i32 %sensorData_2_3}, i64 0, metadata !1148), !dbg !1141 ; [debug line = 141:3] [debug variable = sensorData[2]]
  call void @llvm.dbg.value(metadata !{i32 %sensorData_2_4}, i64 0, metadata !1148), !dbg !1141 ; [debug line = 141:3] [debug variable = sensorData[2]]
  %sensorData_2_5_8 = select i1 %sel_tmp2, i32 %sensorData_0, i32 %sensorData_2_4 ; [#uses=1 type=i32]
  call void @llvm.dbg.value(metadata !{i32 %sensorData_2_5_8}, i64 0, metadata !1148), !dbg !1141 ; [debug line = 141:3] [debug variable = sensorData[2]]
  call void @llvm.dbg.value(metadata !{i32 %index_1}, i64 0, metadata !1150), !dbg !1140 ; [debug line = 142:3] [debug variable = index]
  %rbegin2 = call i32 (...)* @_ssdm_op_SpecRegionBegin([42 x i8]* @delay_until_ms_MD_10) nounwind ; [#uses=1 type=i32]
  call void (...)* @_ssdm_op_SpecProtocol(i32 0, [1 x i8]* @p_str1) nounwind, !dbg !1151 ; [debug line = 57:1@144:3]
  br label %7, !dbg !1153                         ; [debug line = 61:10@144:3]

; <label>:7                                       ; preds = %8, %_ifconv
  %p_014_0_i5 = phi i19 [ 0, %_ifconv ], [ %ctr_V_2, %8 ] ; [#uses=2 type=i19]
  %tmp_9 = icmp eq i19 %p_014_0_i5, -24288, !dbg !1154 ; [#uses=1 type=i1] [debug line = 2042:5@61:19@144:3]
  %empty_9 = call i32 (...)* @_ssdm_op_SpecLoopTripCount(i64 500000, i64 500000, i64 500000) nounwind ; [#uses=0 type=i32]
  %ctr_V_2 = add i19 %p_014_0_i5, 1, !dbg !1156   ; [#uses=1 type=i19] [debug line = 1879:145@1896:5@61:30@144:3]
  br i1 %tmp_9, label %"delay_until_ms<10ull, 50000000ull>.exit", label %8, !dbg !1155 ; [debug line = 61:19@144:3]

; <label>:8                                       ; preds = %7
  call void @llvm.dbg.value(metadata !{i8* %dummy_4}, i64 0, metadata !1159) nounwind, !dbg !1160 ; [debug line = 62:9@144:3] [debug variable = dummy]
  %dummy_5 = load volatile i8* %dummy_4, align 1, !dbg !1160 ; [#uses=1 type=i8] [debug line = 62:9@144:3]
  call void @llvm.dbg.value(metadata !{i8 %dummy_5}, i64 0, metadata !1159) nounwind, !dbg !1160 ; [debug line = 62:9@144:3] [debug variable = dummy]
  store volatile i8 %dummy_5, i8* %dummy_4, align 1, !dbg !1160 ; [debug line = 62:9@144:3]
  call void @llvm.dbg.value(metadata !{i19 %ctr_V_2}, i64 0, metadata !1161) nounwind, !dbg !1156 ; [debug line = 1879:145@1896:5@61:30@144:3] [debug variable = ctr.V]
  br label %7, !dbg !1158                         ; [debug line = 61:30@144:3]

"delay_until_ms<10ull, 50000000ull>.exit":        ; preds = %7
  %rend3 = call i32 (...)* @_ssdm_op_SpecRegionEnd([42 x i8]* @delay_until_ms_MD_10, i32 %rbegin2) nounwind ; [#uses=0 type=i32]
  %iic_addr_68 = getelementptr i32* %iic, i64 268436545 ; [#uses=1 type=i32*]
  %iic_load_6_req = call i1 @_ssdm_op_ReadReq.m_axi.i32P(i32* %iic_addr_68, i32 1), !dbg !1137 ; [#uses=0 type=i1] [debug line = 145:3]
  %iic_addr_69 = getelementptr i32* %iic, i64 268436545 ; [#uses=1 type=i32*]
  %iic_addr_69_read = call i32 @_ssdm_op_Read.m_axi.volatile.i32P(i32* %iic_addr_69), !dbg !1137 ; [#uses=1 type=i32] [debug line = 145:3]
  br label %6, !dbg !1162                         ; [debug line = 147:2]

; <label>:9                                       ; preds = %6
  call void @_ssdm_op_Write.s_axilite.i32P(i32* %pressure_msb, i32 %sensorData_2_4), !dbg !1163 ; [debug line = 149:2]
  call void @_ssdm_op_Write.s_axilite.i32P(i32* %pressure_lsb, i32 %sensorData_1_2), !dbg !1164 ; [debug line = 150:2]
  call void @_ssdm_op_Write.s_axilite.i32P(i32* %pressure_xlsb, i32 %sensorData_2_2), !dbg !1165 ; [debug line = 151:2]
  ret void, !dbg !1166                            ; [debug line = 153:1]
}

; [#uses=19]
define weak i1 @_ssdm_op_WriteResp.m_axi.i32P(i32*) {
entry:
  ret i1 true
}

; [#uses=19]
define weak i1 @_ssdm_op_WriteReq.m_axi.i32P(i32*, i32) {
entry:
  ret i1 true
}

; [#uses=9]
define weak void @_ssdm_op_Write.s_axilite.i32P(i32*, i32) {
entry:
  store i32 %1, i32* %0
  ret void
}

; [#uses=19]
define weak void @_ssdm_op_Write.m_axi.volatile.i32P(i32*, i32, i4) {
entry:
  ret void
}

; [#uses=1]
define weak void @_ssdm_op_SpecTopModule(...) {
entry:
  ret void
}

; [#uses=3]
define weak i32 @_ssdm_op_SpecRegionEnd(...) {
entry:
  ret i32 0
}

; [#uses=3]
define weak i32 @_ssdm_op_SpecRegionBegin(...) {
entry:
  ret i32 0
}

; [#uses=3]
define weak void @_ssdm_op_SpecProtocol(...) nounwind {
entry:
  ret void
}

; [#uses=4]
define weak i32 @_ssdm_op_SpecLoopTripCount(...) {
entry:
  ret i32 0
}

; [#uses=1]
define weak i32 @_ssdm_op_SpecLoopName(...) {
entry:
  ret i32 0
}

; [#uses=11]
define weak void @_ssdm_op_SpecInterface(...) nounwind {
entry:
  ret void
}

; [#uses=10]
define weak void @_ssdm_op_SpecBitsMap(...) {
entry:
  ret void
}

; [#uses=7]
define weak i1 @_ssdm_op_ReadReq.m_axi.i32P(i32*, i32) {
entry:
  ret i1 true
}

; [#uses=7]
define weak i32 @_ssdm_op_Read.m_axi.volatile.i32P(i32*) {
entry:
  %empty = load i32* %0                           ; [#uses=1 type=i32]
  ret i32 %empty
}

; [#uses=0]
declare i2 @_ssdm_op_PartSelect.i2.i32.i32.i32(i32, i32, i32) nounwind readnone

; [#uses=3]
define weak i32 @_ssdm_op_Mux.ap_auto.4i32.i2(i32, i32, i32, i32, i2) {
entry:
  switch i2 %4, label %case3 [
    i2 0, label %case0
    i2 1, label %case1
    i2 -2, label %case2
  ]

case0:                                            ; preds = %case3, %case2, %case1, %entry
  %merge = phi i32 [ %0, %entry ], [ %1, %case1 ], [ %2, %case2 ], [ %3, %case3 ] ; [#uses=1 type=i32]
  ret i32 %merge

case1:                                            ; preds = %entry
  br label %case0

case2:                                            ; preds = %entry
  br label %case0

case3:                                            ; preds = %entry
  br label %case0
}

; [#uses=1]
define weak i1 @_ssdm_op_BitSelect.i1.i32.i32(i32, i32) nounwind readnone {
entry:
  %empty = shl i32 1, %1                          ; [#uses=1 type=i32]
  %empty_10 = and i32 %0, %empty                  ; [#uses=1 type=i32]
  %empty_11 = icmp ne i32 %empty_10, 0            ; [#uses=1 type=i1]
  ret i1 %empty_11
}

; [#uses=1]
define weak i7 @_ssdm_op_BitConcatenate.i7.i1.i6(i1, i6) nounwind readnone {
entry:
  %empty = zext i1 %0 to i7                       ; [#uses=1 type=i7]
  %empty_12 = zext i6 %1 to i7                    ; [#uses=1 type=i7]
  %empty_13 = shl i7 %empty, 6                    ; [#uses=1 type=i7]
  %empty_14 = or i7 %empty_13, %empty_12          ; [#uses=1 type=i7]
  ret i7 %empty_14
}

!opencl.kernels = !{!0, !7, !7, !13, !13, !7, !19, !22, !24, !24, !7, !7, !26, !28, !28, !7, !7, !7, !7}
!hls.encrypted.func = !{}
!llvm.map.gv = !{!30}

!0 = metadata !{null, metadata !1, metadata !2, metadata !3, metadata !4, metadata !5, metadata !6}
!1 = metadata !{metadata !"kernel_arg_addr_space", i32 1, i32 0, i32 0, i32 0, i32 0, i32 0, i32 0, i32 0, i32 0, i32 0}
!2 = metadata !{metadata !"kernel_arg_access_qual", metadata !"none", metadata !"none", metadata !"none", metadata !"none", metadata !"none", metadata !"none", metadata !"none", metadata !"none", metadata !"none", metadata !"none"}
!3 = metadata !{metadata !"kernel_arg_type", metadata !"uint32_t*", metadata !"uint32_t &", metadata !"uint32_t &", metadata !"uint32_t &", metadata !"uint32_t &", metadata !"uint32_t &", metadata !"uint32_t &", metadata !"uint32_t &", metadata !"uint32_t &", metadata !"uint32_t &"}
!4 = metadata !{metadata !"kernel_arg_type_qual", metadata !"volatile", metadata !"", metadata !"", metadata !"", metadata !"", metadata !"", metadata !"", metadata !"", metadata !"", metadata !""}
!5 = metadata !{metadata !"kernel_arg_name", metadata !"iic", metadata !"empty_pirq_outValue", metadata !"full_pirq_outValue", metadata !"ctrl_reg_outValue", metadata !"stat_reg_outValue1", metadata !"stat_reg_val2", metadata !"pressure_msb", metadata !"pressure_lsb", metadata !"pressure_xlsb", metadata !"operation"}
!6 = metadata !{metadata !"reqd_work_group_size", i32 1, i32 1, i32 1}
!7 = metadata !{null, metadata !8, metadata !9, metadata !10, metadata !11, metadata !12, metadata !6}
!8 = metadata !{metadata !"kernel_arg_addr_space"}
!9 = metadata !{metadata !"kernel_arg_access_qual"}
!10 = metadata !{metadata !"kernel_arg_type"}
!11 = metadata !{metadata !"kernel_arg_type_qual"}
!12 = metadata !{metadata !"kernel_arg_name"}
!13 = metadata !{null, metadata !14, metadata !15, metadata !16, metadata !17, metadata !18, metadata !6}
!14 = metadata !{metadata !"kernel_arg_addr_space", i32 0}
!15 = metadata !{metadata !"kernel_arg_access_qual", metadata !"none"}
!16 = metadata !{metadata !"kernel_arg_type", metadata !"int"}
!17 = metadata !{metadata !"kernel_arg_type_qual", metadata !""}
!18 = metadata !{metadata !"kernel_arg_name", metadata !"op"}
!19 = metadata !{null, metadata !14, metadata !15, metadata !20, metadata !17, metadata !21, metadata !6}
!20 = metadata !{metadata !"kernel_arg_type", metadata !"const ap_int_base<1, false> &"}
!21 = metadata !{metadata !"kernel_arg_name", metadata !"op2"}
!22 = metadata !{null, metadata !14, metadata !15, metadata !23, metadata !17, metadata !21, metadata !6}
!23 = metadata !{metadata !"kernel_arg_type", metadata !"const ap_int_base<64, false> &"}
!24 = metadata !{null, metadata !14, metadata !15, metadata !16, metadata !17, metadata !25, metadata !6}
!25 = metadata !{metadata !"kernel_arg_name", metadata !"val"}
!26 = metadata !{null, metadata !14, metadata !15, metadata !27, metadata !17, metadata !21, metadata !6}
!27 = metadata !{metadata !"kernel_arg_type", metadata !"const ap_uint<64> &"}
!28 = metadata !{null, metadata !14, metadata !15, metadata !29, metadata !17, metadata !25, metadata !6}
!29 = metadata !{metadata !"kernel_arg_type", metadata !"ulong long"}
!30 = metadata !{metadata !31, [0 x i32]* @llvm_global_ctors_0}
!31 = metadata !{metadata !32}
!32 = metadata !{i32 0, i32 31, metadata !33}
!33 = metadata !{metadata !34}
!34 = metadata !{metadata !"llvm.global_ctors.0", metadata !35, metadata !"", i32 0, i32 31}
!35 = metadata !{metadata !36}
!36 = metadata !{i32 0, i32 0, i32 1}
!37 = metadata !{metadata !38}
!38 = metadata !{i32 0, i32 31, metadata !39}
!39 = metadata !{metadata !40}
!40 = metadata !{metadata !"iic", metadata !41, metadata !"unsigned int", i32 0, i32 31}
!41 = metadata !{metadata !42}
!42 = metadata !{i32 0, i32 4095, i32 1}
!43 = metadata !{metadata !44}
!44 = metadata !{i32 0, i32 31, metadata !45}
!45 = metadata !{metadata !46}
!46 = metadata !{metadata !"empty_pirq_outValue", metadata !35, metadata !"unsigned int", i32 0, i32 31}
!47 = metadata !{metadata !48}
!48 = metadata !{i32 0, i32 31, metadata !49}
!49 = metadata !{metadata !50}
!50 = metadata !{metadata !"full_pirq_outValue", metadata !35, metadata !"unsigned int", i32 0, i32 31}
!51 = metadata !{metadata !52}
!52 = metadata !{i32 0, i32 31, metadata !53}
!53 = metadata !{metadata !54}
!54 = metadata !{metadata !"ctrl_reg_outValue", metadata !35, metadata !"unsigned int", i32 0, i32 31}
!55 = metadata !{metadata !56}
!56 = metadata !{i32 0, i32 31, metadata !57}
!57 = metadata !{metadata !58}
!58 = metadata !{metadata !"stat_reg_outValue1", metadata !35, metadata !"unsigned int", i32 0, i32 31}
!59 = metadata !{metadata !60}
!60 = metadata !{i32 0, i32 31, metadata !61}
!61 = metadata !{metadata !62}
!62 = metadata !{metadata !"stat_reg_val2", metadata !35, metadata !"unsigned int", i32 0, i32 31}
!63 = metadata !{metadata !64}
!64 = metadata !{i32 0, i32 31, metadata !65}
!65 = metadata !{metadata !66}
!66 = metadata !{metadata !"pressure_msb", metadata !35, metadata !"unsigned int", i32 0, i32 31}
!67 = metadata !{metadata !68}
!68 = metadata !{i32 0, i32 31, metadata !69}
!69 = metadata !{metadata !70}
!70 = metadata !{metadata !"pressure_lsb", metadata !35, metadata !"unsigned int", i32 0, i32 31}
!71 = metadata !{metadata !72}
!72 = metadata !{i32 0, i32 31, metadata !73}
!73 = metadata !{metadata !74}
!74 = metadata !{metadata !"pressure_xlsb", metadata !35, metadata !"unsigned int", i32 0, i32 31}
!75 = metadata !{metadata !76}
!76 = metadata !{i32 0, i32 31, metadata !77}
!77 = metadata !{metadata !78}
!78 = metadata !{metadata !"operation", metadata !35, metadata !"unsigned int", i32 0, i32 31}
!79 = metadata !{i32 786689, metadata !80, metadata !"iic", null, i32 40, metadata !91, i32 0, i32 0} ; [ DW_TAG_arg_variable ]
!80 = metadata !{i32 786478, i32 0, metadata !81, metadata !"iiccomm4", metadata !"iiccomm4", metadata !"_Z8iiccomm4PVjRjS1_S1_S1_S1_S1_S1_S1_S1_", metadata !81, i32 40, metadata !82, i1 false, i1 true, i32 0, i32 0, null, i32 256, i1 false, null, null, null, metadata !89, i32 45} ; [ DW_TAG_subprogram ]
!81 = metadata !{i32 786473, metadata !"iiccomm4.cpp", metadata !"/home/iavendano/pynq-copter/pynqcopter/ip/iiccomm4", null} ; [ DW_TAG_file_type ]
!82 = metadata !{i32 786453, i32 0, metadata !"", i32 0, i32 0, i64 0, i64 0, i64 0, i32 0, null, metadata !83, i32 0, i32 0} ; [ DW_TAG_subroutine_type ]
!83 = metadata !{null, metadata !84, metadata !88, metadata !88, metadata !88, metadata !88, metadata !88, metadata !88, metadata !88, metadata !88, metadata !88}
!84 = metadata !{i32 786447, null, metadata !"", null, i32 0, i64 64, i64 64, i64 0, i32 0, metadata !85} ; [ DW_TAG_pointer_type ]
!85 = metadata !{i32 786485, null, metadata !"", null, i32 0, i64 0, i64 0, i64 0, i32 0, metadata !86} ; [ DW_TAG_volatile_type ]
!86 = metadata !{i32 786454, null, metadata !"uint32_t", metadata !81, i32 51, i64 0, i64 0, i64 0, i32 0, metadata !87} ; [ DW_TAG_typedef ]
!87 = metadata !{i32 786468, null, metadata !"unsigned int", null, i32 0, i64 32, i64 32, i64 0, i32 0, i32 7} ; [ DW_TAG_base_type ]
!88 = metadata !{i32 786448, null, null, null, i32 0, i64 0, i64 0, i64 0, i32 0, metadata !86} ; [ DW_TAG_reference_type ]
!89 = metadata !{metadata !90}
!90 = metadata !{i32 786468}                      ; [ DW_TAG_base_type ]
!91 = metadata !{i32 786433, null, metadata !"", null, i32 0, i64 0, i64 0, i32 0, i32 0, metadata !85, metadata !92, i32 0, i32 0} ; [ DW_TAG_array_type ]
!92 = metadata !{metadata !93}
!93 = metadata !{i32 786465, i64 0, i64 4095}     ; [ DW_TAG_subrange_type ]
!94 = metadata !{i32 40, i32 33, metadata !80, null}
!95 = metadata !{i32 786689, metadata !80, metadata !"empty_pirq_outValue", metadata !81, i32 33554473, metadata !88, i32 0, i32 0} ; [ DW_TAG_arg_variable ]
!96 = metadata !{i32 41, i32 12, metadata !80, null}
!97 = metadata !{i32 786689, metadata !80, metadata !"full_pirq_outValue", metadata !81, i32 50331689, metadata !88, i32 0, i32 0} ; [ DW_TAG_arg_variable ]
!98 = metadata !{i32 41, i32 43, metadata !80, null}
!99 = metadata !{i32 786689, metadata !80, metadata !"ctrl_reg_outValue", metadata !81, i32 67108905, metadata !88, i32 0, i32 0} ; [ DW_TAG_arg_variable ]
!100 = metadata !{i32 41, i32 73, metadata !80, null}
!101 = metadata !{i32 786689, metadata !80, metadata !"stat_reg_outValue1", metadata !81, i32 83886122, metadata !88, i32 0, i32 0} ; [ DW_TAG_arg_variable ]
!102 = metadata !{i32 42, i32 12, metadata !80, null}
!103 = metadata !{i32 786689, metadata !80, metadata !"stat_reg_val2", metadata !81, i32 100663338, metadata !88, i32 0, i32 0} ; [ DW_TAG_arg_variable ]
!104 = metadata !{i32 42, i32 42, metadata !80, null}
!105 = metadata !{i32 786689, metadata !80, metadata !"pressure_msb", metadata !81, i32 117440555, metadata !88, i32 0, i32 0} ; [ DW_TAG_arg_variable ]
!106 = metadata !{i32 43, i32 12, metadata !80, null}
!107 = metadata !{i32 786689, metadata !80, metadata !"pressure_lsb", metadata !81, i32 134217771, metadata !88, i32 0, i32 0} ; [ DW_TAG_arg_variable ]
!108 = metadata !{i32 43, i32 36, metadata !80, null}
!109 = metadata !{i32 786689, metadata !80, metadata !"pressure_xlsb", metadata !81, i32 150994987, metadata !88, i32 0, i32 0} ; [ DW_TAG_arg_variable ]
!110 = metadata !{i32 43, i32 60, metadata !80, null}
!111 = metadata !{i32 786689, metadata !80, metadata !"operation", metadata !81, i32 167772204, metadata !88, i32 0, i32 0} ; [ DW_TAG_arg_variable ]
!112 = metadata !{i32 44, i32 12, metadata !80, null}
!113 = metadata !{i32 46, i32 1, metadata !114, null}
!114 = metadata !{i32 786443, metadata !80, i32 45, i32 1, metadata !81, i32 0} ; [ DW_TAG_lexical_block ]
!115 = metadata !{i32 50, i32 1, metadata !114, null}
!116 = metadata !{i32 51, i32 1, metadata !114, null}
!117 = metadata !{i32 52, i32 1, metadata !114, null}
!118 = metadata !{i32 53, i32 1, metadata !114, null}
!119 = metadata !{i32 54, i32 1, metadata !114, null}
!120 = metadata !{i32 55, i32 1, metadata !114, null}
!121 = metadata !{i32 56, i32 1, metadata !114, null}
!122 = metadata !{i32 57, i32 1, metadata !114, null}
!123 = metadata !{i32 58, i32 1, metadata !114, null}
!124 = metadata !{i32 66, i32 29, metadata !114, null}
!125 = metadata !{i32 70, i32 2, metadata !114, null}
!126 = metadata !{i32 71, i32 2, metadata !114, null}
!127 = metadata !{i32 74, i32 2, metadata !114, null}
!128 = metadata !{i32 75, i32 2, metadata !114, null}
!129 = metadata !{i32 76, i32 2, metadata !114, null}
!130 = metadata !{i32 79, i32 2, metadata !114, null}
!131 = metadata !{i32 82, i32 2, metadata !114, null}
!132 = metadata !{i32 83, i32 2, metadata !114, null}
!133 = metadata !{i32 84, i32 2, metadata !114, null}
!134 = metadata !{i32 87, i32 5, metadata !114, null}
!135 = metadata !{i32 88, i32 5, metadata !114, null}
!136 = metadata !{i32 92, i32 2, metadata !114, null}
!137 = metadata !{i32 93, i32 2, metadata !114, null}
!138 = metadata !{i32 94, i32 2, metadata !114, null}
!139 = metadata !{i32 97, i32 2, metadata !114, null}
!140 = metadata !{i32 98, i32 2, metadata !114, null}
!141 = metadata !{i32 99, i32 2, metadata !114, null}
!142 = metadata !{i32 102, i32 2, metadata !114, null}
!143 = metadata !{i32 103, i32 2, metadata !114, null}
!144 = metadata !{i32 104, i32 2, metadata !114, null}
!145 = metadata !{i32 107, i32 2, metadata !114, null}
!146 = metadata !{i32 108, i32 2, metadata !114, null}
!147 = metadata !{i32 109, i32 2, metadata !114, null}
!148 = metadata !{i32 57, i32 1, metadata !149, metadata !158}
!149 = metadata !{i32 786443, metadata !150, i32 54, i32 22, metadata !151, i32 16} ; [ DW_TAG_lexical_block ]
!150 = metadata !{i32 786478, i32 0, metadata !151, metadata !"delay_until_ms<600, 50000000>", metadata !"delay_until_ms<600, 50000000>", metadata !"_Z14delay_until_msILy600ELy50000000EEvv", metadata !151, i32 54, metadata !152, i1 false, i1 true, i32 0, i32 0, null, i32 256, i1 false, null, metadata !154, null, metadata !89, i32 54} ; [ DW_TAG_subprogram ]
!151 = metadata !{i32 786473, metadata !"./iiccomm4.hpp", metadata !"/home/iavendano/pynq-copter/pynqcopter/ip/iiccomm4", null} ; [ DW_TAG_file_type ]
!152 = metadata !{i32 786453, i32 0, metadata !"", i32 0, i32 0, i64 0, i64 0, i64 0, i32 0, null, metadata !153, i32 0, i32 0} ; [ DW_TAG_subroutine_type ]
!153 = metadata !{null}
!154 = metadata !{metadata !155, metadata !157}
!155 = metadata !{i32 786480, null, metadata !"MILLISECONDS", metadata !156, i64 600, null, i32 0, i32 0} ; [ DW_TAG_template_value_parameter ]
!156 = metadata !{i32 786468, null, metadata !"long long unsigned int", null, i32 0, i64 64, i64 64, i64 0, i32 0, i32 7} ; [ DW_TAG_base_type ]
!157 = metadata !{i32 786480, null, metadata !"F_OVERLAY_HZ", metadata !156, i64 50000000, null, i32 0, i32 0} ; [ DW_TAG_template_value_parameter ]
!158 = metadata !{i32 111, i32 2, metadata !114, null}
!159 = metadata !{i32 61, i32 10, metadata !160, metadata !158}
!160 = metadata !{i32 786443, metadata !149, i32 61, i32 5, metadata !151, i32 17} ; [ DW_TAG_lexical_block ]
!161 = metadata !{i32 2042, i32 5, metadata !162, metadata !1005}
!162 = metadata !{i32 786443, metadata !163, i32 2041, i32 104, metadata !164, i32 9} ; [ DW_TAG_lexical_block ]
!163 = metadata !{i32 786478, i32 0, null, metadata !"operator<<64, false>", metadata !"operator<<64, false>", metadata !"_ZNK11ap_int_baseILi64ELb0ELb1EEltILi64ELb0EEEbRKS_IXT_EXT0_EXleT_Li64EEE", metadata !164, i32 2041, metadata !165, i1 false, i1 true, i32 0, i32 0, null, i32 256, i1 false, null, metadata !199, metadata !906, metadata !89, i32 2041} ; [ DW_TAG_subprogram ]
!164 = metadata !{i32 786473, metadata !"/data/opt/Xilinx/Vivado/2017.4/common/technology/autopilot/ap_int_syn.h", metadata !"/home/iavendano/pynq-copter/pynqcopter/ip/iiccomm4", null} ; [ DW_TAG_file_type ]
!165 = metadata !{i32 786453, i32 0, metadata !"", i32 0, i32 0, i64 0, i64 0, i64 0, i32 0, null, metadata !166, i32 0, i32 0} ; [ DW_TAG_subroutine_type ]
!166 = metadata !{metadata !167, metadata !168, metadata !198}
!167 = metadata !{i32 786468, null, metadata !"bool", null, i32 0, i64 8, i64 8, i64 0, i32 0, i32 2} ; [ DW_TAG_base_type ]
!168 = metadata !{i32 786447, i32 0, metadata !"", i32 0, i32 0, i64 64, i64 64, i64 0, i32 64, metadata !169} ; [ DW_TAG_pointer_type ]
!169 = metadata !{i32 786470, null, metadata !"", null, i32 0, i64 0, i64 0, i64 0, i32 0, metadata !170} ; [ DW_TAG_const_type ]
!170 = metadata !{i32 786434, null, metadata !"ap_int_base<64, false, true>", metadata !164, i32 1453, i64 64, i64 64, i32 0, i32 0, null, metadata !171, i32 0, null, metadata !1004} ; [ DW_TAG_class_type ]
!171 = metadata !{metadata !172, metadata !191, metadata !195, metadata !202, metadata !208, metadata !211, metadata !215, metadata !219, metadata !223, metadata !227, metadata !230, metadata !233, metadata !237, metadata !241, metadata !246, metadata !250, metadata !255, metadata !259, metadata !263, metadata !269, metadata !272, metadata !276, metadata !279, metadata !282, metadata !283, metadata !287, metadata !290, metadata !293, metadata !296, metadata !299, metadata !302, metadata !305, metadata !308, metadata !311, metadata !314, metadata !317, metadata !320, metadata !329, metadata !332, metadata !335, metadata !338, metadata !341, metadata !344, metadata !347, metadata !350, metadata !353, metadata !356, metadata !359, metadata !362, metadata !365, metadata !366, metadata !370, metadata !373, metadata !374, metadata !375, metadata !376, metadata !377, metadata !378, metadata !381, metadata !382, metadata !385, metadata !386, metadata !387, metadata !388, metadata !389, metadata !390, metadata !393, metadata !651, metadata !652, metadata !653, metadata !656, metadata !657, metadata !660, metadata !661, metadata !906, metadata !907, metadata !968, metadata !969, metadata !972, metadata !973, metadata !977, metadata !978, metadata !979, metadata !980, metadata !983, metadata !984, metadata !985, metadata !986, metadata !987, metadata !988, metadata !989, metadata !990, metadata !991, metadata !992, metadata !993, metadata !994, metadata !997, metadata !1000, metadata !1003}
!172 = metadata !{i32 786460, metadata !170, null, metadata !164, i32 0, i64 0, i64 0, i64 0, i32 0, metadata !173} ; [ DW_TAG_inheritance ]
!173 = metadata !{i32 786434, null, metadata !"ssdm_int<64 + 1024 * 0, false>", metadata !174, i32 68, i64 64, i64 64, i32 0, i32 0, null, metadata !175, i32 0, null, metadata !187} ; [ DW_TAG_class_type ]
!174 = metadata !{i32 786473, metadata !"/data/opt/Xilinx/Vivado/2017.4/common/technology/autopilot/etc/autopilot_dt.def", metadata !"/home/iavendano/pynq-copter/pynqcopter/ip/iiccomm4", null} ; [ DW_TAG_file_type ]
!175 = metadata !{metadata !176, metadata !178, metadata !182}
!176 = metadata !{i32 786445, metadata !173, metadata !"V", metadata !174, i32 68, i64 64, i64 64, i64 0, i32 0, metadata !177} ; [ DW_TAG_member ]
!177 = metadata !{i32 786468, null, metadata !"uint64", null, i32 0, i64 64, i64 64, i64 0, i32 0, i32 7} ; [ DW_TAG_base_type ]
!178 = metadata !{i32 786478, i32 0, metadata !173, metadata !"ssdm_int", metadata !"ssdm_int", metadata !"", metadata !174, i32 68, metadata !179, i1 false, i1 false, i32 0, i32 0, null, i32 256, i1 false, null, null, i32 0, metadata !89, i32 68} ; [ DW_TAG_subprogram ]
!179 = metadata !{i32 786453, i32 0, metadata !"", i32 0, i32 0, i64 0, i64 0, i64 0, i32 0, null, metadata !180, i32 0, i32 0} ; [ DW_TAG_subroutine_type ]
!180 = metadata !{null, metadata !181}
!181 = metadata !{i32 786447, i32 0, metadata !"", i32 0, i32 0, i64 64, i64 64, i64 0, i32 64, metadata !173} ; [ DW_TAG_pointer_type ]
!182 = metadata !{i32 786478, i32 0, metadata !173, metadata !"ssdm_int", metadata !"ssdm_int", metadata !"", metadata !174, i32 68, metadata !183, i1 false, i1 false, i32 0, i32 0, null, i32 320, i1 false, null, null, i32 0, metadata !89, i32 68} ; [ DW_TAG_subprogram ]
!183 = metadata !{i32 786453, i32 0, metadata !"", i32 0, i32 0, i64 0, i64 0, i64 0, i32 0, null, metadata !184, i32 0, i32 0} ; [ DW_TAG_subroutine_type ]
!184 = metadata !{null, metadata !181, metadata !185}
!185 = metadata !{i32 786448, null, null, null, i32 0, i64 0, i64 0, i64 0, i32 0, metadata !186} ; [ DW_TAG_reference_type ]
!186 = metadata !{i32 786470, null, metadata !"", null, i32 0, i64 0, i64 0, i64 0, i32 0, metadata !173} ; [ DW_TAG_const_type ]
!187 = metadata !{metadata !188, metadata !190}
!188 = metadata !{i32 786480, null, metadata !"_AP_N", metadata !189, i64 64, null, i32 0, i32 0} ; [ DW_TAG_template_value_parameter ]
!189 = metadata !{i32 786468, null, metadata !"int", null, i32 0, i64 32, i64 32, i64 0, i32 0, i32 5} ; [ DW_TAG_base_type ]
!190 = metadata !{i32 786480, null, metadata !"_AP_S", metadata !167, i64 0, null, i32 0, i32 0} ; [ DW_TAG_template_value_parameter ]
!191 = metadata !{i32 786478, i32 0, metadata !170, metadata !"ap_int_base", metadata !"ap_int_base", metadata !"", metadata !164, i32 1494, metadata !192, i1 false, i1 false, i32 0, i32 0, null, i32 256, i1 false, null, null, i32 0, metadata !89, i32 1494} ; [ DW_TAG_subprogram ]
!192 = metadata !{i32 786453, i32 0, metadata !"", i32 0, i32 0, i64 0, i64 0, i64 0, i32 0, null, metadata !193, i32 0, i32 0} ; [ DW_TAG_subroutine_type ]
!193 = metadata !{null, metadata !194}
!194 = metadata !{i32 786447, i32 0, metadata !"", i32 0, i32 0, i64 64, i64 64, i64 0, i32 64, metadata !170} ; [ DW_TAG_pointer_type ]
!195 = metadata !{i32 786478, i32 0, metadata !170, metadata !"ap_int_base<64, false>", metadata !"ap_int_base<64, false>", metadata !"", metadata !164, i32 1506, metadata !196, i1 false, i1 false, i32 0, i32 0, null, i32 256, i1 false, null, metadata !199, i32 0, metadata !89, i32 1506} ; [ DW_TAG_subprogram ]
!196 = metadata !{i32 786453, i32 0, metadata !"", i32 0, i32 0, i64 0, i64 0, i64 0, i32 0, null, metadata !197, i32 0, i32 0} ; [ DW_TAG_subroutine_type ]
!197 = metadata !{null, metadata !194, metadata !198}
!198 = metadata !{i32 786448, null, null, null, i32 0, i64 0, i64 0, i64 0, i32 0, metadata !169} ; [ DW_TAG_reference_type ]
!199 = metadata !{metadata !200, metadata !201}
!200 = metadata !{i32 786480, null, metadata !"_AP_W2", metadata !189, i64 64, null, i32 0, i32 0} ; [ DW_TAG_template_value_parameter ]
!201 = metadata !{i32 786480, null, metadata !"_AP_S2", metadata !167, i64 0, null, i32 0, i32 0} ; [ DW_TAG_template_value_parameter ]
!202 = metadata !{i32 786478, i32 0, metadata !170, metadata !"ap_int_base<64, false>", metadata !"ap_int_base<64, false>", metadata !"", metadata !164, i32 1509, metadata !203, i1 false, i1 false, i32 0, i32 0, null, i32 256, i1 false, null, metadata !199, i32 0, metadata !89, i32 1509} ; [ DW_TAG_subprogram ]
!203 = metadata !{i32 786453, i32 0, metadata !"", i32 0, i32 0, i64 0, i64 0, i64 0, i32 0, null, metadata !204, i32 0, i32 0} ; [ DW_TAG_subroutine_type ]
!204 = metadata !{null, metadata !194, metadata !205}
!205 = metadata !{i32 786448, null, null, null, i32 0, i64 0, i64 0, i64 0, i32 0, metadata !206} ; [ DW_TAG_reference_type ]
!206 = metadata !{i32 786470, null, metadata !"", null, i32 0, i64 0, i64 0, i64 0, i32 0, metadata !207} ; [ DW_TAG_const_type ]
!207 = metadata !{i32 786485, null, metadata !"", null, i32 0, i64 0, i64 0, i64 0, i32 0, metadata !170} ; [ DW_TAG_volatile_type ]
!208 = metadata !{i32 786478, i32 0, metadata !170, metadata !"ap_int_base", metadata !"ap_int_base", metadata !"", metadata !164, i32 1516, metadata !209, i1 false, i1 false, i32 0, i32 0, null, i32 384, i1 false, null, null, i32 0, metadata !89, i32 1516} ; [ DW_TAG_subprogram ]
!209 = metadata !{i32 786453, i32 0, metadata !"", i32 0, i32 0, i64 0, i64 0, i64 0, i32 0, null, metadata !210, i32 0, i32 0} ; [ DW_TAG_subroutine_type ]
!210 = metadata !{null, metadata !194, metadata !167}
!211 = metadata !{i32 786478, i32 0, metadata !170, metadata !"ap_int_base", metadata !"ap_int_base", metadata !"", metadata !164, i32 1517, metadata !212, i1 false, i1 false, i32 0, i32 0, null, i32 384, i1 false, null, null, i32 0, metadata !89, i32 1517} ; [ DW_TAG_subprogram ]
!212 = metadata !{i32 786453, i32 0, metadata !"", i32 0, i32 0, i64 0, i64 0, i64 0, i32 0, null, metadata !213, i32 0, i32 0} ; [ DW_TAG_subroutine_type ]
!213 = metadata !{null, metadata !194, metadata !214}
!214 = metadata !{i32 786468, null, metadata !"signed char", null, i32 0, i64 8, i64 8, i64 0, i32 0, i32 6} ; [ DW_TAG_base_type ]
!215 = metadata !{i32 786478, i32 0, metadata !170, metadata !"ap_int_base", metadata !"ap_int_base", metadata !"", metadata !164, i32 1518, metadata !216, i1 false, i1 false, i32 0, i32 0, null, i32 384, i1 false, null, null, i32 0, metadata !89, i32 1518} ; [ DW_TAG_subprogram ]
!216 = metadata !{i32 786453, i32 0, metadata !"", i32 0, i32 0, i64 0, i64 0, i64 0, i32 0, null, metadata !217, i32 0, i32 0} ; [ DW_TAG_subroutine_type ]
!217 = metadata !{null, metadata !194, metadata !218}
!218 = metadata !{i32 786468, null, metadata !"unsigned char", null, i32 0, i64 8, i64 8, i64 0, i32 0, i32 8} ; [ DW_TAG_base_type ]
!219 = metadata !{i32 786478, i32 0, metadata !170, metadata !"ap_int_base", metadata !"ap_int_base", metadata !"", metadata !164, i32 1519, metadata !220, i1 false, i1 false, i32 0, i32 0, null, i32 384, i1 false, null, null, i32 0, metadata !89, i32 1519} ; [ DW_TAG_subprogram ]
!220 = metadata !{i32 786453, i32 0, metadata !"", i32 0, i32 0, i64 0, i64 0, i64 0, i32 0, null, metadata !221, i32 0, i32 0} ; [ DW_TAG_subroutine_type ]
!221 = metadata !{null, metadata !194, metadata !222}
!222 = metadata !{i32 786468, null, metadata !"short", null, i32 0, i64 16, i64 16, i64 0, i32 0, i32 5} ; [ DW_TAG_base_type ]
!223 = metadata !{i32 786478, i32 0, metadata !170, metadata !"ap_int_base", metadata !"ap_int_base", metadata !"", metadata !164, i32 1520, metadata !224, i1 false, i1 false, i32 0, i32 0, null, i32 384, i1 false, null, null, i32 0, metadata !89, i32 1520} ; [ DW_TAG_subprogram ]
!224 = metadata !{i32 786453, i32 0, metadata !"", i32 0, i32 0, i64 0, i64 0, i64 0, i32 0, null, metadata !225, i32 0, i32 0} ; [ DW_TAG_subroutine_type ]
!225 = metadata !{null, metadata !194, metadata !226}
!226 = metadata !{i32 786468, null, metadata !"unsigned short", null, i32 0, i64 16, i64 16, i64 0, i32 0, i32 7} ; [ DW_TAG_base_type ]
!227 = metadata !{i32 786478, i32 0, metadata !170, metadata !"ap_int_base", metadata !"ap_int_base", metadata !"", metadata !164, i32 1521, metadata !228, i1 false, i1 false, i32 0, i32 0, null, i32 384, i1 false, null, null, i32 0, metadata !89, i32 1521} ; [ DW_TAG_subprogram ]
!228 = metadata !{i32 786453, i32 0, metadata !"", i32 0, i32 0, i64 0, i64 0, i64 0, i32 0, null, metadata !229, i32 0, i32 0} ; [ DW_TAG_subroutine_type ]
!229 = metadata !{null, metadata !194, metadata !189}
!230 = metadata !{i32 786478, i32 0, metadata !170, metadata !"ap_int_base", metadata !"ap_int_base", metadata !"", metadata !164, i32 1522, metadata !231, i1 false, i1 false, i32 0, i32 0, null, i32 384, i1 false, null, null, i32 0, metadata !89, i32 1522} ; [ DW_TAG_subprogram ]
!231 = metadata !{i32 786453, i32 0, metadata !"", i32 0, i32 0, i64 0, i64 0, i64 0, i32 0, null, metadata !232, i32 0, i32 0} ; [ DW_TAG_subroutine_type ]
!232 = metadata !{null, metadata !194, metadata !87}
!233 = metadata !{i32 786478, i32 0, metadata !170, metadata !"ap_int_base", metadata !"ap_int_base", metadata !"", metadata !164, i32 1523, metadata !234, i1 false, i1 false, i32 0, i32 0, null, i32 384, i1 false, null, null, i32 0, metadata !89, i32 1523} ; [ DW_TAG_subprogram ]
!234 = metadata !{i32 786453, i32 0, metadata !"", i32 0, i32 0, i64 0, i64 0, i64 0, i32 0, null, metadata !235, i32 0, i32 0} ; [ DW_TAG_subroutine_type ]
!235 = metadata !{null, metadata !194, metadata !236}
!236 = metadata !{i32 786468, null, metadata !"long int", null, i32 0, i64 64, i64 64, i64 0, i32 0, i32 5} ; [ DW_TAG_base_type ]
!237 = metadata !{i32 786478, i32 0, metadata !170, metadata !"ap_int_base", metadata !"ap_int_base", metadata !"", metadata !164, i32 1524, metadata !238, i1 false, i1 false, i32 0, i32 0, null, i32 384, i1 false, null, null, i32 0, metadata !89, i32 1524} ; [ DW_TAG_subprogram ]
!238 = metadata !{i32 786453, i32 0, metadata !"", i32 0, i32 0, i64 0, i64 0, i64 0, i32 0, null, metadata !239, i32 0, i32 0} ; [ DW_TAG_subroutine_type ]
!239 = metadata !{null, metadata !194, metadata !240}
!240 = metadata !{i32 786468, null, metadata !"long unsigned int", null, i32 0, i64 64, i64 64, i64 0, i32 0, i32 7} ; [ DW_TAG_base_type ]
!241 = metadata !{i32 786478, i32 0, metadata !170, metadata !"ap_int_base", metadata !"ap_int_base", metadata !"", metadata !164, i32 1525, metadata !242, i1 false, i1 false, i32 0, i32 0, null, i32 384, i1 false, null, null, i32 0, metadata !89, i32 1525} ; [ DW_TAG_subprogram ]
!242 = metadata !{i32 786453, i32 0, metadata !"", i32 0, i32 0, i64 0, i64 0, i64 0, i32 0, null, metadata !243, i32 0, i32 0} ; [ DW_TAG_subroutine_type ]
!243 = metadata !{null, metadata !194, metadata !244}
!244 = metadata !{i32 786454, null, metadata !"ap_slong", metadata !164, i32 112, i64 0, i64 0, i64 0, i32 0, metadata !245} ; [ DW_TAG_typedef ]
!245 = metadata !{i32 786468, null, metadata !"long long int", null, i32 0, i64 64, i64 64, i64 0, i32 0, i32 5} ; [ DW_TAG_base_type ]
!246 = metadata !{i32 786478, i32 0, metadata !170, metadata !"ap_int_base", metadata !"ap_int_base", metadata !"", metadata !164, i32 1526, metadata !247, i1 false, i1 false, i32 0, i32 0, null, i32 384, i1 false, null, null, i32 0, metadata !89, i32 1526} ; [ DW_TAG_subprogram ]
!247 = metadata !{i32 786453, i32 0, metadata !"", i32 0, i32 0, i64 0, i64 0, i64 0, i32 0, null, metadata !248, i32 0, i32 0} ; [ DW_TAG_subroutine_type ]
!248 = metadata !{null, metadata !194, metadata !249}
!249 = metadata !{i32 786454, null, metadata !"ap_ulong", metadata !164, i32 111, i64 0, i64 0, i64 0, i32 0, metadata !156} ; [ DW_TAG_typedef ]
!250 = metadata !{i32 786478, i32 0, metadata !170, metadata !"ap_int_base", metadata !"ap_int_base", metadata !"", metadata !164, i32 1527, metadata !251, i1 false, i1 false, i32 0, i32 0, null, i32 384, i1 false, null, null, i32 0, metadata !89, i32 1527} ; [ DW_TAG_subprogram ]
!251 = metadata !{i32 786453, i32 0, metadata !"", i32 0, i32 0, i64 0, i64 0, i64 0, i32 0, null, metadata !252, i32 0, i32 0} ; [ DW_TAG_subroutine_type ]
!252 = metadata !{null, metadata !194, metadata !253}
!253 = metadata !{i32 786454, null, metadata !"half", metadata !164, i32 54, i64 0, i64 0, i64 0, i32 0, metadata !254} ; [ DW_TAG_typedef ]
!254 = metadata !{i32 786468, null, metadata !"half", null, i32 0, i64 16, i64 16, i64 0, i32 0, i32 4} ; [ DW_TAG_base_type ]
!255 = metadata !{i32 786478, i32 0, metadata !170, metadata !"ap_int_base", metadata !"ap_int_base", metadata !"", metadata !164, i32 1528, metadata !256, i1 false, i1 false, i32 0, i32 0, null, i32 384, i1 false, null, null, i32 0, metadata !89, i32 1528} ; [ DW_TAG_subprogram ]
!256 = metadata !{i32 786453, i32 0, metadata !"", i32 0, i32 0, i64 0, i64 0, i64 0, i32 0, null, metadata !257, i32 0, i32 0} ; [ DW_TAG_subroutine_type ]
!257 = metadata !{null, metadata !194, metadata !258}
!258 = metadata !{i32 786468, null, metadata !"float", null, i32 0, i64 32, i64 32, i64 0, i32 0, i32 4} ; [ DW_TAG_base_type ]
!259 = metadata !{i32 786478, i32 0, metadata !170, metadata !"ap_int_base", metadata !"ap_int_base", metadata !"", metadata !164, i32 1529, metadata !260, i1 false, i1 false, i32 0, i32 0, null, i32 384, i1 false, null, null, i32 0, metadata !89, i32 1529} ; [ DW_TAG_subprogram ]
!260 = metadata !{i32 786453, i32 0, metadata !"", i32 0, i32 0, i64 0, i64 0, i64 0, i32 0, null, metadata !261, i32 0, i32 0} ; [ DW_TAG_subroutine_type ]
!261 = metadata !{null, metadata !194, metadata !262}
!262 = metadata !{i32 786468, null, metadata !"double", null, i32 0, i64 64, i64 64, i64 0, i32 0, i32 4} ; [ DW_TAG_base_type ]
!263 = metadata !{i32 786478, i32 0, metadata !170, metadata !"ap_int_base", metadata !"ap_int_base", metadata !"", metadata !164, i32 1556, metadata !264, i1 false, i1 false, i32 0, i32 0, null, i32 256, i1 false, null, null, i32 0, metadata !89, i32 1556} ; [ DW_TAG_subprogram ]
!264 = metadata !{i32 786453, i32 0, metadata !"", i32 0, i32 0, i64 0, i64 0, i64 0, i32 0, null, metadata !265, i32 0, i32 0} ; [ DW_TAG_subroutine_type ]
!265 = metadata !{null, metadata !194, metadata !266}
!266 = metadata !{i32 786447, null, metadata !"", null, i32 0, i64 64, i64 64, i64 0, i32 0, metadata !267} ; [ DW_TAG_pointer_type ]
!267 = metadata !{i32 786470, null, metadata !"", null, i32 0, i64 0, i64 0, i64 0, i32 0, metadata !268} ; [ DW_TAG_const_type ]
!268 = metadata !{i32 786468, null, metadata !"char", null, i32 0, i64 8, i64 8, i64 0, i32 0, i32 6} ; [ DW_TAG_base_type ]
!269 = metadata !{i32 786478, i32 0, metadata !170, metadata !"ap_int_base", metadata !"ap_int_base", metadata !"", metadata !164, i32 1563, metadata !270, i1 false, i1 false, i32 0, i32 0, null, i32 256, i1 false, null, null, i32 0, metadata !89, i32 1563} ; [ DW_TAG_subprogram ]
!270 = metadata !{i32 786453, i32 0, metadata !"", i32 0, i32 0, i64 0, i64 0, i64 0, i32 0, null, metadata !271, i32 0, i32 0} ; [ DW_TAG_subroutine_type ]
!271 = metadata !{null, metadata !194, metadata !266, metadata !214}
!272 = metadata !{i32 786478, i32 0, metadata !170, metadata !"read", metadata !"read", metadata !"_ZNV11ap_int_baseILi64ELb0ELb1EE4readEv", metadata !164, i32 1584, metadata !273, i1 false, i1 false, i32 0, i32 0, null, i32 256, i1 false, null, null, i32 0, metadata !89, i32 1584} ; [ DW_TAG_subprogram ]
!273 = metadata !{i32 786453, i32 0, metadata !"", i32 0, i32 0, i64 0, i64 0, i64 0, i32 0, null, metadata !274, i32 0, i32 0} ; [ DW_TAG_subroutine_type ]
!274 = metadata !{metadata !170, metadata !275}
!275 = metadata !{i32 786447, i32 0, metadata !"", i32 0, i32 0, i64 64, i64 64, i64 0, i32 64, metadata !207} ; [ DW_TAG_pointer_type ]
!276 = metadata !{i32 786478, i32 0, metadata !170, metadata !"write", metadata !"write", metadata !"_ZNV11ap_int_baseILi64ELb0ELb1EE5writeERKS0_", metadata !164, i32 1590, metadata !277, i1 false, i1 false, i32 0, i32 0, null, i32 256, i1 false, null, null, i32 0, metadata !89, i32 1590} ; [ DW_TAG_subprogram ]
!277 = metadata !{i32 786453, i32 0, metadata !"", i32 0, i32 0, i64 0, i64 0, i64 0, i32 0, null, metadata !278, i32 0, i32 0} ; [ DW_TAG_subroutine_type ]
!278 = metadata !{null, metadata !275, metadata !198}
!279 = metadata !{i32 786478, i32 0, metadata !170, metadata !"operator=", metadata !"operator=", metadata !"_ZNV11ap_int_baseILi64ELb0ELb1EEaSERVKS0_", metadata !164, i32 1602, metadata !280, i1 false, i1 false, i32 0, i32 0, null, i32 256, i1 false, null, null, i32 0, metadata !89, i32 1602} ; [ DW_TAG_subprogram ]
!280 = metadata !{i32 786453, i32 0, metadata !"", i32 0, i32 0, i64 0, i64 0, i64 0, i32 0, null, metadata !281, i32 0, i32 0} ; [ DW_TAG_subroutine_type ]
!281 = metadata !{null, metadata !275, metadata !205}
!282 = metadata !{i32 786478, i32 0, metadata !170, metadata !"operator=", metadata !"operator=", metadata !"_ZNV11ap_int_baseILi64ELb0ELb1EEaSERKS0_", metadata !164, i32 1611, metadata !277, i1 false, i1 false, i32 0, i32 0, null, i32 256, i1 false, null, null, i32 0, metadata !89, i32 1611} ; [ DW_TAG_subprogram ]
!283 = metadata !{i32 786478, i32 0, metadata !170, metadata !"operator=", metadata !"operator=", metadata !"_ZN11ap_int_baseILi64ELb0ELb1EEaSERVKS0_", metadata !164, i32 1634, metadata !284, i1 false, i1 false, i32 0, i32 0, null, i32 256, i1 false, null, null, i32 0, metadata !89, i32 1634} ; [ DW_TAG_subprogram ]
!284 = metadata !{i32 786453, i32 0, metadata !"", i32 0, i32 0, i64 0, i64 0, i64 0, i32 0, null, metadata !285, i32 0, i32 0} ; [ DW_TAG_subroutine_type ]
!285 = metadata !{metadata !286, metadata !194, metadata !205}
!286 = metadata !{i32 786448, null, null, null, i32 0, i64 0, i64 0, i64 0, i32 0, metadata !170} ; [ DW_TAG_reference_type ]
!287 = metadata !{i32 786478, i32 0, metadata !170, metadata !"operator=", metadata !"operator=", metadata !"_ZN11ap_int_baseILi64ELb0ELb1EEaSERKS0_", metadata !164, i32 1639, metadata !288, i1 false, i1 false, i32 0, i32 0, null, i32 256, i1 false, null, null, i32 0, metadata !89, i32 1639} ; [ DW_TAG_subprogram ]
!288 = metadata !{i32 786453, i32 0, metadata !"", i32 0, i32 0, i64 0, i64 0, i64 0, i32 0, null, metadata !289, i32 0, i32 0} ; [ DW_TAG_subroutine_type ]
!289 = metadata !{metadata !286, metadata !194, metadata !198}
!290 = metadata !{i32 786478, i32 0, metadata !170, metadata !"operator=", metadata !"operator=", metadata !"_ZN11ap_int_baseILi64ELb0ELb1EEaSEPKc", metadata !164, i32 1643, metadata !291, i1 false, i1 false, i32 0, i32 0, null, i32 256, i1 false, null, null, i32 0, metadata !89, i32 1643} ; [ DW_TAG_subprogram ]
!291 = metadata !{i32 786453, i32 0, metadata !"", i32 0, i32 0, i64 0, i64 0, i64 0, i32 0, null, metadata !292, i32 0, i32 0} ; [ DW_TAG_subroutine_type ]
!292 = metadata !{metadata !286, metadata !194, metadata !266}
!293 = metadata !{i32 786478, i32 0, metadata !170, metadata !"set", metadata !"set", metadata !"_ZN11ap_int_baseILi64ELb0ELb1EE3setEPKca", metadata !164, i32 1651, metadata !294, i1 false, i1 false, i32 0, i32 0, null, i32 256, i1 false, null, null, i32 0, metadata !89, i32 1651} ; [ DW_TAG_subprogram ]
!294 = metadata !{i32 786453, i32 0, metadata !"", i32 0, i32 0, i64 0, i64 0, i64 0, i32 0, null, metadata !295, i32 0, i32 0} ; [ DW_TAG_subroutine_type ]
!295 = metadata !{metadata !286, metadata !194, metadata !266, metadata !214}
!296 = metadata !{i32 786478, i32 0, metadata !170, metadata !"operator=", metadata !"operator=", metadata !"_ZN11ap_int_baseILi64ELb0ELb1EEaSEa", metadata !164, i32 1665, metadata !297, i1 false, i1 false, i32 0, i32 0, null, i32 256, i1 false, null, null, i32 0, metadata !89, i32 1665} ; [ DW_TAG_subprogram ]
!297 = metadata !{i32 786453, i32 0, metadata !"", i32 0, i32 0, i64 0, i64 0, i64 0, i32 0, null, metadata !298, i32 0, i32 0} ; [ DW_TAG_subroutine_type ]
!298 = metadata !{metadata !286, metadata !194, metadata !214}
!299 = metadata !{i32 786478, i32 0, metadata !170, metadata !"operator=", metadata !"operator=", metadata !"_ZN11ap_int_baseILi64ELb0ELb1EEaSEh", metadata !164, i32 1666, metadata !300, i1 false, i1 false, i32 0, i32 0, null, i32 256, i1 false, null, null, i32 0, metadata !89, i32 1666} ; [ DW_TAG_subprogram ]
!300 = metadata !{i32 786453, i32 0, metadata !"", i32 0, i32 0, i64 0, i64 0, i64 0, i32 0, null, metadata !301, i32 0, i32 0} ; [ DW_TAG_subroutine_type ]
!301 = metadata !{metadata !286, metadata !194, metadata !218}
!302 = metadata !{i32 786478, i32 0, metadata !170, metadata !"operator=", metadata !"operator=", metadata !"_ZN11ap_int_baseILi64ELb0ELb1EEaSEs", metadata !164, i32 1667, metadata !303, i1 false, i1 false, i32 0, i32 0, null, i32 256, i1 false, null, null, i32 0, metadata !89, i32 1667} ; [ DW_TAG_subprogram ]
!303 = metadata !{i32 786453, i32 0, metadata !"", i32 0, i32 0, i64 0, i64 0, i64 0, i32 0, null, metadata !304, i32 0, i32 0} ; [ DW_TAG_subroutine_type ]
!304 = metadata !{metadata !286, metadata !194, metadata !222}
!305 = metadata !{i32 786478, i32 0, metadata !170, metadata !"operator=", metadata !"operator=", metadata !"_ZN11ap_int_baseILi64ELb0ELb1EEaSEt", metadata !164, i32 1668, metadata !306, i1 false, i1 false, i32 0, i32 0, null, i32 256, i1 false, null, null, i32 0, metadata !89, i32 1668} ; [ DW_TAG_subprogram ]
!306 = metadata !{i32 786453, i32 0, metadata !"", i32 0, i32 0, i64 0, i64 0, i64 0, i32 0, null, metadata !307, i32 0, i32 0} ; [ DW_TAG_subroutine_type ]
!307 = metadata !{metadata !286, metadata !194, metadata !226}
!308 = metadata !{i32 786478, i32 0, metadata !170, metadata !"operator=", metadata !"operator=", metadata !"_ZN11ap_int_baseILi64ELb0ELb1EEaSEi", metadata !164, i32 1669, metadata !309, i1 false, i1 false, i32 0, i32 0, null, i32 256, i1 false, null, null, i32 0, metadata !89, i32 1669} ; [ DW_TAG_subprogram ]
!309 = metadata !{i32 786453, i32 0, metadata !"", i32 0, i32 0, i64 0, i64 0, i64 0, i32 0, null, metadata !310, i32 0, i32 0} ; [ DW_TAG_subroutine_type ]
!310 = metadata !{metadata !286, metadata !194, metadata !189}
!311 = metadata !{i32 786478, i32 0, metadata !170, metadata !"operator=", metadata !"operator=", metadata !"_ZN11ap_int_baseILi64ELb0ELb1EEaSEj", metadata !164, i32 1670, metadata !312, i1 false, i1 false, i32 0, i32 0, null, i32 256, i1 false, null, null, i32 0, metadata !89, i32 1670} ; [ DW_TAG_subprogram ]
!312 = metadata !{i32 786453, i32 0, metadata !"", i32 0, i32 0, i64 0, i64 0, i64 0, i32 0, null, metadata !313, i32 0, i32 0} ; [ DW_TAG_subroutine_type ]
!313 = metadata !{metadata !286, metadata !194, metadata !87}
!314 = metadata !{i32 786478, i32 0, metadata !170, metadata !"operator=", metadata !"operator=", metadata !"_ZN11ap_int_baseILi64ELb0ELb1EEaSEx", metadata !164, i32 1671, metadata !315, i1 false, i1 false, i32 0, i32 0, null, i32 256, i1 false, null, null, i32 0, metadata !89, i32 1671} ; [ DW_TAG_subprogram ]
!315 = metadata !{i32 786453, i32 0, metadata !"", i32 0, i32 0, i64 0, i64 0, i64 0, i32 0, null, metadata !316, i32 0, i32 0} ; [ DW_TAG_subroutine_type ]
!316 = metadata !{metadata !286, metadata !194, metadata !244}
!317 = metadata !{i32 786478, i32 0, metadata !170, metadata !"operator=", metadata !"operator=", metadata !"_ZN11ap_int_baseILi64ELb0ELb1EEaSEy", metadata !164, i32 1672, metadata !318, i1 false, i1 false, i32 0, i32 0, null, i32 256, i1 false, null, null, i32 0, metadata !89, i32 1672} ; [ DW_TAG_subprogram ]
!318 = metadata !{i32 786453, i32 0, metadata !"", i32 0, i32 0, i64 0, i64 0, i64 0, i32 0, null, metadata !319, i32 0, i32 0} ; [ DW_TAG_subroutine_type ]
!319 = metadata !{metadata !286, metadata !194, metadata !249}
!320 = metadata !{i32 786478, i32 0, metadata !170, metadata !"operator unsigned long long", metadata !"operator unsigned long long", metadata !"_ZNK11ap_int_baseILi64ELb0ELb1EEcvyEv", metadata !164, i32 1710, metadata !321, i1 false, i1 false, i32 0, i32 0, null, i32 256, i1 false, null, null, i32 0, metadata !89, i32 1710} ; [ DW_TAG_subprogram ]
!321 = metadata !{i32 786453, i32 0, metadata !"", i32 0, i32 0, i64 0, i64 0, i64 0, i32 0, null, metadata !322, i32 0, i32 0} ; [ DW_TAG_subroutine_type ]
!322 = metadata !{metadata !323, metadata !168}
!323 = metadata !{i32 786454, metadata !170, metadata !"RetType", metadata !164, i32 1458, i64 0, i64 0, i64 0, i32 0, metadata !324} ; [ DW_TAG_typedef ]
!324 = metadata !{i32 786454, metadata !325, metadata !"Type", metadata !164, i32 1419, i64 0, i64 0, i64 0, i32 0, metadata !249} ; [ DW_TAG_typedef ]
!325 = metadata !{i32 786434, null, metadata !"retval<8, false>", metadata !164, i32 1418, i64 8, i64 8, i32 0, i32 0, null, metadata !326, i32 0, null, metadata !327} ; [ DW_TAG_class_type ]
!326 = metadata !{i32 0}
!327 = metadata !{metadata !328, metadata !190}
!328 = metadata !{i32 786480, null, metadata !"_AP_N", metadata !189, i64 8, null, i32 0, i32 0} ; [ DW_TAG_template_value_parameter ]
!329 = metadata !{i32 786478, i32 0, metadata !170, metadata !"to_bool", metadata !"to_bool", metadata !"_ZNK11ap_int_baseILi64ELb0ELb1EE7to_boolEv", metadata !164, i32 1716, metadata !330, i1 false, i1 false, i32 0, i32 0, null, i32 256, i1 false, null, null, i32 0, metadata !89, i32 1716} ; [ DW_TAG_subprogram ]
!330 = metadata !{i32 786453, i32 0, metadata !"", i32 0, i32 0, i64 0, i64 0, i64 0, i32 0, null, metadata !331, i32 0, i32 0} ; [ DW_TAG_subroutine_type ]
!331 = metadata !{metadata !167, metadata !168}
!332 = metadata !{i32 786478, i32 0, metadata !170, metadata !"to_uchar", metadata !"to_uchar", metadata !"_ZNK11ap_int_baseILi64ELb0ELb1EE8to_ucharEv", metadata !164, i32 1717, metadata !333, i1 false, i1 false, i32 0, i32 0, null, i32 256, i1 false, null, null, i32 0, metadata !89, i32 1717} ; [ DW_TAG_subprogram ]
!333 = metadata !{i32 786453, i32 0, metadata !"", i32 0, i32 0, i64 0, i64 0, i64 0, i32 0, null, metadata !334, i32 0, i32 0} ; [ DW_TAG_subroutine_type ]
!334 = metadata !{metadata !218, metadata !168}
!335 = metadata !{i32 786478, i32 0, metadata !170, metadata !"to_char", metadata !"to_char", metadata !"_ZNK11ap_int_baseILi64ELb0ELb1EE7to_charEv", metadata !164, i32 1718, metadata !336, i1 false, i1 false, i32 0, i32 0, null, i32 256, i1 false, null, null, i32 0, metadata !89, i32 1718} ; [ DW_TAG_subprogram ]
!336 = metadata !{i32 786453, i32 0, metadata !"", i32 0, i32 0, i64 0, i64 0, i64 0, i32 0, null, metadata !337, i32 0, i32 0} ; [ DW_TAG_subroutine_type ]
!337 = metadata !{metadata !214, metadata !168}
!338 = metadata !{i32 786478, i32 0, metadata !170, metadata !"to_ushort", metadata !"to_ushort", metadata !"_ZNK11ap_int_baseILi64ELb0ELb1EE9to_ushortEv", metadata !164, i32 1719, metadata !339, i1 false, i1 false, i32 0, i32 0, null, i32 256, i1 false, null, null, i32 0, metadata !89, i32 1719} ; [ DW_TAG_subprogram ]
!339 = metadata !{i32 786453, i32 0, metadata !"", i32 0, i32 0, i64 0, i64 0, i64 0, i32 0, null, metadata !340, i32 0, i32 0} ; [ DW_TAG_subroutine_type ]
!340 = metadata !{metadata !226, metadata !168}
!341 = metadata !{i32 786478, i32 0, metadata !170, metadata !"to_short", metadata !"to_short", metadata !"_ZNK11ap_int_baseILi64ELb0ELb1EE8to_shortEv", metadata !164, i32 1720, metadata !342, i1 false, i1 false, i32 0, i32 0, null, i32 256, i1 false, null, null, i32 0, metadata !89, i32 1720} ; [ DW_TAG_subprogram ]
!342 = metadata !{i32 786453, i32 0, metadata !"", i32 0, i32 0, i64 0, i64 0, i64 0, i32 0, null, metadata !343, i32 0, i32 0} ; [ DW_TAG_subroutine_type ]
!343 = metadata !{metadata !222, metadata !168}
!344 = metadata !{i32 786478, i32 0, metadata !170, metadata !"to_int", metadata !"to_int", metadata !"_ZNK11ap_int_baseILi64ELb0ELb1EE6to_intEv", metadata !164, i32 1721, metadata !345, i1 false, i1 false, i32 0, i32 0, null, i32 256, i1 false, null, null, i32 0, metadata !89, i32 1721} ; [ DW_TAG_subprogram ]
!345 = metadata !{i32 786453, i32 0, metadata !"", i32 0, i32 0, i64 0, i64 0, i64 0, i32 0, null, metadata !346, i32 0, i32 0} ; [ DW_TAG_subroutine_type ]
!346 = metadata !{metadata !189, metadata !168}
!347 = metadata !{i32 786478, i32 0, metadata !170, metadata !"to_uint", metadata !"to_uint", metadata !"_ZNK11ap_int_baseILi64ELb0ELb1EE7to_uintEv", metadata !164, i32 1722, metadata !348, i1 false, i1 false, i32 0, i32 0, null, i32 256, i1 false, null, null, i32 0, metadata !89, i32 1722} ; [ DW_TAG_subprogram ]
!348 = metadata !{i32 786453, i32 0, metadata !"", i32 0, i32 0, i64 0, i64 0, i64 0, i32 0, null, metadata !349, i32 0, i32 0} ; [ DW_TAG_subroutine_type ]
!349 = metadata !{metadata !87, metadata !168}
!350 = metadata !{i32 786478, i32 0, metadata !170, metadata !"to_long", metadata !"to_long", metadata !"_ZNK11ap_int_baseILi64ELb0ELb1EE7to_longEv", metadata !164, i32 1723, metadata !351, i1 false, i1 false, i32 0, i32 0, null, i32 256, i1 false, null, null, i32 0, metadata !89, i32 1723} ; [ DW_TAG_subprogram ]
!351 = metadata !{i32 786453, i32 0, metadata !"", i32 0, i32 0, i64 0, i64 0, i64 0, i32 0, null, metadata !352, i32 0, i32 0} ; [ DW_TAG_subroutine_type ]
!352 = metadata !{metadata !236, metadata !168}
!353 = metadata !{i32 786478, i32 0, metadata !170, metadata !"to_ulong", metadata !"to_ulong", metadata !"_ZNK11ap_int_baseILi64ELb0ELb1EE8to_ulongEv", metadata !164, i32 1724, metadata !354, i1 false, i1 false, i32 0, i32 0, null, i32 256, i1 false, null, null, i32 0, metadata !89, i32 1724} ; [ DW_TAG_subprogram ]
!354 = metadata !{i32 786453, i32 0, metadata !"", i32 0, i32 0, i64 0, i64 0, i64 0, i32 0, null, metadata !355, i32 0, i32 0} ; [ DW_TAG_subroutine_type ]
!355 = metadata !{metadata !240, metadata !168}
!356 = metadata !{i32 786478, i32 0, metadata !170, metadata !"to_int64", metadata !"to_int64", metadata !"_ZNK11ap_int_baseILi64ELb0ELb1EE8to_int64Ev", metadata !164, i32 1725, metadata !357, i1 false, i1 false, i32 0, i32 0, null, i32 256, i1 false, null, null, i32 0, metadata !89, i32 1725} ; [ DW_TAG_subprogram ]
!357 = metadata !{i32 786453, i32 0, metadata !"", i32 0, i32 0, i64 0, i64 0, i64 0, i32 0, null, metadata !358, i32 0, i32 0} ; [ DW_TAG_subroutine_type ]
!358 = metadata !{metadata !244, metadata !168}
!359 = metadata !{i32 786478, i32 0, metadata !170, metadata !"to_uint64", metadata !"to_uint64", metadata !"_ZNK11ap_int_baseILi64ELb0ELb1EE9to_uint64Ev", metadata !164, i32 1726, metadata !360, i1 false, i1 false, i32 0, i32 0, null, i32 256, i1 false, null, null, i32 0, metadata !89, i32 1726} ; [ DW_TAG_subprogram ]
!360 = metadata !{i32 786453, i32 0, metadata !"", i32 0, i32 0, i64 0, i64 0, i64 0, i32 0, null, metadata !361, i32 0, i32 0} ; [ DW_TAG_subroutine_type ]
!361 = metadata !{metadata !249, metadata !168}
!362 = metadata !{i32 786478, i32 0, metadata !170, metadata !"to_double", metadata !"to_double", metadata !"_ZNK11ap_int_baseILi64ELb0ELb1EE9to_doubleEv", metadata !164, i32 1727, metadata !363, i1 false, i1 false, i32 0, i32 0, null, i32 256, i1 false, null, null, i32 0, metadata !89, i32 1727} ; [ DW_TAG_subprogram ]
!363 = metadata !{i32 786453, i32 0, metadata !"", i32 0, i32 0, i64 0, i64 0, i64 0, i32 0, null, metadata !364, i32 0, i32 0} ; [ DW_TAG_subroutine_type ]
!364 = metadata !{metadata !262, metadata !168}
!365 = metadata !{i32 786478, i32 0, metadata !170, metadata !"length", metadata !"length", metadata !"_ZNK11ap_int_baseILi64ELb0ELb1EE6lengthEv", metadata !164, i32 1741, metadata !345, i1 false, i1 false, i32 0, i32 0, null, i32 256, i1 false, null, null, i32 0, metadata !89, i32 1741} ; [ DW_TAG_subprogram ]
!366 = metadata !{i32 786478, i32 0, metadata !170, metadata !"length", metadata !"length", metadata !"_ZNVK11ap_int_baseILi64ELb0ELb1EE6lengthEv", metadata !164, i32 1742, metadata !367, i1 false, i1 false, i32 0, i32 0, null, i32 256, i1 false, null, null, i32 0, metadata !89, i32 1742} ; [ DW_TAG_subprogram ]
!367 = metadata !{i32 786453, i32 0, metadata !"", i32 0, i32 0, i64 0, i64 0, i64 0, i32 0, null, metadata !368, i32 0, i32 0} ; [ DW_TAG_subroutine_type ]
!368 = metadata !{metadata !189, metadata !369}
!369 = metadata !{i32 786447, i32 0, metadata !"", i32 0, i32 0, i64 64, i64 64, i64 0, i32 64, metadata !206} ; [ DW_TAG_pointer_type ]
!370 = metadata !{i32 786478, i32 0, metadata !170, metadata !"reverse", metadata !"reverse", metadata !"_ZN11ap_int_baseILi64ELb0ELb1EE7reverseEv", metadata !164, i32 1747, metadata !371, i1 false, i1 false, i32 0, i32 0, null, i32 256, i1 false, null, null, i32 0, metadata !89, i32 1747} ; [ DW_TAG_subprogram ]
!371 = metadata !{i32 786453, i32 0, metadata !"", i32 0, i32 0, i64 0, i64 0, i64 0, i32 0, null, metadata !372, i32 0, i32 0} ; [ DW_TAG_subroutine_type ]
!372 = metadata !{metadata !286, metadata !194}
!373 = metadata !{i32 786478, i32 0, metadata !170, metadata !"iszero", metadata !"iszero", metadata !"_ZNK11ap_int_baseILi64ELb0ELb1EE6iszeroEv", metadata !164, i32 1753, metadata !330, i1 false, i1 false, i32 0, i32 0, null, i32 256, i1 false, null, null, i32 0, metadata !89, i32 1753} ; [ DW_TAG_subprogram ]
!374 = metadata !{i32 786478, i32 0, metadata !170, metadata !"is_zero", metadata !"is_zero", metadata !"_ZNK11ap_int_baseILi64ELb0ELb1EE7is_zeroEv", metadata !164, i32 1758, metadata !330, i1 false, i1 false, i32 0, i32 0, null, i32 256, i1 false, null, null, i32 0, metadata !89, i32 1758} ; [ DW_TAG_subprogram ]
!375 = metadata !{i32 786478, i32 0, metadata !170, metadata !"sign", metadata !"sign", metadata !"_ZNK11ap_int_baseILi64ELb0ELb1EE4signEv", metadata !164, i32 1763, metadata !330, i1 false, i1 false, i32 0, i32 0, null, i32 256, i1 false, null, null, i32 0, metadata !89, i32 1763} ; [ DW_TAG_subprogram ]
!376 = metadata !{i32 786478, i32 0, metadata !170, metadata !"clear", metadata !"clear", metadata !"_ZN11ap_int_baseILi64ELb0ELb1EE5clearEi", metadata !164, i32 1771, metadata !228, i1 false, i1 false, i32 0, i32 0, null, i32 256, i1 false, null, null, i32 0, metadata !89, i32 1771} ; [ DW_TAG_subprogram ]
!377 = metadata !{i32 786478, i32 0, metadata !170, metadata !"invert", metadata !"invert", metadata !"_ZN11ap_int_baseILi64ELb0ELb1EE6invertEi", metadata !164, i32 1777, metadata !228, i1 false, i1 false, i32 0, i32 0, null, i32 256, i1 false, null, null, i32 0, metadata !89, i32 1777} ; [ DW_TAG_subprogram ]
!378 = metadata !{i32 786478, i32 0, metadata !170, metadata !"test", metadata !"test", metadata !"_ZNK11ap_int_baseILi64ELb0ELb1EE4testEi", metadata !164, i32 1785, metadata !379, i1 false, i1 false, i32 0, i32 0, null, i32 256, i1 false, null, null, i32 0, metadata !89, i32 1785} ; [ DW_TAG_subprogram ]
!379 = metadata !{i32 786453, i32 0, metadata !"", i32 0, i32 0, i64 0, i64 0, i64 0, i32 0, null, metadata !380, i32 0, i32 0} ; [ DW_TAG_subroutine_type ]
!380 = metadata !{metadata !167, metadata !168, metadata !189}
!381 = metadata !{i32 786478, i32 0, metadata !170, metadata !"set", metadata !"set", metadata !"_ZN11ap_int_baseILi64ELb0ELb1EE3setEi", metadata !164, i32 1791, metadata !228, i1 false, i1 false, i32 0, i32 0, null, i32 256, i1 false, null, null, i32 0, metadata !89, i32 1791} ; [ DW_TAG_subprogram ]
!382 = metadata !{i32 786478, i32 0, metadata !170, metadata !"set", metadata !"set", metadata !"_ZN11ap_int_baseILi64ELb0ELb1EE3setEib", metadata !164, i32 1797, metadata !383, i1 false, i1 false, i32 0, i32 0, null, i32 256, i1 false, null, null, i32 0, metadata !89, i32 1797} ; [ DW_TAG_subprogram ]
!383 = metadata !{i32 786453, i32 0, metadata !"", i32 0, i32 0, i64 0, i64 0, i64 0, i32 0, null, metadata !384, i32 0, i32 0} ; [ DW_TAG_subroutine_type ]
!384 = metadata !{null, metadata !194, metadata !189, metadata !167}
!385 = metadata !{i32 786478, i32 0, metadata !170, metadata !"lrotate", metadata !"lrotate", metadata !"_ZN11ap_int_baseILi64ELb0ELb1EE7lrotateEi", metadata !164, i32 1804, metadata !228, i1 false, i1 false, i32 0, i32 0, null, i32 256, i1 false, null, null, i32 0, metadata !89, i32 1804} ; [ DW_TAG_subprogram ]
!386 = metadata !{i32 786478, i32 0, metadata !170, metadata !"rrotate", metadata !"rrotate", metadata !"_ZN11ap_int_baseILi64ELb0ELb1EE7rrotateEi", metadata !164, i32 1813, metadata !228, i1 false, i1 false, i32 0, i32 0, null, i32 256, i1 false, null, null, i32 0, metadata !89, i32 1813} ; [ DW_TAG_subprogram ]
!387 = metadata !{i32 786478, i32 0, metadata !170, metadata !"set_bit", metadata !"set_bit", metadata !"_ZN11ap_int_baseILi64ELb0ELb1EE7set_bitEib", metadata !164, i32 1821, metadata !383, i1 false, i1 false, i32 0, i32 0, null, i32 256, i1 false, null, null, i32 0, metadata !89, i32 1821} ; [ DW_TAG_subprogram ]
!388 = metadata !{i32 786478, i32 0, metadata !170, metadata !"get_bit", metadata !"get_bit", metadata !"_ZNK11ap_int_baseILi64ELb0ELb1EE7get_bitEi", metadata !164, i32 1826, metadata !379, i1 false, i1 false, i32 0, i32 0, null, i32 256, i1 false, null, null, i32 0, metadata !89, i32 1826} ; [ DW_TAG_subprogram ]
!389 = metadata !{i32 786478, i32 0, metadata !170, metadata !"b_not", metadata !"b_not", metadata !"_ZN11ap_int_baseILi64ELb0ELb1EE5b_notEv", metadata !164, i32 1831, metadata !192, i1 false, i1 false, i32 0, i32 0, null, i32 256, i1 false, null, null, i32 0, metadata !89, i32 1831} ; [ DW_TAG_subprogram ]
!390 = metadata !{i32 786478, i32 0, metadata !170, metadata !"countLeadingZeros", metadata !"countLeadingZeros", metadata !"_ZN11ap_int_baseILi64ELb0ELb1EE17countLeadingZerosEv", metadata !164, i32 1838, metadata !391, i1 false, i1 false, i32 0, i32 0, null, i32 256, i1 false, null, null, i32 0, metadata !89, i32 1838} ; [ DW_TAG_subprogram ]
!391 = metadata !{i32 786453, i32 0, metadata !"", i32 0, i32 0, i64 0, i64 0, i64 0, i32 0, null, metadata !392, i32 0, i32 0} ; [ DW_TAG_subroutine_type ]
!392 = metadata !{metadata !189, metadata !194}
!393 = metadata !{i32 786478, i32 0, metadata !170, metadata !"operator+=<1, false>", metadata !"operator+=<1, false>", metadata !"_ZN11ap_int_baseILi64ELb0ELb1EEpLILi1ELb0EEERS0_RKS_IXT_EXT0_EXleT_Li64EEE", metadata !164, i32 1879, metadata !394, i1 false, i1 false, i32 0, i32 0, null, i32 256, i1 false, null, metadata !649, i32 0, metadata !89, i32 1879} ; [ DW_TAG_subprogram ]
!394 = metadata !{i32 786453, i32 0, metadata !"", i32 0, i32 0, i64 0, i64 0, i64 0, i32 0, null, metadata !395, i32 0, i32 0} ; [ DW_TAG_subroutine_type ]
!395 = metadata !{metadata !286, metadata !194, metadata !396}
!396 = metadata !{i32 786448, null, null, null, i32 0, i64 0, i64 0, i64 0, i32 0, metadata !397} ; [ DW_TAG_reference_type ]
!397 = metadata !{i32 786470, null, metadata !"", null, i32 0, i64 0, i64 0, i64 0, i32 0, metadata !398} ; [ DW_TAG_const_type ]
!398 = metadata !{i32 786434, null, metadata !"ap_int_base<1, false, true>", metadata !164, i32 1453, i64 8, i64 8, i32 0, i32 0, null, metadata !399, i32 0, null, metadata !646} ; [ DW_TAG_class_type ]
!399 = metadata !{metadata !400, metadata !411, metadata !415, metadata !418, metadata !421, metadata !424, metadata !427, metadata !430, metadata !433, metadata !436, metadata !439, metadata !442, metadata !445, metadata !448, metadata !451, metadata !454, metadata !457, metadata !460, metadata !463, metadata !468, metadata !471, metadata !476, metadata !477, metadata !481, metadata !484, metadata !487, metadata !490, metadata !493, metadata !496, metadata !499, metadata !502, metadata !505, metadata !508, metadata !511, metadata !514, metadata !521, metadata !524, metadata !527, metadata !530, metadata !533, metadata !536, metadata !539, metadata !542, metadata !545, metadata !548, metadata !551, metadata !554, metadata !557, metadata !558, metadata !562, metadata !565, metadata !566, metadata !567, metadata !568, metadata !569, metadata !570, metadata !573, metadata !574, metadata !577, metadata !578, metadata !579, metadata !580, metadata !581, metadata !582, metadata !585, metadata !586, metadata !587, metadata !590, metadata !591, metadata !594, metadata !595, metadata !599, metadata !603, metadata !604, metadata !607, metadata !608, metadata !612, metadata !613, metadata !614, metadata !615, metadata !618, metadata !619, metadata !620, metadata !621, metadata !622, metadata !623, metadata !624, metadata !625, metadata !626, metadata !627, metadata !628, metadata !629, metadata !639, metadata !642, metadata !645}
!400 = metadata !{i32 786460, metadata !398, null, metadata !164, i32 0, i64 0, i64 0, i64 0, i32 0, metadata !401} ; [ DW_TAG_inheritance ]
!401 = metadata !{i32 786434, null, metadata !"ssdm_int<1 + 1024 * 0, false>", metadata !174, i32 3, i64 8, i64 8, i32 0, i32 0, null, metadata !402, i32 0, null, metadata !409} ; [ DW_TAG_class_type ]
!402 = metadata !{metadata !403, metadata !405}
!403 = metadata !{i32 786445, metadata !401, metadata !"V", metadata !174, i32 3, i64 1, i64 1, i64 0, i32 0, metadata !404} ; [ DW_TAG_member ]
!404 = metadata !{i32 786468, null, metadata !"uint1", null, i32 0, i64 1, i64 1, i64 0, i32 0, i32 7} ; [ DW_TAG_base_type ]
!405 = metadata !{i32 786478, i32 0, metadata !401, metadata !"ssdm_int", metadata !"ssdm_int", metadata !"", metadata !174, i32 3, metadata !406, i1 false, i1 false, i32 0, i32 0, null, i32 256, i1 false, null, null, i32 0, metadata !89, i32 3} ; [ DW_TAG_subprogram ]
!406 = metadata !{i32 786453, i32 0, metadata !"", i32 0, i32 0, i64 0, i64 0, i64 0, i32 0, null, metadata !407, i32 0, i32 0} ; [ DW_TAG_subroutine_type ]
!407 = metadata !{null, metadata !408}
!408 = metadata !{i32 786447, i32 0, metadata !"", i32 0, i32 0, i64 64, i64 64, i64 0, i32 64, metadata !401} ; [ DW_TAG_pointer_type ]
!409 = metadata !{metadata !410, metadata !190}
!410 = metadata !{i32 786480, null, metadata !"_AP_N", metadata !189, i64 1, null, i32 0, i32 0} ; [ DW_TAG_template_value_parameter ]
!411 = metadata !{i32 786478, i32 0, metadata !398, metadata !"ap_int_base", metadata !"ap_int_base", metadata !"", metadata !164, i32 1494, metadata !412, i1 false, i1 false, i32 0, i32 0, null, i32 256, i1 false, null, null, i32 0, metadata !89, i32 1494} ; [ DW_TAG_subprogram ]
!412 = metadata !{i32 786453, i32 0, metadata !"", i32 0, i32 0, i64 0, i64 0, i64 0, i32 0, null, metadata !413, i32 0, i32 0} ; [ DW_TAG_subroutine_type ]
!413 = metadata !{null, metadata !414}
!414 = metadata !{i32 786447, i32 0, metadata !"", i32 0, i32 0, i64 64, i64 64, i64 0, i32 64, metadata !398} ; [ DW_TAG_pointer_type ]
!415 = metadata !{i32 786478, i32 0, metadata !398, metadata !"ap_int_base", metadata !"ap_int_base", metadata !"", metadata !164, i32 1516, metadata !416, i1 false, i1 false, i32 0, i32 0, null, i32 384, i1 false, null, null, i32 0, metadata !89, i32 1516} ; [ DW_TAG_subprogram ]
!416 = metadata !{i32 786453, i32 0, metadata !"", i32 0, i32 0, i64 0, i64 0, i64 0, i32 0, null, metadata !417, i32 0, i32 0} ; [ DW_TAG_subroutine_type ]
!417 = metadata !{null, metadata !414, metadata !167}
!418 = metadata !{i32 786478, i32 0, metadata !398, metadata !"ap_int_base", metadata !"ap_int_base", metadata !"", metadata !164, i32 1517, metadata !419, i1 false, i1 false, i32 0, i32 0, null, i32 384, i1 false, null, null, i32 0, metadata !89, i32 1517} ; [ DW_TAG_subprogram ]
!419 = metadata !{i32 786453, i32 0, metadata !"", i32 0, i32 0, i64 0, i64 0, i64 0, i32 0, null, metadata !420, i32 0, i32 0} ; [ DW_TAG_subroutine_type ]
!420 = metadata !{null, metadata !414, metadata !214}
!421 = metadata !{i32 786478, i32 0, metadata !398, metadata !"ap_int_base", metadata !"ap_int_base", metadata !"", metadata !164, i32 1518, metadata !422, i1 false, i1 false, i32 0, i32 0, null, i32 384, i1 false, null, null, i32 0, metadata !89, i32 1518} ; [ DW_TAG_subprogram ]
!422 = metadata !{i32 786453, i32 0, metadata !"", i32 0, i32 0, i64 0, i64 0, i64 0, i32 0, null, metadata !423, i32 0, i32 0} ; [ DW_TAG_subroutine_type ]
!423 = metadata !{null, metadata !414, metadata !218}
!424 = metadata !{i32 786478, i32 0, metadata !398, metadata !"ap_int_base", metadata !"ap_int_base", metadata !"", metadata !164, i32 1519, metadata !425, i1 false, i1 false, i32 0, i32 0, null, i32 384, i1 false, null, null, i32 0, metadata !89, i32 1519} ; [ DW_TAG_subprogram ]
!425 = metadata !{i32 786453, i32 0, metadata !"", i32 0, i32 0, i64 0, i64 0, i64 0, i32 0, null, metadata !426, i32 0, i32 0} ; [ DW_TAG_subroutine_type ]
!426 = metadata !{null, metadata !414, metadata !222}
!427 = metadata !{i32 786478, i32 0, metadata !398, metadata !"ap_int_base", metadata !"ap_int_base", metadata !"", metadata !164, i32 1520, metadata !428, i1 false, i1 false, i32 0, i32 0, null, i32 384, i1 false, null, null, i32 0, metadata !89, i32 1520} ; [ DW_TAG_subprogram ]
!428 = metadata !{i32 786453, i32 0, metadata !"", i32 0, i32 0, i64 0, i64 0, i64 0, i32 0, null, metadata !429, i32 0, i32 0} ; [ DW_TAG_subroutine_type ]
!429 = metadata !{null, metadata !414, metadata !226}
!430 = metadata !{i32 786478, i32 0, metadata !398, metadata !"ap_int_base", metadata !"ap_int_base", metadata !"", metadata !164, i32 1521, metadata !431, i1 false, i1 false, i32 0, i32 0, null, i32 384, i1 false, null, null, i32 0, metadata !89, i32 1521} ; [ DW_TAG_subprogram ]
!431 = metadata !{i32 786453, i32 0, metadata !"", i32 0, i32 0, i64 0, i64 0, i64 0, i32 0, null, metadata !432, i32 0, i32 0} ; [ DW_TAG_subroutine_type ]
!432 = metadata !{null, metadata !414, metadata !189}
!433 = metadata !{i32 786478, i32 0, metadata !398, metadata !"ap_int_base", metadata !"ap_int_base", metadata !"", metadata !164, i32 1522, metadata !434, i1 false, i1 false, i32 0, i32 0, null, i32 384, i1 false, null, null, i32 0, metadata !89, i32 1522} ; [ DW_TAG_subprogram ]
!434 = metadata !{i32 786453, i32 0, metadata !"", i32 0, i32 0, i64 0, i64 0, i64 0, i32 0, null, metadata !435, i32 0, i32 0} ; [ DW_TAG_subroutine_type ]
!435 = metadata !{null, metadata !414, metadata !87}
!436 = metadata !{i32 786478, i32 0, metadata !398, metadata !"ap_int_base", metadata !"ap_int_base", metadata !"", metadata !164, i32 1523, metadata !437, i1 false, i1 false, i32 0, i32 0, null, i32 384, i1 false, null, null, i32 0, metadata !89, i32 1523} ; [ DW_TAG_subprogram ]
!437 = metadata !{i32 786453, i32 0, metadata !"", i32 0, i32 0, i64 0, i64 0, i64 0, i32 0, null, metadata !438, i32 0, i32 0} ; [ DW_TAG_subroutine_type ]
!438 = metadata !{null, metadata !414, metadata !236}
!439 = metadata !{i32 786478, i32 0, metadata !398, metadata !"ap_int_base", metadata !"ap_int_base", metadata !"", metadata !164, i32 1524, metadata !440, i1 false, i1 false, i32 0, i32 0, null, i32 384, i1 false, null, null, i32 0, metadata !89, i32 1524} ; [ DW_TAG_subprogram ]
!440 = metadata !{i32 786453, i32 0, metadata !"", i32 0, i32 0, i64 0, i64 0, i64 0, i32 0, null, metadata !441, i32 0, i32 0} ; [ DW_TAG_subroutine_type ]
!441 = metadata !{null, metadata !414, metadata !240}
!442 = metadata !{i32 786478, i32 0, metadata !398, metadata !"ap_int_base", metadata !"ap_int_base", metadata !"", metadata !164, i32 1525, metadata !443, i1 false, i1 false, i32 0, i32 0, null, i32 384, i1 false, null, null, i32 0, metadata !89, i32 1525} ; [ DW_TAG_subprogram ]
!443 = metadata !{i32 786453, i32 0, metadata !"", i32 0, i32 0, i64 0, i64 0, i64 0, i32 0, null, metadata !444, i32 0, i32 0} ; [ DW_TAG_subroutine_type ]
!444 = metadata !{null, metadata !414, metadata !244}
!445 = metadata !{i32 786478, i32 0, metadata !398, metadata !"ap_int_base", metadata !"ap_int_base", metadata !"", metadata !164, i32 1526, metadata !446, i1 false, i1 false, i32 0, i32 0, null, i32 384, i1 false, null, null, i32 0, metadata !89, i32 1526} ; [ DW_TAG_subprogram ]
!446 = metadata !{i32 786453, i32 0, metadata !"", i32 0, i32 0, i64 0, i64 0, i64 0, i32 0, null, metadata !447, i32 0, i32 0} ; [ DW_TAG_subroutine_type ]
!447 = metadata !{null, metadata !414, metadata !249}
!448 = metadata !{i32 786478, i32 0, metadata !398, metadata !"ap_int_base", metadata !"ap_int_base", metadata !"", metadata !164, i32 1527, metadata !449, i1 false, i1 false, i32 0, i32 0, null, i32 384, i1 false, null, null, i32 0, metadata !89, i32 1527} ; [ DW_TAG_subprogram ]
!449 = metadata !{i32 786453, i32 0, metadata !"", i32 0, i32 0, i64 0, i64 0, i64 0, i32 0, null, metadata !450, i32 0, i32 0} ; [ DW_TAG_subroutine_type ]
!450 = metadata !{null, metadata !414, metadata !253}
!451 = metadata !{i32 786478, i32 0, metadata !398, metadata !"ap_int_base", metadata !"ap_int_base", metadata !"", metadata !164, i32 1528, metadata !452, i1 false, i1 false, i32 0, i32 0, null, i32 384, i1 false, null, null, i32 0, metadata !89, i32 1528} ; [ DW_TAG_subprogram ]
!452 = metadata !{i32 786453, i32 0, metadata !"", i32 0, i32 0, i64 0, i64 0, i64 0, i32 0, null, metadata !453, i32 0, i32 0} ; [ DW_TAG_subroutine_type ]
!453 = metadata !{null, metadata !414, metadata !258}
!454 = metadata !{i32 786478, i32 0, metadata !398, metadata !"ap_int_base", metadata !"ap_int_base", metadata !"", metadata !164, i32 1529, metadata !455, i1 false, i1 false, i32 0, i32 0, null, i32 384, i1 false, null, null, i32 0, metadata !89, i32 1529} ; [ DW_TAG_subprogram ]
!455 = metadata !{i32 786453, i32 0, metadata !"", i32 0, i32 0, i64 0, i64 0, i64 0, i32 0, null, metadata !456, i32 0, i32 0} ; [ DW_TAG_subroutine_type ]
!456 = metadata !{null, metadata !414, metadata !262}
!457 = metadata !{i32 786478, i32 0, metadata !398, metadata !"ap_int_base", metadata !"ap_int_base", metadata !"", metadata !164, i32 1556, metadata !458, i1 false, i1 false, i32 0, i32 0, null, i32 256, i1 false, null, null, i32 0, metadata !89, i32 1556} ; [ DW_TAG_subprogram ]
!458 = metadata !{i32 786453, i32 0, metadata !"", i32 0, i32 0, i64 0, i64 0, i64 0, i32 0, null, metadata !459, i32 0, i32 0} ; [ DW_TAG_subroutine_type ]
!459 = metadata !{null, metadata !414, metadata !266}
!460 = metadata !{i32 786478, i32 0, metadata !398, metadata !"ap_int_base", metadata !"ap_int_base", metadata !"", metadata !164, i32 1563, metadata !461, i1 false, i1 false, i32 0, i32 0, null, i32 256, i1 false, null, null, i32 0, metadata !89, i32 1563} ; [ DW_TAG_subprogram ]
!461 = metadata !{i32 786453, i32 0, metadata !"", i32 0, i32 0, i64 0, i64 0, i64 0, i32 0, null, metadata !462, i32 0, i32 0} ; [ DW_TAG_subroutine_type ]
!462 = metadata !{null, metadata !414, metadata !266, metadata !214}
!463 = metadata !{i32 786478, i32 0, metadata !398, metadata !"read", metadata !"read", metadata !"_ZNV11ap_int_baseILi1ELb0ELb1EE4readEv", metadata !164, i32 1584, metadata !464, i1 false, i1 false, i32 0, i32 0, null, i32 256, i1 false, null, null, i32 0, metadata !89, i32 1584} ; [ DW_TAG_subprogram ]
!464 = metadata !{i32 786453, i32 0, metadata !"", i32 0, i32 0, i64 0, i64 0, i64 0, i32 0, null, metadata !465, i32 0, i32 0} ; [ DW_TAG_subroutine_type ]
!465 = metadata !{metadata !398, metadata !466}
!466 = metadata !{i32 786447, i32 0, metadata !"", i32 0, i32 0, i64 64, i64 64, i64 0, i32 64, metadata !467} ; [ DW_TAG_pointer_type ]
!467 = metadata !{i32 786485, null, metadata !"", null, i32 0, i64 0, i64 0, i64 0, i32 0, metadata !398} ; [ DW_TAG_volatile_type ]
!468 = metadata !{i32 786478, i32 0, metadata !398, metadata !"write", metadata !"write", metadata !"_ZNV11ap_int_baseILi1ELb0ELb1EE5writeERKS0_", metadata !164, i32 1590, metadata !469, i1 false, i1 false, i32 0, i32 0, null, i32 256, i1 false, null, null, i32 0, metadata !89, i32 1590} ; [ DW_TAG_subprogram ]
!469 = metadata !{i32 786453, i32 0, metadata !"", i32 0, i32 0, i64 0, i64 0, i64 0, i32 0, null, metadata !470, i32 0, i32 0} ; [ DW_TAG_subroutine_type ]
!470 = metadata !{null, metadata !466, metadata !396}
!471 = metadata !{i32 786478, i32 0, metadata !398, metadata !"operator=", metadata !"operator=", metadata !"_ZNV11ap_int_baseILi1ELb0ELb1EEaSERVKS0_", metadata !164, i32 1602, metadata !472, i1 false, i1 false, i32 0, i32 0, null, i32 256, i1 false, null, null, i32 0, metadata !89, i32 1602} ; [ DW_TAG_subprogram ]
!472 = metadata !{i32 786453, i32 0, metadata !"", i32 0, i32 0, i64 0, i64 0, i64 0, i32 0, null, metadata !473, i32 0, i32 0} ; [ DW_TAG_subroutine_type ]
!473 = metadata !{null, metadata !466, metadata !474}
!474 = metadata !{i32 786448, null, null, null, i32 0, i64 0, i64 0, i64 0, i32 0, metadata !475} ; [ DW_TAG_reference_type ]
!475 = metadata !{i32 786470, null, metadata !"", null, i32 0, i64 0, i64 0, i64 0, i32 0, metadata !467} ; [ DW_TAG_const_type ]
!476 = metadata !{i32 786478, i32 0, metadata !398, metadata !"operator=", metadata !"operator=", metadata !"_ZNV11ap_int_baseILi1ELb0ELb1EEaSERKS0_", metadata !164, i32 1611, metadata !469, i1 false, i1 false, i32 0, i32 0, null, i32 256, i1 false, null, null, i32 0, metadata !89, i32 1611} ; [ DW_TAG_subprogram ]
!477 = metadata !{i32 786478, i32 0, metadata !398, metadata !"operator=", metadata !"operator=", metadata !"_ZN11ap_int_baseILi1ELb0ELb1EEaSERVKS0_", metadata !164, i32 1634, metadata !478, i1 false, i1 false, i32 0, i32 0, null, i32 256, i1 false, null, null, i32 0, metadata !89, i32 1634} ; [ DW_TAG_subprogram ]
!478 = metadata !{i32 786453, i32 0, metadata !"", i32 0, i32 0, i64 0, i64 0, i64 0, i32 0, null, metadata !479, i32 0, i32 0} ; [ DW_TAG_subroutine_type ]
!479 = metadata !{metadata !480, metadata !414, metadata !474}
!480 = metadata !{i32 786448, null, null, null, i32 0, i64 0, i64 0, i64 0, i32 0, metadata !398} ; [ DW_TAG_reference_type ]
!481 = metadata !{i32 786478, i32 0, metadata !398, metadata !"operator=", metadata !"operator=", metadata !"_ZN11ap_int_baseILi1ELb0ELb1EEaSERKS0_", metadata !164, i32 1639, metadata !482, i1 false, i1 false, i32 0, i32 0, null, i32 256, i1 false, null, null, i32 0, metadata !89, i32 1639} ; [ DW_TAG_subprogram ]
!482 = metadata !{i32 786453, i32 0, metadata !"", i32 0, i32 0, i64 0, i64 0, i64 0, i32 0, null, metadata !483, i32 0, i32 0} ; [ DW_TAG_subroutine_type ]
!483 = metadata !{metadata !480, metadata !414, metadata !396}
!484 = metadata !{i32 786478, i32 0, metadata !398, metadata !"operator=", metadata !"operator=", metadata !"_ZN11ap_int_baseILi1ELb0ELb1EEaSEPKc", metadata !164, i32 1643, metadata !485, i1 false, i1 false, i32 0, i32 0, null, i32 256, i1 false, null, null, i32 0, metadata !89, i32 1643} ; [ DW_TAG_subprogram ]
!485 = metadata !{i32 786453, i32 0, metadata !"", i32 0, i32 0, i64 0, i64 0, i64 0, i32 0, null, metadata !486, i32 0, i32 0} ; [ DW_TAG_subroutine_type ]
!486 = metadata !{metadata !480, metadata !414, metadata !266}
!487 = metadata !{i32 786478, i32 0, metadata !398, metadata !"set", metadata !"set", metadata !"_ZN11ap_int_baseILi1ELb0ELb1EE3setEPKca", metadata !164, i32 1651, metadata !488, i1 false, i1 false, i32 0, i32 0, null, i32 256, i1 false, null, null, i32 0, metadata !89, i32 1651} ; [ DW_TAG_subprogram ]
!488 = metadata !{i32 786453, i32 0, metadata !"", i32 0, i32 0, i64 0, i64 0, i64 0, i32 0, null, metadata !489, i32 0, i32 0} ; [ DW_TAG_subroutine_type ]
!489 = metadata !{metadata !480, metadata !414, metadata !266, metadata !214}
!490 = metadata !{i32 786478, i32 0, metadata !398, metadata !"operator=", metadata !"operator=", metadata !"_ZN11ap_int_baseILi1ELb0ELb1EEaSEa", metadata !164, i32 1665, metadata !491, i1 false, i1 false, i32 0, i32 0, null, i32 256, i1 false, null, null, i32 0, metadata !89, i32 1665} ; [ DW_TAG_subprogram ]
!491 = metadata !{i32 786453, i32 0, metadata !"", i32 0, i32 0, i64 0, i64 0, i64 0, i32 0, null, metadata !492, i32 0, i32 0} ; [ DW_TAG_subroutine_type ]
!492 = metadata !{metadata !480, metadata !414, metadata !214}
!493 = metadata !{i32 786478, i32 0, metadata !398, metadata !"operator=", metadata !"operator=", metadata !"_ZN11ap_int_baseILi1ELb0ELb1EEaSEh", metadata !164, i32 1666, metadata !494, i1 false, i1 false, i32 0, i32 0, null, i32 256, i1 false, null, null, i32 0, metadata !89, i32 1666} ; [ DW_TAG_subprogram ]
!494 = metadata !{i32 786453, i32 0, metadata !"", i32 0, i32 0, i64 0, i64 0, i64 0, i32 0, null, metadata !495, i32 0, i32 0} ; [ DW_TAG_subroutine_type ]
!495 = metadata !{metadata !480, metadata !414, metadata !218}
!496 = metadata !{i32 786478, i32 0, metadata !398, metadata !"operator=", metadata !"operator=", metadata !"_ZN11ap_int_baseILi1ELb0ELb1EEaSEs", metadata !164, i32 1667, metadata !497, i1 false, i1 false, i32 0, i32 0, null, i32 256, i1 false, null, null, i32 0, metadata !89, i32 1667} ; [ DW_TAG_subprogram ]
!497 = metadata !{i32 786453, i32 0, metadata !"", i32 0, i32 0, i64 0, i64 0, i64 0, i32 0, null, metadata !498, i32 0, i32 0} ; [ DW_TAG_subroutine_type ]
!498 = metadata !{metadata !480, metadata !414, metadata !222}
!499 = metadata !{i32 786478, i32 0, metadata !398, metadata !"operator=", metadata !"operator=", metadata !"_ZN11ap_int_baseILi1ELb0ELb1EEaSEt", metadata !164, i32 1668, metadata !500, i1 false, i1 false, i32 0, i32 0, null, i32 256, i1 false, null, null, i32 0, metadata !89, i32 1668} ; [ DW_TAG_subprogram ]
!500 = metadata !{i32 786453, i32 0, metadata !"", i32 0, i32 0, i64 0, i64 0, i64 0, i32 0, null, metadata !501, i32 0, i32 0} ; [ DW_TAG_subroutine_type ]
!501 = metadata !{metadata !480, metadata !414, metadata !226}
!502 = metadata !{i32 786478, i32 0, metadata !398, metadata !"operator=", metadata !"operator=", metadata !"_ZN11ap_int_baseILi1ELb0ELb1EEaSEi", metadata !164, i32 1669, metadata !503, i1 false, i1 false, i32 0, i32 0, null, i32 256, i1 false, null, null, i32 0, metadata !89, i32 1669} ; [ DW_TAG_subprogram ]
!503 = metadata !{i32 786453, i32 0, metadata !"", i32 0, i32 0, i64 0, i64 0, i64 0, i32 0, null, metadata !504, i32 0, i32 0} ; [ DW_TAG_subroutine_type ]
!504 = metadata !{metadata !480, metadata !414, metadata !189}
!505 = metadata !{i32 786478, i32 0, metadata !398, metadata !"operator=", metadata !"operator=", metadata !"_ZN11ap_int_baseILi1ELb0ELb1EEaSEj", metadata !164, i32 1670, metadata !506, i1 false, i1 false, i32 0, i32 0, null, i32 256, i1 false, null, null, i32 0, metadata !89, i32 1670} ; [ DW_TAG_subprogram ]
!506 = metadata !{i32 786453, i32 0, metadata !"", i32 0, i32 0, i64 0, i64 0, i64 0, i32 0, null, metadata !507, i32 0, i32 0} ; [ DW_TAG_subroutine_type ]
!507 = metadata !{metadata !480, metadata !414, metadata !87}
!508 = metadata !{i32 786478, i32 0, metadata !398, metadata !"operator=", metadata !"operator=", metadata !"_ZN11ap_int_baseILi1ELb0ELb1EEaSEx", metadata !164, i32 1671, metadata !509, i1 false, i1 false, i32 0, i32 0, null, i32 256, i1 false, null, null, i32 0, metadata !89, i32 1671} ; [ DW_TAG_subprogram ]
!509 = metadata !{i32 786453, i32 0, metadata !"", i32 0, i32 0, i64 0, i64 0, i64 0, i32 0, null, metadata !510, i32 0, i32 0} ; [ DW_TAG_subroutine_type ]
!510 = metadata !{metadata !480, metadata !414, metadata !244}
!511 = metadata !{i32 786478, i32 0, metadata !398, metadata !"operator=", metadata !"operator=", metadata !"_ZN11ap_int_baseILi1ELb0ELb1EEaSEy", metadata !164, i32 1672, metadata !512, i1 false, i1 false, i32 0, i32 0, null, i32 256, i1 false, null, null, i32 0, metadata !89, i32 1672} ; [ DW_TAG_subprogram ]
!512 = metadata !{i32 786453, i32 0, metadata !"", i32 0, i32 0, i64 0, i64 0, i64 0, i32 0, null, metadata !513, i32 0, i32 0} ; [ DW_TAG_subroutine_type ]
!513 = metadata !{metadata !480, metadata !414, metadata !249}
!514 = metadata !{i32 786478, i32 0, metadata !398, metadata !"operator unsigned char", metadata !"operator unsigned char", metadata !"_ZNK11ap_int_baseILi1ELb0ELb1EEcvhEv", metadata !164, i32 1710, metadata !515, i1 false, i1 false, i32 0, i32 0, null, i32 256, i1 false, null, null, i32 0, metadata !89, i32 1710} ; [ DW_TAG_subprogram ]
!515 = metadata !{i32 786453, i32 0, metadata !"", i32 0, i32 0, i64 0, i64 0, i64 0, i32 0, null, metadata !516, i32 0, i32 0} ; [ DW_TAG_subroutine_type ]
!516 = metadata !{metadata !517, metadata !520}
!517 = metadata !{i32 786454, metadata !398, metadata !"RetType", metadata !164, i32 1458, i64 0, i64 0, i64 0, i32 0, metadata !518} ; [ DW_TAG_typedef ]
!518 = metadata !{i32 786454, metadata !519, metadata !"Type", metadata !164, i32 1426, i64 0, i64 0, i64 0, i32 0, metadata !218} ; [ DW_TAG_typedef ]
!519 = metadata !{i32 786434, null, metadata !"retval<1, false>", metadata !164, i32 1425, i64 8, i64 8, i32 0, i32 0, null, metadata !326, i32 0, null, metadata !409} ; [ DW_TAG_class_type ]
!520 = metadata !{i32 786447, i32 0, metadata !"", i32 0, i32 0, i64 64, i64 64, i64 0, i32 64, metadata !397} ; [ DW_TAG_pointer_type ]
!521 = metadata !{i32 786478, i32 0, metadata !398, metadata !"to_bool", metadata !"to_bool", metadata !"_ZNK11ap_int_baseILi1ELb0ELb1EE7to_boolEv", metadata !164, i32 1716, metadata !522, i1 false, i1 false, i32 0, i32 0, null, i32 256, i1 false, null, null, i32 0, metadata !89, i32 1716} ; [ DW_TAG_subprogram ]
!522 = metadata !{i32 786453, i32 0, metadata !"", i32 0, i32 0, i64 0, i64 0, i64 0, i32 0, null, metadata !523, i32 0, i32 0} ; [ DW_TAG_subroutine_type ]
!523 = metadata !{metadata !167, metadata !520}
!524 = metadata !{i32 786478, i32 0, metadata !398, metadata !"to_uchar", metadata !"to_uchar", metadata !"_ZNK11ap_int_baseILi1ELb0ELb1EE8to_ucharEv", metadata !164, i32 1717, metadata !525, i1 false, i1 false, i32 0, i32 0, null, i32 256, i1 false, null, null, i32 0, metadata !89, i32 1717} ; [ DW_TAG_subprogram ]
!525 = metadata !{i32 786453, i32 0, metadata !"", i32 0, i32 0, i64 0, i64 0, i64 0, i32 0, null, metadata !526, i32 0, i32 0} ; [ DW_TAG_subroutine_type ]
!526 = metadata !{metadata !218, metadata !520}
!527 = metadata !{i32 786478, i32 0, metadata !398, metadata !"to_char", metadata !"to_char", metadata !"_ZNK11ap_int_baseILi1ELb0ELb1EE7to_charEv", metadata !164, i32 1718, metadata !528, i1 false, i1 false, i32 0, i32 0, null, i32 256, i1 false, null, null, i32 0, metadata !89, i32 1718} ; [ DW_TAG_subprogram ]
!528 = metadata !{i32 786453, i32 0, metadata !"", i32 0, i32 0, i64 0, i64 0, i64 0, i32 0, null, metadata !529, i32 0, i32 0} ; [ DW_TAG_subroutine_type ]
!529 = metadata !{metadata !214, metadata !520}
!530 = metadata !{i32 786478, i32 0, metadata !398, metadata !"to_ushort", metadata !"to_ushort", metadata !"_ZNK11ap_int_baseILi1ELb0ELb1EE9to_ushortEv", metadata !164, i32 1719, metadata !531, i1 false, i1 false, i32 0, i32 0, null, i32 256, i1 false, null, null, i32 0, metadata !89, i32 1719} ; [ DW_TAG_subprogram ]
!531 = metadata !{i32 786453, i32 0, metadata !"", i32 0, i32 0, i64 0, i64 0, i64 0, i32 0, null, metadata !532, i32 0, i32 0} ; [ DW_TAG_subroutine_type ]
!532 = metadata !{metadata !226, metadata !520}
!533 = metadata !{i32 786478, i32 0, metadata !398, metadata !"to_short", metadata !"to_short", metadata !"_ZNK11ap_int_baseILi1ELb0ELb1EE8to_shortEv", metadata !164, i32 1720, metadata !534, i1 false, i1 false, i32 0, i32 0, null, i32 256, i1 false, null, null, i32 0, metadata !89, i32 1720} ; [ DW_TAG_subprogram ]
!534 = metadata !{i32 786453, i32 0, metadata !"", i32 0, i32 0, i64 0, i64 0, i64 0, i32 0, null, metadata !535, i32 0, i32 0} ; [ DW_TAG_subroutine_type ]
!535 = metadata !{metadata !222, metadata !520}
!536 = metadata !{i32 786478, i32 0, metadata !398, metadata !"to_int", metadata !"to_int", metadata !"_ZNK11ap_int_baseILi1ELb0ELb1EE6to_intEv", metadata !164, i32 1721, metadata !537, i1 false, i1 false, i32 0, i32 0, null, i32 256, i1 false, null, null, i32 0, metadata !89, i32 1721} ; [ DW_TAG_subprogram ]
!537 = metadata !{i32 786453, i32 0, metadata !"", i32 0, i32 0, i64 0, i64 0, i64 0, i32 0, null, metadata !538, i32 0, i32 0} ; [ DW_TAG_subroutine_type ]
!538 = metadata !{metadata !189, metadata !520}
!539 = metadata !{i32 786478, i32 0, metadata !398, metadata !"to_uint", metadata !"to_uint", metadata !"_ZNK11ap_int_baseILi1ELb0ELb1EE7to_uintEv", metadata !164, i32 1722, metadata !540, i1 false, i1 false, i32 0, i32 0, null, i32 256, i1 false, null, null, i32 0, metadata !89, i32 1722} ; [ DW_TAG_subprogram ]
!540 = metadata !{i32 786453, i32 0, metadata !"", i32 0, i32 0, i64 0, i64 0, i64 0, i32 0, null, metadata !541, i32 0, i32 0} ; [ DW_TAG_subroutine_type ]
!541 = metadata !{metadata !87, metadata !520}
!542 = metadata !{i32 786478, i32 0, metadata !398, metadata !"to_long", metadata !"to_long", metadata !"_ZNK11ap_int_baseILi1ELb0ELb1EE7to_longEv", metadata !164, i32 1723, metadata !543, i1 false, i1 false, i32 0, i32 0, null, i32 256, i1 false, null, null, i32 0, metadata !89, i32 1723} ; [ DW_TAG_subprogram ]
!543 = metadata !{i32 786453, i32 0, metadata !"", i32 0, i32 0, i64 0, i64 0, i64 0, i32 0, null, metadata !544, i32 0, i32 0} ; [ DW_TAG_subroutine_type ]
!544 = metadata !{metadata !236, metadata !520}
!545 = metadata !{i32 786478, i32 0, metadata !398, metadata !"to_ulong", metadata !"to_ulong", metadata !"_ZNK11ap_int_baseILi1ELb0ELb1EE8to_ulongEv", metadata !164, i32 1724, metadata !546, i1 false, i1 false, i32 0, i32 0, null, i32 256, i1 false, null, null, i32 0, metadata !89, i32 1724} ; [ DW_TAG_subprogram ]
!546 = metadata !{i32 786453, i32 0, metadata !"", i32 0, i32 0, i64 0, i64 0, i64 0, i32 0, null, metadata !547, i32 0, i32 0} ; [ DW_TAG_subroutine_type ]
!547 = metadata !{metadata !240, metadata !520}
!548 = metadata !{i32 786478, i32 0, metadata !398, metadata !"to_int64", metadata !"to_int64", metadata !"_ZNK11ap_int_baseILi1ELb0ELb1EE8to_int64Ev", metadata !164, i32 1725, metadata !549, i1 false, i1 false, i32 0, i32 0, null, i32 256, i1 false, null, null, i32 0, metadata !89, i32 1725} ; [ DW_TAG_subprogram ]
!549 = metadata !{i32 786453, i32 0, metadata !"", i32 0, i32 0, i64 0, i64 0, i64 0, i32 0, null, metadata !550, i32 0, i32 0} ; [ DW_TAG_subroutine_type ]
!550 = metadata !{metadata !244, metadata !520}
!551 = metadata !{i32 786478, i32 0, metadata !398, metadata !"to_uint64", metadata !"to_uint64", metadata !"_ZNK11ap_int_baseILi1ELb0ELb1EE9to_uint64Ev", metadata !164, i32 1726, metadata !552, i1 false, i1 false, i32 0, i32 0, null, i32 256, i1 false, null, null, i32 0, metadata !89, i32 1726} ; [ DW_TAG_subprogram ]
!552 = metadata !{i32 786453, i32 0, metadata !"", i32 0, i32 0, i64 0, i64 0, i64 0, i32 0, null, metadata !553, i32 0, i32 0} ; [ DW_TAG_subroutine_type ]
!553 = metadata !{metadata !249, metadata !520}
!554 = metadata !{i32 786478, i32 0, metadata !398, metadata !"to_double", metadata !"to_double", metadata !"_ZNK11ap_int_baseILi1ELb0ELb1EE9to_doubleEv", metadata !164, i32 1727, metadata !555, i1 false, i1 false, i32 0, i32 0, null, i32 256, i1 false, null, null, i32 0, metadata !89, i32 1727} ; [ DW_TAG_subprogram ]
!555 = metadata !{i32 786453, i32 0, metadata !"", i32 0, i32 0, i64 0, i64 0, i64 0, i32 0, null, metadata !556, i32 0, i32 0} ; [ DW_TAG_subroutine_type ]
!556 = metadata !{metadata !262, metadata !520}
!557 = metadata !{i32 786478, i32 0, metadata !398, metadata !"length", metadata !"length", metadata !"_ZNK11ap_int_baseILi1ELb0ELb1EE6lengthEv", metadata !164, i32 1741, metadata !537, i1 false, i1 false, i32 0, i32 0, null, i32 256, i1 false, null, null, i32 0, metadata !89, i32 1741} ; [ DW_TAG_subprogram ]
!558 = metadata !{i32 786478, i32 0, metadata !398, metadata !"length", metadata !"length", metadata !"_ZNVK11ap_int_baseILi1ELb0ELb1EE6lengthEv", metadata !164, i32 1742, metadata !559, i1 false, i1 false, i32 0, i32 0, null, i32 256, i1 false, null, null, i32 0, metadata !89, i32 1742} ; [ DW_TAG_subprogram ]
!559 = metadata !{i32 786453, i32 0, metadata !"", i32 0, i32 0, i64 0, i64 0, i64 0, i32 0, null, metadata !560, i32 0, i32 0} ; [ DW_TAG_subroutine_type ]
!560 = metadata !{metadata !189, metadata !561}
!561 = metadata !{i32 786447, i32 0, metadata !"", i32 0, i32 0, i64 64, i64 64, i64 0, i32 64, metadata !475} ; [ DW_TAG_pointer_type ]
!562 = metadata !{i32 786478, i32 0, metadata !398, metadata !"reverse", metadata !"reverse", metadata !"_ZN11ap_int_baseILi1ELb0ELb1EE7reverseEv", metadata !164, i32 1747, metadata !563, i1 false, i1 false, i32 0, i32 0, null, i32 256, i1 false, null, null, i32 0, metadata !89, i32 1747} ; [ DW_TAG_subprogram ]
!563 = metadata !{i32 786453, i32 0, metadata !"", i32 0, i32 0, i64 0, i64 0, i64 0, i32 0, null, metadata !564, i32 0, i32 0} ; [ DW_TAG_subroutine_type ]
!564 = metadata !{metadata !480, metadata !414}
!565 = metadata !{i32 786478, i32 0, metadata !398, metadata !"iszero", metadata !"iszero", metadata !"_ZNK11ap_int_baseILi1ELb0ELb1EE6iszeroEv", metadata !164, i32 1753, metadata !522, i1 false, i1 false, i32 0, i32 0, null, i32 256, i1 false, null, null, i32 0, metadata !89, i32 1753} ; [ DW_TAG_subprogram ]
!566 = metadata !{i32 786478, i32 0, metadata !398, metadata !"is_zero", metadata !"is_zero", metadata !"_ZNK11ap_int_baseILi1ELb0ELb1EE7is_zeroEv", metadata !164, i32 1758, metadata !522, i1 false, i1 false, i32 0, i32 0, null, i32 256, i1 false, null, null, i32 0, metadata !89, i32 1758} ; [ DW_TAG_subprogram ]
!567 = metadata !{i32 786478, i32 0, metadata !398, metadata !"sign", metadata !"sign", metadata !"_ZNK11ap_int_baseILi1ELb0ELb1EE4signEv", metadata !164, i32 1763, metadata !522, i1 false, i1 false, i32 0, i32 0, null, i32 256, i1 false, null, null, i32 0, metadata !89, i32 1763} ; [ DW_TAG_subprogram ]
!568 = metadata !{i32 786478, i32 0, metadata !398, metadata !"clear", metadata !"clear", metadata !"_ZN11ap_int_baseILi1ELb0ELb1EE5clearEi", metadata !164, i32 1771, metadata !431, i1 false, i1 false, i32 0, i32 0, null, i32 256, i1 false, null, null, i32 0, metadata !89, i32 1771} ; [ DW_TAG_subprogram ]
!569 = metadata !{i32 786478, i32 0, metadata !398, metadata !"invert", metadata !"invert", metadata !"_ZN11ap_int_baseILi1ELb0ELb1EE6invertEi", metadata !164, i32 1777, metadata !431, i1 false, i1 false, i32 0, i32 0, null, i32 256, i1 false, null, null, i32 0, metadata !89, i32 1777} ; [ DW_TAG_subprogram ]
!570 = metadata !{i32 786478, i32 0, metadata !398, metadata !"test", metadata !"test", metadata !"_ZNK11ap_int_baseILi1ELb0ELb1EE4testEi", metadata !164, i32 1785, metadata !571, i1 false, i1 false, i32 0, i32 0, null, i32 256, i1 false, null, null, i32 0, metadata !89, i32 1785} ; [ DW_TAG_subprogram ]
!571 = metadata !{i32 786453, i32 0, metadata !"", i32 0, i32 0, i64 0, i64 0, i64 0, i32 0, null, metadata !572, i32 0, i32 0} ; [ DW_TAG_subroutine_type ]
!572 = metadata !{metadata !167, metadata !520, metadata !189}
!573 = metadata !{i32 786478, i32 0, metadata !398, metadata !"set", metadata !"set", metadata !"_ZN11ap_int_baseILi1ELb0ELb1EE3setEi", metadata !164, i32 1791, metadata !431, i1 false, i1 false, i32 0, i32 0, null, i32 256, i1 false, null, null, i32 0, metadata !89, i32 1791} ; [ DW_TAG_subprogram ]
!574 = metadata !{i32 786478, i32 0, metadata !398, metadata !"set", metadata !"set", metadata !"_ZN11ap_int_baseILi1ELb0ELb1EE3setEib", metadata !164, i32 1797, metadata !575, i1 false, i1 false, i32 0, i32 0, null, i32 256, i1 false, null, null, i32 0, metadata !89, i32 1797} ; [ DW_TAG_subprogram ]
!575 = metadata !{i32 786453, i32 0, metadata !"", i32 0, i32 0, i64 0, i64 0, i64 0, i32 0, null, metadata !576, i32 0, i32 0} ; [ DW_TAG_subroutine_type ]
!576 = metadata !{null, metadata !414, metadata !189, metadata !167}
!577 = metadata !{i32 786478, i32 0, metadata !398, metadata !"lrotate", metadata !"lrotate", metadata !"_ZN11ap_int_baseILi1ELb0ELb1EE7lrotateEi", metadata !164, i32 1804, metadata !431, i1 false, i1 false, i32 0, i32 0, null, i32 256, i1 false, null, null, i32 0, metadata !89, i32 1804} ; [ DW_TAG_subprogram ]
!578 = metadata !{i32 786478, i32 0, metadata !398, metadata !"rrotate", metadata !"rrotate", metadata !"_ZN11ap_int_baseILi1ELb0ELb1EE7rrotateEi", metadata !164, i32 1813, metadata !431, i1 false, i1 false, i32 0, i32 0, null, i32 256, i1 false, null, null, i32 0, metadata !89, i32 1813} ; [ DW_TAG_subprogram ]
!579 = metadata !{i32 786478, i32 0, metadata !398, metadata !"set_bit", metadata !"set_bit", metadata !"_ZN11ap_int_baseILi1ELb0ELb1EE7set_bitEib", metadata !164, i32 1821, metadata !575, i1 false, i1 false, i32 0, i32 0, null, i32 256, i1 false, null, null, i32 0, metadata !89, i32 1821} ; [ DW_TAG_subprogram ]
!580 = metadata !{i32 786478, i32 0, metadata !398, metadata !"get_bit", metadata !"get_bit", metadata !"_ZNK11ap_int_baseILi1ELb0ELb1EE7get_bitEi", metadata !164, i32 1826, metadata !571, i1 false, i1 false, i32 0, i32 0, null, i32 256, i1 false, null, null, i32 0, metadata !89, i32 1826} ; [ DW_TAG_subprogram ]
!581 = metadata !{i32 786478, i32 0, metadata !398, metadata !"b_not", metadata !"b_not", metadata !"_ZN11ap_int_baseILi1ELb0ELb1EE5b_notEv", metadata !164, i32 1831, metadata !412, i1 false, i1 false, i32 0, i32 0, null, i32 256, i1 false, null, null, i32 0, metadata !89, i32 1831} ; [ DW_TAG_subprogram ]
!582 = metadata !{i32 786478, i32 0, metadata !398, metadata !"countLeadingZeros", metadata !"countLeadingZeros", metadata !"_ZN11ap_int_baseILi1ELb0ELb1EE17countLeadingZerosEv", metadata !164, i32 1838, metadata !583, i1 false, i1 false, i32 0, i32 0, null, i32 256, i1 false, null, null, i32 0, metadata !89, i32 1838} ; [ DW_TAG_subprogram ]
!583 = metadata !{i32 786453, i32 0, metadata !"", i32 0, i32 0, i64 0, i64 0, i64 0, i32 0, null, metadata !584, i32 0, i32 0} ; [ DW_TAG_subroutine_type ]
!584 = metadata !{metadata !189, metadata !414}
!585 = metadata !{i32 786478, i32 0, metadata !398, metadata !"operator++", metadata !"operator++", metadata !"_ZN11ap_int_baseILi1ELb0ELb1EEppEv", metadata !164, i32 1895, metadata !563, i1 false, i1 false, i32 0, i32 0, null, i32 256, i1 false, null, null, i32 0, metadata !89, i32 1895} ; [ DW_TAG_subprogram ]
!586 = metadata !{i32 786478, i32 0, metadata !398, metadata !"operator--", metadata !"operator--", metadata !"_ZN11ap_int_baseILi1ELb0ELb1EEmmEv", metadata !164, i32 1899, metadata !563, i1 false, i1 false, i32 0, i32 0, null, i32 256, i1 false, null, null, i32 0, metadata !89, i32 1899} ; [ DW_TAG_subprogram ]
!587 = metadata !{i32 786478, i32 0, metadata !398, metadata !"operator++", metadata !"operator++", metadata !"_ZN11ap_int_baseILi1ELb0ELb1EEppEi", metadata !164, i32 1907, metadata !588, i1 false, i1 false, i32 0, i32 0, null, i32 256, i1 false, null, null, i32 0, metadata !89, i32 1907} ; [ DW_TAG_subprogram ]
!588 = metadata !{i32 786453, i32 0, metadata !"", i32 0, i32 0, i64 0, i64 0, i64 0, i32 0, null, metadata !589, i32 0, i32 0} ; [ DW_TAG_subroutine_type ]
!589 = metadata !{metadata !397, metadata !414, metadata !189}
!590 = metadata !{i32 786478, i32 0, metadata !398, metadata !"operator--", metadata !"operator--", metadata !"_ZN11ap_int_baseILi1ELb0ELb1EEmmEi", metadata !164, i32 1912, metadata !588, i1 false, i1 false, i32 0, i32 0, null, i32 256, i1 false, null, null, i32 0, metadata !89, i32 1912} ; [ DW_TAG_subprogram ]
!591 = metadata !{i32 786478, i32 0, metadata !398, metadata !"operator+", metadata !"operator+", metadata !"_ZNK11ap_int_baseILi1ELb0ELb1EEpsEv", metadata !164, i32 1921, metadata !592, i1 false, i1 false, i32 0, i32 0, null, i32 256, i1 false, null, null, i32 0, metadata !89, i32 1921} ; [ DW_TAG_subprogram ]
!592 = metadata !{i32 786453, i32 0, metadata !"", i32 0, i32 0, i64 0, i64 0, i64 0, i32 0, null, metadata !593, i32 0, i32 0} ; [ DW_TAG_subroutine_type ]
!593 = metadata !{metadata !398, metadata !520}
!594 = metadata !{i32 786478, i32 0, metadata !398, metadata !"operator!", metadata !"operator!", metadata !"_ZNK11ap_int_baseILi1ELb0ELb1EEntEv", metadata !164, i32 1927, metadata !522, i1 false, i1 false, i32 0, i32 0, null, i32 256, i1 false, null, null, i32 0, metadata !89, i32 1927} ; [ DW_TAG_subprogram ]
!595 = metadata !{i32 786478, i32 0, metadata !398, metadata !"operator-", metadata !"operator-", metadata !"_ZNK11ap_int_baseILi1ELb0ELb1EEngEv", metadata !164, i32 1932, metadata !596, i1 false, i1 false, i32 0, i32 0, null, i32 256, i1 false, null, null, i32 0, metadata !89, i32 1932} ; [ DW_TAG_subprogram ]
!596 = metadata !{i32 786453, i32 0, metadata !"", i32 0, i32 0, i64 0, i64 0, i64 0, i32 0, null, metadata !597, i32 0, i32 0} ; [ DW_TAG_subroutine_type ]
!597 = metadata !{metadata !598, metadata !520}
!598 = metadata !{i32 786434, null, metadata !"ap_int_base<2, true, true>", metadata !164, i32 651, i32 0, i32 0, i32 0, i32 4, null, null, i32 0} ; [ DW_TAG_class_type ]
!599 = metadata !{i32 786478, i32 0, metadata !398, metadata !"range", metadata !"range", metadata !"_ZN11ap_int_baseILi1ELb0ELb1EE5rangeEii", metadata !164, i32 2062, metadata !600, i1 false, i1 false, i32 0, i32 0, null, i32 256, i1 false, null, null, i32 0, metadata !89, i32 2062} ; [ DW_TAG_subprogram ]
!600 = metadata !{i32 786453, i32 0, metadata !"", i32 0, i32 0, i64 0, i64 0, i64 0, i32 0, null, metadata !601, i32 0, i32 0} ; [ DW_TAG_subroutine_type ]
!601 = metadata !{metadata !602, metadata !414, metadata !189, metadata !189}
!602 = metadata !{i32 786434, null, metadata !"ap_range_ref<1, false>", metadata !164, i32 925, i32 0, i32 0, i32 0, i32 4, null, null, i32 0} ; [ DW_TAG_class_type ]
!603 = metadata !{i32 786478, i32 0, metadata !398, metadata !"operator()", metadata !"operator()", metadata !"_ZN11ap_int_baseILi1ELb0ELb1EEclEii", metadata !164, i32 2068, metadata !600, i1 false, i1 false, i32 0, i32 0, null, i32 256, i1 false, null, null, i32 0, metadata !89, i32 2068} ; [ DW_TAG_subprogram ]
!604 = metadata !{i32 786478, i32 0, metadata !398, metadata !"range", metadata !"range", metadata !"_ZNK11ap_int_baseILi1ELb0ELb1EE5rangeEii", metadata !164, i32 2074, metadata !605, i1 false, i1 false, i32 0, i32 0, null, i32 256, i1 false, null, null, i32 0, metadata !89, i32 2074} ; [ DW_TAG_subprogram ]
!605 = metadata !{i32 786453, i32 0, metadata !"", i32 0, i32 0, i64 0, i64 0, i64 0, i32 0, null, metadata !606, i32 0, i32 0} ; [ DW_TAG_subroutine_type ]
!606 = metadata !{metadata !602, metadata !520, metadata !189, metadata !189}
!607 = metadata !{i32 786478, i32 0, metadata !398, metadata !"operator()", metadata !"operator()", metadata !"_ZNK11ap_int_baseILi1ELb0ELb1EEclEii", metadata !164, i32 2080, metadata !605, i1 false, i1 false, i32 0, i32 0, null, i32 256, i1 false, null, null, i32 0, metadata !89, i32 2080} ; [ DW_TAG_subprogram ]
!608 = metadata !{i32 786478, i32 0, metadata !398, metadata !"operator[]", metadata !"operator[]", metadata !"_ZN11ap_int_baseILi1ELb0ELb1EEixEi", metadata !164, i32 2099, metadata !609, i1 false, i1 false, i32 0, i32 0, null, i32 256, i1 false, null, null, i32 0, metadata !89, i32 2099} ; [ DW_TAG_subprogram ]
!609 = metadata !{i32 786453, i32 0, metadata !"", i32 0, i32 0, i64 0, i64 0, i64 0, i32 0, null, metadata !610, i32 0, i32 0} ; [ DW_TAG_subroutine_type ]
!610 = metadata !{metadata !611, metadata !414, metadata !189}
!611 = metadata !{i32 786434, null, metadata !"ap_bit_ref<1, false>", metadata !164, i32 1249, i32 0, i32 0, i32 0, i32 4, null, null, i32 0} ; [ DW_TAG_class_type ]
!612 = metadata !{i32 786478, i32 0, metadata !398, metadata !"operator[]", metadata !"operator[]", metadata !"_ZNK11ap_int_baseILi1ELb0ELb1EEixEi", metadata !164, i32 2113, metadata !571, i1 false, i1 false, i32 0, i32 0, null, i32 256, i1 false, null, null, i32 0, metadata !89, i32 2113} ; [ DW_TAG_subprogram ]
!613 = metadata !{i32 786478, i32 0, metadata !398, metadata !"bit", metadata !"bit", metadata !"_ZN11ap_int_baseILi1ELb0ELb1EE3bitEi", metadata !164, i32 2127, metadata !609, i1 false, i1 false, i32 0, i32 0, null, i32 256, i1 false, null, null, i32 0, metadata !89, i32 2127} ; [ DW_TAG_subprogram ]
!614 = metadata !{i32 786478, i32 0, metadata !398, metadata !"bit", metadata !"bit", metadata !"_ZNK11ap_int_baseILi1ELb0ELb1EE3bitEi", metadata !164, i32 2141, metadata !571, i1 false, i1 false, i32 0, i32 0, null, i32 256, i1 false, null, null, i32 0, metadata !89, i32 2141} ; [ DW_TAG_subprogram ]
!615 = metadata !{i32 786478, i32 0, metadata !398, metadata !"and_reduce", metadata !"and_reduce", metadata !"_ZN11ap_int_baseILi1ELb0ELb1EE10and_reduceEv", metadata !164, i32 2321, metadata !616, i1 false, i1 false, i32 0, i32 0, null, i32 256, i1 false, null, null, i32 0, metadata !89, i32 2321} ; [ DW_TAG_subprogram ]
!616 = metadata !{i32 786453, i32 0, metadata !"", i32 0, i32 0, i64 0, i64 0, i64 0, i32 0, null, metadata !617, i32 0, i32 0} ; [ DW_TAG_subroutine_type ]
!617 = metadata !{metadata !167, metadata !414}
!618 = metadata !{i32 786478, i32 0, metadata !398, metadata !"nand_reduce", metadata !"nand_reduce", metadata !"_ZN11ap_int_baseILi1ELb0ELb1EE11nand_reduceEv", metadata !164, i32 2324, metadata !616, i1 false, i1 false, i32 0, i32 0, null, i32 256, i1 false, null, null, i32 0, metadata !89, i32 2324} ; [ DW_TAG_subprogram ]
!619 = metadata !{i32 786478, i32 0, metadata !398, metadata !"or_reduce", metadata !"or_reduce", metadata !"_ZN11ap_int_baseILi1ELb0ELb1EE9or_reduceEv", metadata !164, i32 2327, metadata !616, i1 false, i1 false, i32 0, i32 0, null, i32 256, i1 false, null, null, i32 0, metadata !89, i32 2327} ; [ DW_TAG_subprogram ]
!620 = metadata !{i32 786478, i32 0, metadata !398, metadata !"nor_reduce", metadata !"nor_reduce", metadata !"_ZN11ap_int_baseILi1ELb0ELb1EE10nor_reduceEv", metadata !164, i32 2330, metadata !616, i1 false, i1 false, i32 0, i32 0, null, i32 256, i1 false, null, null, i32 0, metadata !89, i32 2330} ; [ DW_TAG_subprogram ]
!621 = metadata !{i32 786478, i32 0, metadata !398, metadata !"xor_reduce", metadata !"xor_reduce", metadata !"_ZN11ap_int_baseILi1ELb0ELb1EE10xor_reduceEv", metadata !164, i32 2333, metadata !616, i1 false, i1 false, i32 0, i32 0, null, i32 256, i1 false, null, null, i32 0, metadata !89, i32 2333} ; [ DW_TAG_subprogram ]
!622 = metadata !{i32 786478, i32 0, metadata !398, metadata !"xnor_reduce", metadata !"xnor_reduce", metadata !"_ZN11ap_int_baseILi1ELb0ELb1EE11xnor_reduceEv", metadata !164, i32 2336, metadata !616, i1 false, i1 false, i32 0, i32 0, null, i32 256, i1 false, null, null, i32 0, metadata !89, i32 2336} ; [ DW_TAG_subprogram ]
!623 = metadata !{i32 786478, i32 0, metadata !398, metadata !"and_reduce", metadata !"and_reduce", metadata !"_ZNK11ap_int_baseILi1ELb0ELb1EE10and_reduceEv", metadata !164, i32 2340, metadata !522, i1 false, i1 false, i32 0, i32 0, null, i32 256, i1 false, null, null, i32 0, metadata !89, i32 2340} ; [ DW_TAG_subprogram ]
!624 = metadata !{i32 786478, i32 0, metadata !398, metadata !"nand_reduce", metadata !"nand_reduce", metadata !"_ZNK11ap_int_baseILi1ELb0ELb1EE11nand_reduceEv", metadata !164, i32 2343, metadata !522, i1 false, i1 false, i32 0, i32 0, null, i32 256, i1 false, null, null, i32 0, metadata !89, i32 2343} ; [ DW_TAG_subprogram ]
!625 = metadata !{i32 786478, i32 0, metadata !398, metadata !"or_reduce", metadata !"or_reduce", metadata !"_ZNK11ap_int_baseILi1ELb0ELb1EE9or_reduceEv", metadata !164, i32 2346, metadata !522, i1 false, i1 false, i32 0, i32 0, null, i32 256, i1 false, null, null, i32 0, metadata !89, i32 2346} ; [ DW_TAG_subprogram ]
!626 = metadata !{i32 786478, i32 0, metadata !398, metadata !"nor_reduce", metadata !"nor_reduce", metadata !"_ZNK11ap_int_baseILi1ELb0ELb1EE10nor_reduceEv", metadata !164, i32 2349, metadata !522, i1 false, i1 false, i32 0, i32 0, null, i32 256, i1 false, null, null, i32 0, metadata !89, i32 2349} ; [ DW_TAG_subprogram ]
!627 = metadata !{i32 786478, i32 0, metadata !398, metadata !"xor_reduce", metadata !"xor_reduce", metadata !"_ZNK11ap_int_baseILi1ELb0ELb1EE10xor_reduceEv", metadata !164, i32 2352, metadata !522, i1 false, i1 false, i32 0, i32 0, null, i32 256, i1 false, null, null, i32 0, metadata !89, i32 2352} ; [ DW_TAG_subprogram ]
!628 = metadata !{i32 786478, i32 0, metadata !398, metadata !"xnor_reduce", metadata !"xnor_reduce", metadata !"_ZNK11ap_int_baseILi1ELb0ELb1EE11xnor_reduceEv", metadata !164, i32 2355, metadata !522, i1 false, i1 false, i32 0, i32 0, null, i32 256, i1 false, null, null, i32 0, metadata !89, i32 2355} ; [ DW_TAG_subprogram ]
!629 = metadata !{i32 786478, i32 0, metadata !398, metadata !"to_string", metadata !"to_string", metadata !"_ZNK11ap_int_baseILi1ELb0ELb1EE9to_stringEPci8BaseModeb", metadata !164, i32 2362, metadata !630, i1 false, i1 false, i32 0, i32 0, null, i32 256, i1 false, null, null, i32 0, metadata !89, i32 2362} ; [ DW_TAG_subprogram ]
!630 = metadata !{i32 786453, i32 0, metadata !"", i32 0, i32 0, i64 0, i64 0, i64 0, i32 0, null, metadata !631, i32 0, i32 0} ; [ DW_TAG_subroutine_type ]
!631 = metadata !{null, metadata !520, metadata !632, metadata !189, metadata !633, metadata !167}
!632 = metadata !{i32 786447, null, metadata !"", null, i32 0, i64 64, i64 64, i64 0, i32 0, metadata !268} ; [ DW_TAG_pointer_type ]
!633 = metadata !{i32 786436, null, metadata !"BaseMode", metadata !164, i32 603, i64 5, i64 8, i32 0, i32 0, null, metadata !634, i32 0, i32 0} ; [ DW_TAG_enumeration_type ]
!634 = metadata !{metadata !635, metadata !636, metadata !637, metadata !638}
!635 = metadata !{i32 786472, metadata !"SC_BIN", i64 2} ; [ DW_TAG_enumerator ]
!636 = metadata !{i32 786472, metadata !"SC_OCT", i64 8} ; [ DW_TAG_enumerator ]
!637 = metadata !{i32 786472, metadata !"SC_DEC", i64 10} ; [ DW_TAG_enumerator ]
!638 = metadata !{i32 786472, metadata !"SC_HEX", i64 16} ; [ DW_TAG_enumerator ]
!639 = metadata !{i32 786478, i32 0, metadata !398, metadata !"to_string", metadata !"to_string", metadata !"_ZNK11ap_int_baseILi1ELb0ELb1EE9to_stringE8BaseModeb", metadata !164, i32 2389, metadata !640, i1 false, i1 false, i32 0, i32 0, null, i32 256, i1 false, null, null, i32 0, metadata !89, i32 2389} ; [ DW_TAG_subprogram ]
!640 = metadata !{i32 786453, i32 0, metadata !"", i32 0, i32 0, i64 0, i64 0, i64 0, i32 0, null, metadata !641, i32 0, i32 0} ; [ DW_TAG_subroutine_type ]
!641 = metadata !{metadata !632, metadata !520, metadata !633, metadata !167}
!642 = metadata !{i32 786478, i32 0, metadata !398, metadata !"to_string", metadata !"to_string", metadata !"_ZNK11ap_int_baseILi1ELb0ELb1EE9to_stringEab", metadata !164, i32 2393, metadata !643, i1 false, i1 false, i32 0, i32 0, null, i32 256, i1 false, null, null, i32 0, metadata !89, i32 2393} ; [ DW_TAG_subprogram ]
!643 = metadata !{i32 786453, i32 0, metadata !"", i32 0, i32 0, i64 0, i64 0, i64 0, i32 0, null, metadata !644, i32 0, i32 0} ; [ DW_TAG_subroutine_type ]
!644 = metadata !{metadata !632, metadata !520, metadata !214, metadata !167}
!645 = metadata !{i32 786478, i32 0, metadata !398, metadata !"~ap_int_base", metadata !"~ap_int_base", metadata !"", metadata !164, i32 1453, metadata !412, i1 false, i1 false, i32 0, i32 0, null, i32 320, i1 false, null, null, i32 0, metadata !89, i32 1453} ; [ DW_TAG_subprogram ]
!646 = metadata !{metadata !647, metadata !190, metadata !648}
!647 = metadata !{i32 786480, null, metadata !"_AP_W", metadata !189, i64 1, null, i32 0, i32 0} ; [ DW_TAG_template_value_parameter ]
!648 = metadata !{i32 786480, null, metadata !"_AP_C", metadata !167, i64 1, null, i32 0, i32 0} ; [ DW_TAG_template_value_parameter ]
!649 = metadata !{metadata !650, metadata !201}
!650 = metadata !{i32 786480, null, metadata !"_AP_W2", metadata !189, i64 1, null, i32 0, i32 0} ; [ DW_TAG_template_value_parameter ]
!651 = metadata !{i32 786478, i32 0, metadata !170, metadata !"operator++", metadata !"operator++", metadata !"_ZN11ap_int_baseILi64ELb0ELb1EEppEv", metadata !164, i32 1895, metadata !371, i1 false, i1 false, i32 0, i32 0, null, i32 256, i1 false, null, null, i32 0, metadata !89, i32 1895} ; [ DW_TAG_subprogram ]
!652 = metadata !{i32 786478, i32 0, metadata !170, metadata !"operator--", metadata !"operator--", metadata !"_ZN11ap_int_baseILi64ELb0ELb1EEmmEv", metadata !164, i32 1899, metadata !371, i1 false, i1 false, i32 0, i32 0, null, i32 256, i1 false, null, null, i32 0, metadata !89, i32 1899} ; [ DW_TAG_subprogram ]
!653 = metadata !{i32 786478, i32 0, metadata !170, metadata !"operator++", metadata !"operator++", metadata !"_ZN11ap_int_baseILi64ELb0ELb1EEppEi", metadata !164, i32 1907, metadata !654, i1 false, i1 false, i32 0, i32 0, null, i32 256, i1 false, null, null, i32 0, metadata !89, i32 1907} ; [ DW_TAG_subprogram ]
!654 = metadata !{i32 786453, i32 0, metadata !"", i32 0, i32 0, i64 0, i64 0, i64 0, i32 0, null, metadata !655, i32 0, i32 0} ; [ DW_TAG_subroutine_type ]
!655 = metadata !{metadata !169, metadata !194, metadata !189}
!656 = metadata !{i32 786478, i32 0, metadata !170, metadata !"operator--", metadata !"operator--", metadata !"_ZN11ap_int_baseILi64ELb0ELb1EEmmEi", metadata !164, i32 1912, metadata !654, i1 false, i1 false, i32 0, i32 0, null, i32 256, i1 false, null, null, i32 0, metadata !89, i32 1912} ; [ DW_TAG_subprogram ]
!657 = metadata !{i32 786478, i32 0, metadata !170, metadata !"operator+", metadata !"operator+", metadata !"_ZNK11ap_int_baseILi64ELb0ELb1EEpsEv", metadata !164, i32 1921, metadata !658, i1 false, i1 false, i32 0, i32 0, null, i32 256, i1 false, null, null, i32 0, metadata !89, i32 1921} ; [ DW_TAG_subprogram ]
!658 = metadata !{i32 786453, i32 0, metadata !"", i32 0, i32 0, i64 0, i64 0, i64 0, i32 0, null, metadata !659, i32 0, i32 0} ; [ DW_TAG_subroutine_type ]
!659 = metadata !{metadata !170, metadata !168}
!660 = metadata !{i32 786478, i32 0, metadata !170, metadata !"operator!", metadata !"operator!", metadata !"_ZNK11ap_int_baseILi64ELb0ELb1EEntEv", metadata !164, i32 1927, metadata !330, i1 false, i1 false, i32 0, i32 0, null, i32 256, i1 false, null, null, i32 0, metadata !89, i32 1927} ; [ DW_TAG_subprogram ]
!661 = metadata !{i32 786478, i32 0, metadata !170, metadata !"operator-", metadata !"operator-", metadata !"_ZNK11ap_int_baseILi64ELb0ELb1EEngEv", metadata !164, i32 1932, metadata !662, i1 false, i1 false, i32 0, i32 0, null, i32 256, i1 false, null, null, i32 0, metadata !89, i32 1932} ; [ DW_TAG_subprogram ]
!662 = metadata !{i32 786453, i32 0, metadata !"", i32 0, i32 0, i64 0, i64 0, i64 0, i32 0, null, metadata !663, i32 0, i32 0} ; [ DW_TAG_subroutine_type ]
!663 = metadata !{metadata !664, metadata !168}
!664 = metadata !{i32 786434, null, metadata !"ap_int_base<64, true, true>", metadata !164, i32 1453, i64 64, i64 64, i32 0, i32 0, null, metadata !665, i32 0, null, metadata !904} ; [ DW_TAG_class_type ]
!665 = metadata !{metadata !666, metadata !677, metadata !681, metadata !684, metadata !687, metadata !690, metadata !693, metadata !696, metadata !699, metadata !702, metadata !705, metadata !708, metadata !711, metadata !714, metadata !717, metadata !720, metadata !723, metadata !726, metadata !729, metadata !734, metadata !739, metadata !744, metadata !745, metadata !749, metadata !752, metadata !755, metadata !758, metadata !761, metadata !764, metadata !767, metadata !770, metadata !773, metadata !776, metadata !779, metadata !782, metadata !790, metadata !793, metadata !796, metadata !799, metadata !802, metadata !805, metadata !808, metadata !811, metadata !814, metadata !817, metadata !820, metadata !823, metadata !826, metadata !827, metadata !831, metadata !834, metadata !835, metadata !836, metadata !837, metadata !838, metadata !839, metadata !842, metadata !843, metadata !846, metadata !847, metadata !848, metadata !849, metadata !850, metadata !851, metadata !854, metadata !855, metadata !856, metadata !859, metadata !860, metadata !863, metadata !864, metadata !865, metadata !869, metadata !870, metadata !873, metadata !874, metadata !878, metadata !879, metadata !880, metadata !881, metadata !884, metadata !885, metadata !886, metadata !887, metadata !888, metadata !889, metadata !890, metadata !891, metadata !892, metadata !893, metadata !894, metadata !895, metadata !898, metadata !901}
!666 = metadata !{i32 786460, metadata !664, null, metadata !164, i32 0, i64 0, i64 0, i64 0, i32 0, metadata !667} ; [ DW_TAG_inheritance ]
!667 = metadata !{i32 786434, null, metadata !"ssdm_int<64 + 1024 * 0, true>", metadata !174, i32 68, i64 64, i64 64, i32 0, i32 0, null, metadata !668, i32 0, null, metadata !675} ; [ DW_TAG_class_type ]
!668 = metadata !{metadata !669, metadata !671}
!669 = metadata !{i32 786445, metadata !667, metadata !"V", metadata !174, i32 68, i64 64, i64 64, i64 0, i32 0, metadata !670} ; [ DW_TAG_member ]
!670 = metadata !{i32 786468, null, metadata !"int64", null, i32 0, i64 64, i64 64, i64 0, i32 0, i32 5} ; [ DW_TAG_base_type ]
!671 = metadata !{i32 786478, i32 0, metadata !667, metadata !"ssdm_int", metadata !"ssdm_int", metadata !"", metadata !174, i32 68, metadata !672, i1 false, i1 false, i32 0, i32 0, null, i32 256, i1 false, null, null, i32 0, metadata !89, i32 68} ; [ DW_TAG_subprogram ]
!672 = metadata !{i32 786453, i32 0, metadata !"", i32 0, i32 0, i64 0, i64 0, i64 0, i32 0, null, metadata !673, i32 0, i32 0} ; [ DW_TAG_subroutine_type ]
!673 = metadata !{null, metadata !674}
!674 = metadata !{i32 786447, i32 0, metadata !"", i32 0, i32 0, i64 64, i64 64, i64 0, i32 64, metadata !667} ; [ DW_TAG_pointer_type ]
!675 = metadata !{metadata !188, metadata !676}
!676 = metadata !{i32 786480, null, metadata !"_AP_S", metadata !167, i64 1, null, i32 0, i32 0} ; [ DW_TAG_template_value_parameter ]
!677 = metadata !{i32 786478, i32 0, metadata !664, metadata !"ap_int_base", metadata !"ap_int_base", metadata !"", metadata !164, i32 1494, metadata !678, i1 false, i1 false, i32 0, i32 0, null, i32 256, i1 false, null, null, i32 0, metadata !89, i32 1494} ; [ DW_TAG_subprogram ]
!678 = metadata !{i32 786453, i32 0, metadata !"", i32 0, i32 0, i64 0, i64 0, i64 0, i32 0, null, metadata !679, i32 0, i32 0} ; [ DW_TAG_subroutine_type ]
!679 = metadata !{null, metadata !680}
!680 = metadata !{i32 786447, i32 0, metadata !"", i32 0, i32 0, i64 64, i64 64, i64 0, i32 64, metadata !664} ; [ DW_TAG_pointer_type ]
!681 = metadata !{i32 786478, i32 0, metadata !664, metadata !"ap_int_base", metadata !"ap_int_base", metadata !"", metadata !164, i32 1516, metadata !682, i1 false, i1 false, i32 0, i32 0, null, i32 384, i1 false, null, null, i32 0, metadata !89, i32 1516} ; [ DW_TAG_subprogram ]
!682 = metadata !{i32 786453, i32 0, metadata !"", i32 0, i32 0, i64 0, i64 0, i64 0, i32 0, null, metadata !683, i32 0, i32 0} ; [ DW_TAG_subroutine_type ]
!683 = metadata !{null, metadata !680, metadata !167}
!684 = metadata !{i32 786478, i32 0, metadata !664, metadata !"ap_int_base", metadata !"ap_int_base", metadata !"", metadata !164, i32 1517, metadata !685, i1 false, i1 false, i32 0, i32 0, null, i32 384, i1 false, null, null, i32 0, metadata !89, i32 1517} ; [ DW_TAG_subprogram ]
!685 = metadata !{i32 786453, i32 0, metadata !"", i32 0, i32 0, i64 0, i64 0, i64 0, i32 0, null, metadata !686, i32 0, i32 0} ; [ DW_TAG_subroutine_type ]
!686 = metadata !{null, metadata !680, metadata !214}
!687 = metadata !{i32 786478, i32 0, metadata !664, metadata !"ap_int_base", metadata !"ap_int_base", metadata !"", metadata !164, i32 1518, metadata !688, i1 false, i1 false, i32 0, i32 0, null, i32 384, i1 false, null, null, i32 0, metadata !89, i32 1518} ; [ DW_TAG_subprogram ]
!688 = metadata !{i32 786453, i32 0, metadata !"", i32 0, i32 0, i64 0, i64 0, i64 0, i32 0, null, metadata !689, i32 0, i32 0} ; [ DW_TAG_subroutine_type ]
!689 = metadata !{null, metadata !680, metadata !218}
!690 = metadata !{i32 786478, i32 0, metadata !664, metadata !"ap_int_base", metadata !"ap_int_base", metadata !"", metadata !164, i32 1519, metadata !691, i1 false, i1 false, i32 0, i32 0, null, i32 384, i1 false, null, null, i32 0, metadata !89, i32 1519} ; [ DW_TAG_subprogram ]
!691 = metadata !{i32 786453, i32 0, metadata !"", i32 0, i32 0, i64 0, i64 0, i64 0, i32 0, null, metadata !692, i32 0, i32 0} ; [ DW_TAG_subroutine_type ]
!692 = metadata !{null, metadata !680, metadata !222}
!693 = metadata !{i32 786478, i32 0, metadata !664, metadata !"ap_int_base", metadata !"ap_int_base", metadata !"", metadata !164, i32 1520, metadata !694, i1 false, i1 false, i32 0, i32 0, null, i32 384, i1 false, null, null, i32 0, metadata !89, i32 1520} ; [ DW_TAG_subprogram ]
!694 = metadata !{i32 786453, i32 0, metadata !"", i32 0, i32 0, i64 0, i64 0, i64 0, i32 0, null, metadata !695, i32 0, i32 0} ; [ DW_TAG_subroutine_type ]
!695 = metadata !{null, metadata !680, metadata !226}
!696 = metadata !{i32 786478, i32 0, metadata !664, metadata !"ap_int_base", metadata !"ap_int_base", metadata !"", metadata !164, i32 1521, metadata !697, i1 false, i1 false, i32 0, i32 0, null, i32 384, i1 false, null, null, i32 0, metadata !89, i32 1521} ; [ DW_TAG_subprogram ]
!697 = metadata !{i32 786453, i32 0, metadata !"", i32 0, i32 0, i64 0, i64 0, i64 0, i32 0, null, metadata !698, i32 0, i32 0} ; [ DW_TAG_subroutine_type ]
!698 = metadata !{null, metadata !680, metadata !189}
!699 = metadata !{i32 786478, i32 0, metadata !664, metadata !"ap_int_base", metadata !"ap_int_base", metadata !"", metadata !164, i32 1522, metadata !700, i1 false, i1 false, i32 0, i32 0, null, i32 384, i1 false, null, null, i32 0, metadata !89, i32 1522} ; [ DW_TAG_subprogram ]
!700 = metadata !{i32 786453, i32 0, metadata !"", i32 0, i32 0, i64 0, i64 0, i64 0, i32 0, null, metadata !701, i32 0, i32 0} ; [ DW_TAG_subroutine_type ]
!701 = metadata !{null, metadata !680, metadata !87}
!702 = metadata !{i32 786478, i32 0, metadata !664, metadata !"ap_int_base", metadata !"ap_int_base", metadata !"", metadata !164, i32 1523, metadata !703, i1 false, i1 false, i32 0, i32 0, null, i32 384, i1 false, null, null, i32 0, metadata !89, i32 1523} ; [ DW_TAG_subprogram ]
!703 = metadata !{i32 786453, i32 0, metadata !"", i32 0, i32 0, i64 0, i64 0, i64 0, i32 0, null, metadata !704, i32 0, i32 0} ; [ DW_TAG_subroutine_type ]
!704 = metadata !{null, metadata !680, metadata !236}
!705 = metadata !{i32 786478, i32 0, metadata !664, metadata !"ap_int_base", metadata !"ap_int_base", metadata !"", metadata !164, i32 1524, metadata !706, i1 false, i1 false, i32 0, i32 0, null, i32 384, i1 false, null, null, i32 0, metadata !89, i32 1524} ; [ DW_TAG_subprogram ]
!706 = metadata !{i32 786453, i32 0, metadata !"", i32 0, i32 0, i64 0, i64 0, i64 0, i32 0, null, metadata !707, i32 0, i32 0} ; [ DW_TAG_subroutine_type ]
!707 = metadata !{null, metadata !680, metadata !240}
!708 = metadata !{i32 786478, i32 0, metadata !664, metadata !"ap_int_base", metadata !"ap_int_base", metadata !"", metadata !164, i32 1525, metadata !709, i1 false, i1 false, i32 0, i32 0, null, i32 384, i1 false, null, null, i32 0, metadata !89, i32 1525} ; [ DW_TAG_subprogram ]
!709 = metadata !{i32 786453, i32 0, metadata !"", i32 0, i32 0, i64 0, i64 0, i64 0, i32 0, null, metadata !710, i32 0, i32 0} ; [ DW_TAG_subroutine_type ]
!710 = metadata !{null, metadata !680, metadata !244}
!711 = metadata !{i32 786478, i32 0, metadata !664, metadata !"ap_int_base", metadata !"ap_int_base", metadata !"", metadata !164, i32 1526, metadata !712, i1 false, i1 false, i32 0, i32 0, null, i32 384, i1 false, null, null, i32 0, metadata !89, i32 1526} ; [ DW_TAG_subprogram ]
!712 = metadata !{i32 786453, i32 0, metadata !"", i32 0, i32 0, i64 0, i64 0, i64 0, i32 0, null, metadata !713, i32 0, i32 0} ; [ DW_TAG_subroutine_type ]
!713 = metadata !{null, metadata !680, metadata !249}
!714 = metadata !{i32 786478, i32 0, metadata !664, metadata !"ap_int_base", metadata !"ap_int_base", metadata !"", metadata !164, i32 1527, metadata !715, i1 false, i1 false, i32 0, i32 0, null, i32 384, i1 false, null, null, i32 0, metadata !89, i32 1527} ; [ DW_TAG_subprogram ]
!715 = metadata !{i32 786453, i32 0, metadata !"", i32 0, i32 0, i64 0, i64 0, i64 0, i32 0, null, metadata !716, i32 0, i32 0} ; [ DW_TAG_subroutine_type ]
!716 = metadata !{null, metadata !680, metadata !253}
!717 = metadata !{i32 786478, i32 0, metadata !664, metadata !"ap_int_base", metadata !"ap_int_base", metadata !"", metadata !164, i32 1528, metadata !718, i1 false, i1 false, i32 0, i32 0, null, i32 384, i1 false, null, null, i32 0, metadata !89, i32 1528} ; [ DW_TAG_subprogram ]
!718 = metadata !{i32 786453, i32 0, metadata !"", i32 0, i32 0, i64 0, i64 0, i64 0, i32 0, null, metadata !719, i32 0, i32 0} ; [ DW_TAG_subroutine_type ]
!719 = metadata !{null, metadata !680, metadata !258}
!720 = metadata !{i32 786478, i32 0, metadata !664, metadata !"ap_int_base", metadata !"ap_int_base", metadata !"", metadata !164, i32 1529, metadata !721, i1 false, i1 false, i32 0, i32 0, null, i32 384, i1 false, null, null, i32 0, metadata !89, i32 1529} ; [ DW_TAG_subprogram ]
!721 = metadata !{i32 786453, i32 0, metadata !"", i32 0, i32 0, i64 0, i64 0, i64 0, i32 0, null, metadata !722, i32 0, i32 0} ; [ DW_TAG_subroutine_type ]
!722 = metadata !{null, metadata !680, metadata !262}
!723 = metadata !{i32 786478, i32 0, metadata !664, metadata !"ap_int_base", metadata !"ap_int_base", metadata !"", metadata !164, i32 1556, metadata !724, i1 false, i1 false, i32 0, i32 0, null, i32 256, i1 false, null, null, i32 0, metadata !89, i32 1556} ; [ DW_TAG_subprogram ]
!724 = metadata !{i32 786453, i32 0, metadata !"", i32 0, i32 0, i64 0, i64 0, i64 0, i32 0, null, metadata !725, i32 0, i32 0} ; [ DW_TAG_subroutine_type ]
!725 = metadata !{null, metadata !680, metadata !266}
!726 = metadata !{i32 786478, i32 0, metadata !664, metadata !"ap_int_base", metadata !"ap_int_base", metadata !"", metadata !164, i32 1563, metadata !727, i1 false, i1 false, i32 0, i32 0, null, i32 256, i1 false, null, null, i32 0, metadata !89, i32 1563} ; [ DW_TAG_subprogram ]
!727 = metadata !{i32 786453, i32 0, metadata !"", i32 0, i32 0, i64 0, i64 0, i64 0, i32 0, null, metadata !728, i32 0, i32 0} ; [ DW_TAG_subroutine_type ]
!728 = metadata !{null, metadata !680, metadata !266, metadata !214}
!729 = metadata !{i32 786478, i32 0, metadata !664, metadata !"read", metadata !"read", metadata !"_ZNV11ap_int_baseILi64ELb1ELb1EE4readEv", metadata !164, i32 1584, metadata !730, i1 false, i1 false, i32 0, i32 0, null, i32 256, i1 false, null, null, i32 0, metadata !89, i32 1584} ; [ DW_TAG_subprogram ]
!730 = metadata !{i32 786453, i32 0, metadata !"", i32 0, i32 0, i64 0, i64 0, i64 0, i32 0, null, metadata !731, i32 0, i32 0} ; [ DW_TAG_subroutine_type ]
!731 = metadata !{metadata !664, metadata !732}
!732 = metadata !{i32 786447, i32 0, metadata !"", i32 0, i32 0, i64 64, i64 64, i64 0, i32 64, metadata !733} ; [ DW_TAG_pointer_type ]
!733 = metadata !{i32 786485, null, metadata !"", null, i32 0, i64 0, i64 0, i64 0, i32 0, metadata !664} ; [ DW_TAG_volatile_type ]
!734 = metadata !{i32 786478, i32 0, metadata !664, metadata !"write", metadata !"write", metadata !"_ZNV11ap_int_baseILi64ELb1ELb1EE5writeERKS0_", metadata !164, i32 1590, metadata !735, i1 false, i1 false, i32 0, i32 0, null, i32 256, i1 false, null, null, i32 0, metadata !89, i32 1590} ; [ DW_TAG_subprogram ]
!735 = metadata !{i32 786453, i32 0, metadata !"", i32 0, i32 0, i64 0, i64 0, i64 0, i32 0, null, metadata !736, i32 0, i32 0} ; [ DW_TAG_subroutine_type ]
!736 = metadata !{null, metadata !732, metadata !737}
!737 = metadata !{i32 786448, null, null, null, i32 0, i64 0, i64 0, i64 0, i32 0, metadata !738} ; [ DW_TAG_reference_type ]
!738 = metadata !{i32 786470, null, metadata !"", null, i32 0, i64 0, i64 0, i64 0, i32 0, metadata !664} ; [ DW_TAG_const_type ]
!739 = metadata !{i32 786478, i32 0, metadata !664, metadata !"operator=", metadata !"operator=", metadata !"_ZNV11ap_int_baseILi64ELb1ELb1EEaSERVKS0_", metadata !164, i32 1602, metadata !740, i1 false, i1 false, i32 0, i32 0, null, i32 256, i1 false, null, null, i32 0, metadata !89, i32 1602} ; [ DW_TAG_subprogram ]
!740 = metadata !{i32 786453, i32 0, metadata !"", i32 0, i32 0, i64 0, i64 0, i64 0, i32 0, null, metadata !741, i32 0, i32 0} ; [ DW_TAG_subroutine_type ]
!741 = metadata !{null, metadata !732, metadata !742}
!742 = metadata !{i32 786448, null, null, null, i32 0, i64 0, i64 0, i64 0, i32 0, metadata !743} ; [ DW_TAG_reference_type ]
!743 = metadata !{i32 786470, null, metadata !"", null, i32 0, i64 0, i64 0, i64 0, i32 0, metadata !733} ; [ DW_TAG_const_type ]
!744 = metadata !{i32 786478, i32 0, metadata !664, metadata !"operator=", metadata !"operator=", metadata !"_ZNV11ap_int_baseILi64ELb1ELb1EEaSERKS0_", metadata !164, i32 1611, metadata !735, i1 false, i1 false, i32 0, i32 0, null, i32 256, i1 false, null, null, i32 0, metadata !89, i32 1611} ; [ DW_TAG_subprogram ]
!745 = metadata !{i32 786478, i32 0, metadata !664, metadata !"operator=", metadata !"operator=", metadata !"_ZN11ap_int_baseILi64ELb1ELb1EEaSERVKS0_", metadata !164, i32 1634, metadata !746, i1 false, i1 false, i32 0, i32 0, null, i32 256, i1 false, null, null, i32 0, metadata !89, i32 1634} ; [ DW_TAG_subprogram ]
!746 = metadata !{i32 786453, i32 0, metadata !"", i32 0, i32 0, i64 0, i64 0, i64 0, i32 0, null, metadata !747, i32 0, i32 0} ; [ DW_TAG_subroutine_type ]
!747 = metadata !{metadata !748, metadata !680, metadata !742}
!748 = metadata !{i32 786448, null, null, null, i32 0, i64 0, i64 0, i64 0, i32 0, metadata !664} ; [ DW_TAG_reference_type ]
!749 = metadata !{i32 786478, i32 0, metadata !664, metadata !"operator=", metadata !"operator=", metadata !"_ZN11ap_int_baseILi64ELb1ELb1EEaSERKS0_", metadata !164, i32 1639, metadata !750, i1 false, i1 false, i32 0, i32 0, null, i32 256, i1 false, null, null, i32 0, metadata !89, i32 1639} ; [ DW_TAG_subprogram ]
!750 = metadata !{i32 786453, i32 0, metadata !"", i32 0, i32 0, i64 0, i64 0, i64 0, i32 0, null, metadata !751, i32 0, i32 0} ; [ DW_TAG_subroutine_type ]
!751 = metadata !{metadata !748, metadata !680, metadata !737}
!752 = metadata !{i32 786478, i32 0, metadata !664, metadata !"operator=", metadata !"operator=", metadata !"_ZN11ap_int_baseILi64ELb1ELb1EEaSEPKc", metadata !164, i32 1643, metadata !753, i1 false, i1 false, i32 0, i32 0, null, i32 256, i1 false, null, null, i32 0, metadata !89, i32 1643} ; [ DW_TAG_subprogram ]
!753 = metadata !{i32 786453, i32 0, metadata !"", i32 0, i32 0, i64 0, i64 0, i64 0, i32 0, null, metadata !754, i32 0, i32 0} ; [ DW_TAG_subroutine_type ]
!754 = metadata !{metadata !748, metadata !680, metadata !266}
!755 = metadata !{i32 786478, i32 0, metadata !664, metadata !"set", metadata !"set", metadata !"_ZN11ap_int_baseILi64ELb1ELb1EE3setEPKca", metadata !164, i32 1651, metadata !756, i1 false, i1 false, i32 0, i32 0, null, i32 256, i1 false, null, null, i32 0, metadata !89, i32 1651} ; [ DW_TAG_subprogram ]
!756 = metadata !{i32 786453, i32 0, metadata !"", i32 0, i32 0, i64 0, i64 0, i64 0, i32 0, null, metadata !757, i32 0, i32 0} ; [ DW_TAG_subroutine_type ]
!757 = metadata !{metadata !748, metadata !680, metadata !266, metadata !214}
!758 = metadata !{i32 786478, i32 0, metadata !664, metadata !"operator=", metadata !"operator=", metadata !"_ZN11ap_int_baseILi64ELb1ELb1EEaSEa", metadata !164, i32 1665, metadata !759, i1 false, i1 false, i32 0, i32 0, null, i32 256, i1 false, null, null, i32 0, metadata !89, i32 1665} ; [ DW_TAG_subprogram ]
!759 = metadata !{i32 786453, i32 0, metadata !"", i32 0, i32 0, i64 0, i64 0, i64 0, i32 0, null, metadata !760, i32 0, i32 0} ; [ DW_TAG_subroutine_type ]
!760 = metadata !{metadata !748, metadata !680, metadata !214}
!761 = metadata !{i32 786478, i32 0, metadata !664, metadata !"operator=", metadata !"operator=", metadata !"_ZN11ap_int_baseILi64ELb1ELb1EEaSEh", metadata !164, i32 1666, metadata !762, i1 false, i1 false, i32 0, i32 0, null, i32 256, i1 false, null, null, i32 0, metadata !89, i32 1666} ; [ DW_TAG_subprogram ]
!762 = metadata !{i32 786453, i32 0, metadata !"", i32 0, i32 0, i64 0, i64 0, i64 0, i32 0, null, metadata !763, i32 0, i32 0} ; [ DW_TAG_subroutine_type ]
!763 = metadata !{metadata !748, metadata !680, metadata !218}
!764 = metadata !{i32 786478, i32 0, metadata !664, metadata !"operator=", metadata !"operator=", metadata !"_ZN11ap_int_baseILi64ELb1ELb1EEaSEs", metadata !164, i32 1667, metadata !765, i1 false, i1 false, i32 0, i32 0, null, i32 256, i1 false, null, null, i32 0, metadata !89, i32 1667} ; [ DW_TAG_subprogram ]
!765 = metadata !{i32 786453, i32 0, metadata !"", i32 0, i32 0, i64 0, i64 0, i64 0, i32 0, null, metadata !766, i32 0, i32 0} ; [ DW_TAG_subroutine_type ]
!766 = metadata !{metadata !748, metadata !680, metadata !222}
!767 = metadata !{i32 786478, i32 0, metadata !664, metadata !"operator=", metadata !"operator=", metadata !"_ZN11ap_int_baseILi64ELb1ELb1EEaSEt", metadata !164, i32 1668, metadata !768, i1 false, i1 false, i32 0, i32 0, null, i32 256, i1 false, null, null, i32 0, metadata !89, i32 1668} ; [ DW_TAG_subprogram ]
!768 = metadata !{i32 786453, i32 0, metadata !"", i32 0, i32 0, i64 0, i64 0, i64 0, i32 0, null, metadata !769, i32 0, i32 0} ; [ DW_TAG_subroutine_type ]
!769 = metadata !{metadata !748, metadata !680, metadata !226}
!770 = metadata !{i32 786478, i32 0, metadata !664, metadata !"operator=", metadata !"operator=", metadata !"_ZN11ap_int_baseILi64ELb1ELb1EEaSEi", metadata !164, i32 1669, metadata !771, i1 false, i1 false, i32 0, i32 0, null, i32 256, i1 false, null, null, i32 0, metadata !89, i32 1669} ; [ DW_TAG_subprogram ]
!771 = metadata !{i32 786453, i32 0, metadata !"", i32 0, i32 0, i64 0, i64 0, i64 0, i32 0, null, metadata !772, i32 0, i32 0} ; [ DW_TAG_subroutine_type ]
!772 = metadata !{metadata !748, metadata !680, metadata !189}
!773 = metadata !{i32 786478, i32 0, metadata !664, metadata !"operator=", metadata !"operator=", metadata !"_ZN11ap_int_baseILi64ELb1ELb1EEaSEj", metadata !164, i32 1670, metadata !774, i1 false, i1 false, i32 0, i32 0, null, i32 256, i1 false, null, null, i32 0, metadata !89, i32 1670} ; [ DW_TAG_subprogram ]
!774 = metadata !{i32 786453, i32 0, metadata !"", i32 0, i32 0, i64 0, i64 0, i64 0, i32 0, null, metadata !775, i32 0, i32 0} ; [ DW_TAG_subroutine_type ]
!775 = metadata !{metadata !748, metadata !680, metadata !87}
!776 = metadata !{i32 786478, i32 0, metadata !664, metadata !"operator=", metadata !"operator=", metadata !"_ZN11ap_int_baseILi64ELb1ELb1EEaSEx", metadata !164, i32 1671, metadata !777, i1 false, i1 false, i32 0, i32 0, null, i32 256, i1 false, null, null, i32 0, metadata !89, i32 1671} ; [ DW_TAG_subprogram ]
!777 = metadata !{i32 786453, i32 0, metadata !"", i32 0, i32 0, i64 0, i64 0, i64 0, i32 0, null, metadata !778, i32 0, i32 0} ; [ DW_TAG_subroutine_type ]
!778 = metadata !{metadata !748, metadata !680, metadata !244}
!779 = metadata !{i32 786478, i32 0, metadata !664, metadata !"operator=", metadata !"operator=", metadata !"_ZN11ap_int_baseILi64ELb1ELb1EEaSEy", metadata !164, i32 1672, metadata !780, i1 false, i1 false, i32 0, i32 0, null, i32 256, i1 false, null, null, i32 0, metadata !89, i32 1672} ; [ DW_TAG_subprogram ]
!780 = metadata !{i32 786453, i32 0, metadata !"", i32 0, i32 0, i64 0, i64 0, i64 0, i32 0, null, metadata !781, i32 0, i32 0} ; [ DW_TAG_subroutine_type ]
!781 = metadata !{metadata !748, metadata !680, metadata !249}
!782 = metadata !{i32 786478, i32 0, metadata !664, metadata !"operator long long", metadata !"operator long long", metadata !"_ZNK11ap_int_baseILi64ELb1ELb1EEcvxEv", metadata !164, i32 1710, metadata !783, i1 false, i1 false, i32 0, i32 0, null, i32 256, i1 false, null, null, i32 0, metadata !89, i32 1710} ; [ DW_TAG_subprogram ]
!783 = metadata !{i32 786453, i32 0, metadata !"", i32 0, i32 0, i64 0, i64 0, i64 0, i32 0, null, metadata !784, i32 0, i32 0} ; [ DW_TAG_subroutine_type ]
!784 = metadata !{metadata !785, metadata !789}
!785 = metadata !{i32 786454, metadata !664, metadata !"RetType", metadata !164, i32 1458, i64 0, i64 0, i64 0, i32 0, metadata !786} ; [ DW_TAG_typedef ]
!786 = metadata !{i32 786454, metadata !787, metadata !"Type", metadata !164, i32 1415, i64 0, i64 0, i64 0, i32 0, metadata !244} ; [ DW_TAG_typedef ]
!787 = metadata !{i32 786434, null, metadata !"retval<8, true>", metadata !164, i32 1414, i64 8, i64 8, i32 0, i32 0, null, metadata !326, i32 0, null, metadata !788} ; [ DW_TAG_class_type ]
!788 = metadata !{metadata !328, metadata !676}
!789 = metadata !{i32 786447, i32 0, metadata !"", i32 0, i32 0, i64 64, i64 64, i64 0, i32 64, metadata !738} ; [ DW_TAG_pointer_type ]
!790 = metadata !{i32 786478, i32 0, metadata !664, metadata !"to_bool", metadata !"to_bool", metadata !"_ZNK11ap_int_baseILi64ELb1ELb1EE7to_boolEv", metadata !164, i32 1716, metadata !791, i1 false, i1 false, i32 0, i32 0, null, i32 256, i1 false, null, null, i32 0, metadata !89, i32 1716} ; [ DW_TAG_subprogram ]
!791 = metadata !{i32 786453, i32 0, metadata !"", i32 0, i32 0, i64 0, i64 0, i64 0, i32 0, null, metadata !792, i32 0, i32 0} ; [ DW_TAG_subroutine_type ]
!792 = metadata !{metadata !167, metadata !789}
!793 = metadata !{i32 786478, i32 0, metadata !664, metadata !"to_uchar", metadata !"to_uchar", metadata !"_ZNK11ap_int_baseILi64ELb1ELb1EE8to_ucharEv", metadata !164, i32 1717, metadata !794, i1 false, i1 false, i32 0, i32 0, null, i32 256, i1 false, null, null, i32 0, metadata !89, i32 1717} ; [ DW_TAG_subprogram ]
!794 = metadata !{i32 786453, i32 0, metadata !"", i32 0, i32 0, i64 0, i64 0, i64 0, i32 0, null, metadata !795, i32 0, i32 0} ; [ DW_TAG_subroutine_type ]
!795 = metadata !{metadata !218, metadata !789}
!796 = metadata !{i32 786478, i32 0, metadata !664, metadata !"to_char", metadata !"to_char", metadata !"_ZNK11ap_int_baseILi64ELb1ELb1EE7to_charEv", metadata !164, i32 1718, metadata !797, i1 false, i1 false, i32 0, i32 0, null, i32 256, i1 false, null, null, i32 0, metadata !89, i32 1718} ; [ DW_TAG_subprogram ]
!797 = metadata !{i32 786453, i32 0, metadata !"", i32 0, i32 0, i64 0, i64 0, i64 0, i32 0, null, metadata !798, i32 0, i32 0} ; [ DW_TAG_subroutine_type ]
!798 = metadata !{metadata !214, metadata !789}
!799 = metadata !{i32 786478, i32 0, metadata !664, metadata !"to_ushort", metadata !"to_ushort", metadata !"_ZNK11ap_int_baseILi64ELb1ELb1EE9to_ushortEv", metadata !164, i32 1719, metadata !800, i1 false, i1 false, i32 0, i32 0, null, i32 256, i1 false, null, null, i32 0, metadata !89, i32 1719} ; [ DW_TAG_subprogram ]
!800 = metadata !{i32 786453, i32 0, metadata !"", i32 0, i32 0, i64 0, i64 0, i64 0, i32 0, null, metadata !801, i32 0, i32 0} ; [ DW_TAG_subroutine_type ]
!801 = metadata !{metadata !226, metadata !789}
!802 = metadata !{i32 786478, i32 0, metadata !664, metadata !"to_short", metadata !"to_short", metadata !"_ZNK11ap_int_baseILi64ELb1ELb1EE8to_shortEv", metadata !164, i32 1720, metadata !803, i1 false, i1 false, i32 0, i32 0, null, i32 256, i1 false, null, null, i32 0, metadata !89, i32 1720} ; [ DW_TAG_subprogram ]
!803 = metadata !{i32 786453, i32 0, metadata !"", i32 0, i32 0, i64 0, i64 0, i64 0, i32 0, null, metadata !804, i32 0, i32 0} ; [ DW_TAG_subroutine_type ]
!804 = metadata !{metadata !222, metadata !789}
!805 = metadata !{i32 786478, i32 0, metadata !664, metadata !"to_int", metadata !"to_int", metadata !"_ZNK11ap_int_baseILi64ELb1ELb1EE6to_intEv", metadata !164, i32 1721, metadata !806, i1 false, i1 false, i32 0, i32 0, null, i32 256, i1 false, null, null, i32 0, metadata !89, i32 1721} ; [ DW_TAG_subprogram ]
!806 = metadata !{i32 786453, i32 0, metadata !"", i32 0, i32 0, i64 0, i64 0, i64 0, i32 0, null, metadata !807, i32 0, i32 0} ; [ DW_TAG_subroutine_type ]
!807 = metadata !{metadata !189, metadata !789}
!808 = metadata !{i32 786478, i32 0, metadata !664, metadata !"to_uint", metadata !"to_uint", metadata !"_ZNK11ap_int_baseILi64ELb1ELb1EE7to_uintEv", metadata !164, i32 1722, metadata !809, i1 false, i1 false, i32 0, i32 0, null, i32 256, i1 false, null, null, i32 0, metadata !89, i32 1722} ; [ DW_TAG_subprogram ]
!809 = metadata !{i32 786453, i32 0, metadata !"", i32 0, i32 0, i64 0, i64 0, i64 0, i32 0, null, metadata !810, i32 0, i32 0} ; [ DW_TAG_subroutine_type ]
!810 = metadata !{metadata !87, metadata !789}
!811 = metadata !{i32 786478, i32 0, metadata !664, metadata !"to_long", metadata !"to_long", metadata !"_ZNK11ap_int_baseILi64ELb1ELb1EE7to_longEv", metadata !164, i32 1723, metadata !812, i1 false, i1 false, i32 0, i32 0, null, i32 256, i1 false, null, null, i32 0, metadata !89, i32 1723} ; [ DW_TAG_subprogram ]
!812 = metadata !{i32 786453, i32 0, metadata !"", i32 0, i32 0, i64 0, i64 0, i64 0, i32 0, null, metadata !813, i32 0, i32 0} ; [ DW_TAG_subroutine_type ]
!813 = metadata !{metadata !236, metadata !789}
!814 = metadata !{i32 786478, i32 0, metadata !664, metadata !"to_ulong", metadata !"to_ulong", metadata !"_ZNK11ap_int_baseILi64ELb1ELb1EE8to_ulongEv", metadata !164, i32 1724, metadata !815, i1 false, i1 false, i32 0, i32 0, null, i32 256, i1 false, null, null, i32 0, metadata !89, i32 1724} ; [ DW_TAG_subprogram ]
!815 = metadata !{i32 786453, i32 0, metadata !"", i32 0, i32 0, i64 0, i64 0, i64 0, i32 0, null, metadata !816, i32 0, i32 0} ; [ DW_TAG_subroutine_type ]
!816 = metadata !{metadata !240, metadata !789}
!817 = metadata !{i32 786478, i32 0, metadata !664, metadata !"to_int64", metadata !"to_int64", metadata !"_ZNK11ap_int_baseILi64ELb1ELb1EE8to_int64Ev", metadata !164, i32 1725, metadata !818, i1 false, i1 false, i32 0, i32 0, null, i32 256, i1 false, null, null, i32 0, metadata !89, i32 1725} ; [ DW_TAG_subprogram ]
!818 = metadata !{i32 786453, i32 0, metadata !"", i32 0, i32 0, i64 0, i64 0, i64 0, i32 0, null, metadata !819, i32 0, i32 0} ; [ DW_TAG_subroutine_type ]
!819 = metadata !{metadata !244, metadata !789}
!820 = metadata !{i32 786478, i32 0, metadata !664, metadata !"to_uint64", metadata !"to_uint64", metadata !"_ZNK11ap_int_baseILi64ELb1ELb1EE9to_uint64Ev", metadata !164, i32 1726, metadata !821, i1 false, i1 false, i32 0, i32 0, null, i32 256, i1 false, null, null, i32 0, metadata !89, i32 1726} ; [ DW_TAG_subprogram ]
!821 = metadata !{i32 786453, i32 0, metadata !"", i32 0, i32 0, i64 0, i64 0, i64 0, i32 0, null, metadata !822, i32 0, i32 0} ; [ DW_TAG_subroutine_type ]
!822 = metadata !{metadata !249, metadata !789}
!823 = metadata !{i32 786478, i32 0, metadata !664, metadata !"to_double", metadata !"to_double", metadata !"_ZNK11ap_int_baseILi64ELb1ELb1EE9to_doubleEv", metadata !164, i32 1727, metadata !824, i1 false, i1 false, i32 0, i32 0, null, i32 256, i1 false, null, null, i32 0, metadata !89, i32 1727} ; [ DW_TAG_subprogram ]
!824 = metadata !{i32 786453, i32 0, metadata !"", i32 0, i32 0, i64 0, i64 0, i64 0, i32 0, null, metadata !825, i32 0, i32 0} ; [ DW_TAG_subroutine_type ]
!825 = metadata !{metadata !262, metadata !789}
!826 = metadata !{i32 786478, i32 0, metadata !664, metadata !"length", metadata !"length", metadata !"_ZNK11ap_int_baseILi64ELb1ELb1EE6lengthEv", metadata !164, i32 1741, metadata !806, i1 false, i1 false, i32 0, i32 0, null, i32 256, i1 false, null, null, i32 0, metadata !89, i32 1741} ; [ DW_TAG_subprogram ]
!827 = metadata !{i32 786478, i32 0, metadata !664, metadata !"length", metadata !"length", metadata !"_ZNVK11ap_int_baseILi64ELb1ELb1EE6lengthEv", metadata !164, i32 1742, metadata !828, i1 false, i1 false, i32 0, i32 0, null, i32 256, i1 false, null, null, i32 0, metadata !89, i32 1742} ; [ DW_TAG_subprogram ]
!828 = metadata !{i32 786453, i32 0, metadata !"", i32 0, i32 0, i64 0, i64 0, i64 0, i32 0, null, metadata !829, i32 0, i32 0} ; [ DW_TAG_subroutine_type ]
!829 = metadata !{metadata !189, metadata !830}
!830 = metadata !{i32 786447, i32 0, metadata !"", i32 0, i32 0, i64 64, i64 64, i64 0, i32 64, metadata !743} ; [ DW_TAG_pointer_type ]
!831 = metadata !{i32 786478, i32 0, metadata !664, metadata !"reverse", metadata !"reverse", metadata !"_ZN11ap_int_baseILi64ELb1ELb1EE7reverseEv", metadata !164, i32 1747, metadata !832, i1 false, i1 false, i32 0, i32 0, null, i32 256, i1 false, null, null, i32 0, metadata !89, i32 1747} ; [ DW_TAG_subprogram ]
!832 = metadata !{i32 786453, i32 0, metadata !"", i32 0, i32 0, i64 0, i64 0, i64 0, i32 0, null, metadata !833, i32 0, i32 0} ; [ DW_TAG_subroutine_type ]
!833 = metadata !{metadata !748, metadata !680}
!834 = metadata !{i32 786478, i32 0, metadata !664, metadata !"iszero", metadata !"iszero", metadata !"_ZNK11ap_int_baseILi64ELb1ELb1EE6iszeroEv", metadata !164, i32 1753, metadata !791, i1 false, i1 false, i32 0, i32 0, null, i32 256, i1 false, null, null, i32 0, metadata !89, i32 1753} ; [ DW_TAG_subprogram ]
!835 = metadata !{i32 786478, i32 0, metadata !664, metadata !"is_zero", metadata !"is_zero", metadata !"_ZNK11ap_int_baseILi64ELb1ELb1EE7is_zeroEv", metadata !164, i32 1758, metadata !791, i1 false, i1 false, i32 0, i32 0, null, i32 256, i1 false, null, null, i32 0, metadata !89, i32 1758} ; [ DW_TAG_subprogram ]
!836 = metadata !{i32 786478, i32 0, metadata !664, metadata !"sign", metadata !"sign", metadata !"_ZNK11ap_int_baseILi64ELb1ELb1EE4signEv", metadata !164, i32 1763, metadata !791, i1 false, i1 false, i32 0, i32 0, null, i32 256, i1 false, null, null, i32 0, metadata !89, i32 1763} ; [ DW_TAG_subprogram ]
!837 = metadata !{i32 786478, i32 0, metadata !664, metadata !"clear", metadata !"clear", metadata !"_ZN11ap_int_baseILi64ELb1ELb1EE5clearEi", metadata !164, i32 1771, metadata !697, i1 false, i1 false, i32 0, i32 0, null, i32 256, i1 false, null, null, i32 0, metadata !89, i32 1771} ; [ DW_TAG_subprogram ]
!838 = metadata !{i32 786478, i32 0, metadata !664, metadata !"invert", metadata !"invert", metadata !"_ZN11ap_int_baseILi64ELb1ELb1EE6invertEi", metadata !164, i32 1777, metadata !697, i1 false, i1 false, i32 0, i32 0, null, i32 256, i1 false, null, null, i32 0, metadata !89, i32 1777} ; [ DW_TAG_subprogram ]
!839 = metadata !{i32 786478, i32 0, metadata !664, metadata !"test", metadata !"test", metadata !"_ZNK11ap_int_baseILi64ELb1ELb1EE4testEi", metadata !164, i32 1785, metadata !840, i1 false, i1 false, i32 0, i32 0, null, i32 256, i1 false, null, null, i32 0, metadata !89, i32 1785} ; [ DW_TAG_subprogram ]
!840 = metadata !{i32 786453, i32 0, metadata !"", i32 0, i32 0, i64 0, i64 0, i64 0, i32 0, null, metadata !841, i32 0, i32 0} ; [ DW_TAG_subroutine_type ]
!841 = metadata !{metadata !167, metadata !789, metadata !189}
!842 = metadata !{i32 786478, i32 0, metadata !664, metadata !"set", metadata !"set", metadata !"_ZN11ap_int_baseILi64ELb1ELb1EE3setEi", metadata !164, i32 1791, metadata !697, i1 false, i1 false, i32 0, i32 0, null, i32 256, i1 false, null, null, i32 0, metadata !89, i32 1791} ; [ DW_TAG_subprogram ]
!843 = metadata !{i32 786478, i32 0, metadata !664, metadata !"set", metadata !"set", metadata !"_ZN11ap_int_baseILi64ELb1ELb1EE3setEib", metadata !164, i32 1797, metadata !844, i1 false, i1 false, i32 0, i32 0, null, i32 256, i1 false, null, null, i32 0, metadata !89, i32 1797} ; [ DW_TAG_subprogram ]
!844 = metadata !{i32 786453, i32 0, metadata !"", i32 0, i32 0, i64 0, i64 0, i64 0, i32 0, null, metadata !845, i32 0, i32 0} ; [ DW_TAG_subroutine_type ]
!845 = metadata !{null, metadata !680, metadata !189, metadata !167}
!846 = metadata !{i32 786478, i32 0, metadata !664, metadata !"lrotate", metadata !"lrotate", metadata !"_ZN11ap_int_baseILi64ELb1ELb1EE7lrotateEi", metadata !164, i32 1804, metadata !697, i1 false, i1 false, i32 0, i32 0, null, i32 256, i1 false, null, null, i32 0, metadata !89, i32 1804} ; [ DW_TAG_subprogram ]
!847 = metadata !{i32 786478, i32 0, metadata !664, metadata !"rrotate", metadata !"rrotate", metadata !"_ZN11ap_int_baseILi64ELb1ELb1EE7rrotateEi", metadata !164, i32 1813, metadata !697, i1 false, i1 false, i32 0, i32 0, null, i32 256, i1 false, null, null, i32 0, metadata !89, i32 1813} ; [ DW_TAG_subprogram ]
!848 = metadata !{i32 786478, i32 0, metadata !664, metadata !"set_bit", metadata !"set_bit", metadata !"_ZN11ap_int_baseILi64ELb1ELb1EE7set_bitEib", metadata !164, i32 1821, metadata !844, i1 false, i1 false, i32 0, i32 0, null, i32 256, i1 false, null, null, i32 0, metadata !89, i32 1821} ; [ DW_TAG_subprogram ]
!849 = metadata !{i32 786478, i32 0, metadata !664, metadata !"get_bit", metadata !"get_bit", metadata !"_ZNK11ap_int_baseILi64ELb1ELb1EE7get_bitEi", metadata !164, i32 1826, metadata !840, i1 false, i1 false, i32 0, i32 0, null, i32 256, i1 false, null, null, i32 0, metadata !89, i32 1826} ; [ DW_TAG_subprogram ]
!850 = metadata !{i32 786478, i32 0, metadata !664, metadata !"b_not", metadata !"b_not", metadata !"_ZN11ap_int_baseILi64ELb1ELb1EE5b_notEv", metadata !164, i32 1831, metadata !678, i1 false, i1 false, i32 0, i32 0, null, i32 256, i1 false, null, null, i32 0, metadata !89, i32 1831} ; [ DW_TAG_subprogram ]
!851 = metadata !{i32 786478, i32 0, metadata !664, metadata !"countLeadingZeros", metadata !"countLeadingZeros", metadata !"_ZN11ap_int_baseILi64ELb1ELb1EE17countLeadingZerosEv", metadata !164, i32 1838, metadata !852, i1 false, i1 false, i32 0, i32 0, null, i32 256, i1 false, null, null, i32 0, metadata !89, i32 1838} ; [ DW_TAG_subprogram ]
!852 = metadata !{i32 786453, i32 0, metadata !"", i32 0, i32 0, i64 0, i64 0, i64 0, i32 0, null, metadata !853, i32 0, i32 0} ; [ DW_TAG_subroutine_type ]
!853 = metadata !{metadata !189, metadata !680}
!854 = metadata !{i32 786478, i32 0, metadata !664, metadata !"operator++", metadata !"operator++", metadata !"_ZN11ap_int_baseILi64ELb1ELb1EEppEv", metadata !164, i32 1895, metadata !832, i1 false, i1 false, i32 0, i32 0, null, i32 256, i1 false, null, null, i32 0, metadata !89, i32 1895} ; [ DW_TAG_subprogram ]
!855 = metadata !{i32 786478, i32 0, metadata !664, metadata !"operator--", metadata !"operator--", metadata !"_ZN11ap_int_baseILi64ELb1ELb1EEmmEv", metadata !164, i32 1899, metadata !832, i1 false, i1 false, i32 0, i32 0, null, i32 256, i1 false, null, null, i32 0, metadata !89, i32 1899} ; [ DW_TAG_subprogram ]
!856 = metadata !{i32 786478, i32 0, metadata !664, metadata !"operator++", metadata !"operator++", metadata !"_ZN11ap_int_baseILi64ELb1ELb1EEppEi", metadata !164, i32 1907, metadata !857, i1 false, i1 false, i32 0, i32 0, null, i32 256, i1 false, null, null, i32 0, metadata !89, i32 1907} ; [ DW_TAG_subprogram ]
!857 = metadata !{i32 786453, i32 0, metadata !"", i32 0, i32 0, i64 0, i64 0, i64 0, i32 0, null, metadata !858, i32 0, i32 0} ; [ DW_TAG_subroutine_type ]
!858 = metadata !{metadata !738, metadata !680, metadata !189}
!859 = metadata !{i32 786478, i32 0, metadata !664, metadata !"operator--", metadata !"operator--", metadata !"_ZN11ap_int_baseILi64ELb1ELb1EEmmEi", metadata !164, i32 1912, metadata !857, i1 false, i1 false, i32 0, i32 0, null, i32 256, i1 false, null, null, i32 0, metadata !89, i32 1912} ; [ DW_TAG_subprogram ]
!860 = metadata !{i32 786478, i32 0, metadata !664, metadata !"operator+", metadata !"operator+", metadata !"_ZNK11ap_int_baseILi64ELb1ELb1EEpsEv", metadata !164, i32 1921, metadata !861, i1 false, i1 false, i32 0, i32 0, null, i32 256, i1 false, null, null, i32 0, metadata !89, i32 1921} ; [ DW_TAG_subprogram ]
!861 = metadata !{i32 786453, i32 0, metadata !"", i32 0, i32 0, i64 0, i64 0, i64 0, i32 0, null, metadata !862, i32 0, i32 0} ; [ DW_TAG_subroutine_type ]
!862 = metadata !{metadata !664, metadata !789}
!863 = metadata !{i32 786478, i32 0, metadata !664, metadata !"operator!", metadata !"operator!", metadata !"_ZNK11ap_int_baseILi64ELb1ELb1EEntEv", metadata !164, i32 1927, metadata !791, i1 false, i1 false, i32 0, i32 0, null, i32 256, i1 false, null, null, i32 0, metadata !89, i32 1927} ; [ DW_TAG_subprogram ]
!864 = metadata !{i32 786478, i32 0, metadata !664, metadata !"operator-", metadata !"operator-", metadata !"_ZNK11ap_int_baseILi64ELb1ELb1EEngEv", metadata !164, i32 1932, metadata !861, i1 false, i1 false, i32 0, i32 0, null, i32 256, i1 false, null, null, i32 0, metadata !89, i32 1932} ; [ DW_TAG_subprogram ]
!865 = metadata !{i32 786478, i32 0, metadata !664, metadata !"range", metadata !"range", metadata !"_ZN11ap_int_baseILi64ELb1ELb1EE5rangeEii", metadata !164, i32 2062, metadata !866, i1 false, i1 false, i32 0, i32 0, null, i32 256, i1 false, null, null, i32 0, metadata !89, i32 2062} ; [ DW_TAG_subprogram ]
!866 = metadata !{i32 786453, i32 0, metadata !"", i32 0, i32 0, i64 0, i64 0, i64 0, i32 0, null, metadata !867, i32 0, i32 0} ; [ DW_TAG_subroutine_type ]
!867 = metadata !{metadata !868, metadata !680, metadata !189, metadata !189}
!868 = metadata !{i32 786434, null, metadata !"ap_range_ref<64, true>", metadata !164, i32 925, i32 0, i32 0, i32 0, i32 4, null, null, i32 0} ; [ DW_TAG_class_type ]
!869 = metadata !{i32 786478, i32 0, metadata !664, metadata !"operator()", metadata !"operator()", metadata !"_ZN11ap_int_baseILi64ELb1ELb1EEclEii", metadata !164, i32 2068, metadata !866, i1 false, i1 false, i32 0, i32 0, null, i32 256, i1 false, null, null, i32 0, metadata !89, i32 2068} ; [ DW_TAG_subprogram ]
!870 = metadata !{i32 786478, i32 0, metadata !664, metadata !"range", metadata !"range", metadata !"_ZNK11ap_int_baseILi64ELb1ELb1EE5rangeEii", metadata !164, i32 2074, metadata !871, i1 false, i1 false, i32 0, i32 0, null, i32 256, i1 false, null, null, i32 0, metadata !89, i32 2074} ; [ DW_TAG_subprogram ]
!871 = metadata !{i32 786453, i32 0, metadata !"", i32 0, i32 0, i64 0, i64 0, i64 0, i32 0, null, metadata !872, i32 0, i32 0} ; [ DW_TAG_subroutine_type ]
!872 = metadata !{metadata !868, metadata !789, metadata !189, metadata !189}
!873 = metadata !{i32 786478, i32 0, metadata !664, metadata !"operator()", metadata !"operator()", metadata !"_ZNK11ap_int_baseILi64ELb1ELb1EEclEii", metadata !164, i32 2080, metadata !871, i1 false, i1 false, i32 0, i32 0, null, i32 256, i1 false, null, null, i32 0, metadata !89, i32 2080} ; [ DW_TAG_subprogram ]
!874 = metadata !{i32 786478, i32 0, metadata !664, metadata !"operator[]", metadata !"operator[]", metadata !"_ZN11ap_int_baseILi64ELb1ELb1EEixEi", metadata !164, i32 2099, metadata !875, i1 false, i1 false, i32 0, i32 0, null, i32 256, i1 false, null, null, i32 0, metadata !89, i32 2099} ; [ DW_TAG_subprogram ]
!875 = metadata !{i32 786453, i32 0, metadata !"", i32 0, i32 0, i64 0, i64 0, i64 0, i32 0, null, metadata !876, i32 0, i32 0} ; [ DW_TAG_subroutine_type ]
!876 = metadata !{metadata !877, metadata !680, metadata !189}
!877 = metadata !{i32 786434, null, metadata !"ap_bit_ref<64, true>", metadata !164, i32 1249, i32 0, i32 0, i32 0, i32 4, null, null, i32 0} ; [ DW_TAG_class_type ]
!878 = metadata !{i32 786478, i32 0, metadata !664, metadata !"operator[]", metadata !"operator[]", metadata !"_ZNK11ap_int_baseILi64ELb1ELb1EEixEi", metadata !164, i32 2113, metadata !840, i1 false, i1 false, i32 0, i32 0, null, i32 256, i1 false, null, null, i32 0, metadata !89, i32 2113} ; [ DW_TAG_subprogram ]
!879 = metadata !{i32 786478, i32 0, metadata !664, metadata !"bit", metadata !"bit", metadata !"_ZN11ap_int_baseILi64ELb1ELb1EE3bitEi", metadata !164, i32 2127, metadata !875, i1 false, i1 false, i32 0, i32 0, null, i32 256, i1 false, null, null, i32 0, metadata !89, i32 2127} ; [ DW_TAG_subprogram ]
!880 = metadata !{i32 786478, i32 0, metadata !664, metadata !"bit", metadata !"bit", metadata !"_ZNK11ap_int_baseILi64ELb1ELb1EE3bitEi", metadata !164, i32 2141, metadata !840, i1 false, i1 false, i32 0, i32 0, null, i32 256, i1 false, null, null, i32 0, metadata !89, i32 2141} ; [ DW_TAG_subprogram ]
!881 = metadata !{i32 786478, i32 0, metadata !664, metadata !"and_reduce", metadata !"and_reduce", metadata !"_ZN11ap_int_baseILi64ELb1ELb1EE10and_reduceEv", metadata !164, i32 2321, metadata !882, i1 false, i1 false, i32 0, i32 0, null, i32 256, i1 false, null, null, i32 0, metadata !89, i32 2321} ; [ DW_TAG_subprogram ]
!882 = metadata !{i32 786453, i32 0, metadata !"", i32 0, i32 0, i64 0, i64 0, i64 0, i32 0, null, metadata !883, i32 0, i32 0} ; [ DW_TAG_subroutine_type ]
!883 = metadata !{metadata !167, metadata !680}
!884 = metadata !{i32 786478, i32 0, metadata !664, metadata !"nand_reduce", metadata !"nand_reduce", metadata !"_ZN11ap_int_baseILi64ELb1ELb1EE11nand_reduceEv", metadata !164, i32 2324, metadata !882, i1 false, i1 false, i32 0, i32 0, null, i32 256, i1 false, null, null, i32 0, metadata !89, i32 2324} ; [ DW_TAG_subprogram ]
!885 = metadata !{i32 786478, i32 0, metadata !664, metadata !"or_reduce", metadata !"or_reduce", metadata !"_ZN11ap_int_baseILi64ELb1ELb1EE9or_reduceEv", metadata !164, i32 2327, metadata !882, i1 false, i1 false, i32 0, i32 0, null, i32 256, i1 false, null, null, i32 0, metadata !89, i32 2327} ; [ DW_TAG_subprogram ]
!886 = metadata !{i32 786478, i32 0, metadata !664, metadata !"nor_reduce", metadata !"nor_reduce", metadata !"_ZN11ap_int_baseILi64ELb1ELb1EE10nor_reduceEv", metadata !164, i32 2330, metadata !882, i1 false, i1 false, i32 0, i32 0, null, i32 256, i1 false, null, null, i32 0, metadata !89, i32 2330} ; [ DW_TAG_subprogram ]
!887 = metadata !{i32 786478, i32 0, metadata !664, metadata !"xor_reduce", metadata !"xor_reduce", metadata !"_ZN11ap_int_baseILi64ELb1ELb1EE10xor_reduceEv", metadata !164, i32 2333, metadata !882, i1 false, i1 false, i32 0, i32 0, null, i32 256, i1 false, null, null, i32 0, metadata !89, i32 2333} ; [ DW_TAG_subprogram ]
!888 = metadata !{i32 786478, i32 0, metadata !664, metadata !"xnor_reduce", metadata !"xnor_reduce", metadata !"_ZN11ap_int_baseILi64ELb1ELb1EE11xnor_reduceEv", metadata !164, i32 2336, metadata !882, i1 false, i1 false, i32 0, i32 0, null, i32 256, i1 false, null, null, i32 0, metadata !89, i32 2336} ; [ DW_TAG_subprogram ]
!889 = metadata !{i32 786478, i32 0, metadata !664, metadata !"and_reduce", metadata !"and_reduce", metadata !"_ZNK11ap_int_baseILi64ELb1ELb1EE10and_reduceEv", metadata !164, i32 2340, metadata !791, i1 false, i1 false, i32 0, i32 0, null, i32 256, i1 false, null, null, i32 0, metadata !89, i32 2340} ; [ DW_TAG_subprogram ]
!890 = metadata !{i32 786478, i32 0, metadata !664, metadata !"nand_reduce", metadata !"nand_reduce", metadata !"_ZNK11ap_int_baseILi64ELb1ELb1EE11nand_reduceEv", metadata !164, i32 2343, metadata !791, i1 false, i1 false, i32 0, i32 0, null, i32 256, i1 false, null, null, i32 0, metadata !89, i32 2343} ; [ DW_TAG_subprogram ]
!891 = metadata !{i32 786478, i32 0, metadata !664, metadata !"or_reduce", metadata !"or_reduce", metadata !"_ZNK11ap_int_baseILi64ELb1ELb1EE9or_reduceEv", metadata !164, i32 2346, metadata !791, i1 false, i1 false, i32 0, i32 0, null, i32 256, i1 false, null, null, i32 0, metadata !89, i32 2346} ; [ DW_TAG_subprogram ]
!892 = metadata !{i32 786478, i32 0, metadata !664, metadata !"nor_reduce", metadata !"nor_reduce", metadata !"_ZNK11ap_int_baseILi64ELb1ELb1EE10nor_reduceEv", metadata !164, i32 2349, metadata !791, i1 false, i1 false, i32 0, i32 0, null, i32 256, i1 false, null, null, i32 0, metadata !89, i32 2349} ; [ DW_TAG_subprogram ]
!893 = metadata !{i32 786478, i32 0, metadata !664, metadata !"xor_reduce", metadata !"xor_reduce", metadata !"_ZNK11ap_int_baseILi64ELb1ELb1EE10xor_reduceEv", metadata !164, i32 2352, metadata !791, i1 false, i1 false, i32 0, i32 0, null, i32 256, i1 false, null, null, i32 0, metadata !89, i32 2352} ; [ DW_TAG_subprogram ]
!894 = metadata !{i32 786478, i32 0, metadata !664, metadata !"xnor_reduce", metadata !"xnor_reduce", metadata !"_ZNK11ap_int_baseILi64ELb1ELb1EE11xnor_reduceEv", metadata !164, i32 2355, metadata !791, i1 false, i1 false, i32 0, i32 0, null, i32 256, i1 false, null, null, i32 0, metadata !89, i32 2355} ; [ DW_TAG_subprogram ]
!895 = metadata !{i32 786478, i32 0, metadata !664, metadata !"to_string", metadata !"to_string", metadata !"_ZNK11ap_int_baseILi64ELb1ELb1EE9to_stringEPci8BaseModeb", metadata !164, i32 2362, metadata !896, i1 false, i1 false, i32 0, i32 0, null, i32 256, i1 false, null, null, i32 0, metadata !89, i32 2362} ; [ DW_TAG_subprogram ]
!896 = metadata !{i32 786453, i32 0, metadata !"", i32 0, i32 0, i64 0, i64 0, i64 0, i32 0, null, metadata !897, i32 0, i32 0} ; [ DW_TAG_subroutine_type ]
!897 = metadata !{null, metadata !789, metadata !632, metadata !189, metadata !633, metadata !167}
!898 = metadata !{i32 786478, i32 0, metadata !664, metadata !"to_string", metadata !"to_string", metadata !"_ZNK11ap_int_baseILi64ELb1ELb1EE9to_stringE8BaseModeb", metadata !164, i32 2389, metadata !899, i1 false, i1 false, i32 0, i32 0, null, i32 256, i1 false, null, null, i32 0, metadata !89, i32 2389} ; [ DW_TAG_subprogram ]
!899 = metadata !{i32 786453, i32 0, metadata !"", i32 0, i32 0, i64 0, i64 0, i64 0, i32 0, null, metadata !900, i32 0, i32 0} ; [ DW_TAG_subroutine_type ]
!900 = metadata !{metadata !632, metadata !789, metadata !633, metadata !167}
!901 = metadata !{i32 786478, i32 0, metadata !664, metadata !"to_string", metadata !"to_string", metadata !"_ZNK11ap_int_baseILi64ELb1ELb1EE9to_stringEab", metadata !164, i32 2393, metadata !902, i1 false, i1 false, i32 0, i32 0, null, i32 256, i1 false, null, null, i32 0, metadata !89, i32 2393} ; [ DW_TAG_subprogram ]
!902 = metadata !{i32 786453, i32 0, metadata !"", i32 0, i32 0, i64 0, i64 0, i64 0, i32 0, null, metadata !903, i32 0, i32 0} ; [ DW_TAG_subroutine_type ]
!903 = metadata !{metadata !632, metadata !789, metadata !214, metadata !167}
!904 = metadata !{metadata !905, metadata !676, metadata !648}
!905 = metadata !{i32 786480, null, metadata !"_AP_W", metadata !189, i64 64, null, i32 0, i32 0} ; [ DW_TAG_template_value_parameter ]
!906 = metadata !{i32 786478, i32 0, metadata !170, metadata !"operator<<64, false>", metadata !"operator<<64, false>", metadata !"_ZNK11ap_int_baseILi64ELb0ELb1EEltILi64ELb0EEEbRKS_IXT_EXT0_EXleT_Li64EEE", metadata !164, i32 2041, metadata !165, i1 false, i1 false, i32 0, i32 0, null, i32 256, i1 false, null, metadata !199, i32 0, metadata !89, i32 2041} ; [ DW_TAG_subprogram ]
!907 = metadata !{i32 786478, i32 0, metadata !170, metadata !"range", metadata !"range", metadata !"_ZN11ap_int_baseILi64ELb0ELb1EE5rangeEii", metadata !164, i32 2062, metadata !908, i1 false, i1 false, i32 0, i32 0, null, i32 256, i1 false, null, null, i32 0, metadata !89, i32 2062} ; [ DW_TAG_subprogram ]
!908 = metadata !{i32 786453, i32 0, metadata !"", i32 0, i32 0, i64 0, i64 0, i64 0, i32 0, null, metadata !909, i32 0, i32 0} ; [ DW_TAG_subroutine_type ]
!909 = metadata !{metadata !910, metadata !194, metadata !189, metadata !189}
!910 = metadata !{i32 786434, null, metadata !"ap_range_ref<64, false>", metadata !164, i32 925, i64 128, i64 64, i32 0, i32 0, null, metadata !911, i32 0, null, metadata !967} ; [ DW_TAG_class_type ]
!911 = metadata !{metadata !912, metadata !913, metadata !914, metadata !915, metadata !921, metadata !925, metadata !929, metadata !932, metadata !936, metadata !939, metadata !943, metadata !946, metadata !947, metadata !950, metadata !953, metadata !956, metadata !959, metadata !962, metadata !965, metadata !966}
!912 = metadata !{i32 786445, metadata !910, metadata !"d_bv", metadata !164, i32 926, i64 64, i64 64, i64 0, i32 0, metadata !286} ; [ DW_TAG_member ]
!913 = metadata !{i32 786445, metadata !910, metadata !"l_index", metadata !164, i32 927, i64 32, i64 32, i64 64, i32 0, metadata !189} ; [ DW_TAG_member ]
!914 = metadata !{i32 786445, metadata !910, metadata !"h_index", metadata !164, i32 928, i64 32, i64 32, i64 96, i32 0, metadata !189} ; [ DW_TAG_member ]
!915 = metadata !{i32 786478, i32 0, metadata !910, metadata !"ap_range_ref", metadata !"ap_range_ref", metadata !"", metadata !164, i32 931, metadata !916, i1 false, i1 false, i32 0, i32 0, null, i32 256, i1 false, null, null, i32 0, metadata !89, i32 931} ; [ DW_TAG_subprogram ]
!916 = metadata !{i32 786453, i32 0, metadata !"", i32 0, i32 0, i64 0, i64 0, i64 0, i32 0, null, metadata !917, i32 0, i32 0} ; [ DW_TAG_subroutine_type ]
!917 = metadata !{null, metadata !918, metadata !919}
!918 = metadata !{i32 786447, i32 0, metadata !"", i32 0, i32 0, i64 64, i64 64, i64 0, i32 64, metadata !910} ; [ DW_TAG_pointer_type ]
!919 = metadata !{i32 786448, null, null, null, i32 0, i64 0, i64 0, i64 0, i32 0, metadata !920} ; [ DW_TAG_reference_type ]
!920 = metadata !{i32 786470, null, metadata !"", null, i32 0, i64 0, i64 0, i64 0, i32 0, metadata !910} ; [ DW_TAG_const_type ]
!921 = metadata !{i32 786478, i32 0, metadata !910, metadata !"ap_range_ref", metadata !"ap_range_ref", metadata !"", metadata !164, i32 934, metadata !922, i1 false, i1 false, i32 0, i32 0, null, i32 256, i1 false, null, null, i32 0, metadata !89, i32 934} ; [ DW_TAG_subprogram ]
!922 = metadata !{i32 786453, i32 0, metadata !"", i32 0, i32 0, i64 0, i64 0, i64 0, i32 0, null, metadata !923, i32 0, i32 0} ; [ DW_TAG_subroutine_type ]
!923 = metadata !{null, metadata !918, metadata !924, metadata !189, metadata !189}
!924 = metadata !{i32 786447, null, metadata !"", null, i32 0, i64 64, i64 64, i64 0, i32 0, metadata !170} ; [ DW_TAG_pointer_type ]
!925 = metadata !{i32 786478, i32 0, metadata !910, metadata !"operator ap_int_base", metadata !"operator ap_int_base", metadata !"_ZNK12ap_range_refILi64ELb0EEcv11ap_int_baseILi64ELb0ELb1EEEv", metadata !164, i32 939, metadata !926, i1 false, i1 false, i32 0, i32 0, null, i32 256, i1 false, null, null, i32 0, metadata !89, i32 939} ; [ DW_TAG_subprogram ]
!926 = metadata !{i32 786453, i32 0, metadata !"", i32 0, i32 0, i64 0, i64 0, i64 0, i32 0, null, metadata !927, i32 0, i32 0} ; [ DW_TAG_subroutine_type ]
!927 = metadata !{metadata !170, metadata !928}
!928 = metadata !{i32 786447, i32 0, metadata !"", i32 0, i32 0, i64 64, i64 64, i64 0, i32 64, metadata !920} ; [ DW_TAG_pointer_type ]
!929 = metadata !{i32 786478, i32 0, metadata !910, metadata !"operator unsigned long long", metadata !"operator unsigned long long", metadata !"_ZNK12ap_range_refILi64ELb0EEcvyEv", metadata !164, i32 945, metadata !930, i1 false, i1 false, i32 0, i32 0, null, i32 256, i1 false, null, null, i32 0, metadata !89, i32 945} ; [ DW_TAG_subprogram ]
!930 = metadata !{i32 786453, i32 0, metadata !"", i32 0, i32 0, i64 0, i64 0, i64 0, i32 0, null, metadata !931, i32 0, i32 0} ; [ DW_TAG_subroutine_type ]
!931 = metadata !{metadata !156, metadata !928}
!932 = metadata !{i32 786478, i32 0, metadata !910, metadata !"operator=", metadata !"operator=", metadata !"_ZN12ap_range_refILi64ELb0EEaSEy", metadata !164, i32 949, metadata !933, i1 false, i1 false, i32 0, i32 0, null, i32 256, i1 false, null, null, i32 0, metadata !89, i32 949} ; [ DW_TAG_subprogram ]
!933 = metadata !{i32 786453, i32 0, metadata !"", i32 0, i32 0, i64 0, i64 0, i64 0, i32 0, null, metadata !934, i32 0, i32 0} ; [ DW_TAG_subroutine_type ]
!934 = metadata !{metadata !935, metadata !918, metadata !156}
!935 = metadata !{i32 786448, null, null, null, i32 0, i64 0, i64 0, i64 0, i32 0, metadata !910} ; [ DW_TAG_reference_type ]
!936 = metadata !{i32 786478, i32 0, metadata !910, metadata !"operator=", metadata !"operator=", metadata !"_ZN12ap_range_refILi64ELb0EEaSERKS0_", metadata !164, i32 967, metadata !937, i1 false, i1 false, i32 0, i32 0, null, i32 256, i1 false, null, null, i32 0, metadata !89, i32 967} ; [ DW_TAG_subprogram ]
!937 = metadata !{i32 786453, i32 0, metadata !"", i32 0, i32 0, i64 0, i64 0, i64 0, i32 0, null, metadata !938, i32 0, i32 0} ; [ DW_TAG_subroutine_type ]
!938 = metadata !{metadata !935, metadata !918, metadata !919}
!939 = metadata !{i32 786478, i32 0, metadata !910, metadata !"operator,", metadata !"operator,", metadata !"_ZN12ap_range_refILi64ELb0EEcmER11ap_int_baseILi64ELb0ELb1EE", metadata !164, i32 1022, metadata !940, i1 false, i1 false, i32 0, i32 0, null, i32 256, i1 false, null, null, i32 0, metadata !89, i32 1022} ; [ DW_TAG_subprogram ]
!940 = metadata !{i32 786453, i32 0, metadata !"", i32 0, i32 0, i64 0, i64 0, i64 0, i32 0, null, metadata !941, i32 0, i32 0} ; [ DW_TAG_subroutine_type ]
!941 = metadata !{metadata !942, metadata !918, metadata !286}
!942 = metadata !{i32 786434, null, metadata !"ap_concat_ref<64, ap_range_ref<64, false>, 64, ap_int_base<64, false, true> >", metadata !164, i32 688, i32 0, i32 0, i32 0, i32 4, null, null, i32 0} ; [ DW_TAG_class_type ]
!943 = metadata !{i32 786478, i32 0, metadata !910, metadata !"length", metadata !"length", metadata !"_ZNK12ap_range_refILi64ELb0EE6lengthEv", metadata !164, i32 1187, metadata !944, i1 false, i1 false, i32 0, i32 0, null, i32 256, i1 false, null, null, i32 0, metadata !89, i32 1187} ; [ DW_TAG_subprogram ]
!944 = metadata !{i32 786453, i32 0, metadata !"", i32 0, i32 0, i64 0, i64 0, i64 0, i32 0, null, metadata !945, i32 0, i32 0} ; [ DW_TAG_subroutine_type ]
!945 = metadata !{metadata !189, metadata !928}
!946 = metadata !{i32 786478, i32 0, metadata !910, metadata !"to_int", metadata !"to_int", metadata !"_ZNK12ap_range_refILi64ELb0EE6to_intEv", metadata !164, i32 1191, metadata !944, i1 false, i1 false, i32 0, i32 0, null, i32 256, i1 false, null, null, i32 0, metadata !89, i32 1191} ; [ DW_TAG_subprogram ]
!947 = metadata !{i32 786478, i32 0, metadata !910, metadata !"to_uint", metadata !"to_uint", metadata !"_ZNK12ap_range_refILi64ELb0EE7to_uintEv", metadata !164, i32 1194, metadata !948, i1 false, i1 false, i32 0, i32 0, null, i32 256, i1 false, null, null, i32 0, metadata !89, i32 1194} ; [ DW_TAG_subprogram ]
!948 = metadata !{i32 786453, i32 0, metadata !"", i32 0, i32 0, i64 0, i64 0, i64 0, i32 0, null, metadata !949, i32 0, i32 0} ; [ DW_TAG_subroutine_type ]
!949 = metadata !{metadata !87, metadata !928}
!950 = metadata !{i32 786478, i32 0, metadata !910, metadata !"to_long", metadata !"to_long", metadata !"_ZNK12ap_range_refILi64ELb0EE7to_longEv", metadata !164, i32 1197, metadata !951, i1 false, i1 false, i32 0, i32 0, null, i32 256, i1 false, null, null, i32 0, metadata !89, i32 1197} ; [ DW_TAG_subprogram ]
!951 = metadata !{i32 786453, i32 0, metadata !"", i32 0, i32 0, i64 0, i64 0, i64 0, i32 0, null, metadata !952, i32 0, i32 0} ; [ DW_TAG_subroutine_type ]
!952 = metadata !{metadata !236, metadata !928}
!953 = metadata !{i32 786478, i32 0, metadata !910, metadata !"to_ulong", metadata !"to_ulong", metadata !"_ZNK12ap_range_refILi64ELb0EE8to_ulongEv", metadata !164, i32 1200, metadata !954, i1 false, i1 false, i32 0, i32 0, null, i32 256, i1 false, null, null, i32 0, metadata !89, i32 1200} ; [ DW_TAG_subprogram ]
!954 = metadata !{i32 786453, i32 0, metadata !"", i32 0, i32 0, i64 0, i64 0, i64 0, i32 0, null, metadata !955, i32 0, i32 0} ; [ DW_TAG_subroutine_type ]
!955 = metadata !{metadata !240, metadata !928}
!956 = metadata !{i32 786478, i32 0, metadata !910, metadata !"to_int64", metadata !"to_int64", metadata !"_ZNK12ap_range_refILi64ELb0EE8to_int64Ev", metadata !164, i32 1203, metadata !957, i1 false, i1 false, i32 0, i32 0, null, i32 256, i1 false, null, null, i32 0, metadata !89, i32 1203} ; [ DW_TAG_subprogram ]
!957 = metadata !{i32 786453, i32 0, metadata !"", i32 0, i32 0, i64 0, i64 0, i64 0, i32 0, null, metadata !958, i32 0, i32 0} ; [ DW_TAG_subroutine_type ]
!958 = metadata !{metadata !244, metadata !928}
!959 = metadata !{i32 786478, i32 0, metadata !910, metadata !"to_uint64", metadata !"to_uint64", metadata !"_ZNK12ap_range_refILi64ELb0EE9to_uint64Ev", metadata !164, i32 1206, metadata !960, i1 false, i1 false, i32 0, i32 0, null, i32 256, i1 false, null, null, i32 0, metadata !89, i32 1206} ; [ DW_TAG_subprogram ]
!960 = metadata !{i32 786453, i32 0, metadata !"", i32 0, i32 0, i64 0, i64 0, i64 0, i32 0, null, metadata !961, i32 0, i32 0} ; [ DW_TAG_subroutine_type ]
!961 = metadata !{metadata !249, metadata !928}
!962 = metadata !{i32 786478, i32 0, metadata !910, metadata !"and_reduce", metadata !"and_reduce", metadata !"_ZNK12ap_range_refILi64ELb0EE10and_reduceEv", metadata !164, i32 1209, metadata !963, i1 false, i1 false, i32 0, i32 0, null, i32 256, i1 false, null, null, i32 0, metadata !89, i32 1209} ; [ DW_TAG_subprogram ]
!963 = metadata !{i32 786453, i32 0, metadata !"", i32 0, i32 0, i64 0, i64 0, i64 0, i32 0, null, metadata !964, i32 0, i32 0} ; [ DW_TAG_subroutine_type ]
!964 = metadata !{metadata !167, metadata !928}
!965 = metadata !{i32 786478, i32 0, metadata !910, metadata !"or_reduce", metadata !"or_reduce", metadata !"_ZNK12ap_range_refILi64ELb0EE9or_reduceEv", metadata !164, i32 1220, metadata !963, i1 false, i1 false, i32 0, i32 0, null, i32 256, i1 false, null, null, i32 0, metadata !89, i32 1220} ; [ DW_TAG_subprogram ]
!966 = metadata !{i32 786478, i32 0, metadata !910, metadata !"xor_reduce", metadata !"xor_reduce", metadata !"_ZNK12ap_range_refILi64ELb0EE10xor_reduceEv", metadata !164, i32 1231, metadata !963, i1 false, i1 false, i32 0, i32 0, null, i32 256, i1 false, null, null, i32 0, metadata !89, i32 1231} ; [ DW_TAG_subprogram ]
!967 = metadata !{metadata !905, metadata !190}
!968 = metadata !{i32 786478, i32 0, metadata !170, metadata !"operator()", metadata !"operator()", metadata !"_ZN11ap_int_baseILi64ELb0ELb1EEclEii", metadata !164, i32 2068, metadata !908, i1 false, i1 false, i32 0, i32 0, null, i32 256, i1 false, null, null, i32 0, metadata !89, i32 2068} ; [ DW_TAG_subprogram ]
!969 = metadata !{i32 786478, i32 0, metadata !170, metadata !"range", metadata !"range", metadata !"_ZNK11ap_int_baseILi64ELb0ELb1EE5rangeEii", metadata !164, i32 2074, metadata !970, i1 false, i1 false, i32 0, i32 0, null, i32 256, i1 false, null, null, i32 0, metadata !89, i32 2074} ; [ DW_TAG_subprogram ]
!970 = metadata !{i32 786453, i32 0, metadata !"", i32 0, i32 0, i64 0, i64 0, i64 0, i32 0, null, metadata !971, i32 0, i32 0} ; [ DW_TAG_subroutine_type ]
!971 = metadata !{metadata !910, metadata !168, metadata !189, metadata !189}
!972 = metadata !{i32 786478, i32 0, metadata !170, metadata !"operator()", metadata !"operator()", metadata !"_ZNK11ap_int_baseILi64ELb0ELb1EEclEii", metadata !164, i32 2080, metadata !970, i1 false, i1 false, i32 0, i32 0, null, i32 256, i1 false, null, null, i32 0, metadata !89, i32 2080} ; [ DW_TAG_subprogram ]
!973 = metadata !{i32 786478, i32 0, metadata !170, metadata !"operator[]", metadata !"operator[]", metadata !"_ZN11ap_int_baseILi64ELb0ELb1EEixEi", metadata !164, i32 2099, metadata !974, i1 false, i1 false, i32 0, i32 0, null, i32 256, i1 false, null, null, i32 0, metadata !89, i32 2099} ; [ DW_TAG_subprogram ]
!974 = metadata !{i32 786453, i32 0, metadata !"", i32 0, i32 0, i64 0, i64 0, i64 0, i32 0, null, metadata !975, i32 0, i32 0} ; [ DW_TAG_subroutine_type ]
!975 = metadata !{metadata !976, metadata !194, metadata !189}
!976 = metadata !{i32 786434, null, metadata !"ap_bit_ref<64, false>", metadata !164, i32 1249, i32 0, i32 0, i32 0, i32 4, null, null, i32 0} ; [ DW_TAG_class_type ]
!977 = metadata !{i32 786478, i32 0, metadata !170, metadata !"operator[]", metadata !"operator[]", metadata !"_ZNK11ap_int_baseILi64ELb0ELb1EEixEi", metadata !164, i32 2113, metadata !379, i1 false, i1 false, i32 0, i32 0, null, i32 256, i1 false, null, null, i32 0, metadata !89, i32 2113} ; [ DW_TAG_subprogram ]
!978 = metadata !{i32 786478, i32 0, metadata !170, metadata !"bit", metadata !"bit", metadata !"_ZN11ap_int_baseILi64ELb0ELb1EE3bitEi", metadata !164, i32 2127, metadata !974, i1 false, i1 false, i32 0, i32 0, null, i32 256, i1 false, null, null, i32 0, metadata !89, i32 2127} ; [ DW_TAG_subprogram ]
!979 = metadata !{i32 786478, i32 0, metadata !170, metadata !"bit", metadata !"bit", metadata !"_ZNK11ap_int_baseILi64ELb0ELb1EE3bitEi", metadata !164, i32 2141, metadata !379, i1 false, i1 false, i32 0, i32 0, null, i32 256, i1 false, null, null, i32 0, metadata !89, i32 2141} ; [ DW_TAG_subprogram ]
!980 = metadata !{i32 786478, i32 0, metadata !170, metadata !"and_reduce", metadata !"and_reduce", metadata !"_ZN11ap_int_baseILi64ELb0ELb1EE10and_reduceEv", metadata !164, i32 2321, metadata !981, i1 false, i1 false, i32 0, i32 0, null, i32 256, i1 false, null, null, i32 0, metadata !89, i32 2321} ; [ DW_TAG_subprogram ]
!981 = metadata !{i32 786453, i32 0, metadata !"", i32 0, i32 0, i64 0, i64 0, i64 0, i32 0, null, metadata !982, i32 0, i32 0} ; [ DW_TAG_subroutine_type ]
!982 = metadata !{metadata !167, metadata !194}
!983 = metadata !{i32 786478, i32 0, metadata !170, metadata !"nand_reduce", metadata !"nand_reduce", metadata !"_ZN11ap_int_baseILi64ELb0ELb1EE11nand_reduceEv", metadata !164, i32 2324, metadata !981, i1 false, i1 false, i32 0, i32 0, null, i32 256, i1 false, null, null, i32 0, metadata !89, i32 2324} ; [ DW_TAG_subprogram ]
!984 = metadata !{i32 786478, i32 0, metadata !170, metadata !"or_reduce", metadata !"or_reduce", metadata !"_ZN11ap_int_baseILi64ELb0ELb1EE9or_reduceEv", metadata !164, i32 2327, metadata !981, i1 false, i1 false, i32 0, i32 0, null, i32 256, i1 false, null, null, i32 0, metadata !89, i32 2327} ; [ DW_TAG_subprogram ]
!985 = metadata !{i32 786478, i32 0, metadata !170, metadata !"nor_reduce", metadata !"nor_reduce", metadata !"_ZN11ap_int_baseILi64ELb0ELb1EE10nor_reduceEv", metadata !164, i32 2330, metadata !981, i1 false, i1 false, i32 0, i32 0, null, i32 256, i1 false, null, null, i32 0, metadata !89, i32 2330} ; [ DW_TAG_subprogram ]
!986 = metadata !{i32 786478, i32 0, metadata !170, metadata !"xor_reduce", metadata !"xor_reduce", metadata !"_ZN11ap_int_baseILi64ELb0ELb1EE10xor_reduceEv", metadata !164, i32 2333, metadata !981, i1 false, i1 false, i32 0, i32 0, null, i32 256, i1 false, null, null, i32 0, metadata !89, i32 2333} ; [ DW_TAG_subprogram ]
!987 = metadata !{i32 786478, i32 0, metadata !170, metadata !"xnor_reduce", metadata !"xnor_reduce", metadata !"_ZN11ap_int_baseILi64ELb0ELb1EE11xnor_reduceEv", metadata !164, i32 2336, metadata !981, i1 false, i1 false, i32 0, i32 0, null, i32 256, i1 false, null, null, i32 0, metadata !89, i32 2336} ; [ DW_TAG_subprogram ]
!988 = metadata !{i32 786478, i32 0, metadata !170, metadata !"and_reduce", metadata !"and_reduce", metadata !"_ZNK11ap_int_baseILi64ELb0ELb1EE10and_reduceEv", metadata !164, i32 2340, metadata !330, i1 false, i1 false, i32 0, i32 0, null, i32 256, i1 false, null, null, i32 0, metadata !89, i32 2340} ; [ DW_TAG_subprogram ]
!989 = metadata !{i32 786478, i32 0, metadata !170, metadata !"nand_reduce", metadata !"nand_reduce", metadata !"_ZNK11ap_int_baseILi64ELb0ELb1EE11nand_reduceEv", metadata !164, i32 2343, metadata !330, i1 false, i1 false, i32 0, i32 0, null, i32 256, i1 false, null, null, i32 0, metadata !89, i32 2343} ; [ DW_TAG_subprogram ]
!990 = metadata !{i32 786478, i32 0, metadata !170, metadata !"or_reduce", metadata !"or_reduce", metadata !"_ZNK11ap_int_baseILi64ELb0ELb1EE9or_reduceEv", metadata !164, i32 2346, metadata !330, i1 false, i1 false, i32 0, i32 0, null, i32 256, i1 false, null, null, i32 0, metadata !89, i32 2346} ; [ DW_TAG_subprogram ]
!991 = metadata !{i32 786478, i32 0, metadata !170, metadata !"nor_reduce", metadata !"nor_reduce", metadata !"_ZNK11ap_int_baseILi64ELb0ELb1EE10nor_reduceEv", metadata !164, i32 2349, metadata !330, i1 false, i1 false, i32 0, i32 0, null, i32 256, i1 false, null, null, i32 0, metadata !89, i32 2349} ; [ DW_TAG_subprogram ]
!992 = metadata !{i32 786478, i32 0, metadata !170, metadata !"xor_reduce", metadata !"xor_reduce", metadata !"_ZNK11ap_int_baseILi64ELb0ELb1EE10xor_reduceEv", metadata !164, i32 2352, metadata !330, i1 false, i1 false, i32 0, i32 0, null, i32 256, i1 false, null, null, i32 0, metadata !89, i32 2352} ; [ DW_TAG_subprogram ]
!993 = metadata !{i32 786478, i32 0, metadata !170, metadata !"xnor_reduce", metadata !"xnor_reduce", metadata !"_ZNK11ap_int_baseILi64ELb0ELb1EE11xnor_reduceEv", metadata !164, i32 2355, metadata !330, i1 false, i1 false, i32 0, i32 0, null, i32 256, i1 false, null, null, i32 0, metadata !89, i32 2355} ; [ DW_TAG_subprogram ]
!994 = metadata !{i32 786478, i32 0, metadata !170, metadata !"to_string", metadata !"to_string", metadata !"_ZNK11ap_int_baseILi64ELb0ELb1EE9to_stringEPci8BaseModeb", metadata !164, i32 2362, metadata !995, i1 false, i1 false, i32 0, i32 0, null, i32 256, i1 false, null, null, i32 0, metadata !89, i32 2362} ; [ DW_TAG_subprogram ]
!995 = metadata !{i32 786453, i32 0, metadata !"", i32 0, i32 0, i64 0, i64 0, i64 0, i32 0, null, metadata !996, i32 0, i32 0} ; [ DW_TAG_subroutine_type ]
!996 = metadata !{null, metadata !168, metadata !632, metadata !189, metadata !633, metadata !167}
!997 = metadata !{i32 786478, i32 0, metadata !170, metadata !"to_string", metadata !"to_string", metadata !"_ZNK11ap_int_baseILi64ELb0ELb1EE9to_stringE8BaseModeb", metadata !164, i32 2389, metadata !998, i1 false, i1 false, i32 0, i32 0, null, i32 256, i1 false, null, null, i32 0, metadata !89, i32 2389} ; [ DW_TAG_subprogram ]
!998 = metadata !{i32 786453, i32 0, metadata !"", i32 0, i32 0, i64 0, i64 0, i64 0, i32 0, null, metadata !999, i32 0, i32 0} ; [ DW_TAG_subroutine_type ]
!999 = metadata !{metadata !632, metadata !168, metadata !633, metadata !167}
!1000 = metadata !{i32 786478, i32 0, metadata !170, metadata !"to_string", metadata !"to_string", metadata !"_ZNK11ap_int_baseILi64ELb0ELb1EE9to_stringEab", metadata !164, i32 2393, metadata !1001, i1 false, i1 false, i32 0, i32 0, null, i32 256, i1 false, null, null, i32 0, metadata !89, i32 2393} ; [ DW_TAG_subprogram ]
!1001 = metadata !{i32 786453, i32 0, metadata !"", i32 0, i32 0, i64 0, i64 0, i64 0, i32 0, null, metadata !1002, i32 0, i32 0} ; [ DW_TAG_subroutine_type ]
!1002 = metadata !{metadata !632, metadata !168, metadata !214, metadata !167}
!1003 = metadata !{i32 786478, i32 0, metadata !170, metadata !"ap_int_base", metadata !"ap_int_base", metadata !"", metadata !164, i32 1453, metadata !196, i1 false, i1 false, i32 0, i32 0, null, i32 320, i1 false, null, null, i32 0, metadata !89, i32 1453} ; [ DW_TAG_subprogram ]
!1004 = metadata !{metadata !905, metadata !190, metadata !648}
!1005 = metadata !{i32 61, i32 19, metadata !160, metadata !158}
!1006 = metadata !{i32 1879, i32 145, metadata !1007, metadata !1009}
!1007 = metadata !{i32 786443, metadata !1008, i32 1879, i32 141, metadata !164, i32 8} ; [ DW_TAG_lexical_block ]
!1008 = metadata !{i32 786478, i32 0, null, metadata !"operator+=<1, false>", metadata !"operator+=<1, false>", metadata !"_ZN11ap_int_baseILi64ELb0ELb1EEpLILi1ELb0EEERS0_RKS_IXT_EXT0_EXleT_Li64EEE", metadata !164, i32 1879, metadata !394, i1 false, i1 true, i32 0, i32 0, null, i32 256, i1 false, null, metadata !649, metadata !393, metadata !89, i32 1879} ; [ DW_TAG_subprogram ]
!1009 = metadata !{i32 1896, i32 5, metadata !1010, metadata !1012}
!1010 = metadata !{i32 786443, metadata !1011, i32 1895, i32 68, metadata !164, i32 5} ; [ DW_TAG_lexical_block ]
!1011 = metadata !{i32 786478, i32 0, null, metadata !"operator++", metadata !"operator++", metadata !"_ZN11ap_int_baseILi64ELb0ELb1EEppEv", metadata !164, i32 1895, metadata !371, i1 false, i1 true, i32 0, i32 0, null, i32 256, i1 false, null, null, metadata !651, metadata !89, i32 1895} ; [ DW_TAG_subprogram ]
!1012 = metadata !{i32 61, i32 30, metadata !160, metadata !158}
!1013 = metadata !{i32 786688, metadata !149, metadata !"dummy", metadata !151, i32 58, metadata !1014, i32 0, metadata !158} ; [ DW_TAG_auto_variable ]
!1014 = metadata !{i32 786485, null, metadata !"", null, i32 0, i64 0, i64 0, i64 0, i32 0, metadata !268} ; [ DW_TAG_volatile_type ]
!1015 = metadata !{i32 62, i32 9, metadata !1016, metadata !158}
!1016 = metadata !{i32 786443, metadata !160, i32 61, i32 36, metadata !151, i32 18} ; [ DW_TAG_lexical_block ]
!1017 = metadata !{i32 790529, metadata !1018, metadata !"ctr.V", null, i32 59, metadata !1107, i32 0, metadata !1009} ; [ DW_TAG_auto_variable_field ]
!1018 = metadata !{i32 786688, metadata !149, metadata !"ctr", metadata !151, i32 59, metadata !1019, i32 0, i32 0} ; [ DW_TAG_auto_variable ]
!1019 = metadata !{i32 786434, null, metadata !"ap_uint<64>", metadata !1020, i32 183, i64 64, i64 64, i32 0, i32 0, null, metadata !1021, i32 0, null, metadata !1106} ; [ DW_TAG_class_type ]
!1020 = metadata !{i32 786473, metadata !"/data/opt/Xilinx/Vivado/2017.4/common/technology/autopilot/ap_int.h", metadata !"/home/iavendano/pynq-copter/pynqcopter/ip/iiccomm4", null} ; [ DW_TAG_file_type ]
!1021 = metadata !{metadata !1022, metadata !1023, metadata !1027, metadata !1033, metadata !1039, metadata !1042, metadata !1045, metadata !1048, metadata !1051, metadata !1054, metadata !1057, metadata !1060, metadata !1063, metadata !1066, metadata !1069, metadata !1072, metadata !1075, metadata !1078, metadata !1081, metadata !1084, metadata !1087, metadata !1090, metadata !1094, metadata !1097, metadata !1101, metadata !1104, metadata !1105}
!1022 = metadata !{i32 786460, metadata !1019, null, metadata !1020, i32 0, i64 0, i64 0, i64 0, i32 0, metadata !170} ; [ DW_TAG_inheritance ]
!1023 = metadata !{i32 786478, i32 0, metadata !1019, metadata !"ap_uint", metadata !"ap_uint", metadata !"", metadata !1020, i32 186, metadata !1024, i1 false, i1 false, i32 0, i32 0, null, i32 256, i1 false, null, null, i32 0, metadata !89, i32 186} ; [ DW_TAG_subprogram ]
!1024 = metadata !{i32 786453, i32 0, metadata !"", i32 0, i32 0, i64 0, i64 0, i64 0, i32 0, null, metadata !1025, i32 0, i32 0} ; [ DW_TAG_subroutine_type ]
!1025 = metadata !{null, metadata !1026}
!1026 = metadata !{i32 786447, i32 0, metadata !"", i32 0, i32 0, i64 64, i64 64, i64 0, i32 64, metadata !1019} ; [ DW_TAG_pointer_type ]
!1027 = metadata !{i32 786478, i32 0, metadata !1019, metadata !"ap_uint<64>", metadata !"ap_uint<64>", metadata !"", metadata !1020, i32 188, metadata !1028, i1 false, i1 false, i32 0, i32 0, null, i32 256, i1 false, null, metadata !1032, i32 0, metadata !89, i32 188} ; [ DW_TAG_subprogram ]
!1028 = metadata !{i32 786453, i32 0, metadata !"", i32 0, i32 0, i64 0, i64 0, i64 0, i32 0, null, metadata !1029, i32 0, i32 0} ; [ DW_TAG_subroutine_type ]
!1029 = metadata !{null, metadata !1026, metadata !1030}
!1030 = metadata !{i32 786448, null, null, null, i32 0, i64 0, i64 0, i64 0, i32 0, metadata !1031} ; [ DW_TAG_reference_type ]
!1031 = metadata !{i32 786470, null, metadata !"", null, i32 0, i64 0, i64 0, i64 0, i32 0, metadata !1019} ; [ DW_TAG_const_type ]
!1032 = metadata !{metadata !200}
!1033 = metadata !{i32 786478, i32 0, metadata !1019, metadata !"ap_uint<64>", metadata !"ap_uint<64>", metadata !"", metadata !1020, i32 194, metadata !1034, i1 false, i1 false, i32 0, i32 0, null, i32 256, i1 false, null, metadata !1032, i32 0, metadata !89, i32 194} ; [ DW_TAG_subprogram ]
!1034 = metadata !{i32 786453, i32 0, metadata !"", i32 0, i32 0, i64 0, i64 0, i64 0, i32 0, null, metadata !1035, i32 0, i32 0} ; [ DW_TAG_subroutine_type ]
!1035 = metadata !{null, metadata !1026, metadata !1036}
!1036 = metadata !{i32 786448, null, null, null, i32 0, i64 0, i64 0, i64 0, i32 0, metadata !1037} ; [ DW_TAG_reference_type ]
!1037 = metadata !{i32 786470, null, metadata !"", null, i32 0, i64 0, i64 0, i64 0, i32 0, metadata !1038} ; [ DW_TAG_const_type ]
!1038 = metadata !{i32 786485, null, metadata !"", null, i32 0, i64 0, i64 0, i64 0, i32 0, metadata !1019} ; [ DW_TAG_volatile_type ]
!1039 = metadata !{i32 786478, i32 0, metadata !1019, metadata !"ap_uint<64, false>", metadata !"ap_uint<64, false>", metadata !"", metadata !1020, i32 229, metadata !1040, i1 false, i1 false, i32 0, i32 0, null, i32 256, i1 false, null, metadata !199, i32 0, metadata !89, i32 229} ; [ DW_TAG_subprogram ]
!1040 = metadata !{i32 786453, i32 0, metadata !"", i32 0, i32 0, i64 0, i64 0, i64 0, i32 0, null, metadata !1041, i32 0, i32 0} ; [ DW_TAG_subroutine_type ]
!1041 = metadata !{null, metadata !1026, metadata !198}
!1042 = metadata !{i32 786478, i32 0, metadata !1019, metadata !"ap_uint", metadata !"ap_uint", metadata !"", metadata !1020, i32 248, metadata !1043, i1 false, i1 false, i32 0, i32 0, null, i32 256, i1 false, null, null, i32 0, metadata !89, i32 248} ; [ DW_TAG_subprogram ]
!1043 = metadata !{i32 786453, i32 0, metadata !"", i32 0, i32 0, i64 0, i64 0, i64 0, i32 0, null, metadata !1044, i32 0, i32 0} ; [ DW_TAG_subroutine_type ]
!1044 = metadata !{null, metadata !1026, metadata !167}
!1045 = metadata !{i32 786478, i32 0, metadata !1019, metadata !"ap_uint", metadata !"ap_uint", metadata !"", metadata !1020, i32 249, metadata !1046, i1 false, i1 false, i32 0, i32 0, null, i32 256, i1 false, null, null, i32 0, metadata !89, i32 249} ; [ DW_TAG_subprogram ]
!1046 = metadata !{i32 786453, i32 0, metadata !"", i32 0, i32 0, i64 0, i64 0, i64 0, i32 0, null, metadata !1047, i32 0, i32 0} ; [ DW_TAG_subroutine_type ]
!1047 = metadata !{null, metadata !1026, metadata !214}
!1048 = metadata !{i32 786478, i32 0, metadata !1019, metadata !"ap_uint", metadata !"ap_uint", metadata !"", metadata !1020, i32 250, metadata !1049, i1 false, i1 false, i32 0, i32 0, null, i32 256, i1 false, null, null, i32 0, metadata !89, i32 250} ; [ DW_TAG_subprogram ]
!1049 = metadata !{i32 786453, i32 0, metadata !"", i32 0, i32 0, i64 0, i64 0, i64 0, i32 0, null, metadata !1050, i32 0, i32 0} ; [ DW_TAG_subroutine_type ]
!1050 = metadata !{null, metadata !1026, metadata !218}
!1051 = metadata !{i32 786478, i32 0, metadata !1019, metadata !"ap_uint", metadata !"ap_uint", metadata !"", metadata !1020, i32 251, metadata !1052, i1 false, i1 false, i32 0, i32 0, null, i32 256, i1 false, null, null, i32 0, metadata !89, i32 251} ; [ DW_TAG_subprogram ]
!1052 = metadata !{i32 786453, i32 0, metadata !"", i32 0, i32 0, i64 0, i64 0, i64 0, i32 0, null, metadata !1053, i32 0, i32 0} ; [ DW_TAG_subroutine_type ]
!1053 = metadata !{null, metadata !1026, metadata !222}
!1054 = metadata !{i32 786478, i32 0, metadata !1019, metadata !"ap_uint", metadata !"ap_uint", metadata !"", metadata !1020, i32 252, metadata !1055, i1 false, i1 false, i32 0, i32 0, null, i32 256, i1 false, null, null, i32 0, metadata !89, i32 252} ; [ DW_TAG_subprogram ]
!1055 = metadata !{i32 786453, i32 0, metadata !"", i32 0, i32 0, i64 0, i64 0, i64 0, i32 0, null, metadata !1056, i32 0, i32 0} ; [ DW_TAG_subroutine_type ]
!1056 = metadata !{null, metadata !1026, metadata !226}
!1057 = metadata !{i32 786478, i32 0, metadata !1019, metadata !"ap_uint", metadata !"ap_uint", metadata !"", metadata !1020, i32 253, metadata !1058, i1 false, i1 false, i32 0, i32 0, null, i32 256, i1 false, null, null, i32 0, metadata !89, i32 253} ; [ DW_TAG_subprogram ]
!1058 = metadata !{i32 786453, i32 0, metadata !"", i32 0, i32 0, i64 0, i64 0, i64 0, i32 0, null, metadata !1059, i32 0, i32 0} ; [ DW_TAG_subroutine_type ]
!1059 = metadata !{null, metadata !1026, metadata !189}
!1060 = metadata !{i32 786478, i32 0, metadata !1019, metadata !"ap_uint", metadata !"ap_uint", metadata !"", metadata !1020, i32 254, metadata !1061, i1 false, i1 false, i32 0, i32 0, null, i32 256, i1 false, null, null, i32 0, metadata !89, i32 254} ; [ DW_TAG_subprogram ]
!1061 = metadata !{i32 786453, i32 0, metadata !"", i32 0, i32 0, i64 0, i64 0, i64 0, i32 0, null, metadata !1062, i32 0, i32 0} ; [ DW_TAG_subroutine_type ]
!1062 = metadata !{null, metadata !1026, metadata !87}
!1063 = metadata !{i32 786478, i32 0, metadata !1019, metadata !"ap_uint", metadata !"ap_uint", metadata !"", metadata !1020, i32 255, metadata !1064, i1 false, i1 false, i32 0, i32 0, null, i32 256, i1 false, null, null, i32 0, metadata !89, i32 255} ; [ DW_TAG_subprogram ]
!1064 = metadata !{i32 786453, i32 0, metadata !"", i32 0, i32 0, i64 0, i64 0, i64 0, i32 0, null, metadata !1065, i32 0, i32 0} ; [ DW_TAG_subroutine_type ]
!1065 = metadata !{null, metadata !1026, metadata !236}
!1066 = metadata !{i32 786478, i32 0, metadata !1019, metadata !"ap_uint", metadata !"ap_uint", metadata !"", metadata !1020, i32 256, metadata !1067, i1 false, i1 false, i32 0, i32 0, null, i32 256, i1 false, null, null, i32 0, metadata !89, i32 256} ; [ DW_TAG_subprogram ]
!1067 = metadata !{i32 786453, i32 0, metadata !"", i32 0, i32 0, i64 0, i64 0, i64 0, i32 0, null, metadata !1068, i32 0, i32 0} ; [ DW_TAG_subroutine_type ]
!1068 = metadata !{null, metadata !1026, metadata !240}
!1069 = metadata !{i32 786478, i32 0, metadata !1019, metadata !"ap_uint", metadata !"ap_uint", metadata !"", metadata !1020, i32 257, metadata !1070, i1 false, i1 false, i32 0, i32 0, null, i32 256, i1 false, null, null, i32 0, metadata !89, i32 257} ; [ DW_TAG_subprogram ]
!1070 = metadata !{i32 786453, i32 0, metadata !"", i32 0, i32 0, i64 0, i64 0, i64 0, i32 0, null, metadata !1071, i32 0, i32 0} ; [ DW_TAG_subroutine_type ]
!1071 = metadata !{null, metadata !1026, metadata !156}
!1072 = metadata !{i32 786478, i32 0, metadata !1019, metadata !"ap_uint", metadata !"ap_uint", metadata !"", metadata !1020, i32 258, metadata !1073, i1 false, i1 false, i32 0, i32 0, null, i32 256, i1 false, null, null, i32 0, metadata !89, i32 258} ; [ DW_TAG_subprogram ]
!1073 = metadata !{i32 786453, i32 0, metadata !"", i32 0, i32 0, i64 0, i64 0, i64 0, i32 0, null, metadata !1074, i32 0, i32 0} ; [ DW_TAG_subroutine_type ]
!1074 = metadata !{null, metadata !1026, metadata !245}
!1075 = metadata !{i32 786478, i32 0, metadata !1019, metadata !"ap_uint", metadata !"ap_uint", metadata !"", metadata !1020, i32 259, metadata !1076, i1 false, i1 false, i32 0, i32 0, null, i32 256, i1 false, null, null, i32 0, metadata !89, i32 259} ; [ DW_TAG_subprogram ]
!1076 = metadata !{i32 786453, i32 0, metadata !"", i32 0, i32 0, i64 0, i64 0, i64 0, i32 0, null, metadata !1077, i32 0, i32 0} ; [ DW_TAG_subroutine_type ]
!1077 = metadata !{null, metadata !1026, metadata !253}
!1078 = metadata !{i32 786478, i32 0, metadata !1019, metadata !"ap_uint", metadata !"ap_uint", metadata !"", metadata !1020, i32 260, metadata !1079, i1 false, i1 false, i32 0, i32 0, null, i32 256, i1 false, null, null, i32 0, metadata !89, i32 260} ; [ DW_TAG_subprogram ]
!1079 = metadata !{i32 786453, i32 0, metadata !"", i32 0, i32 0, i64 0, i64 0, i64 0, i32 0, null, metadata !1080, i32 0, i32 0} ; [ DW_TAG_subroutine_type ]
!1080 = metadata !{null, metadata !1026, metadata !258}
!1081 = metadata !{i32 786478, i32 0, metadata !1019, metadata !"ap_uint", metadata !"ap_uint", metadata !"", metadata !1020, i32 261, metadata !1082, i1 false, i1 false, i32 0, i32 0, null, i32 256, i1 false, null, null, i32 0, metadata !89, i32 261} ; [ DW_TAG_subprogram ]
!1082 = metadata !{i32 786453, i32 0, metadata !"", i32 0, i32 0, i64 0, i64 0, i64 0, i32 0, null, metadata !1083, i32 0, i32 0} ; [ DW_TAG_subroutine_type ]
!1083 = metadata !{null, metadata !1026, metadata !262}
!1084 = metadata !{i32 786478, i32 0, metadata !1019, metadata !"ap_uint", metadata !"ap_uint", metadata !"", metadata !1020, i32 263, metadata !1085, i1 false, i1 false, i32 0, i32 0, null, i32 256, i1 false, null, null, i32 0, metadata !89, i32 263} ; [ DW_TAG_subprogram ]
!1085 = metadata !{i32 786453, i32 0, metadata !"", i32 0, i32 0, i64 0, i64 0, i64 0, i32 0, null, metadata !1086, i32 0, i32 0} ; [ DW_TAG_subroutine_type ]
!1086 = metadata !{null, metadata !1026, metadata !266}
!1087 = metadata !{i32 786478, i32 0, metadata !1019, metadata !"ap_uint", metadata !"ap_uint", metadata !"", metadata !1020, i32 264, metadata !1088, i1 false, i1 false, i32 0, i32 0, null, i32 256, i1 false, null, null, i32 0, metadata !89, i32 264} ; [ DW_TAG_subprogram ]
!1088 = metadata !{i32 786453, i32 0, metadata !"", i32 0, i32 0, i64 0, i64 0, i64 0, i32 0, null, metadata !1089, i32 0, i32 0} ; [ DW_TAG_subroutine_type ]
!1089 = metadata !{null, metadata !1026, metadata !266, metadata !214}
!1090 = metadata !{i32 786478, i32 0, metadata !1019, metadata !"operator=", metadata !"operator=", metadata !"_ZNV7ap_uintILi64EEaSERKS0_", metadata !1020, i32 267, metadata !1091, i1 false, i1 false, i32 0, i32 0, null, i32 256, i1 false, null, null, i32 0, metadata !89, i32 267} ; [ DW_TAG_subprogram ]
!1091 = metadata !{i32 786453, i32 0, metadata !"", i32 0, i32 0, i64 0, i64 0, i64 0, i32 0, null, metadata !1092, i32 0, i32 0} ; [ DW_TAG_subroutine_type ]
!1092 = metadata !{null, metadata !1093, metadata !1030}
!1093 = metadata !{i32 786447, i32 0, metadata !"", i32 0, i32 0, i64 64, i64 64, i64 0, i32 64, metadata !1038} ; [ DW_TAG_pointer_type ]
!1094 = metadata !{i32 786478, i32 0, metadata !1019, metadata !"operator=", metadata !"operator=", metadata !"_ZNV7ap_uintILi64EEaSERVKS0_", metadata !1020, i32 271, metadata !1095, i1 false, i1 false, i32 0, i32 0, null, i32 256, i1 false, null, null, i32 0, metadata !89, i32 271} ; [ DW_TAG_subprogram ]
!1095 = metadata !{i32 786453, i32 0, metadata !"", i32 0, i32 0, i64 0, i64 0, i64 0, i32 0, null, metadata !1096, i32 0, i32 0} ; [ DW_TAG_subroutine_type ]
!1096 = metadata !{null, metadata !1093, metadata !1036}
!1097 = metadata !{i32 786478, i32 0, metadata !1019, metadata !"operator=", metadata !"operator=", metadata !"_ZN7ap_uintILi64EEaSERVKS0_", metadata !1020, i32 275, metadata !1098, i1 false, i1 false, i32 0, i32 0, null, i32 256, i1 false, null, null, i32 0, metadata !89, i32 275} ; [ DW_TAG_subprogram ]
!1098 = metadata !{i32 786453, i32 0, metadata !"", i32 0, i32 0, i64 0, i64 0, i64 0, i32 0, null, metadata !1099, i32 0, i32 0} ; [ DW_TAG_subroutine_type ]
!1099 = metadata !{metadata !1100, metadata !1026, metadata !1036}
!1100 = metadata !{i32 786448, null, null, null, i32 0, i64 0, i64 0, i64 0, i32 0, metadata !1019} ; [ DW_TAG_reference_type ]
!1101 = metadata !{i32 786478, i32 0, metadata !1019, metadata !"operator=", metadata !"operator=", metadata !"_ZN7ap_uintILi64EEaSERKS0_", metadata !1020, i32 280, metadata !1102, i1 false, i1 false, i32 0, i32 0, null, i32 256, i1 false, null, null, i32 0, metadata !89, i32 280} ; [ DW_TAG_subprogram ]
!1102 = metadata !{i32 786453, i32 0, metadata !"", i32 0, i32 0, i64 0, i64 0, i64 0, i32 0, null, metadata !1103, i32 0, i32 0} ; [ DW_TAG_subroutine_type ]
!1103 = metadata !{metadata !1100, metadata !1026, metadata !1030}
!1104 = metadata !{i32 786478, i32 0, metadata !1019, metadata !"ap_uint", metadata !"ap_uint", metadata !"", metadata !1020, i32 183, metadata !1028, i1 false, i1 false, i32 0, i32 0, null, i32 320, i1 false, null, null, i32 0, metadata !89, i32 183} ; [ DW_TAG_subprogram ]
!1105 = metadata !{i32 786478, i32 0, metadata !1019, metadata !"~ap_uint", metadata !"~ap_uint", metadata !"", metadata !1020, i32 183, metadata !1024, i1 false, i1 false, i32 0, i32 0, null, i32 320, i1 false, null, null, i32 0, metadata !89, i32 183} ; [ DW_TAG_subprogram ]
!1106 = metadata !{metadata !905}
!1107 = metadata !{i32 786438, null, metadata !"ap_uint<64>", metadata !1020, i32 183, i64 64, i64 64, i32 0, i32 0, null, metadata !1108, i32 0, null, metadata !1106} ; [ DW_TAG_class_field_type ]
!1108 = metadata !{metadata !1109}
!1109 = metadata !{i32 786438, null, metadata !"ap_int_base<64, false, true>", metadata !164, i32 1453, i64 64, i64 64, i32 0, i32 0, null, metadata !1110, i32 0, null, metadata !1004} ; [ DW_TAG_class_field_type ]
!1110 = metadata !{metadata !1111}
!1111 = metadata !{i32 786438, null, metadata !"ssdm_int<64 + 1024 * 0, false>", metadata !174, i32 68, i64 64, i64 64, i32 0, i32 0, null, metadata !1112, i32 0, null, metadata !187} ; [ DW_TAG_class_field_type ]
!1112 = metadata !{metadata !176}
!1113 = metadata !{i32 116, i32 2, metadata !114, null}
!1114 = metadata !{i32 119, i32 2, metadata !114, null}
!1115 = metadata !{i32 122, i32 2, metadata !114, null}
!1116 = metadata !{i32 125, i32 2, metadata !114, null}
!1117 = metadata !{i32 57, i32 1, metadata !1118, metadata !1122}
!1118 = metadata !{i32 786443, metadata !1119, i32 54, i32 22, metadata !151, i32 2} ; [ DW_TAG_lexical_block ]
!1119 = metadata !{i32 786478, i32 0, metadata !151, metadata !"delay_until_ms<10, 50000000>", metadata !"delay_until_ms<10, 50000000>", metadata !"_Z14delay_until_msILy10ELy50000000EEvv", metadata !151, i32 54, metadata !152, i1 false, i1 true, i32 0, i32 0, null, i32 256, i1 false, null, metadata !1120, null, metadata !89, i32 54} ; [ DW_TAG_subprogram ]
!1120 = metadata !{metadata !1121, metadata !157}
!1121 = metadata !{i32 786480, null, metadata !"MILLISECONDS", metadata !156, i64 10, null, i32 0, i32 0} ; [ DW_TAG_template_value_parameter ]
!1122 = metadata !{i32 130, i32 2, metadata !114, null}
!1123 = metadata !{i32 61, i32 10, metadata !1124, metadata !1122}
!1124 = metadata !{i32 786443, metadata !1118, i32 61, i32 5, metadata !151, i32 3} ; [ DW_TAG_lexical_block ]
!1125 = metadata !{i32 2042, i32 5, metadata !162, metadata !1126}
!1126 = metadata !{i32 61, i32 19, metadata !1124, metadata !1122}
!1127 = metadata !{i32 1879, i32 145, metadata !1007, metadata !1128}
!1128 = metadata !{i32 1896, i32 5, metadata !1010, metadata !1129}
!1129 = metadata !{i32 61, i32 30, metadata !1124, metadata !1122}
!1130 = metadata !{i32 786688, metadata !1118, metadata !"dummy", metadata !151, i32 58, metadata !1014, i32 0, metadata !1122} ; [ DW_TAG_auto_variable ]
!1131 = metadata !{i32 62, i32 9, metadata !1132, metadata !1122}
!1132 = metadata !{i32 786443, metadata !1124, i32 61, i32 36, metadata !151, i32 4} ; [ DW_TAG_lexical_block ]
!1133 = metadata !{i32 790529, metadata !1134, metadata !"ctr.V", null, i32 59, metadata !1107, i32 0, metadata !1128} ; [ DW_TAG_auto_variable_field ]
!1134 = metadata !{i32 786688, metadata !1118, metadata !"ctr", metadata !151, i32 59, metadata !1019, i32 0, i32 0} ; [ DW_TAG_auto_variable ]
!1135 = metadata !{i32 133, i32 2, metadata !114, null}
!1136 = metadata !{i32 138, i32 2, metadata !114, null}
!1137 = metadata !{i32 145, i32 3, metadata !1138, null}
!1138 = metadata !{i32 786443, metadata !114, i32 139, i32 2, metadata !81, i32 1} ; [ DW_TAG_lexical_block ]
!1139 = metadata !{i32 146, i32 3, metadata !1138, null}
!1140 = metadata !{i32 142, i32 3, metadata !1138, null}
!1141 = metadata !{i32 141, i32 3, metadata !1138, null}
!1142 = metadata !{i32 790529, metadata !1143, metadata !"sensorData[0]", null, i32 66, metadata !1147, i32 0, i32 0} ; [ DW_TAG_auto_variable_field ]
!1143 = metadata !{i32 786688, metadata !114, metadata !"sensorData", metadata !81, i32 66, metadata !1144, i32 0, i32 0} ; [ DW_TAG_auto_variable ]
!1144 = metadata !{i32 786433, null, metadata !"", null, i32 0, i64 96, i64 32, i32 0, i32 0, metadata !86, metadata !1145, i32 0, i32 0} ; [ DW_TAG_array_type ]
!1145 = metadata !{metadata !1146}
!1146 = metadata !{i32 786465, i64 0, i64 2}      ; [ DW_TAG_subrange_type ]
!1147 = metadata !{i32 786433, null, metadata !"", null, i32 0, i64 32, i64 32, i32 0, i32 0, metadata !86, metadata !1145, i32 0, i32 0} ; [ DW_TAG_array_type ]
!1148 = metadata !{i32 790529, metadata !1143, metadata !"sensorData[2]", null, i32 66, metadata !1147, i32 0, i32 0} ; [ DW_TAG_auto_variable_field ]
!1149 = metadata !{i32 790529, metadata !1143, metadata !"sensorData[1]", null, i32 66, metadata !1147, i32 0, i32 0} ; [ DW_TAG_auto_variable_field ]
!1150 = metadata !{i32 786688, metadata !114, metadata !"index", metadata !81, i32 136, metadata !189, i32 0, i32 0} ; [ DW_TAG_auto_variable ]
!1151 = metadata !{i32 57, i32 1, metadata !1118, metadata !1152}
!1152 = metadata !{i32 144, i32 3, metadata !1138, null}
!1153 = metadata !{i32 61, i32 10, metadata !1124, metadata !1152}
!1154 = metadata !{i32 2042, i32 5, metadata !162, metadata !1155}
!1155 = metadata !{i32 61, i32 19, metadata !1124, metadata !1152}
!1156 = metadata !{i32 1879, i32 145, metadata !1007, metadata !1157}
!1157 = metadata !{i32 1896, i32 5, metadata !1010, metadata !1158}
!1158 = metadata !{i32 61, i32 30, metadata !1124, metadata !1152}
!1159 = metadata !{i32 786688, metadata !1118, metadata !"dummy", metadata !151, i32 58, metadata !1014, i32 0, metadata !1152} ; [ DW_TAG_auto_variable ]
!1160 = metadata !{i32 62, i32 9, metadata !1132, metadata !1152}
!1161 = metadata !{i32 790529, metadata !1134, metadata !"ctr.V", null, i32 59, metadata !1107, i32 0, metadata !1157} ; [ DW_TAG_auto_variable_field ]
!1162 = metadata !{i32 147, i32 2, metadata !1138, null}
!1163 = metadata !{i32 149, i32 2, metadata !114, null}
!1164 = metadata !{i32 150, i32 2, metadata !114, null}
!1165 = metadata !{i32 151, i32 2, metadata !114, null}
!1166 = metadata !{i32 153, i32 1, metadata !114, null}
